Archive member included to satisfy reference by file (symbol)

C:/Program Files (x86)/Arm/GNU Toolchain mingw-w64-i686-arm-none-eabi/bin/../lib/gcc/arm-none-eabi/15.2.1/../../../../arm-none-eabi/lib/thumb/v7e-m+fp/hard\libc_nano.a(libc_a-exit.o)
                              C:/Program Files (x86)/Arm/GNU Toolchain mingw-w64-i686-arm-none-eabi/bin/../lib/gcc/arm-none-eabi/15.2.1/../../../../arm-none-eabi/lib/thumb/v7e-m+fp/hard/crt0.o (exit)
C:/Program Files (x86)/Arm/GNU Toolchain mingw-w64-i686-arm-none-eabi/bin/../lib/gcc/arm-none-eabi/15.2.1/../../../../arm-none-eabi/lib/thumb/v7e-m+fp/hard\libc_nano.a(libc_a-findfp.o)
                              C:/Program Files (x86)/Arm/GNU Toolchain mingw-w64-i686-arm-none-eabi/bin/../lib/gcc/arm-none-eabi/15.2.1/../../../../arm-none-eabi/lib/thumb/v7e-m+fp/hard\libc_nano.a(libc_a-exit.o) (__stdio_exit_handler)
C:/Program Files (x86)/Arm/GNU Toolchain mingw-w64-i686-arm-none-eabi/bin/../lib/gcc/arm-none-eabi/15.2.1/../../../../arm-none-eabi/lib/thumb/v7e-m+fp/hard\libc_nano.a(libc_a-fwalk.o)
                              C:/Program Files (x86)/Arm/GNU Toolchain mingw-w64-i686-arm-none-eabi/bin/../lib/gcc/arm-none-eabi/15.2.1/../../../../arm-none-eabi/lib/thumb/v7e-m+fp/hard\libc_nano.a(libc_a-findfp.o) (_fwalk_sglue)
C:/Program Files (x86)/Arm/GNU Toolchain mingw-w64-i686-arm-none-eabi/bin/../lib/gcc/arm-none-eabi/15.2.1/../../../../arm-none-eabi/lib/thumb/v7e-m+fp/hard\libc_nano.a(libc_a-printf.o)
                              build/freertos_app.o (printf)
C:/Program Files (x86)/Arm/GNU Toolchain mingw-w64-i686-arm-none-eabi/bin/../lib/gcc/arm-none-eabi/15.2.1/../../../../arm-none-eabi/lib/thumb/v7e-m+fp/hard\libc_nano.a(libc_a-puts.o)
                              build/freertos_app.o (puts)
C:/Program Files (x86)/Arm/GNU Toolchain mingw-w64-i686-arm-none-eabi/bin/../lib/gcc/arm-none-eabi/15.2.1/../../../../arm-none-eabi/lib/thumb/v7e-m+fp/hard\libc_nano.a(libc_a-stdio.o)
                              C:/Program Files (x86)/Arm/GNU Toolchain mingw-w64-i686-arm-none-eabi/bin/../lib/gcc/arm-none-eabi/15.2.1/../../../../arm-none-eabi/lib/thumb/v7e-m+fp/hard\libc_nano.a(libc_a-findfp.o) (__sread)
C:/Program Files (x86)/Arm/GNU Toolchain mingw-w64-i686-arm-none-eabi/bin/../lib/gcc/arm-none-eabi/15.2.1/../../../../arm-none-eabi/lib/thumb/v7e-m+fp/hard\libc_nano.a(libc_a-wbuf.o)
                              C:/Program Files (x86)/Arm/GNU Toolchain mingw-w64-i686-arm-none-eabi/bin/../lib/gcc/arm-none-eabi/15.2.1/../../../../arm-none-eabi/lib/thumb/v7e-m+fp/hard\libc_nano.a(libc_a-puts.o) (__swbuf_r)
C:/Program Files (x86)/Arm/GNU Toolchain mingw-w64-i686-arm-none-eabi/bin/../lib/gcc/arm-none-eabi/15.2.1/../../../../arm-none-eabi/lib/thumb/v7e-m+fp/hard\libc_nano.a(libc_a-wsetup.o)
                              C:/Program Files (x86)/Arm/GNU Toolchain mingw-w64-i686-arm-none-eabi/bin/../lib/gcc/arm-none-eabi/15.2.1/../../../../arm-none-eabi/lib/thumb/v7e-m+fp/hard\libc_nano.a(libc_a-puts.o) (__swsetup_r)
C:/Program Files (x86)/Arm/GNU Toolchain mingw-w64-i686-arm-none-eabi/bin/../lib/gcc/arm-none-eabi/15.2.1/../../../../arm-none-eabi/lib/thumb/v7e-m+fp/hard\libc_nano.a(libc_a-memmove.o)
                              build/usb_cdc.o (memmove)
C:/Program Files (x86)/Arm/GNU Toolchain mingw-w64-i686-arm-none-eabi/bin/../lib/gcc/arm-none-eabi/15.2.1/../../../../arm-none-eabi/lib/thumb/v7e-m+fp/hard\libc_nano.a(libc_a-closer.o)
                              C:/Program Files (x86)/Arm/GNU Toolchain mingw-w64-i686-arm-none-eabi/bin/../lib/gcc/arm-none-eabi/15.2.1/../../../../arm-none-eabi/lib/thumb/v7e-m+fp/hard\libc_nano.a(libc_a-stdio.o) (_close_r)
C:/Program Files (x86)/Arm/GNU Toolchain mingw-w64-i686-arm-none-eabi/bin/../lib/gcc/arm-none-eabi/15.2.1/../../../../arm-none-eabi/lib/thumb/v7e-m+fp/hard\libc_nano.a(libc_a-reent.o)
                              C:/Program Files (x86)/Arm/GNU Toolchain mingw-w64-i686-arm-none-eabi/bin/../lib/gcc/arm-none-eabi/15.2.1/../../../../arm-none-eabi/lib/thumb/v7e-m+fp/hard\libc_nano.a(libc_a-closer.o) (errno)
C:/Program Files (x86)/Arm/GNU Toolchain mingw-w64-i686-arm-none-eabi/bin/../lib/gcc/arm-none-eabi/15.2.1/../../../../arm-none-eabi/lib/thumb/v7e-m+fp/hard\libc_nano.a(libc_a-impure.o)
                              C:/Program Files (x86)/Arm/GNU Toolchain mingw-w64-i686-arm-none-eabi/bin/../lib/gcc/arm-none-eabi/15.2.1/../../../../arm-none-eabi/lib/thumb/v7e-m+fp/hard\libc_nano.a(libc_a-printf.o) (_impure_ptr)
C:/Program Files (x86)/Arm/GNU Toolchain mingw-w64-i686-arm-none-eabi/bin/../lib/gcc/arm-none-eabi/15.2.1/../../../../arm-none-eabi/lib/thumb/v7e-m+fp/hard\libc_nano.a(libc_a-lseekr.o)
                              C:/Program Files (x86)/Arm/GNU Toolchain mingw-w64-i686-arm-none-eabi/bin/../lib/gcc/arm-none-eabi/15.2.1/../../../../arm-none-eabi/lib/thumb/v7e-m+fp/hard\libc_nano.a(libc_a-stdio.o) (_lseek_r)
C:/Program Files (x86)/Arm/GNU Toolchain mingw-w64-i686-arm-none-eabi/bin/../lib/gcc/arm-none-eabi/15.2.1/../../../../arm-none-eabi/lib/thumb/v7e-m+fp/hard\libc_nano.a(libc_a-readr.o)
                              C:/Program Files (x86)/Arm/GNU Toolchain mingw-w64-i686-arm-none-eabi/bin/../lib/gcc/arm-none-eabi/15.2.1/../../../../arm-none-eabi/lib/thumb/v7e-m+fp/hard\libc_nano.a(libc_a-stdio.o) (_read_r)
C:/Program Files (x86)/Arm/GNU Toolchain mingw-w64-i686-arm-none-eabi/bin/../lib/gcc/arm-none-eabi/15.2.1/../../../../arm-none-eabi/lib/thumb/v7e-m+fp/hard\libc_nano.a(libc_a-writer.o)
                              C:/Program Files (x86)/Arm/GNU Toolchain mingw-w64-i686-arm-none-eabi/bin/../lib/gcc/arm-none-eabi/15.2.1/../../../../arm-none-eabi/lib/thumb/v7e-m+fp/hard\libc_nano.a(libc_a-stdio.o) (_write_r)
C:/Program Files (x86)/Arm/GNU Toolchain mingw-w64-i686-arm-none-eabi/bin/../lib/gcc/arm-none-eabi/15.2.1/../../../../arm-none-eabi/lib/thumb/v7e-m+fp/hard\libc_nano.a(libc_a-errno.o)
                              build/syscalls.o (__errno)
C:/Program Files (x86)/Arm/GNU Toolchain mingw-w64-i686-arm-none-eabi/bin/../lib/gcc/arm-none-eabi/15.2.1/../../../../arm-none-eabi/lib/thumb/v7e-m+fp/hard\libc_nano.a(libc_a-init.o)
                              C:/Program Files (x86)/Arm/GNU Toolchain mingw-w64-i686-arm-none-eabi/bin/../lib/gcc/arm-none-eabi/15.2.1/../../../../arm-none-eabi/lib/thumb/v7e-m+fp/hard/crt0.o (__libc_init_array)
C:/Program Files (x86)/Arm/GNU Toolchain mingw-w64-i686-arm-none-eabi/bin/../lib/gcc/arm-none-eabi/15.2.1/../../../../arm-none-eabi/lib/thumb/v7e-m+fp/hard\libc_nano.a(libc_a-lock.o)
                              C:/Program Files (x86)/Arm/GNU Toolchain mingw-w64-i686-arm-none-eabi/bin/../lib/gcc/arm-none-eabi/15.2.1/../../../../arm-none-eabi/lib/thumb/v7e-m+fp/hard\libc_nano.a(libc_a-findfp.o) (__retarget_lock_init_recursive)
C:/Program Files (x86)/Arm/GNU Toolchain mingw-w64-i686-arm-none-eabi/bin/../lib/gcc/arm-none-eabi/15.2.1/../../../../arm-none-eabi/lib/thumb/v7e-m+fp/hard\libc_nano.a(libc_a-freer.o)
                              C:/Program Files (x86)/Arm/GNU Toolchain mingw-w64-i686-arm-none-eabi/bin/../lib/gcc/arm-none-eabi/15.2.1/../../../../arm-none-eabi/lib/thumb/v7e-m+fp/hard\libc_nano.a(libc_a-wsetup.o) (_free_r)
C:/Program Files (x86)/Arm/GNU Toolchain mingw-w64-i686-arm-none-eabi/bin/../lib/gcc/arm-none-eabi/15.2.1/../../../../arm-none-eabi/lib/thumb/v7e-m+fp/hard\libc_nano.a(libc_a-mallocr.o)
                              C:/Program Files (x86)/Arm/GNU Toolchain mingw-w64-i686-arm-none-eabi/bin/../lib/gcc/arm-none-eabi/15.2.1/../../../../arm-none-eabi/lib/thumb/v7e-m+fp/hard\libc_nano.a(libc_a-findfp.o) (_malloc_r)
C:/Program Files (x86)/Arm/GNU Toolchain mingw-w64-i686-arm-none-eabi/bin/../lib/gcc/arm-none-eabi/15.2.1/../../../../arm-none-eabi/lib/thumb/v7e-m+fp/hard\libc_nano.a(libc_a-mlock.o)
                              C:/Program Files (x86)/Arm/GNU Toolchain mingw-w64-i686-arm-none-eabi/bin/../lib/gcc/arm-none-eabi/15.2.1/../../../../arm-none-eabi/lib/thumb/v7e-m+fp/hard\libc_nano.a(libc_a-freer.o) (__malloc_lock)
C:/Program Files (x86)/Arm/GNU Toolchain mingw-w64-i686-arm-none-eabi/bin/../lib/gcc/arm-none-eabi/15.2.1/../../../../arm-none-eabi/lib/thumb/v7e-m+fp/hard\libc_nano.a(libc_a-nano-vfprintf.o)
                              C:/Program Files (x86)/Arm/GNU Toolchain mingw-w64-i686-arm-none-eabi/bin/../lib/gcc/arm-none-eabi/15.2.1/../../../../arm-none-eabi/lib/thumb/v7e-m+fp/hard\libc_nano.a(libc_a-printf.o) (_vfprintf_r)
C:/Program Files (x86)/Arm/GNU Toolchain mingw-w64-i686-arm-none-eabi/bin/../lib/gcc/arm-none-eabi/15.2.1/../../../../arm-none-eabi/lib/thumb/v7e-m+fp/hard\libc_nano.a(libc_a-nano-vfprintf_i.o)
                              C:/Program Files (x86)/Arm/GNU Toolchain mingw-w64-i686-arm-none-eabi/bin/../lib/gcc/arm-none-eabi/15.2.1/../../../../arm-none-eabi/lib/thumb/v7e-m+fp/hard\libc_nano.a(libc_a-nano-vfprintf.o) (_printf_i)
C:/Program Files (x86)/Arm/GNU Toolchain mingw-w64-i686-arm-none-eabi/bin/../lib/gcc/arm-none-eabi/15.2.1/../../../../arm-none-eabi/lib/thumb/v7e-m+fp/hard\libc_nano.a(libc_a-fflush.o)
                              C:/Program Files (x86)/Arm/GNU Toolchain mingw-w64-i686-arm-none-eabi/bin/../lib/gcc/arm-none-eabi/15.2.1/../../../../arm-none-eabi/lib/thumb/v7e-m+fp/hard\libc_nano.a(libc_a-findfp.o) (_fflush_r)
C:/Program Files (x86)/Arm/GNU Toolchain mingw-w64-i686-arm-none-eabi/bin/../lib/gcc/arm-none-eabi/15.2.1/../../../../arm-none-eabi/lib/thumb/v7e-m+fp/hard\libc_nano.a(libc_a-fvwrite.o)
                              C:/Program Files (x86)/Arm/GNU Toolchain mingw-w64-i686-arm-none-eabi/bin/../lib/gcc/arm-none-eabi/15.2.1/../../../../arm-none-eabi/lib/thumb/v7e-m+fp/hard\libc_nano.a(libc_a-nano-vfprintf.o) (__sfvwrite_r)
C:/Program Files (x86)/Arm/GNU Toolchain mingw-w64-i686-arm-none-eabi/bin/../lib/gcc/arm-none-eabi/15.2.1/../../../../arm-none-eabi/lib/thumb/v7e-m+fp/hard\libc_nano.a(libc_a-makebuf.o)
                              C:/Program Files (x86)/Arm/GNU Toolchain mingw-w64-i686-arm-none-eabi/bin/../lib/gcc/arm-none-eabi/15.2.1/../../../../arm-none-eabi/lib/thumb/v7e-m+fp/hard\libc_nano.a(libc_a-wsetup.o) (__smakebuf_r)
C:/Program Files (x86)/Arm/GNU Toolchain mingw-w64-i686-arm-none-eabi/bin/../lib/gcc/arm-none-eabi/15.2.1/../../../../arm-none-eabi/lib/thumb/v7e-m+fp/hard\libc_nano.a(libc_a-fstatr.o)
                              C:/Program Files (x86)/Arm/GNU Toolchain mingw-w64-i686-arm-none-eabi/bin/../lib/gcc/arm-none-eabi/15.2.1/../../../../arm-none-eabi/lib/thumb/v7e-m+fp/hard\libc_nano.a(libc_a-makebuf.o) (_fstat_r)
C:/Program Files (x86)/Arm/GNU Toolchain mingw-w64-i686-arm-none-eabi/bin/../lib/gcc/arm-none-eabi/15.2.1/../../../../arm-none-eabi/lib/thumb/v7e-m+fp/hard\libc_nano.a(libc_a-isattyr.o)
                              C:/Program Files (x86)/Arm/GNU Toolchain mingw-w64-i686-arm-none-eabi/bin/../lib/gcc/arm-none-eabi/15.2.1/../../../../arm-none-eabi/lib/thumb/v7e-m+fp/hard\libc_nano.a(libc_a-makebuf.o) (_isatty_r)
C:/Program Files (x86)/Arm/GNU Toolchain mingw-w64-i686-arm-none-eabi/bin/../lib/gcc/arm-none-eabi/15.2.1/../../../../arm-none-eabi/lib/thumb/v7e-m+fp/hard\libc_nano.a(libc_a-sbrkr.o)
                              C:/Program Files (x86)/Arm/GNU Toolchain mingw-w64-i686-arm-none-eabi/bin/../lib/gcc/arm-none-eabi/15.2.1/../../../../arm-none-eabi/lib/thumb/v7e-m+fp/hard\libc_nano.a(libc_a-mallocr.o) (_sbrk_r)
C:/Program Files (x86)/Arm/GNU Toolchain mingw-w64-i686-arm-none-eabi/bin/../lib/gcc/arm-none-eabi/15.2.1/../../../../arm-none-eabi/lib/thumb/v7e-m+fp/hard\libc_nano.a(libc_a-memchr.o)
                              C:/Program Files (x86)/Arm/GNU Toolchain mingw-w64-i686-arm-none-eabi/bin/../lib/gcc/arm-none-eabi/15.2.1/../../../../arm-none-eabi/lib/thumb/v7e-m+fp/hard\libc_nano.a(libc_a-nano-vfprintf.o) (memchr)
C:/Program Files (x86)/Arm/GNU Toolchain mingw-w64-i686-arm-none-eabi/bin/../lib/gcc/arm-none-eabi/15.2.1/../../../../arm-none-eabi/lib/thumb/v7e-m+fp/hard\libc_nano.a(libc_a-reallocr.o)
                              C:/Program Files (x86)/Arm/GNU Toolchain mingw-w64-i686-arm-none-eabi/bin/../lib/gcc/arm-none-eabi/15.2.1/../../../../arm-none-eabi/lib/thumb/v7e-m+fp/hard\libc_nano.a(libc_a-fvwrite.o) (_realloc_r)
C:/Program Files (x86)/Arm/GNU Toolchain mingw-w64-i686-arm-none-eabi/bin/../lib/gcc/arm-none-eabi/15.2.1/../../../../arm-none-eabi/lib/thumb/v7e-m+fp/hard\libc_nano.a(libc_a-msizer.o)
                              C:/Program Files (x86)/Arm/GNU Toolchain mingw-w64-i686-arm-none-eabi/bin/../lib/gcc/arm-none-eabi/15.2.1/../../../../arm-none-eabi/lib/thumb/v7e-m+fp/hard\libc_nano.a(libc_a-reallocr.o) (_malloc_usable_size_r)
C:/Program Files (x86)/Arm/GNU Toolchain mingw-w64-i686-arm-none-eabi/bin/../lib/gcc/arm-none-eabi/15.2.1/../../../../arm-none-eabi/lib/thumb/v7e-m+fp/hard\libm.a(libm_a-w_atan2.o)
                              build/motor_foc.o (atan2)
C:/Program Files (x86)/Arm/GNU Toolchain mingw-w64-i686-arm-none-eabi/bin/../lib/gcc/arm-none-eabi/15.2.1/../../../../arm-none-eabi/lib/thumb/v7e-m+fp/hard\libm.a(libm_a-w_log.o)
                              build/motor_monitor.o (log)
C:/Program Files (x86)/Arm/GNU Toolchain mingw-w64-i686-arm-none-eabi/bin/../lib/gcc/arm-none-eabi/15.2.1/../../../../arm-none-eabi/lib/thumb/v7e-m+fp/hard\libm.a(libm_a-w_sqrt.o)
                              build/motor_foc.o (sqrt)
C:/Program Files (x86)/Arm/GNU Toolchain mingw-w64-i686-arm-none-eabi/bin/../lib/gcc/arm-none-eabi/15.2.1/../../../../arm-none-eabi/lib/thumb/v7e-m+fp/hard\libm.a(libm_a-s_cos.o)
                              build/motor_foc.o (cos)
C:/Program Files (x86)/Arm/GNU Toolchain mingw-w64-i686-arm-none-eabi/bin/../lib/gcc/arm-none-eabi/15.2.1/../../../../arm-none-eabi/lib/thumb/v7e-m+fp/hard\libm.a(libm_a-s_sin.o)
                              build/motor_foc.o (sin)
C:/Program Files (x86)/Arm/GNU Toolchain mingw-w64-i686-arm-none-eabi/bin/../lib/gcc/arm-none-eabi/15.2.1/../../../../arm-none-eabi/lib/thumb/v7e-m+fp/hard\libm.a(libm_a-s_nan.o)
                              C:/Program Files (x86)/Arm/GNU Toolchain mingw-w64-i686-arm-none-eabi/bin/../lib/gcc/arm-none-eabi/15.2.1/../../../../arm-none-eabi/lib/thumb/v7e-m+fp/hard\libm.a(libm_a-w_log.o) (nan)
C:/Program Files (x86)/Arm/GNU Toolchain mingw-w64-i686-arm-none-eabi/bin/../lib/gcc/arm-none-eabi/15.2.1/../../../../arm-none-eabi/lib/thumb/v7e-m+fp/hard\libm.a(libm_a-e_sqrt.o)
                              C:/Program Files (x86)/Arm/GNU Toolchain mingw-w64-i686-arm-none-eabi/bin/../lib/gcc/arm-none-eabi/15.2.1/../../../../arm-none-eabi/lib/thumb/v7e-m+fp/hard\libm.a(libm_a-w_sqrt.o) (__ieee754_sqrt)
C:/Program Files (x86)/Arm/GNU Toolchain mingw-w64-i686-arm-none-eabi/bin/../lib/gcc/arm-none-eabi/15.2.1/../../../../arm-none-eabi/lib/thumb/v7e-m+fp/hard\libm.a(libm_a-k_cos.o)
                              C:/Program Files (x86)/Arm/GNU Toolchain mingw-w64-i686-arm-none-eabi/bin/../lib/gcc/arm-none-eabi/15.2.1/../../../../arm-none-eabi/lib/thumb/v7e-m+fp/hard\libm.a(libm_a-s_cos.o) (__kernel_cos)
C:/Program Files (x86)/Arm/GNU Toolchain mingw-w64-i686-arm-none-eabi/bin/../lib/gcc/arm-none-eabi/15.2.1/../../../../arm-none-eabi/lib/thumb/v7e-m+fp/hard\libm.a(libm_a-k_sin.o)
                              C:/Program Files (x86)/Arm/GNU Toolchain mingw-w64-i686-arm-none-eabi/bin/../lib/gcc/arm-none-eabi/15.2.1/../../../../arm-none-eabi/lib/thumb/v7e-m+fp/hard\libm.a(libm_a-s_cos.o) (__kernel_sin)
C:/Program Files (x86)/Arm/GNU Toolchain mingw-w64-i686-arm-none-eabi/bin/../lib/gcc/arm-none-eabi/15.2.1/../../../../arm-none-eabi/lib/thumb/v7e-m+fp/hard\libm.a(libm_a-e_atan2.o)
                              C:/Program Files (x86)/Arm/GNU Toolchain mingw-w64-i686-arm-none-eabi/bin/../lib/gcc/arm-none-eabi/15.2.1/../../../../arm-none-eabi/lib/thumb/v7e-m+fp/hard\libm.a(libm_a-w_atan2.o) (__ieee754_atan2)
C:/Program Files (x86)/Arm/GNU Toolchain mingw-w64-i686-arm-none-eabi/bin/../lib/gcc/arm-none-eabi/15.2.1/../../../../arm-none-eabi/lib/thumb/v7e-m+fp/hard\libm.a(libm_a-e_log.o)
                              C:/Program Files (x86)/Arm/GNU Toolchain mingw-w64-i686-arm-none-eabi/bin/../lib/gcc/arm-none-eabi/15.2.1/../../../../arm-none-eabi/lib/thumb/v7e-m+fp/hard\libm.a(libm_a-w_log.o) (__ieee754_log)
C:/Program Files (x86)/Arm/GNU Toolchain mingw-w64-i686-arm-none-eabi/bin/../lib/gcc/arm-none-eabi/15.2.1/../../../../arm-none-eabi/lib/thumb/v7e-m+fp/hard\libm.a(libm_a-e_rem_pio2.o)
                              C:/Program Files (x86)/Arm/GNU Toolchain mingw-w64-i686-arm-none-eabi/bin/../lib/gcc/arm-none-eabi/15.2.1/../../../../arm-none-eabi/lib/thumb/v7e-m+fp/hard\libm.a(libm_a-s_cos.o) (__ieee754_rem_pio2)
C:/Program Files (x86)/Arm/GNU Toolchain mingw-w64-i686-arm-none-eabi/bin/../lib/gcc/arm-none-eabi/15.2.1/../../../../arm-none-eabi/lib/thumb/v7e-m+fp/hard\libm.a(libm_a-s_atan.o)
                              C:/Program Files (x86)/Arm/GNU Toolchain mingw-w64-i686-arm-none-eabi/bin/../lib/gcc/arm-none-eabi/15.2.1/../../../../arm-none-eabi/lib/thumb/v7e-m+fp/hard\libm.a(libm_a-e_atan2.o) (atan)
C:/Program Files (x86)/Arm/GNU Toolchain mingw-w64-i686-arm-none-eabi/bin/../lib/gcc/arm-none-eabi/15.2.1/../../../../arm-none-eabi/lib/thumb/v7e-m+fp/hard\libm.a(libm_a-s_fabs.o)
                              C:/Program Files (x86)/Arm/GNU Toolchain mingw-w64-i686-arm-none-eabi/bin/../lib/gcc/arm-none-eabi/15.2.1/../../../../arm-none-eabi/lib/thumb/v7e-m+fp/hard\libm.a(libm_a-e_atan2.o) (fabs)
C:/Program Files (x86)/Arm/GNU Toolchain mingw-w64-i686-arm-none-eabi/bin/../lib/gcc/arm-none-eabi/15.2.1/../../../../arm-none-eabi/lib/thumb/v7e-m+fp/hard\libm.a(libm_a-k_rem_pio2.o)
                              C:/Program Files (x86)/Arm/GNU Toolchain mingw-w64-i686-arm-none-eabi/bin/../lib/gcc/arm-none-eabi/15.2.1/../../../../arm-none-eabi/lib/thumb/v7e-m+fp/hard\libm.a(libm_a-e_rem_pio2.o) (__kernel_rem_pio2)
C:/Program Files (x86)/Arm/GNU Toolchain mingw-w64-i686-arm-none-eabi/bin/../lib/gcc/arm-none-eabi/15.2.1/../../../../arm-none-eabi/lib/thumb/v7e-m+fp/hard\libm.a(libm_a-s_scalbn.o)
                              C:/Program Files (x86)/Arm/GNU Toolchain mingw-w64-i686-arm-none-eabi/bin/../lib/gcc/arm-none-eabi/15.2.1/../../../../arm-none-eabi/lib/thumb/v7e-m+fp/hard\libm.a(libm_a-k_rem_pio2.o) (scalbn)
C:/Program Files (x86)/Arm/GNU Toolchain mingw-w64-i686-arm-none-eabi/bin/../lib/gcc/arm-none-eabi/15.2.1/../../../../arm-none-eabi/lib/thumb/v7e-m+fp/hard\libm.a(libm_a-s_floor.o)
                              C:/Program Files (x86)/Arm/GNU Toolchain mingw-w64-i686-arm-none-eabi/bin/../lib/gcc/arm-none-eabi/15.2.1/../../../../arm-none-eabi/lib/thumb/v7e-m+fp/hard\libm.a(libm_a-k_rem_pio2.o) (floor)
C:/Program Files (x86)/Arm/GNU Toolchain mingw-w64-i686-arm-none-eabi/bin/../lib/gcc/arm-none-eabi/15.2.1/thumb/v7e-m+fp/hard\libgcc.a(_arm_muldf3.o)
                              build/motor_foc.o (__aeabi_dmul)
C:/Program Files (x86)/Arm/GNU Toolchain mingw-w64-i686-arm-none-eabi/bin/../lib/gcc/arm-none-eabi/15.2.1/thumb/v7e-m+fp/hard\libgcc.a(_arm_addsubdf3.o)
                              build/motor_foc.o (__aeabi_dsub)
C:/Program Files (x86)/Arm/GNU Toolchain mingw-w64-i686-arm-none-eabi/bin/../lib/gcc/arm-none-eabi/15.2.1/thumb/v7e-m+fp/hard\libgcc.a(_arm_muldivdf3.o)
                              build/motor_foc.o (__aeabi_ddiv)
C:/Program Files (x86)/Arm/GNU Toolchain mingw-w64-i686-arm-none-eabi/bin/../lib/gcc/arm-none-eabi/15.2.1/thumb/v7e-m+fp/hard\libgcc.a(_arm_cmpdf2.o)
                              C:/Program Files (x86)/Arm/GNU Toolchain mingw-w64-i686-arm-none-eabi/bin/../lib/gcc/arm-none-eabi/15.2.1/../../../../arm-none-eabi/lib/thumb/v7e-m+fp/hard\libm.a(libm_a-w_log.o) (__aeabi_dcmpeq)
C:/Program Files (x86)/Arm/GNU Toolchain mingw-w64-i686-arm-none-eabi/bin/../lib/gcc/arm-none-eabi/15.2.1/thumb/v7e-m+fp/hard\libgcc.a(_arm_unorddf2.o)
                              C:/Program Files (x86)/Arm/GNU Toolchain mingw-w64-i686-arm-none-eabi/bin/../lib/gcc/arm-none-eabi/15.2.1/../../../../arm-none-eabi/lib/thumb/v7e-m+fp/hard\libm.a(libm_a-w_log.o) (__aeabi_dcmpun)
C:/Program Files (x86)/Arm/GNU Toolchain mingw-w64-i686-arm-none-eabi/bin/../lib/gcc/arm-none-eabi/15.2.1/thumb/v7e-m+fp/hard\libgcc.a(_arm_fixdfsi.o)
                              C:/Program Files (x86)/Arm/GNU Toolchain mingw-w64-i686-arm-none-eabi/bin/../lib/gcc/arm-none-eabi/15.2.1/../../../../arm-none-eabi/lib/thumb/v7e-m+fp/hard\libm.a(libm_a-k_cos.o) (__aeabi_d2iz)
C:/Program Files (x86)/Arm/GNU Toolchain mingw-w64-i686-arm-none-eabi/bin/../lib/gcc/arm-none-eabi/15.2.1/thumb/v7e-m+fp/hard\libgcc.a(_arm_fixunsdfsi.o)
                              build/motor_foc.o (__aeabi_d2uiz)
C:/Program Files (x86)/Arm/GNU Toolchain mingw-w64-i686-arm-none-eabi/bin/../lib/gcc/arm-none-eabi/15.2.1/thumb/v7e-m+fp/hard\libgcc.a(_arm_truncdfsf2.o)
                              build/motor_foc.o (__aeabi_d2f)

Discarded input sections

 .text          0x00000000        0x0 C:/Program Files (x86)/Arm/GNU Toolchain mingw-w64-i686-arm-none-eabi/bin/../lib/gcc/arm-none-eabi/15.2.1/thumb/v7e-m+fp/hard/crti.o
 .data          0x00000000        0x0 C:/Program Files (x86)/Arm/GNU Toolchain mingw-w64-i686-arm-none-eabi/bin/../lib/gcc/arm-none-eabi/15.2.1/thumb/v7e-m+fp/hard/crti.o
 .bss           0x00000000        0x0 C:/Program Files (x86)/Arm/GNU Toolchain mingw-w64-i686-arm-none-eabi/bin/../lib/gcc/arm-none-eabi/15.2.1/thumb/v7e-m+fp/hard/crti.o
 .text          0x00000000        0x0 C:/Program Files (x86)/Arm/GNU Toolchain mingw-w64-i686-arm-none-eabi/bin/../lib/gcc/arm-none-eabi/15.2.1/thumb/v7e-m+fp/hard/crtbegin.o
 .data          0x00000000        0x0 C:/Program Files (x86)/Arm/GNU Toolchain mingw-w64-i686-arm-none-eabi/bin/../lib/gcc/arm-none-eabi/15.2.1/thumb/v7e-m+fp/hard/crtbegin.o
 .bss           0x00000000        0x0 C:/Program Files (x86)/Arm/GNU Toolchain mingw-w64-i686-arm-none-eabi/bin/../lib/gcc/arm-none-eabi/15.2.1/thumb/v7e-m+fp/hard/crtbegin.o
 .rodata.all_implied_fbits
                0x00000000       0x24 C:/Program Files (x86)/Arm/GNU Toolchain mingw-w64-i686-arm-none-eabi/bin/../lib/gcc/arm-none-eabi/15.2.1/thumb/v7e-m+fp/hard/crtbegin.o
 .data.__dso_handle
                0x00000000        0x4 C:/Program Files (x86)/Arm/GNU Toolchain mingw-w64-i686-arm-none-eabi/bin/../lib/gcc/arm-none-eabi/15.2.1/thumb/v7e-m+fp/hard/crtbegin.o
 .text          0x00000000       0x7c C:/Program Files (x86)/Arm/GNU Toolchain mingw-w64-i686-arm-none-eabi/bin/../lib/gcc/arm-none-eabi/15.2.1/../../../../arm-none-eabi/lib/thumb/v7e-m+fp/hard/crt0.o
 .data          0x00000000        0x0 C:/Program Files (x86)/Arm/GNU Toolchain mingw-w64-i686-arm-none-eabi/bin/../lib/gcc/arm-none-eabi/15.2.1/../../../../arm-none-eabi/lib/thumb/v7e-m+fp/hard/crt0.o
 .bss           0x00000000        0x0 C:/Program Files (x86)/Arm/GNU Toolchain mingw-w64-i686-arm-none-eabi/bin/../lib/gcc/arm-none-eabi/15.2.1/../../../../arm-none-eabi/lib/thumb/v7e-m+fp/hard/crt0.o
 .ARM.extab     0x00000000        0x0 C:/Program Files (x86)/Arm/GNU Toolchain mingw-w64-i686-arm-none-eabi/bin/../lib/gcc/arm-none-eabi/15.2.1/../../../../arm-none-eabi/lib/thumb/v7e-m+fp/hard/crt0.o
 .ARM.exidx     0x00000000       0x10 C:/Program Files (x86)/Arm/GNU Toolchain mingw-w64-i686-arm-none-eabi/bin/../lib/gcc/arm-none-eabi/15.2.1/../../../../arm-none-eabi/lib/thumb/v7e-m+fp/hard/crt0.o
 .debug_line_str
                0x00000000       0xd6 C:/Program Files (x86)/Arm/GNU Toolchain mingw-w64-i686-arm-none-eabi/bin/../lib/gcc/arm-none-eabi/15.2.1/../../../../arm-none-eabi/lib/thumb/v7e-m+fp/hard/crt0.o
 .ARM.attributes
                0x00000000       0x20 C:/Program Files (x86)/Arm/GNU Toolchain mingw-w64-i686-arm-none-eabi/bin/../lib/gcc/arm-none-eabi/15.2.1/../../../../arm-none-eabi/lib/thumb/v7e-m+fp/hard/crt0.o
 .text          0x00000000        0x0 build/main.o
 .data          0x00000000        0x0 build/main.o
 .bss           0x00000000        0x0 build/main.o
 .text          0x00000000        0x0 build/syscalls.o
 .data          0x00000000        0x0 build/syscalls.o
 .bss           0x00000000        0x0 build/syscalls.o
 .text.initialise_monitor_handles
                0x00000000        0x2 build/syscalls.o
 .text._getpid  0x00000000        0x4 build/syscalls.o
 .text._kill    0x00000000       0x10 build/syscalls.o
 .text._exit    0x00000000        0xc build/syscalls.o
 .text._open    0x00000000        0xa build/syscalls.o
 .text._wait    0x00000000       0x10 build/syscalls.o
 .text._unlink  0x00000000       0x10 build/syscalls.o
 .text._times   0x00000000        0x6 build/syscalls.o
 .text._stat    0x00000000        0xa build/syscalls.o
 .text._link    0x00000000       0x10 build/syscalls.o
 .text._fork    0x00000000       0x10 build/syscalls.o
 .text._execve  0x00000000       0x10 build/syscalls.o
 .data.environ  0x00000000        0x4 build/syscalls.o
 .bss.__env     0x00000000        0x4 build/syscalls.o
 .text          0x00000000        0x0 build/sysmem.o
 .data          0x00000000        0x0 build/sysmem.o
 .bss           0x00000000        0x0 build/sysmem.o
 .text          0x00000000        0x0 build/at32f403a_407_wk_config.o
 .data          0x00000000        0x0 build/at32f403a_407_wk_config.o
 .bss           0x00000000        0x0 build/at32f403a_407_wk_config.o
 .text          0x00000000        0x0 build/at32f403a_407_int.o
 .data          0x00000000        0x0 build/at32f403a_407_int.o
 .bss           0x00000000        0x0 build/at32f403a_407_int.o
 .text          0x00000000        0x0 build/wk_system.o
 .data          0x00000000        0x0 build/wk_system.o
 .bss           0x00000000        0x0 build/wk_system.o
 .text.wk_delay_us
                0x00000000       0x30 build/wk_system.o
 .text.wk_delay_ms
                0x00000000       0x24 build/wk_system.o
 .text          0x00000000        0x0 build/wk_acc.o
 .data          0x00000000        0x0 build/wk_acc.o
 .bss           0x00000000        0x0 build/wk_acc.o
 .text          0x00000000        0x0 build/wk_adc.o
 .data          0x00000000        0x0 build/wk_adc.o
 .bss           0x00000000        0x0 build/wk_adc.o
 .text          0x00000000        0x0 build/wk_can.o
 .data          0x00000000        0x0 build/wk_can.o
 .bss           0x00000000        0x0 build/wk_can.o
 .text          0x00000000        0x0 build/wk_debug.o
 .data          0x00000000        0x0 build/wk_debug.o
 .bss           0x00000000        0x0 build/wk_debug.o
 .text          0x00000000        0x0 build/wk_spi.o
 .data          0x00000000        0x0 build/wk_spi.o
 .bss           0x00000000        0x0 build/wk_spi.o
 .text          0x00000000        0x0 build/wk_tmr.o
 .data          0x00000000        0x0 build/wk_tmr.o
 .bss           0x00000000        0x0 build/wk_tmr.o
 .text          0x00000000        0x0 build/wk_usbfs.o
 .data          0x00000000        0x0 build/wk_usbfs.o
 .bss           0x00000000        0x0 build/wk_usbfs.o
 .text          0x00000000        0x0 build/wk_dma.o
 .data          0x00000000        0x0 build/wk_dma.o
 .bss           0x00000000        0x0 build/wk_dma.o
 .text          0x00000000        0x0 build/wk_gpio.o
 .data          0x00000000        0x0 build/wk_gpio.o
 .bss           0x00000000        0x0 build/wk_gpio.o
 .text          0x00000000        0x0 build/usb_app.o
 .data          0x00000000        0x0 build/usb_app.o
 .bss           0x00000000        0x0 build/usb_app.o
 .text.usb_delay_ms
                0x00000000        0x8 build/usb_app.o
 .text          0x00000000        0x0 build/freertos_app.o
 .data          0x00000000        0x0 build/freertos_app.o
 .bss           0x00000000        0x0 build/freertos_app.o
 .text          0x00000000        0x0 build/cdc_class.o
 .data          0x00000000        0x0 build/cdc_class.o
 .bss           0x00000000        0x0 build/cdc_class.o
 .text          0x00000000        0x0 build/cdc_desc.o
 .data          0x00000000        0x0 build/cdc_desc.o
 .bss           0x00000000        0x0 build/cdc_desc.o
 .text          0x00000000        0x0 build/system_at32f403a_407.o
 .data          0x00000000        0x0 build/system_at32f403a_407.o
 .bss           0x00000000        0x0 build/system_at32f403a_407.o
 .text          0x00000000        0x0 build/at32f403a_407_crm.o
 .data          0x00000000        0x0 build/at32f403a_407_crm.o
 .bss           0x00000000        0x0 build/at32f403a_407_crm.o
 .text.crm_lext_bypass
                0x00000000       0x10 build/at32f403a_407_crm.o
 .text.crm_hext_bypass
                0x00000000       0x10 build/at32f403a_407_crm.o
 .text.crm_interrupt_flag_get
                0x00000000       0xfc build/at32f403a_407_crm.o
 .text.crm_hick_clock_trimming_set
                0x00000000       0x10 build/at32f403a_407_crm.o
 .text.crm_hick_clock_calibration_set
                0x00000000       0x24 build/at32f403a_407_crm.o
 .text.crm_periph_sleep_mode_clock_enable
                0x00000000       0x38 build/at32f403a_407_crm.o
 .text.crm_flag_clear
                0x00000000       0xb0 build/at32f403a_407_crm.o
 .text.crm_rtc_clock_select
                0x00000000       0x10 build/at32f403a_407_crm.o
 .text.crm_rtc_clock_enable
                0x00000000       0x10 build/at32f403a_407_crm.o
 .text.crm_usb_clock_div_set
                0x00000000       0x1c build/at32f403a_407_crm.o
 .text.crm_clock_failure_detection_enable
                0x00000000       0x10 build/at32f403a_407_crm.o
 .text.crm_battery_powered_domain_reset
                0x00000000       0x10 build/at32f403a_407_crm.o
 .text.crm_clock_out_set
                0x00000000       0x1c build/at32f403a_407_crm.o
 .text.crm_interrupt_enable
                0x00000000       0x20 build/at32f403a_407_crm.o
 .text.crm_clkout_to_tmr10_enable
                0x00000000       0x10 build/at32f403a_407_crm.o
 .text.crm_hext_clock_div_set
                0x00000000       0x10 build/at32f403a_407_crm.o
 .text.crm_clkout_div_set
                0x00000000       0x10 build/at32f403a_407_crm.o
 .text          0x00000000        0x0 build/at32f403a_407_tmr.o
 .data          0x00000000        0x0 build/at32f403a_407_tmr.o
 .bss           0x00000000        0x0 build/at32f403a_407_tmr.o
 .text.tmr_reset
                0x00000000      0x1c0 build/at32f403a_407_tmr.o
 .text.tmr_output_default_para_init
                0x00000000       0x12 build/at32f403a_407_tmr.o
 .text.tmr_input_default_para_init
                0x00000000        0xe build/at32f403a_407_tmr.o
 .text.tmr_brkdt_default_para_init
                0x00000000       0x12 build/at32f403a_407_tmr.o
 .text.tmr_counter_value_set
                0x00000000        0x4 build/at32f403a_407_tmr.o
 .text.tmr_counter_value_get
                0x00000000        0x4 build/at32f403a_407_tmr.o
 .text.tmr_div_value_set
                0x00000000        0x4 build/at32f403a_407_tmr.o
 .text.tmr_div_value_get
                0x00000000        0x4 build/at32f403a_407_tmr.o
 .text.tmr_output_channel_mode_select
                0x00000000       0x3c build/at32f403a_407_tmr.o
 .text.tmr_period_value_set
                0x00000000        0x4 build/at32f403a_407_tmr.o
 .text.tmr_period_value_get
                0x00000000        0x4 build/at32f403a_407_tmr.o
 .text.tmr_channel_value_get
                0x00000000       0x28 build/at32f403a_407_tmr.o
 .text.tmr_output_channel_switch_set
                0x00000000       0x3c build/at32f403a_407_tmr.o
 .text.tmr_one_cycle_mode_enable
                0x00000000        0xa build/at32f403a_407_tmr.o
 .text.tmr_32_bit_function_enable
                0x00000000       0x1c build/at32f403a_407_tmr.o
 .text.tmr_overflow_request_source_set
                0x00000000        0xa build/at32f403a_407_tmr.o
 .text.tmr_overflow_event_disable
                0x00000000        0xa build/at32f403a_407_tmr.o
 .text.tmr_input_channel_init
                0x00000000      0x13e build/at32f403a_407_tmr.o
 .text.tmr_channel_enable
                0x00000000       0x66 build/at32f403a_407_tmr.o
 .text.tmr_input_channel_filter_set
                0x00000000       0x3c build/at32f403a_407_tmr.o
 .text.tmr_pwm_input_config
                0x00000000      0x172 build/at32f403a_407_tmr.o
 .text.tmr_channel1_input_select
                0x00000000        0xa build/at32f403a_407_tmr.o
 .text.tmr_input_channel_divider_set
                0x00000000       0x3c build/at32f403a_407_tmr.o
 .text.tmr_sub_mode_select
                0x00000000        0xa build/at32f403a_407_tmr.o
 .text.tmr_channel_dma_select
                0x00000000        0xa build/at32f403a_407_tmr.o
 .text.tmr_hall_select
                0x00000000        0xa build/at32f403a_407_tmr.o
 .text.tmr_channel_buffer_enable
                0x00000000        0xa build/at32f403a_407_tmr.o
 .text.tmr_trigger_input_select
                0x00000000        0xa build/at32f403a_407_tmr.o
 .text.tmr_dma_request_enable
                0x00000000       0x18 build/at32f403a_407_tmr.o
 .text.tmr_interrupt_enable
                0x00000000       0x18 build/at32f403a_407_tmr.o
 .text.tmr_interrupt_flag_get
                0x00000000       0x18 build/at32f403a_407_tmr.o
 .text.tmr_flag_get
                0x00000000        0xe build/at32f403a_407_tmr.o
 .text.tmr_flag_clear
                0x00000000        0x6 build/at32f403a_407_tmr.o
 .text.tmr_event_sw_trigger
                0x00000000        0x8 build/at32f403a_407_tmr.o
 .text.tmr_internal_clock_set
                0x00000000        0xa build/at32f403a_407_tmr.o
 .text.tmr_output_channel_polarity_set
                0x00000000       0x66 build/at32f403a_407_tmr.o
 .text.tmr_external_clock_config
                0x00000000       0x1c build/at32f403a_407_tmr.o
 .text.tmr_external_clock_mode1_config
                0x00000000       0x1a build/at32f403a_407_tmr.o
 .text.tmr_external_clock_mode2_config
                0x00000000       0x12 build/at32f403a_407_tmr.o
 .text.tmr_encoder_mode_config
                0x00000000       0x56 build/at32f403a_407_tmr.o
 .text.tmr_force_output_set
                0x00000000       0x3c build/at32f403a_407_tmr.o
 .text.tmr_dma_control_config
                0x00000000       0x12 build/at32f403a_407_tmr.o
 .text          0x00000000        0x0 build/at32f403a_407_gpio.o
 .data          0x00000000        0x0 build/at32f403a_407_gpio.o
 .bss           0x00000000        0x0 build/at32f403a_407_gpio.o
 .text.gpio_reset
                0x00000000       0xa4 build/at32f403a_407_gpio.o
 .text.gpio_iomux_reset
                0x00000000       0x18 build/at32f403a_407_gpio.o
 .text.gpio_input_data_bit_read
                0x00000000        0xe build/at32f403a_407_gpio.o
 .text.gpio_input_data_read
                0x00000000        0x6 build/at32f403a_407_gpio.o
 .text.gpio_output_data_bit_read
                0x00000000        0xe build/at32f403a_407_gpio.o
 .text.gpio_output_data_read
                0x00000000        0x6 build/at32f403a_407_gpio.o
 .text.gpio_bits_set
                0x00000000        0x4 build/at32f403a_407_gpio.o
 .text.gpio_bits_write
                0x00000000        0xa build/at32f403a_407_gpio.o
 .text.gpio_port_write
                0x00000000        0x4 build/at32f403a_407_gpio.o
 .text.gpio_pin_wp_config
                0x00000000       0x10 build/at32f403a_407_gpio.o
 .text.gpio_pins_huge_driven_config
                0x00000000       0x14 build/at32f403a_407_gpio.o
 .text.gpio_event_output_config
                0x00000000       0x18 build/at32f403a_407_gpio.o
 .text.gpio_event_output_enable
                0x00000000       0x10 build/at32f403a_407_gpio.o
 .text.gpio_exint_line_config
                0x00000000       0x84 build/at32f403a_407_gpio.o
 .text          0x00000000        0x0 build/at32f403a_407_pwc.o
 .data          0x00000000        0x0 build/at32f403a_407_pwc.o
 .bss           0x00000000        0x0 build/at32f403a_407_pwc.o
 .text.pwc_reset
                0x00000000       0x1c build/at32f403a_407_pwc.o
 .text.pwc_battery_powered_domain_access
                0x00000000       0x10 build/at32f403a_407_pwc.o
 .text.pwc_pvm_level_select
                0x00000000       0x10 build/at32f403a_407_pwc.o
 .text.pwc_power_voltage_monitor_enable
                0x00000000       0x10 build/at32f403a_407_pwc.o
 .text.pwc_wakeup_pin_enable
                0x00000000       0x20 build/at32f403a_407_pwc.o
 .text.pwc_flag_clear
                0x00000000       0x28 build/at32f403a_407_pwc.o
 .text.pwc_flag_get
                0x00000000       0x14 build/at32f403a_407_pwc.o
 .text.pwc_sleep_mode_enter
                0x00000000       0x20 build/at32f403a_407_pwc.o
 .text.pwc_deep_sleep_mode_enter
                0x00000000       0x2c build/at32f403a_407_pwc.o
 .text.pwc_voltage_regulate_set
                0x00000000       0x10 build/at32f403a_407_pwc.o
 .text.pwc_standby_mode_enter
                0x00000000       0x28 build/at32f403a_407_pwc.o
 .debug_info    0x00000000      0x8ea build/at32f403a_407_pwc.o
 .debug_abbrev  0x00000000      0x22a build/at32f403a_407_pwc.o
 .debug_loc     0x00000000       0x91 build/at32f403a_407_pwc.o
 .debug_aranges
                0x00000000       0x70 build/at32f403a_407_pwc.o
 .debug_ranges  0x00000000       0x60 build/at32f403a_407_pwc.o
 .debug_line    0x00000000      0x3a4 build/at32f403a_407_pwc.o
 .debug_str     0x00000000      0x9b3 build/at32f403a_407_pwc.o
 .comment       0x00000000       0x46 build/at32f403a_407_pwc.o
 .debug_frame   0x00000000       0xc8 build/at32f403a_407_pwc.o
 .ARM.attributes
                0x00000000       0x34 build/at32f403a_407_pwc.o
 .text          0x00000000        0x0 build/at32f403a_407_adc.o
 .data          0x00000000        0x0 build/at32f403a_407_adc.o
 .bss           0x00000000        0x0 build/at32f403a_407_adc.o
 .text.adc_interrupt_enable
                0x00000000       0x18 build/at32f403a_407_adc.o
 .text.adc_voltage_monitor_enable
                0x00000000       0x20 build/at32f403a_407_adc.o
 .text.adc_voltage_monitor_threshold_value_set
                0x00000000       0x12 build/at32f403a_407_adc.o
 .text.adc_voltage_monitor_single_channel_select
                0x00000000        0xa build/at32f403a_407_adc.o
 .text.adc_preempt_channel_length_set
                0x00000000        0xc build/at32f403a_407_adc.o
 .text.adc_preempt_channel_set
                0x00000000       0x8c build/at32f403a_407_adc.o
 .text.adc_preempt_conversion_trigger_set
                0x00000000       0x30 build/at32f403a_407_adc.o
 .text.adc_preempt_offset_value_set
                0x00000000       0x3c build/at32f403a_407_adc.o
 .text.adc_ordinary_part_count_set
                0x00000000        0xc build/at32f403a_407_adc.o
 .text.adc_preempt_part_mode_enable
                0x00000000        0xa build/at32f403a_407_adc.o
 .text.adc_preempt_auto_mode_enable
                0x00000000        0xa build/at32f403a_407_adc.o
 .text.adc_tempersensor_vintrv_enable
                0x00000000       0x10 build/at32f403a_407_adc.o
 .text.adc_ordinary_software_trigger_status_get
                0x00000000       0x10 build/at32f403a_407_adc.o
 .text.adc_preempt_software_trigger_enable
                0x00000000        0xa build/at32f403a_407_adc.o
 .text.adc_preempt_software_trigger_status_get
                0x00000000       0x10 build/at32f403a_407_adc.o
 .text.adc_ordinary_conversion_data_get
                0x00000000        0x6 build/at32f403a_407_adc.o
 .text.adc_combine_ordinary_conversion_data_get
                0x00000000        0xc build/at32f403a_407_adc.o
 .text.adc_preempt_conversion_data_get
                0x00000000       0x30 build/at32f403a_407_adc.o
 .text.adc_flag_get
                0x00000000        0xe build/at32f403a_407_adc.o
 .text.adc_interrupt_flag_get
                0x00000000       0x64 build/at32f403a_407_adc.o
 .text.adc_flag_clear
                0x00000000        0x6 build/at32f403a_407_adc.o
 .text          0x00000000        0x0 build/at32f403a_407_spi.o
 .data          0x00000000        0x0 build/at32f403a_407_spi.o
 .bss           0x00000000        0x0 build/at32f403a_407_spi.o
 .text.spi_i2s_reset
                0x00000000       0x80 build/at32f403a_407_spi.o
 .text.spi_crc_next_transmit
                0x00000000        0xa build/at32f403a_407_spi.o
 .text.spi_crc_polynomial_set
                0x00000000        0xa build/at32f403a_407_spi.o
 .text.spi_crc_polynomial_get
                0x00000000        0x6 build/at32f403a_407_spi.o
 .text.spi_crc_enable
                0x00000000        0xa build/at32f403a_407_spi.o
 .text.spi_crc_value_get
                0x00000000       0x10 build/at32f403a_407_spi.o
 .text.spi_software_cs_internal_level_set
                0x00000000        0xa build/at32f403a_407_spi.o
 .text.spi_frame_bit_num_set
                0x00000000        0xa build/at32f403a_407_spi.o
 .text.spi_half_duplex_direction_set
                0x00000000        0xa build/at32f403a_407_spi.o
 .text.i2s_default_para_init
                0x00000000       0x14 build/at32f403a_407_spi.o
 .text.i2s_init
                0x00000000      0x208 build/at32f403a_407_spi.o
 .text.i2s_enable
                0x00000000        0xa build/at32f403a_407_spi.o
 .text.spi_i2s_interrupt_enable
                0x00000000       0x14 build/at32f403a_407_spi.o
 .text.spi_i2s_dma_transmitter_enable
                0x00000000        0xa build/at32f403a_407_spi.o
 .text.spi_i2s_dma_receiver_enable
                0x00000000        0xa build/at32f403a_407_spi.o
 .text.spi_i2s_data_transmit
                0x00000000        0x4 build/at32f403a_407_spi.o
 .text.spi_i2s_data_receive
                0x00000000        0x6 build/at32f403a_407_spi.o
 .text.spi_i2s_flag_get
                0x00000000        0xe build/at32f403a_407_spi.o
 .text.spi_i2s_interrupt_flag_get
                0x00000000       0xca build/at32f403a_407_spi.o
 .text.spi_i2s_flag_clear
                0x00000000       0x34 build/at32f403a_407_spi.o
 .text          0x00000000        0x0 build/at32f403a_407_dma.o
 .data          0x00000000        0x0 build/at32f403a_407_dma.o
 .bss           0x00000000        0x0 build/at32f403a_407_dma.o
 .text.dma_data_number_set
                0x00000000        0x4 build/at32f403a_407_dma.o
 .text.dma_data_number_get
                0x00000000        0x6 build/at32f403a_407_dma.o
 .text          0x00000000        0x0 build/at32f403a_407_flash.o
 .data          0x00000000        0x0 build/at32f403a_407_flash.o
 .bss           0x00000000        0x0 build/at32f403a_407_flash.o
 .text.flash_flag_get
                0x00000000       0x6c build/at32f403a_407_flash.o
 .text.flash_flag_clear
                0x00000000       0x30 build/at32f403a_407_flash.o
 .text.flash_operation_status_get
                0x00000000       0x34 build/at32f403a_407_flash.o
 .text.flash_bank1_operation_status_get
                0x00000000       0x34 build/at32f403a_407_flash.o
 .text.flash_bank2_operation_status_get
                0x00000000       0x34 build/at32f403a_407_flash.o
 .text.flash_spim_operation_status_get
                0x00000000       0x38 build/at32f403a_407_flash.o
 .text.flash_operation_wait_for
                0x00000000       0x1e build/at32f403a_407_flash.o
 .text.flash_bank1_operation_wait_for
                0x00000000       0x1e build/at32f403a_407_flash.o
 .text.flash_bank2_operation_wait_for
                0x00000000       0x1e build/at32f403a_407_flash.o
 .text.flash_spim_operation_wait_for
                0x00000000       0x1e build/at32f403a_407_flash.o
 .text.flash_unlock
                0x00000000       0x1c build/at32f403a_407_flash.o
 .text.flash_bank1_unlock
                0x00000000       0x18 build/at32f403a_407_flash.o
 .text.flash_bank2_unlock
                0x00000000       0x18 build/at32f403a_407_flash.o
 .text.flash_spim_unlock
                0x00000000       0x24 build/at32f403a_407_flash.o
 .text.flash_lock
                0x00000000       0x18 build/at32f403a_407_flash.o
 .text.flash_bank1_lock
                0x00000000       0x10 build/at32f403a_407_flash.o
 .text.flash_bank2_lock
                0x00000000       0x10 build/at32f403a_407_flash.o
 .text.flash_spim_lock
                0x00000000       0x14 build/at32f403a_407_flash.o
 .text.flash_internal_all_erase
                0x00000000       0x50 build/at32f403a_407_flash.o
 .text.flash_bank1_erase
                0x00000000       0x2c build/at32f403a_407_flash.o
 .text.flash_bank2_erase
                0x00000000       0x2c build/at32f403a_407_flash.o
 .text.flash_byte_program
                0x00000000       0x60 build/at32f403a_407_flash.o
 .text.flash_user_system_data_program
                0x00000000       0x50 build/at32f403a_407_flash.o
 .text.flash_epp_set
                0x00000000       0xb4 build/at32f403a_407_flash.o
 .text.flash_epp_status_get
                0x00000000        0xc build/at32f403a_407_flash.o
 .text.flash_fap_enable
                0x00000000       0x74 build/at32f403a_407_flash.o
 .text.flash_fap_status_get
                0x00000000       0x10 build/at32f403a_407_flash.o
 .text.flash_user_system_data_erase
                0x00000000       0x80 build/at32f403a_407_flash.o
 .text.flash_ssb_set
                0x00000000       0x44 build/at32f403a_407_flash.o
 .text.flash_ssb_status_get
                0x00000000       0x10 build/at32f403a_407_flash.o
 .text.flash_interrupt_enable
                0x00000000       0x70 build/at32f403a_407_flash.o
 .text.flash_spim_encryption_range_set
                0x00000000        0xc build/at32f403a_407_flash.o
 .text.flash_spim_dummy_read
                0x00000000       0x18 build/at32f403a_407_flash.o
 .text.flash_sector_erase
                0x00000000       0xb8 build/at32f403a_407_flash.o
 .text.flash_spim_all_erase
                0x00000000       0x40 build/at32f403a_407_flash.o
 .text.flash_word_program
                0x00000000       0x98 build/at32f403a_407_flash.o
 .text.flash_halfword_program
                0x00000000       0x98 build/at32f403a_407_flash.o
 .text.flash_spim_model_select
                0x00000000       0x1c build/at32f403a_407_flash.o
 .text.flash_spim_mass_program
                0x00000000       0x8c build/at32f403a_407_flash.o
 .text.flash_slib_enable
                0x00000000       0x7c build/at32f403a_407_flash.o
 .text.flash_slib_disable
                0x00000000       0x30 build/at32f403a_407_flash.o
 .text.flash_slib_remaining_count_get
                0x00000000       0x10 build/at32f403a_407_flash.o
 .text.flash_slib_state_get
                0x00000000       0x18 build/at32f403a_407_flash.o
 .text.flash_slib_start_sector_get
                0x00000000       0x10 build/at32f403a_407_flash.o
 .text.flash_slib_datastart_sector_get
                0x00000000       0x10 build/at32f403a_407_flash.o
 .text.flash_slib_end_sector_get
                0x00000000       0x10 build/at32f403a_407_flash.o
 .text.flash_crc_calibrate
                0x00000000       0x3c build/at32f403a_407_flash.o
 .rodata        0x00000000        0x8 build/at32f403a_407_flash.o
 .debug_info    0x00000000     0x1eba build/at32f403a_407_flash.o
 .debug_abbrev  0x00000000      0x340 build/at32f403a_407_flash.o
 .debug_loc     0x00000000     0x1415 build/at32f403a_407_flash.o
 .debug_aranges
                0x00000000      0x190 build/at32f403a_407_flash.o
 .debug_ranges  0x00000000      0x180 build/at32f403a_407_flash.o
 .debug_line    0x00000000     0x1058 build/at32f403a_407_flash.o
 .debug_str     0x00000000      0xbd4 build/at32f403a_407_flash.o
 .comment       0x00000000       0x46 build/at32f403a_407_flash.o
 .debug_frame   0x00000000      0x3f0 build/at32f403a_407_flash.o
 .ARM.attributes
                0x00000000       0x34 build/at32f403a_407_flash.o
 .text          0x00000000        0x0 build/at32f403a_407_exint.o
 .data          0x00000000        0x0 build/at32f403a_407_exint.o
 .bss           0x00000000        0x0 build/at32f403a_407_exint.o
 .text.exint_reset
                0x00000000       0x1c build/at32f403a_407_exint.o
 .text.exint_default_para_init
                0x00000000        0xe build/at32f403a_407_exint.o
 .text.exint_init
                0x00000000       0x80 build/at32f403a_407_exint.o
 .text.exint_flag_clear
                0x00000000       0x1c build/at32f403a_407_exint.o
 .text.exint_flag_get
                0x00000000       0x14 build/at32f403a_407_exint.o
 .text.exint_interrupt_flag_get
                0x00000000       0x18 build/at32f403a_407_exint.o
 .text.exint_software_interrupt_event_generate
                0x00000000       0x10 build/at32f403a_407_exint.o
 .text.exint_interrupt_enable
                0x00000000       0x20 build/at32f403a_407_exint.o
 .text.exint_event_enable
                0x00000000       0x20 build/at32f403a_407_exint.o
 .debug_info    0x00000000      0x5c7 build/at32f403a_407_exint.o
 .debug_abbrev  0x00000000      0x197 build/at32f403a_407_exint.o
 .debug_loc     0x00000000      0x1a6 build/at32f403a_407_exint.o
 .debug_aranges
                0x00000000       0x60 build/at32f403a_407_exint.o
 .debug_ranges  0x00000000       0x50 build/at32f403a_407_exint.o
 .debug_line    0x00000000      0x3e0 build/at32f403a_407_exint.o
 .debug_str     0x00000000      0x469 build/at32f403a_407_exint.o
 .comment       0x00000000       0x46 build/at32f403a_407_exint.o
 .debug_frame   0x00000000       0xa0 build/at32f403a_407_exint.o
 .ARM.attributes
                0x00000000       0x34 build/at32f403a_407_exint.o
 .text          0x00000000        0x0 build/at32f403a_407_misc.o
 .data          0x00000000        0x0 build/at32f403a_407_misc.o
 .bss           0x00000000        0x0 build/at32f403a_407_misc.o
 .text.__NVIC_DisableIRQ
                0x00000000       0x24 build/at32f403a_407_misc.o
 .text.__NVIC_SystemReset
                0x00000000       0x24 build/at32f403a_407_misc.o
 .text.nvic_system_reset
                0x00000000        0x6 build/at32f403a_407_misc.o
 .text.nvic_irq_disable
                0x00000000        0x8 build/at32f403a_407_misc.o
 .text.nvic_vector_table_set
                0x00000000       0x14 build/at32f403a_407_misc.o
 .text.nvic_lowpower_mode_config
                0x00000000       0x1c build/at32f403a_407_misc.o
 .text.systick_clock_source_config
                0x00000000       0x20 build/at32f403a_407_misc.o
 .text          0x00000000        0x0 build/at32f403a_407_usb.o
 .data          0x00000000        0x0 build/at32f403a_407_usb.o
 .bss           0x00000000        0x0 build/at32f403a_407_usb.o
 .text.usb_disconnect
                0x00000000       0x12 build/at32f403a_407_usb.o
 .text.usb_usbbufs_enable
                0x00000000       0x38 build/at32f403a_407_usb.o
 .text.usb_ept_stall
                0x00000000       0x54 build/at32f403a_407_usb.o
 .text.usb_remote_wkup_set
                0x00000000        0xa build/at32f403a_407_usb.o
 .text.usb_remote_wkup_clear
                0x00000000        0xa build/at32f403a_407_usb.o
 .text.usb_flag_get
                0x00000000        0xe build/at32f403a_407_usb.o
 .text.usb_interrupt_flag_get
                0x00000000       0x2e build/at32f403a_407_usb.o
 .text          0x00000000        0x0 build/at32f403a_407_acc.o
 .data          0x00000000        0x0 build/at32f403a_407_acc.o
 .bss           0x00000000        0x0 build/at32f403a_407_acc.o
 .text.acc_step_set
                0x00000000       0x10 build/at32f403a_407_acc.o
 .text.acc_interrupt_enable
                0x00000000       0x20 build/at32f403a_407_acc.o
 .text.acc_hicktrim_get
                0x00000000       0x10 build/at32f403a_407_acc.o
 .text.acc_hickcal_get
                0x00000000        0xc build/at32f403a_407_acc.o
 .text.acc_read_c1
                0x00000000        0xc build/at32f403a_407_acc.o
 .text.acc_read_c2
                0x00000000        0xc build/at32f403a_407_acc.o
 .text.acc_read_c3
                0x00000000        0xc build/at32f403a_407_acc.o
 .text.acc_flag_get
                0x00000000       0x1c build/at32f403a_407_acc.o
 .text.acc_interrupt_flag_get
                0x00000000       0x4c build/at32f403a_407_acc.o
 .text.acc_flag_clear
                0x00000000        0xc build/at32f403a_407_acc.o
 .text          0x00000000        0x0 build/at32f403a_407_can.o
 .data          0x00000000        0x0 build/at32f403a_407_can.o
 .bss           0x00000000        0x0 build/at32f403a_407_can.o
 .text.can_reset
                0x00000000       0x44 build/at32f403a_407_can.o
 .text.can_baudrate_default_para_init
                0x00000000       0x10 build/at32f403a_407_can.o
 .text.can_filter_default_para_init
                0x00000000       0x16 build/at32f403a_407_can.o
 .text.can_debug_transmission_prohibit
                0x00000000        0xa build/at32f403a_407_can.o
 .text.can_ttc_mode_enable
                0x00000000       0x32 build/at32f403a_407_can.o
 .text.can_message_transmit
                0x00000000       0xd8 build/at32f403a_407_can.o
 .text.can_transmit_status_get
                0x00000000       0x62 build/at32f403a_407_can.o
 .text.can_transmit_cancel
                0x00000000       0x2c build/at32f403a_407_can.o
 .text.can_receive_fifo_release
                0x00000000       0x14 build/at32f403a_407_can.o
 .text.can_message_receive
                0x00000000       0xc0 build/at32f403a_407_can.o
 .text.can_receive_message_pending_get
                0x00000000       0x1a build/at32f403a_407_can.o
 .text.can_operating_mode_set
                0x00000000       0xe2 build/at32f403a_407_can.o
 .text.can_doze_mode_enter
                0x00000000       0x46 build/at32f403a_407_can.o
 .text.can_doze_mode_exit
                0x00000000       0x2a build/at32f403a_407_can.o
 .text.can_error_type_record_get
                0x00000000        0x8 build/at32f403a_407_can.o
 .text.can_receive_error_counter_get
                0x00000000        0x6 build/at32f403a_407_can.o
 .text.can_transmit_error_counter_get
                0x00000000        0x8 build/at32f403a_407_can.o
 .text.can_interrupt_enable
                0x00000000       0x14 build/at32f403a_407_can.o
 .text.can_flag_get
                0x00000000      0x13a build/at32f403a_407_can.o
 .text.can_interrupt_flag_get
                0x00000000      0x120 build/at32f403a_407_can.o
 .text.can_flag_clear
                0x00000000       0x9c build/at32f403a_407_can.o
 .text          0x00000000        0x0 build/at32f403a_407_debug.o
 .data          0x00000000        0x0 build/at32f403a_407_debug.o
 .bss           0x00000000        0x0 build/at32f403a_407_debug.o
 .text.debug_device_id_get
                0x00000000        0xc build/at32f403a_407_debug.o
 .text.debug_periph_mode_set
                0x00000000       0x1c build/at32f403a_407_debug.o
 .debug_info    0x00000000      0x391 build/at32f403a_407_debug.o
 .debug_abbrev  0x00000000      0x12c build/at32f403a_407_debug.o
 .debug_aranges
                0x00000000       0x28 build/at32f403a_407_debug.o
 .debug_ranges  0x00000000       0x18 build/at32f403a_407_debug.o
 .debug_line    0x00000000      0x1e1 build/at32f403a_407_debug.o
 .debug_str     0x00000000      0x37a build/at32f403a_407_debug.o
 .comment       0x00000000       0x46 build/at32f403a_407_debug.o
 .debug_frame   0x00000000       0x30 build/at32f403a_407_debug.o
 .ARM.attributes
                0x00000000       0x34 build/at32f403a_407_debug.o
 .text          0x00000000        0x0 build/can_cia402.o
 .data          0x00000000        0x0 build/can_cia402.o
 .bss           0x00000000        0x0 build/can_cia402.o
 .text.cia402_init
                0x00000000       0x24 build/can_cia402.o
 .text.cia402_process_state_machine
                0x00000000      0x148 build/can_cia402.o
 .text.cia402_set_control_word
                0x00000000        0x6 build/can_cia402.o
 .text.cia402_get_status_word
                0x00000000        0x6 build/can_cia402.o
 .text.cia402_set_target_position
                0x00000000        0x6 build/can_cia402.o
 .text.cia402_set_target_velocity
                0x00000000        0x8 build/can_cia402.o
 .text.cia402_set_target_torque
                0x00000000        0x6 build/can_cia402.o
 .text.cia402_set_control_mode
                0x00000000        0x6 build/can_cia402.o
 .text.cia402_get_control_mode
                0x00000000        0x6 build/can_cia402.o
 .text.cia402_process
                0x00000000        0xc build/can_cia402.o
 .text.cia402_get_state
                0x00000000        0x6 build/can_cia402.o
 .debug_info    0x00000000      0x925 build/can_cia402.o
 .debug_abbrev  0x00000000      0x183 build/can_cia402.o
 .debug_loc     0x00000000       0xe5 build/can_cia402.o
 .debug_aranges
                0x00000000       0x70 build/can_cia402.o
 .debug_ranges  0x00000000       0x60 build/can_cia402.o
 .debug_line    0x00000000      0x4bf build/can_cia402.o
 .debug_str     0x00000000      0xa7a build/can_cia402.o
 .comment       0x00000000       0x46 build/can_cia402.o
 .debug_frame   0x00000000       0xcc build/can_cia402.o
 .ARM.attributes
                0x00000000       0x34 build/can_cia402.o
 .text          0x00000000        0x0 build/motor_control.o
 .data          0x00000000        0x0 build/motor_control.o
 .bss           0x00000000        0x0 build/motor_control.o
 .text.motor_control_init
                0x00000000      0x17a build/motor_control.o
 .text.motor_control_set_target_position
                0x00000000       0x1c build/motor_control.o
 .text.motor_control_set_target_velocity
                0x00000000       0x1c build/motor_control.o
 .text.motor_control_set_target_torque
                0x00000000       0x1c build/motor_control.o
 .text.motor_control_set_control_mode
                0x00000000        0xe build/motor_control.o
 .text.motor_control_enable
                0x00000000       0x28 build/motor_control.o
 .text.motor_control_disable
                0x00000000       0x20 build/motor_control.o
 .text.motor_control_get_state
                0x00000000        0xc build/motor_control.o
 .text.motor_control_handle_fault
                0x00000000       0x32 build/motor_control.o
 .text.motor_control_process
                0x00000000       0xd4 build/motor_control.o
 .text.motor_control_sensorless_init
                0x00000000       0x8c build/motor_control.o
 .text.motor_control_sensorless_enable
                0x00000000       0x1e build/motor_control.o
 .text.motor_control_sensorless_disable
                0x00000000       0x24 build/motor_control.o
 .text.motor_control_sensorless_set_params
                0x00000000       0x4e build/motor_control.o
 .text          0x00000000        0x0 build/motor_foc.o
 .data          0x00000000        0x0 build/motor_foc.o
 .bss           0x00000000        0x0 build/motor_foc.o
 .text.clark_transform
                0x00000000       0x40 build/motor_foc.o
 .text.park_transform
                0x00000000       0x48 build/motor_foc.o
 .text.inverse_park_transform
                0x00000000       0x48 build/motor_foc.o
 .text.svpwm_calculate
                0x00000000      0x284 build/motor_foc.o
 .text.foc_init
                0x00000000      0x1c8 build/motor_foc.o
 .text.foc_set_control_mode
                0x00000000        0x6 build/motor_foc.o
 .text.foc_set_target_position
                0x00000000        0x8 build/motor_foc.o
 .text.foc_set_target_velocity
                0x00000000        0x8 build/motor_foc.o
 .text.foc_set_target_torque
                0x00000000        0x8 build/motor_foc.o
 .text.foc_set_pid_gains
                0x00000000       0x1c build/motor_foc.o
 .text.foc_process
                0x00000000      0x1dc build/motor_foc.o
 .text.foc_enable
                0x00000000        0xa build/motor_foc.o
 .text.foc_disable
                0x00000000       0x18 build/motor_foc.o
 .text.foc_sensorless_init
                0x00000000       0xcc build/motor_foc.o
 .text.foc_sensorless_enable
                0x00000000        0xa build/motor_foc.o
 .text.foc_sensorless_disable
                0x00000000        0xa build/motor_foc.o
 .text.foc_sensorless_set_params
                0x00000000       0x10 build/motor_foc.o
 .text.foc_sensorless_estimate
                0x00000000      0x14c build/motor_foc.o
 .text.foc_process_with_sensorless
                0x00000000      0x1fc build/motor_foc.o
 .text          0x00000000        0x0 build/motor_monitor.o
 .data          0x00000000        0x0 build/motor_monitor.o
 .bss           0x00000000        0x0 build/motor_monitor.o
 .text.motor_monitor_init
                0x00000000       0xc2 build/motor_monitor.o
 .text.motor_monitor_set_limits
                0x00000000       0x14 build/motor_monitor.o
 .text.motor_monitor_enable_protection
                0x00000000       0x18 build/motor_monitor.o
 .text.motor_monitor_update_current
                0x00000000       0x10 build/motor_monitor.o
 .text.motor_monitor_update_voltage
                0x00000000        0x8 build/motor_monitor.o
 .text.motor_monitor_update_temperature
                0x00000000        0x8 build/motor_monitor.o
 .text.motor_monitor_get_fault
                0x00000000        0x8 build/motor_monitor.o
 .text.motor_monitor_is_fault_active
                0x00000000        0x8 build/motor_monitor.o
 .text.motor_monitor_clear_fault
                0x00000000        0xe build/motor_monitor.o
 .text.motor_monitor_get_current_a
                0x00000000       0x14 build/motor_monitor.o
 .text.motor_monitor_get_current_b
                0x00000000       0x14 build/motor_monitor.o
 .text.motor_monitor_get_current_c
                0x00000000       0x14 build/motor_monitor.o
 .text.motor_monitor_get_bus_voltage
                0x00000000       0x14 build/motor_monitor.o
 .text.motor_monitor_get_temperature
                0x00000000       0x14 build/motor_monitor.o
 .text          0x00000000        0x0 build/motor_params.o
 .data          0x00000000        0x0 build/motor_params.o
 .bss           0x00000000        0x0 build/motor_params.o
 .rodata.motor_params_init.str1.4
                0x00000000       0x27 build/motor_params.o
 .text.motor_params_init
                0x00000000      0x274 build/motor_params.o
 .text.motor_params_load_default
                0x00000000        0x8 build/motor_params.o
 .text.motor_params_update_sub
                0x00000000     0x141c build/motor_params.o
 .text.motor_params_get_sub
                0x00000000     0x15ee build/motor_params.o
 .text.motor_params_clear_errors
                0x00000000       0x96 build/motor_params.o
 .text          0x00000000        0x0 build/usb_cdc.o
 .data          0x00000000        0x0 build/usb_cdc.o
 .bss           0x00000000        0x0 build/usb_cdc.o
 .text.cdc_init
                0x00000000        0x2 build/usb_cdc.o
 .text.cdc_process
                0x00000000        0x2 build/usb_cdc.o
 .text.cdc_send_data
                0x00000000       0x2c build/usb_cdc.o
 .text.cdc_receive_data
                0x00000000       0x44 build/usb_cdc.o
 .text.cdc_is_connected
                0x00000000        0xc build/usb_cdc.o
 .text.cdc_class_data_received
                0x00000000       0x30 build/usb_cdc.o
 .text.cdc_class_set_line_coding
                0x00000000       0x10 build/usb_cdc.o
 .text.cdc_class_set_control_line_state
                0x00000000        0x2 build/usb_cdc.o
 .text.cdc_class_connection_changed
                0x00000000        0xc build/usb_cdc.o
 .text          0x00000000        0x0 build/modbus_protocol.o
 .data          0x00000000        0x0 build/modbus_protocol.o
 .bss           0x00000000        0x0 build/modbus_protocol.o
 .text          0x00000000        0x0 build/common_utils.o
 .data          0x00000000        0x0 build/common_utils.o
 .bss           0x00000000        0x0 build/common_utils.o
 .text.delay_ms
                0x00000000       0x1c build/common_utils.o
 .text.delay_us
                0x00000000        0xe build/common_utils.o
 .text.crc16    0x00000000       0x38 build/common_utils.o
 .text          0x00000000        0x0 build/usbd_core.o
 .data          0x00000000        0x0 build/usbd_core.o
 .bss           0x00000000        0x0 build/usbd_core.o
 .text.usbd_ept_dbuffer_enable
                0x00000000       0x28 build/usbd_core.o
 .text.usbd_ept_buf_custom_define
                0x00000000       0x3c build/usbd_core.o
 .text.usbd_disconnect
                0x00000000        0xa build/usbd_core.o
 .text.usbd_set_device_addr
                0x00000000        0xa build/usbd_core.o
 .text.usbd_remote_wakeup
                0x00000000       0x26 build/usbd_core.o
 .text          0x00000000        0x0 build/usbd_int.o
 .data          0x00000000        0x0 build/usbd_int.o
 .bss           0x00000000        0x0 build/usbd_int.o
 .text          0x00000000        0x0 build/usbd_sdr.o
 .data          0x00000000        0x0 build/usbd_sdr.o
 .bss           0x00000000        0x0 build/usbd_sdr.o
 .text          0x00000000        0x0 build/croutine.o
 .data          0x00000000        0x0 build/croutine.o
 .bss           0x00000000        0x0 build/croutine.o
 .debug_info    0x00000000       0x72 build/croutine.o
 .debug_abbrev  0x00000000       0x26 build/croutine.o
 .debug_aranges
                0x00000000       0x18 build/croutine.o
 .debug_line    0x00000000       0x47 build/croutine.o
 .debug_str     0x00000000      0x198 build/croutine.o
 .comment       0x00000000       0x46 build/croutine.o
 .ARM.attributes
                0x00000000       0x34 build/croutine.o
 .text          0x00000000        0x0 build/event_groups.o
 .data          0x00000000        0x0 build/event_groups.o
 .bss           0x00000000        0x0 build/event_groups.o
 .text.prvTestWaitCondition
                0x00000000       0x1a build/event_groups.o
 .text.xEventGroupCreateStatic
                0x00000000       0x4a build/event_groups.o
 .text.xEventGroupCreate
                0x00000000       0x20 build/event_groups.o
 .text.xEventGroupWaitBits
                0x00000000      0x112 build/event_groups.o
 .text.xEventGroupClearBits
                0x00000000       0x48 build/event_groups.o
 .text.vEventGroupClearBitsCallback
                0x00000000        0x8 build/event_groups.o
 .text.xEventGroupClearBitsFromISR
                0x00000000       0x14 build/event_groups.o
 .text.xEventGroupGetBitsFromISR
                0x00000000       0x1c build/event_groups.o
 .text.xEventGroupSetBits
                0x00000000       0x94 build/event_groups.o
 .text.xEventGroupSync
                0x00000000       0xe8 build/event_groups.o
 .text.vEventGroupSetBitsCallback
                0x00000000        0x8 build/event_groups.o
 .text.vEventGroupDelete
                0x00000000       0x44 build/event_groups.o
 .text.xEventGroupSetBitsFromISR
                0x00000000       0x14 build/event_groups.o
 .text.uxEventGroupGetNumber
                0x00000000        0x6 build/event_groups.o
 .text.vEventGroupSetNumber
                0x00000000        0x4 build/event_groups.o
 .debug_info    0x00000000     0x10b3 build/event_groups.o
 .debug_abbrev  0x00000000      0x38e build/event_groups.o
 .debug_loc     0x00000000      0xf16 build/event_groups.o
 .debug_aranges
                0x00000000       0x90 build/event_groups.o
 .debug_ranges  0x00000000       0xb8 build/event_groups.o
 .debug_line    0x00000000      0x988 build/event_groups.o
 .debug_str     0x00000000      0x810 build/event_groups.o
 .comment       0x00000000       0x46 build/event_groups.o
 .debug_frame   0x00000000      0x1a0 build/event_groups.o
 .ARM.attributes
                0x00000000       0x34 build/event_groups.o
 .text          0x00000000        0x0 build/list.o
 .data          0x00000000        0x0 build/list.o
 .bss           0x00000000        0x0 build/list.o
 .text          0x00000000        0x0 build/queue.o
 .data          0x00000000        0x0 build/queue.o
 .bss           0x00000000        0x0 build/queue.o
 .text.prvGetDisinheritPriorityAfterTimeout
                0x00000000       0x10 build/queue.o
 .text.xQueueGenericCreate
                0x00000000       0x7c build/queue.o
 .text.xQueueGetMutexHolder
                0x00000000       0x1a build/queue.o
 .text.xQueueGetMutexHolderFromISR
                0x00000000       0x20 build/queue.o
 .text.xQueueCreateCountingSemaphoreStatic
                0x00000000       0x46 build/queue.o
 .text.xQueueCreateCountingSemaphore
                0x00000000       0x3c build/queue.o
 .text.prvInitialiseMutex
                0x00000000       0x18 build/queue.o
 .text.xQueueCreateMutex
                0x00000000       0x16 build/queue.o
 .text.xQueueCreateMutexStatic
                0x00000000       0x1e build/queue.o
 .text.xQueueGiveMutexRecursive
                0x00000000       0x42 build/queue.o
 .text.xQueueGiveFromISR
                0x00000000       0xca build/queue.o
 .text.xQueueSemaphoreTake
                0x00000000      0x1ac build/queue.o
 .text.xQueueTakeMutexRecursive
                0x00000000       0x42 build/queue.o
 .text.xQueuePeek
                0x00000000      0x15e build/queue.o
 .text.xQueueReceiveFromISR
                0x00000000       0xc2 build/queue.o
 .text.xQueuePeekFromISR
                0x00000000       0x82 build/queue.o
 .text.uxQueueMessagesWaiting
                0x00000000       0x28 build/queue.o
 .text.uxQueueSpacesAvailable
                0x00000000       0x2c build/queue.o
 .text.uxQueueMessagesWaitingFromISR
                0x00000000       0x18 build/queue.o
 .text.uxQueueGetQueueNumber
                0x00000000        0x4 build/queue.o
 .text.vQueueSetQueueNumber
                0x00000000        0x4 build/queue.o
 .text.ucQueueGetQueueType
                0x00000000        0x6 build/queue.o
 .text.xQueueIsQueueEmptyFromISR
                0x00000000       0x20 build/queue.o
 .text.xQueueIsQueueFullFromISR
                0x00000000       0x24 build/queue.o
 .text.pcQueueGetName
                0x00000000       0x28 build/queue.o
 .text.vQueueUnregisterQueue
                0x00000000       0x2c build/queue.o
 .text.vQueueDelete
                0x00000000       0x2c build/queue.o
 .text          0x00000000        0x0 build/tasks.o
 .data          0x00000000        0x0 build/tasks.o
 .bss           0x00000000        0x0 build/tasks.o
 .text.prvTaskIsTaskSuspended
                0x00000000       0x40 build/tasks.o
 .text.prvTaskCheckFreeStackSpace
                0x00000000       0x14 build/tasks.o
 .text.vTaskDelete
                0x00000000       0xb8 build/tasks.o
 .text.eTaskGetState
                0x00000000       0x98 build/tasks.o
 .text.uxTaskPriorityGet
                0x00000000       0x20 build/tasks.o
 .text.uxTaskPriorityGetFromISR
                0x00000000       0x30 build/tasks.o
 .text.vTaskPrioritySet
                0x00000000       0xe0 build/tasks.o
 .text.vTaskResume
                0x00000000       0x88 build/tasks.o
 .text.xTaskResumeFromISR
                0x00000000       0xb8 build/tasks.o
 .text.vTaskEndScheduler
                0x00000000       0x24 build/tasks.o
 .text.xTaskGetTickCountFromISR
                0x00000000       0x10 build/tasks.o
 .text.uxTaskGetNumberOfTasks
                0x00000000        0xc build/tasks.o
 .text.pcTaskGetName
                0x00000000       0x28 build/tasks.o
 .text.xTaskDelayUntil
                0x00000000       0xb8 build/tasks.o
 .text.xTaskCatchUpTicks
                0x00000000       0x38 build/tasks.o
 .text.vTaskSuspend
                0x00000000       0xd0 build/tasks.o
 .text.vTaskPlaceOnUnorderedEventList
                0x00000000       0x58 build/tasks.o
 .text.vTaskRemoveFromUnorderedEventList
                0x00000000       0x8c build/tasks.o
 .text.vTaskSetTimeOutState
                0x00000000       0x38 build/tasks.o
 .text.uxTaskGetTaskNumber
                0x00000000        0x6 build/tasks.o
 .text.vTaskSetTaskNumber
                0x00000000        0x6 build/tasks.o
 .text.vTaskGetInfo
                0x00000000       0x74 build/tasks.o
 .text.prvListTasksWithinSingleList
                0x00000000       0x5e build/tasks.o
 .text.uxTaskGetSystemState
                0x00000000       0xac build/tasks.o
 .text.uxTaskGetStackHighWaterMark
                0x00000000       0x18 build/tasks.o
 .text.xTaskGetCurrentTaskHandle
                0x00000000        0xc build/tasks.o
 .text.xTaskPriorityInherit
                0x00000000       0x98 build/tasks.o
 .text.vTaskPriorityDisinheritAfterTimeout
                0x00000000       0xa4 build/tasks.o
 .text.uxTaskResetEventItemValue
                0x00000000       0x18 build/tasks.o
 .text.pvTaskIncrementMutexHeldCount
                0x00000000       0x1c build/tasks.o
 .text.ulTaskGenericNotifyTake
                0x00000000       0xb0 build/tasks.o
 .text.xTaskGenericNotifyWait
                0x00000000       0xd0 build/tasks.o
 .text.xTaskGenericNotify
                0x00000000      0x148 build/tasks.o
 .text.xTaskGenericNotifyFromISR
                0x00000000      0x178 build/tasks.o
 .text.vTaskGenericNotifyGiveFromISR
                0x00000000       0xf0 build/tasks.o
 .text.xTaskGenericNotifyStateClear
                0x00000000       0x54 build/tasks.o
 .text.ulTaskGenericNotifyValueClear
                0x00000000       0x34 build/tasks.o
 .text          0x00000000        0x0 build/timers.o
 .data          0x00000000        0x0 build/timers.o
 .bss           0x00000000        0x0 build/timers.o
 .text.prvInitialiseNewTimer
                0x00000000       0x4e build/timers.o
 .text.xTimerCreate
                0x00000000       0x38 build/timers.o
 .text.xTimerCreateStatic
                0x00000000       0x54 build/timers.o
 .text.xTimerGetTimerDaemonTaskHandle
                0x00000000       0x20 build/timers.o
 .text.xTimerGetPeriod
                0x00000000       0x18 build/timers.o
 .text.vTimerSetReloadMode
                0x00000000       0x40 build/timers.o
 .text.uxTimerGetReloadMode
                0x00000000       0x38 build/timers.o
 .text.xTimerGetExpiryTime
                0x00000000       0x18 build/timers.o
 .text.pcTimerGetName
                0x00000000       0x18 build/timers.o
 .text.xTimerIsTimerActive
                0x00000000       0x38 build/timers.o
 .text.pvTimerGetTimerID
                0x00000000       0x28 build/timers.o
 .text.vTimerSetTimerID
                0x00000000       0x26 build/timers.o
 .text.xTimerPendFunctionCallFromISR
                0x00000000       0x2c build/timers.o
 .text.xTimerPendFunctionCall
                0x00000000       0x48 build/timers.o
 .text.uxTimerGetTimerNumber
                0x00000000        0x4 build/timers.o
 .text.vTimerSetTimerNumber
                0x00000000        0x4 build/timers.o
 .text          0x00000000        0x0 build/port.o
 .data          0x00000000        0x0 build/port.o
 .bss           0x00000000        0x0 build/port.o
 .text.vPortEndScheduler
                0x00000000       0x24 build/port.o
 .text          0x00000000        0x0 build/heap_4.o
 .data          0x00000000        0x0 build/heap_4.o
 .bss           0x00000000        0x0 build/heap_4.o
 .text.xPortGetFreeHeapSize
                0x00000000        0xc build/heap_4.o
 .text.xPortGetMinimumEverFreeHeapSize
                0x00000000        0xc build/heap_4.o
 .text.vPortInitialiseBlocks
                0x00000000        0x2 build/heap_4.o
 .text.vPortGetHeapStats
                0x00000000       0x80 build/heap_4.o
 .text          0x00000000        0x0 build/stream_buffer.o
 .data          0x00000000        0x0 build/stream_buffer.o
 .bss           0x00000000        0x0 build/stream_buffer.o
 .text.prvBytesInBuffer
                0x00000000       0x12 build/stream_buffer.o
 .text.prvInitialiseNewStreamBuffer
                0x00000000       0x40 build/stream_buffer.o
 .text.prvWriteBytesToBuffer
                0x00000000       0x8a build/stream_buffer.o
 .text.prvWriteMessageToBuffer
                0x00000000       0x48 build/stream_buffer.o
 .text.prvReadBytesFromBuffer
                0x00000000       0x88 build/stream_buffer.o
 .text.prvReadMessageFromBuffer
                0x00000000       0x4a build/stream_buffer.o
 .text.xStreamBufferGenericCreate
                0x00000000       0x86 build/stream_buffer.o
 .text.xStreamBufferGenericCreateStatic
                0x00000000       0xa4 build/stream_buffer.o
 .text.vStreamBufferDelete
                0x00000000       0x2e build/stream_buffer.o
 .text.xStreamBufferReset
                0x00000000       0x50 build/stream_buffer.o
 .text.xStreamBufferSetTriggerLevel
                0x00000000       0x2a build/stream_buffer.o
 .text.xStreamBufferSpacesAvailable
                0x00000000       0x2a build/stream_buffer.o
 .text.xStreamBufferBytesAvailable
                0x00000000       0x1c build/stream_buffer.o
 .text.xStreamBufferSend
                0x00000000      0x116 build/stream_buffer.o
 .text.xStreamBufferSendFromISR
                0x00000000       0xaa build/stream_buffer.o
 .text.xStreamBufferReceive
                0x00000000       0xf0 build/stream_buffer.o
 .text.xStreamBufferNextMessageLengthBytes
                0x00000000       0x5c build/stream_buffer.o
 .text.xStreamBufferReceiveFromISR
                0x00000000       0xa8 build/stream_buffer.o
 .text.xStreamBufferIsEmpty
                0x00000000       0x24 build/stream_buffer.o
 .text.xStreamBufferIsFull
                0x00000000       0x3c build/stream_buffer.o
 .text.xStreamBufferSendCompletedFromISR
                0x00000000       0x56 build/stream_buffer.o
 .text.xStreamBufferReceiveCompletedFromISR
                0x00000000       0x56 build/stream_buffer.o
 .text.uxStreamBufferGetStreamBufferNumber
                0x00000000        0x4 build/stream_buffer.o
 .text.vStreamBufferSetStreamBufferNumber
                0x00000000        0x4 build/stream_buffer.o
 .text.ucStreamBufferGetStreamBufferType
                0x00000000        0x8 build/stream_buffer.o
 .debug_info    0x00000000     0x1dc5 build/stream_buffer.o
 .debug_abbrev  0x00000000      0x3f7 build/stream_buffer.o
 .debug_loc     0x00000000     0x20b0 build/stream_buffer.o
 .debug_aranges
                0x00000000       0xe0 build/stream_buffer.o
 .debug_ranges  0x00000000      0x100 build/stream_buffer.o
 .debug_line    0x00000000     0x1206 build/stream_buffer.o
 .debug_str     0x00000000      0x9df build/stream_buffer.o
 .comment       0x00000000       0x46 build/stream_buffer.o
 .debug_frame   0x00000000      0x38c build/stream_buffer.o
 .ARM.attributes
                0x00000000       0x34 build/stream_buffer.o
 .text          0x00000000       0x14 build/startup_at32f403a_407.o
 .data          0x00000000        0x0 build/startup_at32f403a_407.o
 .bss           0x00000000        0x0 build/startup_at32f403a_407.o
 .text          0x00000000        0x0 C:/Program Files (x86)/Arm/GNU Toolchain mingw-w64-i686-arm-none-eabi/bin/../lib/gcc/arm-none-eabi/15.2.1/../../../../arm-none-eabi/lib/thumb/v7e-m+fp/hard\libc_nano.a(libc_a-exit.o)
 .data          0x00000000        0x0 C:/Program Files (x86)/Arm/GNU Toolchain mingw-w64-i686-arm-none-eabi/bin/../lib/gcc/arm-none-eabi/15.2.1/../../../../arm-none-eabi/lib/thumb/v7e-m+fp/hard\libc_nano.a(libc_a-exit.o)
 .bss           0x00000000        0x0 C:/Program Files (x86)/Arm/GNU Toolchain mingw-w64-i686-arm-none-eabi/bin/../lib/gcc/arm-none-eabi/15.2.1/../../../../arm-none-eabi/lib/thumb/v7e-m+fp/hard\libc_nano.a(libc_a-exit.o)
 .text.exit     0x00000000       0x24 C:/Program Files (x86)/Arm/GNU Toolchain mingw-w64-i686-arm-none-eabi/bin/../lib/gcc/arm-none-eabi/15.2.1/../../../../arm-none-eabi/lib/thumb/v7e-m+fp/hard\libc_nano.a(libc_a-exit.o)
 .debug_frame   0x00000000       0x28 C:/Program Files (x86)/Arm/GNU Toolchain mingw-w64-i686-arm-none-eabi/bin/../lib/gcc/arm-none-eabi/15.2.1/../../../../arm-none-eabi/lib/thumb/v7e-m+fp/hard\libc_nano.a(libc_a-exit.o)
 .ARM.attributes
                0x00000000       0x34 C:/Program Files (x86)/Arm/GNU Toolchain mingw-w64-i686-arm-none-eabi/bin/../lib/gcc/arm-none-eabi/15.2.1/../../../../arm-none-eabi/lib/thumb/v7e-m+fp/hard\libc_nano.a(libc_a-exit.o)
 .text          0x00000000        0x0 C:/Program Files (x86)/Arm/GNU Toolchain mingw-w64-i686-arm-none-eabi/bin/../lib/gcc/arm-none-eabi/15.2.1/../../../../arm-none-eabi/lib/thumb/v7e-m+fp/hard\libc_nano.a(libc_a-findfp.o)
 .data          0x00000000        0x0 C:/Program Files (x86)/Arm/GNU Toolchain mingw-w64-i686-arm-none-eabi/bin/../lib/gcc/arm-none-eabi/15.2.1/../../../../arm-none-eabi/lib/thumb/v7e-m+fp/hard\libc_nano.a(libc_a-findfp.o)
 .bss           0x00000000        0x0 C:/Program Files (x86)/Arm/GNU Toolchain mingw-w64-i686-arm-none-eabi/bin/../lib/gcc/arm-none-eabi/15.2.1/../../../../arm-none-eabi/lib/thumb/v7e-m+fp/hard\libc_nano.a(libc_a-findfp.o)
 .text.__fp_lock
                0x00000000       0x18 C:/Program Files (x86)/Arm/GNU Toolchain mingw-w64-i686-arm-none-eabi/bin/../lib/gcc/arm-none-eabi/15.2.1/../../../../arm-none-eabi/lib/thumb/v7e-m+fp/hard\libc_nano.a(libc_a-findfp.o)
 .text.__fp_unlock
                0x00000000       0x18 C:/Program Files (x86)/Arm/GNU Toolchain mingw-w64-i686-arm-none-eabi/bin/../lib/gcc/arm-none-eabi/15.2.1/../../../../arm-none-eabi/lib/thumb/v7e-m+fp/hard\libc_nano.a(libc_a-findfp.o)
 .text.__sfp    0x00000000       0xa4 C:/Program Files (x86)/Arm/GNU Toolchain mingw-w64-i686-arm-none-eabi/bin/../lib/gcc/arm-none-eabi/15.2.1/../../../../arm-none-eabi/lib/thumb/v7e-m+fp/hard\libc_nano.a(libc_a-findfp.o)
 .text.__fp_lock_all
                0x00000000       0x1c C:/Program Files (x86)/Arm/GNU Toolchain mingw-w64-i686-arm-none-eabi/bin/../lib/gcc/arm-none-eabi/15.2.1/../../../../arm-none-eabi/lib/thumb/v7e-m+fp/hard\libc_nano.a(libc_a-findfp.o)
 .text.__fp_unlock_all
                0x00000000       0x1c C:/Program Files (x86)/Arm/GNU Toolchain mingw-w64-i686-arm-none-eabi/bin/../lib/gcc/arm-none-eabi/15.2.1/../../../../arm-none-eabi/lib/thumb/v7e-m+fp/hard\libc_nano.a(libc_a-findfp.o)
 .text          0x00000000        0x0 C:/Program Files (x86)/Arm/GNU Toolchain mingw-w64-i686-arm-none-eabi/bin/../lib/gcc/arm-none-eabi/15.2.1/../../../../arm-none-eabi/lib/thumb/v7e-m+fp/hard\libc_nano.a(libc_a-fwalk.o)
 .data          0x00000000        0x0 C:/Program Files (x86)/Arm/GNU Toolchain mingw-w64-i686-arm-none-eabi/bin/../lib/gcc/arm-none-eabi/15.2.1/../../../../arm-none-eabi/lib/thumb/v7e-m+fp/hard\libc_nano.a(libc_a-fwalk.o)
 .bss           0x00000000        0x0 C:/Program Files (x86)/Arm/GNU Toolchain mingw-w64-i686-arm-none-eabi/bin/../lib/gcc/arm-none-eabi/15.2.1/../../../../arm-none-eabi/lib/thumb/v7e-m+fp/hard\libc_nano.a(libc_a-fwalk.o)
 .text          0x00000000        0x0 C:/Program Files (x86)/Arm/GNU Toolchain mingw-w64-i686-arm-none-eabi/bin/../lib/gcc/arm-none-eabi/15.2.1/../../../../arm-none-eabi/lib/thumb/v7e-m+fp/hard\libc_nano.a(libc_a-printf.o)
 .data          0x00000000        0x0 C:/Program Files (x86)/Arm/GNU Toolchain mingw-w64-i686-arm-none-eabi/bin/../lib/gcc/arm-none-eabi/15.2.1/../../../../arm-none-eabi/lib/thumb/v7e-m+fp/hard\libc_nano.a(libc_a-printf.o)
 .bss           0x00000000        0x0 C:/Program Files (x86)/Arm/GNU Toolchain mingw-w64-i686-arm-none-eabi/bin/../lib/gcc/arm-none-eabi/15.2.1/../../../../arm-none-eabi/lib/thumb/v7e-m+fp/hard\libc_nano.a(libc_a-printf.o)
 .text._printf_r
                0x00000000       0x1c C:/Program Files (x86)/Arm/GNU Toolchain mingw-w64-i686-arm-none-eabi/bin/../lib/gcc/arm-none-eabi/15.2.1/../../../../arm-none-eabi/lib/thumb/v7e-m+fp/hard\libc_nano.a(libc_a-printf.o)
 .text          0x00000000        0x0 C:/Program Files (x86)/Arm/GNU Toolchain mingw-w64-i686-arm-none-eabi/bin/../lib/gcc/arm-none-eabi/15.2.1/../../../../arm-none-eabi/lib/thumb/v7e-m+fp/hard\libc_nano.a(libc_a-puts.o)
 .data          0x00000000        0x0 C:/Program Files (x86)/Arm/GNU Toolchain mingw-w64-i686-arm-none-eabi/bin/../lib/gcc/arm-none-eabi/15.2.1/../../../../arm-none-eabi/lib/thumb/v7e-m+fp/hard\libc_nano.a(libc_a-puts.o)
 .bss           0x00000000        0x0 C:/Program Files (x86)/Arm/GNU Toolchain mingw-w64-i686-arm-none-eabi/bin/../lib/gcc/arm-none-eabi/15.2.1/../../../../arm-none-eabi/lib/thumb/v7e-m+fp/hard\libc_nano.a(libc_a-puts.o)
 .text          0x00000000        0x0 C:/Program Files (x86)/Arm/GNU Toolchain mingw-w64-i686-arm-none-eabi/bin/../lib/gcc/arm-none-eabi/15.2.1/../../../../arm-none-eabi/lib/thumb/v7e-m+fp/hard\libc_nano.a(libc_a-stdio.o)
 .data          0x00000000        0x0 C:/Program Files (x86)/Arm/GNU Toolchain mingw-w64-i686-arm-none-eabi/bin/../lib/gcc/arm-none-eabi/15.2.1/../../../../arm-none-eabi/lib/thumb/v7e-m+fp/hard\libc_nano.a(libc_a-stdio.o)
 .bss           0x00000000        0x0 C:/Program Files (x86)/Arm/GNU Toolchain mingw-w64-i686-arm-none-eabi/bin/../lib/gcc/arm-none-eabi/15.2.1/../../../../arm-none-eabi/lib/thumb/v7e-m+fp/hard\libc_nano.a(libc_a-stdio.o)
 .text.__seofread
                0x00000000        0x4 C:/Program Files (x86)/Arm/GNU Toolchain mingw-w64-i686-arm-none-eabi/bin/../lib/gcc/arm-none-eabi/15.2.1/../../../../arm-none-eabi/lib/thumb/v7e-m+fp/hard\libc_nano.a(libc_a-stdio.o)
 .text          0x00000000        0x0 C:/Program Files (x86)/Arm/GNU Toolchain mingw-w64-i686-arm-none-eabi/bin/../lib/gcc/arm-none-eabi/15.2.1/../../../../arm-none-eabi/lib/thumb/v7e-m+fp/hard\libc_nano.a(libc_a-wbuf.o)
 .data          0x00000000        0x0 C:/Program Files (x86)/Arm/GNU Toolchain mingw-w64-i686-arm-none-eabi/bin/../lib/gcc/arm-none-eabi/15.2.1/../../../../arm-none-eabi/lib/thumb/v7e-m+fp/hard\libc_nano.a(libc_a-wbuf.o)
 .bss           0x00000000        0x0 C:/Program Files (x86)/Arm/GNU Toolchain mingw-w64-i686-arm-none-eabi/bin/../lib/gcc/arm-none-eabi/15.2.1/../../../../arm-none-eabi/lib/thumb/v7e-m+fp/hard\libc_nano.a(libc_a-wbuf.o)
 .text.__swbuf  0x00000000       0x10 C:/Program Files (x86)/Arm/GNU Toolchain mingw-w64-i686-arm-none-eabi/bin/../lib/gcc/arm-none-eabi/15.2.1/../../../../arm-none-eabi/lib/thumb/v7e-m+fp/hard\libc_nano.a(libc_a-wbuf.o)
 .text          0x00000000        0x0 C:/Program Files (x86)/Arm/GNU Toolchain mingw-w64-i686-arm-none-eabi/bin/../lib/gcc/arm-none-eabi/15.2.1/../../../../arm-none-eabi/lib/thumb/v7e-m+fp/hard\libc_nano.a(libc_a-wsetup.o)
 .data          0x00000000        0x0 C:/Program Files (x86)/Arm/GNU Toolchain mingw-w64-i686-arm-none-eabi/bin/../lib/gcc/arm-none-eabi/15.2.1/../../../../arm-none-eabi/lib/thumb/v7e-m+fp/hard\libc_nano.a(libc_a-wsetup.o)
 .bss           0x00000000        0x0 C:/Program Files (x86)/Arm/GNU Toolchain mingw-w64-i686-arm-none-eabi/bin/../lib/gcc/arm-none-eabi/15.2.1/../../../../arm-none-eabi/lib/thumb/v7e-m+fp/hard\libc_nano.a(libc_a-wsetup.o)
 .text          0x00000000        0x0 C:/Program Files (x86)/Arm/GNU Toolchain mingw-w64-i686-arm-none-eabi/bin/../lib/gcc/arm-none-eabi/15.2.1/../../../../arm-none-eabi/lib/thumb/v7e-m+fp/hard\libc_nano.a(libc_a-memmove.o)
 .data          0x00000000        0x0 C:/Program Files (x86)/Arm/GNU Toolchain mingw-w64-i686-arm-none-eabi/bin/../lib/gcc/arm-none-eabi/15.2.1/../../../../arm-none-eabi/lib/thumb/v7e-m+fp/hard\libc_nano.a(libc_a-memmove.o)
 .bss           0x00000000        0x0 C:/Program Files (x86)/Arm/GNU Toolchain mingw-w64-i686-arm-none-eabi/bin/../lib/gcc/arm-none-eabi/15.2.1/../../../../arm-none-eabi/lib/thumb/v7e-m+fp/hard\libc_nano.a(libc_a-memmove.o)
 .text.memmove  0x00000000       0x32 C:/Program Files (x86)/Arm/GNU Toolchain mingw-w64-i686-arm-none-eabi/bin/../lib/gcc/arm-none-eabi/15.2.1/../../../../arm-none-eabi/lib/thumb/v7e-m+fp/hard\libc_nano.a(libc_a-memmove.o)
 .debug_frame   0x00000000       0x28 C:/Program Files (x86)/Arm/GNU Toolchain mingw-w64-i686-arm-none-eabi/bin/../lib/gcc/arm-none-eabi/15.2.1/../../../../arm-none-eabi/lib/thumb/v7e-m+fp/hard\libc_nano.a(libc_a-memmove.o)
 .ARM.attributes
                0x00000000       0x34 C:/Program Files (x86)/Arm/GNU Toolchain mingw-w64-i686-arm-none-eabi/bin/../lib/gcc/arm-none-eabi/15.2.1/../../../../arm-none-eabi/lib/thumb/v7e-m+fp/hard\libc_nano.a(libc_a-memmove.o)
 .text          0x00000000        0x0 C:/Program Files (x86)/Arm/GNU Toolchain mingw-w64-i686-arm-none-eabi/bin/../lib/gcc/arm-none-eabi/15.2.1/../../../../arm-none-eabi/lib/thumb/v7e-m+fp/hard\libc_nano.a(libc_a-closer.o)
 .data          0x00000000        0x0 C:/Program Files (x86)/Arm/GNU Toolchain mingw-w64-i686-arm-none-eabi/bin/../lib/gcc/arm-none-eabi/15.2.1/../../../../arm-none-eabi/lib/thumb/v7e-m+fp/hard\libc_nano.a(libc_a-closer.o)
 .bss           0x00000000        0x0 C:/Program Files (x86)/Arm/GNU Toolchain mingw-w64-i686-arm-none-eabi/bin/../lib/gcc/arm-none-eabi/15.2.1/../../../../arm-none-eabi/lib/thumb/v7e-m+fp/hard\libc_nano.a(libc_a-closer.o)
 .text          0x00000000        0x0 C:/Program Files (x86)/Arm/GNU Toolchain mingw-w64-i686-arm-none-eabi/bin/../lib/gcc/arm-none-eabi/15.2.1/../../../../arm-none-eabi/lib/thumb/v7e-m+fp/hard\libc_nano.a(libc_a-reent.o)
 .data          0x00000000        0x0 C:/Program Files (x86)/Arm/GNU Toolchain mingw-w64-i686-arm-none-eabi/bin/../lib/gcc/arm-none-eabi/15.2.1/../../../../arm-none-eabi/lib/thumb/v7e-m+fp/hard\libc_nano.a(libc_a-reent.o)
 .bss           0x00000000        0x0 C:/Program Files (x86)/Arm/GNU Toolchain mingw-w64-i686-arm-none-eabi/bin/../lib/gcc/arm-none-eabi/15.2.1/../../../../arm-none-eabi/lib/thumb/v7e-m+fp/hard\libc_nano.a(libc_a-reent.o)
 .text._reclaim_reent
                0x00000000       0xbc C:/Program Files (x86)/Arm/GNU Toolchain mingw-w64-i686-arm-none-eabi/bin/../lib/gcc/arm-none-eabi/15.2.1/../../../../arm-none-eabi/lib/thumb/v7e-m+fp/hard\libc_nano.a(libc_a-reent.o)
 .text          0x00000000        0x0 C:/Program Files (x86)/Arm/GNU Toolchain mingw-w64-i686-arm-none-eabi/bin/../lib/gcc/arm-none-eabi/15.2.1/../../../../arm-none-eabi/lib/thumb/v7e-m+fp/hard\libc_nano.a(libc_a-impure.o)
 .data          0x00000000        0x0 C:/Program Files (x86)/Arm/GNU Toolchain mingw-w64-i686-arm-none-eabi/bin/../lib/gcc/arm-none-eabi/15.2.1/../../../../arm-none-eabi/lib/thumb/v7e-m+fp/hard\libc_nano.a(libc_a-impure.o)
 .bss           0x00000000        0x0 C:/Program Files (x86)/Arm/GNU Toolchain mingw-w64-i686-arm-none-eabi/bin/../lib/gcc/arm-none-eabi/15.2.1/../../../../arm-none-eabi/lib/thumb/v7e-m+fp/hard\libc_nano.a(libc_a-impure.o)
 .text          0x00000000        0x0 C:/Program Files (x86)/Arm/GNU Toolchain mingw-w64-i686-arm-none-eabi/bin/../lib/gcc/arm-none-eabi/15.2.1/../../../../arm-none-eabi/lib/thumb/v7e-m+fp/hard\libc_nano.a(libc_a-lseekr.o)
 .data          0x00000000        0x0 C:/Program Files (x86)/Arm/GNU Toolchain mingw-w64-i686-arm-none-eabi/bin/../lib/gcc/arm-none-eabi/15.2.1/../../../../arm-none-eabi/lib/thumb/v7e-m+fp/hard\libc_nano.a(libc_a-lseekr.o)
 .bss           0x00000000        0x0 C:/Program Files (x86)/Arm/GNU Toolchain mingw-w64-i686-arm-none-eabi/bin/../lib/gcc/arm-none-eabi/15.2.1/../../../../arm-none-eabi/lib/thumb/v7e-m+fp/hard\libc_nano.a(libc_a-lseekr.o)
 .text          0x00000000        0x0 C:/Program Files (x86)/Arm/GNU Toolchain mingw-w64-i686-arm-none-eabi/bin/../lib/gcc/arm-none-eabi/15.2.1/../../../../arm-none-eabi/lib/thumb/v7e-m+fp/hard\libc_nano.a(libc_a-readr.o)
 .data          0x00000000        0x0 C:/Program Files (x86)/Arm/GNU Toolchain mingw-w64-i686-arm-none-eabi/bin/../lib/gcc/arm-none-eabi/15.2.1/../../../../arm-none-eabi/lib/thumb/v7e-m+fp/hard\libc_nano.a(libc_a-readr.o)
 .bss           0x00000000        0x0 C:/Program Files (x86)/Arm/GNU Toolchain mingw-w64-i686-arm-none-eabi/bin/../lib/gcc/arm-none-eabi/15.2.1/../../../../arm-none-eabi/lib/thumb/v7e-m+fp/hard\libc_nano.a(libc_a-readr.o)
 .text          0x00000000        0x0 C:/Program Files (x86)/Arm/GNU Toolchain mingw-w64-i686-arm-none-eabi/bin/../lib/gcc/arm-none-eabi/15.2.1/../../../../arm-none-eabi/lib/thumb/v7e-m+fp/hard\libc_nano.a(libc_a-writer.o)
 .data          0x00000000        0x0 C:/Program Files (x86)/Arm/GNU Toolchain mingw-w64-i686-arm-none-eabi/bin/../lib/gcc/arm-none-eabi/15.2.1/../../../../arm-none-eabi/lib/thumb/v7e-m+fp/hard\libc_nano.a(libc_a-writer.o)
 .bss           0x00000000        0x0 C:/Program Files (x86)/Arm/GNU Toolchain mingw-w64-i686-arm-none-eabi/bin/../lib/gcc/arm-none-eabi/15.2.1/../../../../arm-none-eabi/lib/thumb/v7e-m+fp/hard\libc_nano.a(libc_a-writer.o)
 .text          0x00000000        0x0 C:/Program Files (x86)/Arm/GNU Toolchain mingw-w64-i686-arm-none-eabi/bin/../lib/gcc/arm-none-eabi/15.2.1/../../../../arm-none-eabi/lib/thumb/v7e-m+fp/hard\libc_nano.a(libc_a-errno.o)
 .data          0x00000000        0x0 C:/Program Files (x86)/Arm/GNU Toolchain mingw-w64-i686-arm-none-eabi/bin/../lib/gcc/arm-none-eabi/15.2.1/../../../../arm-none-eabi/lib/thumb/v7e-m+fp/hard\libc_nano.a(libc_a-errno.o)
 .bss           0x00000000        0x0 C:/Program Files (x86)/Arm/GNU Toolchain mingw-w64-i686-arm-none-eabi/bin/../lib/gcc/arm-none-eabi/15.2.1/../../../../arm-none-eabi/lib/thumb/v7e-m+fp/hard\libc_nano.a(libc_a-errno.o)
 .text          0x00000000        0x0 C:/Program Files (x86)/Arm/GNU Toolchain mingw-w64-i686-arm-none-eabi/bin/../lib/gcc/arm-none-eabi/15.2.1/../../../../arm-none-eabi/lib/thumb/v7e-m+fp/hard\libc_nano.a(libc_a-init.o)
 .data          0x00000000        0x0 C:/Program Files (x86)/Arm/GNU Toolchain mingw-w64-i686-arm-none-eabi/bin/../lib/gcc/arm-none-eabi/15.2.1/../../../../arm-none-eabi/lib/thumb/v7e-m+fp/hard\libc_nano.a(libc_a-init.o)
 .bss           0x00000000        0x0 C:/Program Files (x86)/Arm/GNU Toolchain mingw-w64-i686-arm-none-eabi/bin/../lib/gcc/arm-none-eabi/15.2.1/../../../../arm-none-eabi/lib/thumb/v7e-m+fp/hard\libc_nano.a(libc_a-init.o)
 .text          0x00000000        0x0 C:/Program Files (x86)/Arm/GNU Toolchain mingw-w64-i686-arm-none-eabi/bin/../lib/gcc/arm-none-eabi/15.2.1/../../../../arm-none-eabi/lib/thumb/v7e-m+fp/hard\libc_nano.a(libc_a-lock.o)
 .data          0x00000000        0x0 C:/Program Files (x86)/Arm/GNU Toolchain mingw-w64-i686-arm-none-eabi/bin/../lib/gcc/arm-none-eabi/15.2.1/../../../../arm-none-eabi/lib/thumb/v7e-m+fp/hard\libc_nano.a(libc_a-lock.o)
 .bss           0x00000000        0x0 C:/Program Files (x86)/Arm/GNU Toolchain mingw-w64-i686-arm-none-eabi/bin/../lib/gcc/arm-none-eabi/15.2.1/../../../../arm-none-eabi/lib/thumb/v7e-m+fp/hard\libc_nano.a(libc_a-lock.o)
 .text.__retarget_lock_init
                0x00000000        0x2 C:/Program Files (x86)/Arm/GNU Toolchain mingw-w64-i686-arm-none-eabi/bin/../lib/gcc/arm-none-eabi/15.2.1/../../../../arm-none-eabi/lib/thumb/v7e-m+fp/hard\libc_nano.a(libc_a-lock.o)
 .text.__retarget_lock_close
                0x00000000        0x2 C:/Program Files (x86)/Arm/GNU Toolchain mingw-w64-i686-arm-none-eabi/bin/../lib/gcc/arm-none-eabi/15.2.1/../../../../arm-none-eabi/lib/thumb/v7e-m+fp/hard\libc_nano.a(libc_a-lock.o)
 .text.__retarget_lock_close_recursive
                0x00000000        0x2 C:/Program Files (x86)/Arm/GNU Toolchain mingw-w64-i686-arm-none-eabi/bin/../lib/gcc/arm-none-eabi/15.2.1/../../../../arm-none-eabi/lib/thumb/v7e-m+fp/hard\libc_nano.a(libc_a-lock.o)
 .text.__retarget_lock_acquire
                0x00000000        0x2 C:/Program Files (x86)/Arm/GNU Toolchain mingw-w64-i686-arm-none-eabi/bin/../lib/gcc/arm-none-eabi/15.2.1/../../../../arm-none-eabi/lib/thumb/v7e-m+fp/hard\libc_nano.a(libc_a-lock.o)
 .text.__retarget_lock_try_acquire
                0x00000000        0x4 C:/Program Files (x86)/Arm/GNU Toolchain mingw-w64-i686-arm-none-eabi/bin/../lib/gcc/arm-none-eabi/15.2.1/../../../../arm-none-eabi/lib/thumb/v7e-m+fp/hard\libc_nano.a(libc_a-lock.o)
 .text.__retarget_lock_try_acquire_recursive
                0x00000000        0x4 C:/Program Files (x86)/Arm/GNU Toolchain mingw-w64-i686-arm-none-eabi/bin/../lib/gcc/arm-none-eabi/15.2.1/../../../../arm-none-eabi/lib/thumb/v7e-m+fp/hard\libc_nano.a(libc_a-lock.o)
 .text.__retarget_lock_release
                0x00000000        0x2 C:/Program Files (x86)/Arm/GNU Toolchain mingw-w64-i686-arm-none-eabi/bin/../lib/gcc/arm-none-eabi/15.2.1/../../../../arm-none-eabi/lib/thumb/v7e-m+fp/hard\libc_nano.a(libc_a-lock.o)
 .bss.__lock___arc4random_mutex
                0x00000000        0x1 C:/Program Files (x86)/Arm/GNU Toolchain mingw-w64-i686-arm-none-eabi/bin/../lib/gcc/arm-none-eabi/15.2.1/../../../../arm-none-eabi/lib/thumb/v7e-m+fp/hard\libc_nano.a(libc_a-lock.o)
 .bss.__lock___dd_hash_mutex
                0x00000000        0x1 C:/Program Files (x86)/Arm/GNU Toolchain mingw-w64-i686-arm-none-eabi/bin/../lib/gcc/arm-none-eabi/15.2.1/../../../../arm-none-eabi/lib/thumb/v7e-m+fp/hard\libc_nano.a(libc_a-lock.o)
 .bss.__lock___tz_mutex
                0x00000000        0x1 C:/Program Files (x86)/Arm/GNU Toolchain mingw-w64-i686-arm-none-eabi/bin/../lib/gcc/arm-none-eabi/15.2.1/../../../../arm-none-eabi/lib/thumb/v7e-m+fp/hard\libc_nano.a(libc_a-lock.o)
 .bss.__lock___env_recursive_mutex
                0x00000000        0x1 C:/Program Files (x86)/Arm/GNU Toolchain mingw-w64-i686-arm-none-eabi/bin/../lib/gcc/arm-none-eabi/15.2.1/../../../../arm-none-eabi/lib/thumb/v7e-m+fp/hard\libc_nano.a(libc_a-lock.o)
 .bss.__lock___at_quick_exit_mutex
                0x00000000        0x1 C:/Program Files (x86)/Arm/GNU Toolchain mingw-w64-i686-arm-none-eabi/bin/../lib/gcc/arm-none-eabi/15.2.1/../../../../arm-none-eabi/lib/thumb/v7e-m+fp/hard\libc_nano.a(libc_a-lock.o)
 .bss.__lock___atexit_recursive_mutex
                0x00000000        0x1 C:/Program Files (x86)/Arm/GNU Toolchain mingw-w64-i686-arm-none-eabi/bin/../lib/gcc/arm-none-eabi/15.2.1/../../../../arm-none-eabi/lib/thumb/v7e-m+fp/hard\libc_nano.a(libc_a-lock.o)
 .text          0x00000000        0x0 C:/Program Files (x86)/Arm/GNU Toolchain mingw-w64-i686-arm-none-eabi/bin/../lib/gcc/arm-none-eabi/15.2.1/../../../../arm-none-eabi/lib/thumb/v7e-m+fp/hard\libc_nano.a(libc_a-freer.o)
 .data          0x00000000        0x0 C:/Program Files (x86)/Arm/GNU Toolchain mingw-w64-i686-arm-none-eabi/bin/../lib/gcc/arm-none-eabi/15.2.1/../../../../arm-none-eabi/lib/thumb/v7e-m+fp/hard\libc_nano.a(libc_a-freer.o)
 .bss           0x00000000        0x0 C:/Program Files (x86)/Arm/GNU Toolchain mingw-w64-i686-arm-none-eabi/bin/../lib/gcc/arm-none-eabi/15.2.1/../../../../arm-none-eabi/lib/thumb/v7e-m+fp/hard\libc_nano.a(libc_a-freer.o)
 .text          0x00000000        0x0 C:/Program Files (x86)/Arm/GNU Toolchain mingw-w64-i686-arm-none-eabi/bin/../lib/gcc/arm-none-eabi/15.2.1/../../../../arm-none-eabi/lib/thumb/v7e-m+fp/hard\libc_nano.a(libc_a-mallocr.o)
 .data          0x00000000        0x0 C:/Program Files (x86)/Arm/GNU Toolchain mingw-w64-i686-arm-none-eabi/bin/../lib/gcc/arm-none-eabi/15.2.1/../../../../arm-none-eabi/lib/thumb/v7e-m+fp/hard\libc_nano.a(libc_a-mallocr.o)
 .bss           0x00000000        0x0 C:/Program Files (x86)/Arm/GNU Toolchain mingw-w64-i686-arm-none-eabi/bin/../lib/gcc/arm-none-eabi/15.2.1/../../../../arm-none-eabi/lib/thumb/v7e-m+fp/hard\libc_nano.a(libc_a-mallocr.o)
 .text          0x00000000        0x0 C:/Program Files (x86)/Arm/GNU Toolchain mingw-w64-i686-arm-none-eabi/bin/../lib/gcc/arm-none-eabi/15.2.1/../../../../arm-none-eabi/lib/thumb/v7e-m+fp/hard\libc_nano.a(libc_a-mlock.o)
 .data          0x00000000        0x0 C:/Program Files (x86)/Arm/GNU Toolchain mingw-w64-i686-arm-none-eabi/bin/../lib/gcc/arm-none-eabi/15.2.1/../../../../arm-none-eabi/lib/thumb/v7e-m+fp/hard\libc_nano.a(libc_a-mlock.o)
 .bss           0x00000000        0x0 C:/Program Files (x86)/Arm/GNU Toolchain mingw-w64-i686-arm-none-eabi/bin/../lib/gcc/arm-none-eabi/15.2.1/../../../../arm-none-eabi/lib/thumb/v7e-m+fp/hard\libc_nano.a(libc_a-mlock.o)
 .text          0x00000000        0x0 C:/Program Files (x86)/Arm/GNU Toolchain mingw-w64-i686-arm-none-eabi/bin/../lib/gcc/arm-none-eabi/15.2.1/../../../../arm-none-eabi/lib/thumb/v7e-m+fp/hard\libc_nano.a(libc_a-nano-vfprintf.o)
 .data          0x00000000        0x0 C:/Program Files (x86)/Arm/GNU Toolchain mingw-w64-i686-arm-none-eabi/bin/../lib/gcc/arm-none-eabi/15.2.1/../../../../arm-none-eabi/lib/thumb/v7e-m+fp/hard\libc_nano.a(libc_a-nano-vfprintf.o)
 .bss           0x00000000        0x0 C:/Program Files (x86)/Arm/GNU Toolchain mingw-w64-i686-arm-none-eabi/bin/../lib/gcc/arm-none-eabi/15.2.1/../../../../arm-none-eabi/lib/thumb/v7e-m+fp/hard\libc_nano.a(libc_a-nano-vfprintf.o)
 .text.__sprint_r
                0x00000000       0x1a C:/Program Files (x86)/Arm/GNU Toolchain mingw-w64-i686-arm-none-eabi/bin/../lib/gcc/arm-none-eabi/15.2.1/../../../../arm-none-eabi/lib/thumb/v7e-m+fp/hard\libc_nano.a(libc_a-nano-vfprintf.o)
 .text.vfprintf
                0x00000000       0x14 C:/Program Files (x86)/Arm/GNU Toolchain mingw-w64-i686-arm-none-eabi/bin/../lib/gcc/arm-none-eabi/15.2.1/../../../../arm-none-eabi/lib/thumb/v7e-m+fp/hard\libc_nano.a(libc_a-nano-vfprintf.o)
 .text          0x00000000        0x0 C:/Program Files (x86)/Arm/GNU Toolchain mingw-w64-i686-arm-none-eabi/bin/../lib/gcc/arm-none-eabi/15.2.1/../../../../arm-none-eabi/lib/thumb/v7e-m+fp/hard\libc_nano.a(libc_a-nano-vfprintf_i.o)
 .data          0x00000000        0x0 C:/Program Files (x86)/Arm/GNU Toolchain mingw-w64-i686-arm-none-eabi/bin/../lib/gcc/arm-none-eabi/15.2.1/../../../../arm-none-eabi/lib/thumb/v7e-m+fp/hard\libc_nano.a(libc_a-nano-vfprintf_i.o)
 .bss           0x00000000        0x0 C:/Program Files (x86)/Arm/GNU Toolchain mingw-w64-i686-arm-none-eabi/bin/../lib/gcc/arm-none-eabi/15.2.1/../../../../arm-none-eabi/lib/thumb/v7e-m+fp/hard\libc_nano.a(libc_a-nano-vfprintf_i.o)
 .text          0x00000000        0x0 C:/Program Files (x86)/Arm/GNU Toolchain mingw-w64-i686-arm-none-eabi/bin/../lib/gcc/arm-none-eabi/15.2.1/../../../../arm-none-eabi/lib/thumb/v7e-m+fp/hard\libc_nano.a(libc_a-fflush.o)
 .data          0x00000000        0x0 C:/Program Files (x86)/Arm/GNU Toolchain mingw-w64-i686-arm-none-eabi/bin/../lib/gcc/arm-none-eabi/15.2.1/../../../../arm-none-eabi/lib/thumb/v7e-m+fp/hard\libc_nano.a(libc_a-fflush.o)
 .bss           0x00000000        0x0 C:/Program Files (x86)/Arm/GNU Toolchain mingw-w64-i686-arm-none-eabi/bin/../lib/gcc/arm-none-eabi/15.2.1/../../../../arm-none-eabi/lib/thumb/v7e-m+fp/hard\libc_nano.a(libc_a-fflush.o)
 .text.fflush   0x00000000       0x28 C:/Program Files (x86)/Arm/GNU Toolchain mingw-w64-i686-arm-none-eabi/bin/../lib/gcc/arm-none-eabi/15.2.1/../../../../arm-none-eabi/lib/thumb/v7e-m+fp/hard\libc_nano.a(libc_a-fflush.o)
 .text          0x00000000        0x0 C:/Program Files (x86)/Arm/GNU Toolchain mingw-w64-i686-arm-none-eabi/bin/../lib/gcc/arm-none-eabi/15.2.1/../../../../arm-none-eabi/lib/thumb/v7e-m+fp/hard\libc_nano.a(libc_a-fvwrite.o)
 .data          0x00000000        0x0 C:/Program Files (x86)/Arm/GNU Toolchain mingw-w64-i686-arm-none-eabi/bin/../lib/gcc/arm-none-eabi/15.2.1/../../../../arm-none-eabi/lib/thumb/v7e-m+fp/hard\libc_nano.a(libc_a-fvwrite.o)
 .bss           0x00000000        0x0 C:/Program Files (x86)/Arm/GNU Toolchain mingw-w64-i686-arm-none-eabi/bin/../lib/gcc/arm-none-eabi/15.2.1/../../../../arm-none-eabi/lib/thumb/v7e-m+fp/hard\libc_nano.a(libc_a-fvwrite.o)
 .text.__sfvwrite_r
                0x00000000      0x2a0 C:/Program Files (x86)/Arm/GNU Toolchain mingw-w64-i686-arm-none-eabi/bin/../lib/gcc/arm-none-eabi/15.2.1/../../../../arm-none-eabi/lib/thumb/v7e-m+fp/hard\libc_nano.a(libc_a-fvwrite.o)
 .debug_frame   0x00000000       0x3c C:/Program Files (x86)/Arm/GNU Toolchain mingw-w64-i686-arm-none-eabi/bin/../lib/gcc/arm-none-eabi/15.2.1/../../../../arm-none-eabi/lib/thumb/v7e-m+fp/hard\libc_nano.a(libc_a-fvwrite.o)
 .ARM.attributes
                0x00000000       0x34 C:/Program Files (x86)/Arm/GNU Toolchain mingw-w64-i686-arm-none-eabi/bin/../lib/gcc/arm-none-eabi/15.2.1/../../../../arm-none-eabi/lib/thumb/v7e-m+fp/hard\libc_nano.a(libc_a-fvwrite.o)
 .text          0x00000000        0x0 C:/Program Files (x86)/Arm/GNU Toolchain mingw-w64-i686-arm-none-eabi/bin/../lib/gcc/arm-none-eabi/15.2.1/../../../../arm-none-eabi/lib/thumb/v7e-m+fp/hard\libc_nano.a(libc_a-makebuf.o)
 .data          0x00000000        0x0 C:/Program Files (x86)/Arm/GNU Toolchain mingw-w64-i686-arm-none-eabi/bin/../lib/gcc/arm-none-eabi/15.2.1/../../../../arm-none-eabi/lib/thumb/v7e-m+fp/hard\libc_nano.a(libc_a-makebuf.o)
 .bss           0x00000000        0x0 C:/Program Files (x86)/Arm/GNU Toolchain mingw-w64-i686-arm-none-eabi/bin/../lib/gcc/arm-none-eabi/15.2.1/../../../../arm-none-eabi/lib/thumb/v7e-m+fp/hard\libc_nano.a(libc_a-makebuf.o)
 .text          0x00000000        0x0 C:/Program Files (x86)/Arm/GNU Toolchain mingw-w64-i686-arm-none-eabi/bin/../lib/gcc/arm-none-eabi/15.2.1/../../../../arm-none-eabi/lib/thumb/v7e-m+fp/hard\libc_nano.a(libc_a-fstatr.o)
 .data          0x00000000        0x0 C:/Program Files (x86)/Arm/GNU Toolchain mingw-w64-i686-arm-none-eabi/bin/../lib/gcc/arm-none-eabi/15.2.1/../../../../arm-none-eabi/lib/thumb/v7e-m+fp/hard\libc_nano.a(libc_a-fstatr.o)
 .bss           0x00000000        0x0 C:/Program Files (x86)/Arm/GNU Toolchain mingw-w64-i686-arm-none-eabi/bin/../lib/gcc/arm-none-eabi/15.2.1/../../../../arm-none-eabi/lib/thumb/v7e-m+fp/hard\libc_nano.a(libc_a-fstatr.o)
 .text          0x00000000        0x0 C:/Program Files (x86)/Arm/GNU Toolchain mingw-w64-i686-arm-none-eabi/bin/../lib/gcc/arm-none-eabi/15.2.1/../../../../arm-none-eabi/lib/thumb/v7e-m+fp/hard\libc_nano.a(libc_a-isattyr.o)
 .data          0x00000000        0x0 C:/Program Files (x86)/Arm/GNU Toolchain mingw-w64-i686-arm-none-eabi/bin/../lib/gcc/arm-none-eabi/15.2.1/../../../../arm-none-eabi/lib/thumb/v7e-m+fp/hard\libc_nano.a(libc_a-isattyr.o)
 .bss           0x00000000        0x0 C:/Program Files (x86)/Arm/GNU Toolchain mingw-w64-i686-arm-none-eabi/bin/../lib/gcc/arm-none-eabi/15.2.1/../../../../arm-none-eabi/lib/thumb/v7e-m+fp/hard\libc_nano.a(libc_a-isattyr.o)
 .text          0x00000000        0x0 C:/Program Files (x86)/Arm/GNU Toolchain mingw-w64-i686-arm-none-eabi/bin/../lib/gcc/arm-none-eabi/15.2.1/../../../../arm-none-eabi/lib/thumb/v7e-m+fp/hard\libc_nano.a(libc_a-sbrkr.o)
 .data          0x00000000        0x0 C:/Program Files (x86)/Arm/GNU Toolchain mingw-w64-i686-arm-none-eabi/bin/../lib/gcc/arm-none-eabi/15.2.1/../../../../arm-none-eabi/lib/thumb/v7e-m+fp/hard\libc_nano.a(libc_a-sbrkr.o)
 .bss           0x00000000        0x0 C:/Program Files (x86)/Arm/GNU Toolchain mingw-w64-i686-arm-none-eabi/bin/../lib/gcc/arm-none-eabi/15.2.1/../../../../arm-none-eabi/lib/thumb/v7e-m+fp/hard\libc_nano.a(libc_a-sbrkr.o)
 .data          0x00000000        0x0 C:/Program Files (x86)/Arm/GNU Toolchain mingw-w64-i686-arm-none-eabi/bin/../lib/gcc/arm-none-eabi/15.2.1/../../../../arm-none-eabi/lib/thumb/v7e-m+fp/hard\libc_nano.a(libc_a-memchr.o)
 .bss           0x00000000        0x0 C:/Program Files (x86)/Arm/GNU Toolchain mingw-w64-i686-arm-none-eabi/bin/../lib/gcc/arm-none-eabi/15.2.1/../../../../arm-none-eabi/lib/thumb/v7e-m+fp/hard\libc_nano.a(libc_a-memchr.o)
 .ARM.extab     0x00000000        0x0 C:/Program Files (x86)/Arm/GNU Toolchain mingw-w64-i686-arm-none-eabi/bin/../lib/gcc/arm-none-eabi/15.2.1/../../../../arm-none-eabi/lib/thumb/v7e-m+fp/hard\libc_nano.a(libc_a-memchr.o)
 .text          0x00000000        0x0 C:/Program Files (x86)/Arm/GNU Toolchain mingw-w64-i686-arm-none-eabi/bin/../lib/gcc/arm-none-eabi/15.2.1/../../../../arm-none-eabi/lib/thumb/v7e-m+fp/hard\libc_nano.a(libc_a-reallocr.o)
 .data          0x00000000        0x0 C:/Program Files (x86)/Arm/GNU Toolchain mingw-w64-i686-arm-none-eabi/bin/../lib/gcc/arm-none-eabi/15.2.1/../../../../arm-none-eabi/lib/thumb/v7e-m+fp/hard\libc_nano.a(libc_a-reallocr.o)
 .bss           0x00000000        0x0 C:/Program Files (x86)/Arm/GNU Toolchain mingw-w64-i686-arm-none-eabi/bin/../lib/gcc/arm-none-eabi/15.2.1/../../../../arm-none-eabi/lib/thumb/v7e-m+fp/hard\libc_nano.a(libc_a-reallocr.o)
 .text._realloc_r
                0x00000000       0x5c C:/Program Files (x86)/Arm/GNU Toolchain mingw-w64-i686-arm-none-eabi/bin/../lib/gcc/arm-none-eabi/15.2.1/../../../../arm-none-eabi/lib/thumb/v7e-m+fp/hard\libc_nano.a(libc_a-reallocr.o)
 .debug_frame   0x00000000       0x3c C:/Program Files (x86)/Arm/GNU Toolchain mingw-w64-i686-arm-none-eabi/bin/../lib/gcc/arm-none-eabi/15.2.1/../../../../arm-none-eabi/lib/thumb/v7e-m+fp/hard\libc_nano.a(libc_a-reallocr.o)
 .ARM.attributes
                0x00000000       0x34 C:/Program Files (x86)/Arm/GNU Toolchain mingw-w64-i686-arm-none-eabi/bin/../lib/gcc/arm-none-eabi/15.2.1/../../../../arm-none-eabi/lib/thumb/v7e-m+fp/hard\libc_nano.a(libc_a-reallocr.o)
 .text          0x00000000        0x0 C:/Program Files (x86)/Arm/GNU Toolchain mingw-w64-i686-arm-none-eabi/bin/../lib/gcc/arm-none-eabi/15.2.1/../../../../arm-none-eabi/lib/thumb/v7e-m+fp/hard\libc_nano.a(libc_a-msizer.o)
 .data          0x00000000        0x0 C:/Program Files (x86)/Arm/GNU Toolchain mingw-w64-i686-arm-none-eabi/bin/../lib/gcc/arm-none-eabi/15.2.1/../../../../arm-none-eabi/lib/thumb/v7e-m+fp/hard\libc_nano.a(libc_a-msizer.o)
 .bss           0x00000000        0x0 C:/Program Files (x86)/Arm/GNU Toolchain mingw-w64-i686-arm-none-eabi/bin/../lib/gcc/arm-none-eabi/15.2.1/../../../../arm-none-eabi/lib/thumb/v7e-m+fp/hard\libc_nano.a(libc_a-msizer.o)
 .text._malloc_usable_size_r
                0x00000000       0x10 C:/Program Files (x86)/Arm/GNU Toolchain mingw-w64-i686-arm-none-eabi/bin/../lib/gcc/arm-none-eabi/15.2.1/../../../../arm-none-eabi/lib/thumb/v7e-m+fp/hard\libc_nano.a(libc_a-msizer.o)
 .debug_frame   0x00000000       0x20 C:/Program Files (x86)/Arm/GNU Toolchain mingw-w64-i686-arm-none-eabi/bin/../lib/gcc/arm-none-eabi/15.2.1/../../../../arm-none-eabi/lib/thumb/v7e-m+fp/hard\libc_nano.a(libc_a-msizer.o)
 .ARM.attributes
                0x00000000       0x34 C:/Program Files (x86)/Arm/GNU Toolchain mingw-w64-i686-arm-none-eabi/bin/../lib/gcc/arm-none-eabi/15.2.1/../../../../arm-none-eabi/lib/thumb/v7e-m+fp/hard\libc_nano.a(libc_a-msizer.o)
 .text          0x00000000        0x0 C:/Program Files (x86)/Arm/GNU Toolchain mingw-w64-i686-arm-none-eabi/bin/../lib/gcc/arm-none-eabi/15.2.1/../../../../arm-none-eabi/lib/thumb/v7e-m+fp/hard\libm.a(libm_a-w_atan2.o)
 .data          0x00000000        0x0 C:/Program Files (x86)/Arm/GNU Toolchain mingw-w64-i686-arm-none-eabi/bin/../lib/gcc/arm-none-eabi/15.2.1/../../../../arm-none-eabi/lib/thumb/v7e-m+fp/hard\libm.a(libm_a-w_atan2.o)
 .bss           0x00000000        0x0 C:/Program Files (x86)/Arm/GNU Toolchain mingw-w64-i686-arm-none-eabi/bin/../lib/gcc/arm-none-eabi/15.2.1/../../../../arm-none-eabi/lib/thumb/v7e-m+fp/hard\libm.a(libm_a-w_atan2.o)
 .text.atan2    0x00000000        0x4 C:/Program Files (x86)/Arm/GNU Toolchain mingw-w64-i686-arm-none-eabi/bin/../lib/gcc/arm-none-eabi/15.2.1/../../../../arm-none-eabi/lib/thumb/v7e-m+fp/hard\libm.a(libm_a-w_atan2.o)
 .debug_frame   0x00000000       0x20 C:/Program Files (x86)/Arm/GNU Toolchain mingw-w64-i686-arm-none-eabi/bin/../lib/gcc/arm-none-eabi/15.2.1/../../../../arm-none-eabi/lib/thumb/v7e-m+fp/hard\libm.a(libm_a-w_atan2.o)
 .ARM.attributes
                0x00000000       0x34 C:/Program Files (x86)/Arm/GNU Toolchain mingw-w64-i686-arm-none-eabi/bin/../lib/gcc/arm-none-eabi/15.2.1/../../../../arm-none-eabi/lib/thumb/v7e-m+fp/hard\libm.a(libm_a-w_atan2.o)
 .text          0x00000000        0x0 C:/Program Files (x86)/Arm/GNU Toolchain mingw-w64-i686-arm-none-eabi/bin/../lib/gcc/arm-none-eabi/15.2.1/../../../../arm-none-eabi/lib/thumb/v7e-m+fp/hard\libm.a(libm_a-w_log.o)
 .data          0x00000000        0x0 C:/Program Files (x86)/Arm/GNU Toolchain mingw-w64-i686-arm-none-eabi/bin/../lib/gcc/arm-none-eabi/15.2.1/../../../../arm-none-eabi/lib/thumb/v7e-m+fp/hard\libm.a(libm_a-w_log.o)
 .bss           0x00000000        0x0 C:/Program Files (x86)/Arm/GNU Toolchain mingw-w64-i686-arm-none-eabi/bin/../lib/gcc/arm-none-eabi/15.2.1/../../../../arm-none-eabi/lib/thumb/v7e-m+fp/hard\libm.a(libm_a-w_log.o)
 .text          0x00000000        0x0 C:/Program Files (x86)/Arm/GNU Toolchain mingw-w64-i686-arm-none-eabi/bin/../lib/gcc/arm-none-eabi/15.2.1/../../../../arm-none-eabi/lib/thumb/v7e-m+fp/hard\libm.a(libm_a-w_sqrt.o)
 .data          0x00000000        0x0 C:/Program Files (x86)/Arm/GNU Toolchain mingw-w64-i686-arm-none-eabi/bin/../lib/gcc/arm-none-eabi/15.2.1/../../../../arm-none-eabi/lib/thumb/v7e-m+fp/hard\libm.a(libm_a-w_sqrt.o)
 .bss           0x00000000        0x0 C:/Program Files (x86)/Arm/GNU Toolchain mingw-w64-i686-arm-none-eabi/bin/../lib/gcc/arm-none-eabi/15.2.1/../../../../arm-none-eabi/lib/thumb/v7e-m+fp/hard\libm.a(libm_a-w_sqrt.o)
 .text.sqrt     0x00000000       0x68 C:/Program Files (x86)/Arm/GNU Toolchain mingw-w64-i686-arm-none-eabi/bin/../lib/gcc/arm-none-eabi/15.2.1/../../../../arm-none-eabi/lib/thumb/v7e-m+fp/hard\libm.a(libm_a-w_sqrt.o)
 .debug_frame   0x00000000       0x48 C:/Program Files (x86)/Arm/GNU Toolchain mingw-w64-i686-arm-none-eabi/bin/../lib/gcc/arm-none-eabi/15.2.1/../../../../arm-none-eabi/lib/thumb/v7e-m+fp/hard\libm.a(libm_a-w_sqrt.o)
 .ARM.attributes
                0x00000000       0x34 C:/Program Files (x86)/Arm/GNU Toolchain mingw-w64-i686-arm-none-eabi/bin/../lib/gcc/arm-none-eabi/15.2.1/../../../../arm-none-eabi/lib/thumb/v7e-m+fp/hard\libm.a(libm_a-w_sqrt.o)
 .text          0x00000000        0x0 C:/Program Files (x86)/Arm/GNU Toolchain mingw-w64-i686-arm-none-eabi/bin/../lib/gcc/arm-none-eabi/15.2.1/../../../../arm-none-eabi/lib/thumb/v7e-m+fp/hard\libm.a(libm_a-s_cos.o)
 .data          0x00000000        0x0 C:/Program Files (x86)/Arm/GNU Toolchain mingw-w64-i686-arm-none-eabi/bin/../lib/gcc/arm-none-eabi/15.2.1/../../../../arm-none-eabi/lib/thumb/v7e-m+fp/hard\libm.a(libm_a-s_cos.o)
 .bss           0x00000000        0x0 C:/Program Files (x86)/Arm/GNU Toolchain mingw-w64-i686-arm-none-eabi/bin/../lib/gcc/arm-none-eabi/15.2.1/../../../../arm-none-eabi/lib/thumb/v7e-m+fp/hard\libm.a(libm_a-s_cos.o)
 .text          0x00000000        0x0 C:/Program Files (x86)/Arm/GNU Toolchain mingw-w64-i686-arm-none-eabi/bin/../lib/gcc/arm-none-eabi/15.2.1/../../../../arm-none-eabi/lib/thumb/v7e-m+fp/hard\libm.a(libm_a-s_sin.o)
 .data          0x00000000        0x0 C:/Program Files (x86)/Arm/GNU Toolchain mingw-w64-i686-arm-none-eabi/bin/../lib/gcc/arm-none-eabi/15.2.1/../../../../arm-none-eabi/lib/thumb/v7e-m+fp/hard\libm.a(libm_a-s_sin.o)
 .bss           0x00000000        0x0 C:/Program Files (x86)/Arm/GNU Toolchain mingw-w64-i686-arm-none-eabi/bin/../lib/gcc/arm-none-eabi/15.2.1/../../../../arm-none-eabi/lib/thumb/v7e-m+fp/hard\libm.a(libm_a-s_sin.o)
 .text          0x00000000        0x0 C:/Program Files (x86)/Arm/GNU Toolchain mingw-w64-i686-arm-none-eabi/bin/../lib/gcc/arm-none-eabi/15.2.1/../../../../arm-none-eabi/lib/thumb/v7e-m+fp/hard\libm.a(libm_a-s_nan.o)
 .data          0x00000000        0x0 C:/Program Files (x86)/Arm/GNU Toolchain mingw-w64-i686-arm-none-eabi/bin/../lib/gcc/arm-none-eabi/15.2.1/../../../../arm-none-eabi/lib/thumb/v7e-m+fp/hard\libm.a(libm_a-s_nan.o)
 .bss           0x00000000        0x0 C:/Program Files (x86)/Arm/GNU Toolchain mingw-w64-i686-arm-none-eabi/bin/../lib/gcc/arm-none-eabi/15.2.1/../../../../arm-none-eabi/lib/thumb/v7e-m+fp/hard\libm.a(libm_a-s_nan.o)
 .text          0x00000000        0x0 C:/Program Files (x86)/Arm/GNU Toolchain mingw-w64-i686-arm-none-eabi/bin/../lib/gcc/arm-none-eabi/15.2.1/../../../../arm-none-eabi/lib/thumb/v7e-m+fp/hard\libm.a(libm_a-e_sqrt.o)
 .data          0x00000000        0x0 C:/Program Files (x86)/Arm/GNU Toolchain mingw-w64-i686-arm-none-eabi/bin/../lib/gcc/arm-none-eabi/15.2.1/../../../../arm-none-eabi/lib/thumb/v7e-m+fp/hard\libm.a(libm_a-e_sqrt.o)
 .bss           0x00000000        0x0 C:/Program Files (x86)/Arm/GNU Toolchain mingw-w64-i686-arm-none-eabi/bin/../lib/gcc/arm-none-eabi/15.2.1/../../../../arm-none-eabi/lib/thumb/v7e-m+fp/hard\libm.a(libm_a-e_sqrt.o)
 .text.__ieee754_sqrt
                0x00000000      0x1f0 C:/Program Files (x86)/Arm/GNU Toolchain mingw-w64-i686-arm-none-eabi/bin/../lib/gcc/arm-none-eabi/15.2.1/../../../../arm-none-eabi/lib/thumb/v7e-m+fp/hard\libm.a(libm_a-e_sqrt.o)
 .rodata.tiny   0x00000000        0x8 C:/Program Files (x86)/Arm/GNU Toolchain mingw-w64-i686-arm-none-eabi/bin/../lib/gcc/arm-none-eabi/15.2.1/../../../../arm-none-eabi/lib/thumb/v7e-m+fp/hard\libm.a(libm_a-e_sqrt.o)
 .rodata.one    0x00000000        0x8 C:/Program Files (x86)/Arm/GNU Toolchain mingw-w64-i686-arm-none-eabi/bin/../lib/gcc/arm-none-eabi/15.2.1/../../../../arm-none-eabi/lib/thumb/v7e-m+fp/hard\libm.a(libm_a-e_sqrt.o)
 .debug_frame   0x00000000       0x38 C:/Program Files (x86)/Arm/GNU Toolchain mingw-w64-i686-arm-none-eabi/bin/../lib/gcc/arm-none-eabi/15.2.1/../../../../arm-none-eabi/lib/thumb/v7e-m+fp/hard\libm.a(libm_a-e_sqrt.o)
 .ARM.attributes
                0x00000000       0x34 C:/Program Files (x86)/Arm/GNU Toolchain mingw-w64-i686-arm-none-eabi/bin/../lib/gcc/arm-none-eabi/15.2.1/../../../../arm-none-eabi/lib/thumb/v7e-m+fp/hard\libm.a(libm_a-e_sqrt.o)
 .text          0x00000000        0x0 C:/Program Files (x86)/Arm/GNU Toolchain mingw-w64-i686-arm-none-eabi/bin/../lib/gcc/arm-none-eabi/15.2.1/../../../../arm-none-eabi/lib/thumb/v7e-m+fp/hard\libm.a(libm_a-k_cos.o)
 .data          0x00000000        0x0 C:/Program Files (x86)/Arm/GNU Toolchain mingw-w64-i686-arm-none-eabi/bin/../lib/gcc/arm-none-eabi/15.2.1/../../../../arm-none-eabi/lib/thumb/v7e-m+fp/hard\libm.a(libm_a-k_cos.o)
 .bss           0x00000000        0x0 C:/Program Files (x86)/Arm/GNU Toolchain mingw-w64-i686-arm-none-eabi/bin/../lib/gcc/arm-none-eabi/15.2.1/../../../../arm-none-eabi/lib/thumb/v7e-m+fp/hard\libm.a(libm_a-k_cos.o)
 .text          0x00000000        0x0 C:/Program Files (x86)/Arm/GNU Toolchain mingw-w64-i686-arm-none-eabi/bin/../lib/gcc/arm-none-eabi/15.2.1/../../../../arm-none-eabi/lib/thumb/v7e-m+fp/hard\libm.a(libm_a-k_sin.o)
 .data          0x00000000        0x0 C:/Program Files (x86)/Arm/GNU Toolchain mingw-w64-i686-arm-none-eabi/bin/../lib/gcc/arm-none-eabi/15.2.1/../../../../arm-none-eabi/lib/thumb/v7e-m+fp/hard\libm.a(libm_a-k_sin.o)
 .bss           0x00000000        0x0 C:/Program Files (x86)/Arm/GNU Toolchain mingw-w64-i686-arm-none-eabi/bin/../lib/gcc/arm-none-eabi/15.2.1/../../../../arm-none-eabi/lib/thumb/v7e-m+fp/hard\libm.a(libm_a-k_sin.o)
 .text          0x00000000        0x0 C:/Program Files (x86)/Arm/GNU Toolchain mingw-w64-i686-arm-none-eabi/bin/../lib/gcc/arm-none-eabi/15.2.1/../../../../arm-none-eabi/lib/thumb/v7e-m+fp/hard\libm.a(libm_a-e_atan2.o)
 .data          0x00000000        0x0 C:/Program Files (x86)/Arm/GNU Toolchain mingw-w64-i686-arm-none-eabi/bin/../lib/gcc/arm-none-eabi/15.2.1/../../../../arm-none-eabi/lib/thumb/v7e-m+fp/hard\libm.a(libm_a-e_atan2.o)
 .bss           0x00000000        0x0 C:/Program Files (x86)/Arm/GNU Toolchain mingw-w64-i686-arm-none-eabi/bin/../lib/gcc/arm-none-eabi/15.2.1/../../../../arm-none-eabi/lib/thumb/v7e-m+fp/hard\libm.a(libm_a-e_atan2.o)
 .text.__ieee754_atan2
                0x00000000      0x1c4 C:/Program Files (x86)/Arm/GNU Toolchain mingw-w64-i686-arm-none-eabi/bin/../lib/gcc/arm-none-eabi/15.2.1/../../../../arm-none-eabi/lib/thumb/v7e-m+fp/hard\libm.a(libm_a-e_atan2.o)
 .rodata.CSWTCH.7
                0x00000000       0x18 C:/Program Files (x86)/Arm/GNU Toolchain mingw-w64-i686-arm-none-eabi/bin/../lib/gcc/arm-none-eabi/15.2.1/../../../../arm-none-eabi/lib/thumb/v7e-m+fp/hard\libm.a(libm_a-e_atan2.o)
 .rodata.CSWTCH.6
                0x00000000       0x18 C:/Program Files (x86)/Arm/GNU Toolchain mingw-w64-i686-arm-none-eabi/bin/../lib/gcc/arm-none-eabi/15.2.1/../../../../arm-none-eabi/lib/thumb/v7e-m+fp/hard\libm.a(libm_a-e_atan2.o)
 .debug_frame   0x00000000       0x44 C:/Program Files (x86)/Arm/GNU Toolchain mingw-w64-i686-arm-none-eabi/bin/../lib/gcc/arm-none-eabi/15.2.1/../../../../arm-none-eabi/lib/thumb/v7e-m+fp/hard\libm.a(libm_a-e_atan2.o)
 .ARM.attributes
                0x00000000       0x34 C:/Program Files (x86)/Arm/GNU Toolchain mingw-w64-i686-arm-none-eabi/bin/../lib/gcc/arm-none-eabi/15.2.1/../../../../arm-none-eabi/lib/thumb/v7e-m+fp/hard\libm.a(libm_a-e_atan2.o)
 .text          0x00000000        0x0 C:/Program Files (x86)/Arm/GNU Toolchain mingw-w64-i686-arm-none-eabi/bin/../lib/gcc/arm-none-eabi/15.2.1/../../../../arm-none-eabi/lib/thumb/v7e-m+fp/hard\libm.a(libm_a-e_log.o)
 .data          0x00000000        0x0 C:/Program Files (x86)/Arm/GNU Toolchain mingw-w64-i686-arm-none-eabi/bin/../lib/gcc/arm-none-eabi/15.2.1/../../../../arm-none-eabi/lib/thumb/v7e-m+fp/hard\libm.a(libm_a-e_log.o)
 .bss           0x00000000        0x0 C:/Program Files (x86)/Arm/GNU Toolchain mingw-w64-i686-arm-none-eabi/bin/../lib/gcc/arm-none-eabi/15.2.1/../../../../arm-none-eabi/lib/thumb/v7e-m+fp/hard\libm.a(libm_a-e_log.o)
 .text          0x00000000        0x0 C:/Program Files (x86)/Arm/GNU Toolchain mingw-w64-i686-arm-none-eabi/bin/../lib/gcc/arm-none-eabi/15.2.1/../../../../arm-none-eabi/lib/thumb/v7e-m+fp/hard\libm.a(libm_a-e_rem_pio2.o)
 .data          0x00000000        0x0 C:/Program Files (x86)/Arm/GNU Toolchain mingw-w64-i686-arm-none-eabi/bin/../lib/gcc/arm-none-eabi/15.2.1/../../../../arm-none-eabi/lib/thumb/v7e-m+fp/hard\libm.a(libm_a-e_rem_pio2.o)
 .bss           0x00000000        0x0 C:/Program Files (x86)/Arm/GNU Toolchain mingw-w64-i686-arm-none-eabi/bin/../lib/gcc/arm-none-eabi/15.2.1/../../../../arm-none-eabi/lib/thumb/v7e-m+fp/hard\libm.a(libm_a-e_rem_pio2.o)
 .text          0x00000000        0x0 C:/Program Files (x86)/Arm/GNU Toolchain mingw-w64-i686-arm-none-eabi/bin/../lib/gcc/arm-none-eabi/15.2.1/../../../../arm-none-eabi/lib/thumb/v7e-m+fp/hard\libm.a(libm_a-s_atan.o)
 .data          0x00000000        0x0 C:/Program Files (x86)/Arm/GNU Toolchain mingw-w64-i686-arm-none-eabi/bin/../lib/gcc/arm-none-eabi/15.2.1/../../../../arm-none-eabi/lib/thumb/v7e-m+fp/hard\libm.a(libm_a-s_atan.o)
 .bss           0x00000000        0x0 C:/Program Files (x86)/Arm/GNU Toolchain mingw-w64-i686-arm-none-eabi/bin/../lib/gcc/arm-none-eabi/15.2.1/../../../../arm-none-eabi/lib/thumb/v7e-m+fp/hard\libm.a(libm_a-s_atan.o)
 .text.atan     0x00000000      0x348 C:/Program Files (x86)/Arm/GNU Toolchain mingw-w64-i686-arm-none-eabi/bin/../lib/gcc/arm-none-eabi/15.2.1/../../../../arm-none-eabi/lib/thumb/v7e-m+fp/hard\libm.a(libm_a-s_atan.o)
 .rodata.atanlo
                0x00000000       0x20 C:/Program Files (x86)/Arm/GNU Toolchain mingw-w64-i686-arm-none-eabi/bin/../lib/gcc/arm-none-eabi/15.2.1/../../../../arm-none-eabi/lib/thumb/v7e-m+fp/hard\libm.a(libm_a-s_atan.o)
 .rodata.atanhi
                0x00000000       0x20 C:/Program Files (x86)/Arm/GNU Toolchain mingw-w64-i686-arm-none-eabi/bin/../lib/gcc/arm-none-eabi/15.2.1/../../../../arm-none-eabi/lib/thumb/v7e-m+fp/hard\libm.a(libm_a-s_atan.o)
 .debug_frame   0x00000000       0x38 C:/Program Files (x86)/Arm/GNU Toolchain mingw-w64-i686-arm-none-eabi/bin/../lib/gcc/arm-none-eabi/15.2.1/../../../../arm-none-eabi/lib/thumb/v7e-m+fp/hard\libm.a(libm_a-s_atan.o)
 .ARM.attributes
                0x00000000       0x34 C:/Program Files (x86)/Arm/GNU Toolchain mingw-w64-i686-arm-none-eabi/bin/../lib/gcc/arm-none-eabi/15.2.1/../../../../arm-none-eabi/lib/thumb/v7e-m+fp/hard\libm.a(libm_a-s_atan.o)
 .text          0x00000000        0x0 C:/Program Files (x86)/Arm/GNU Toolchain mingw-w64-i686-arm-none-eabi/bin/../lib/gcc/arm-none-eabi/15.2.1/../../../../arm-none-eabi/lib/thumb/v7e-m+fp/hard\libm.a(libm_a-s_fabs.o)
 .data          0x00000000        0x0 C:/Program Files (x86)/Arm/GNU Toolchain mingw-w64-i686-arm-none-eabi/bin/../lib/gcc/arm-none-eabi/15.2.1/../../../../arm-none-eabi/lib/thumb/v7e-m+fp/hard\libm.a(libm_a-s_fabs.o)
 .bss           0x00000000        0x0 C:/Program Files (x86)/Arm/GNU Toolchain mingw-w64-i686-arm-none-eabi/bin/../lib/gcc/arm-none-eabi/15.2.1/../../../../arm-none-eabi/lib/thumb/v7e-m+fp/hard\libm.a(libm_a-s_fabs.o)
 .text          0x00000000        0x0 C:/Program Files (x86)/Arm/GNU Toolchain mingw-w64-i686-arm-none-eabi/bin/../lib/gcc/arm-none-eabi/15.2.1/../../../../arm-none-eabi/lib/thumb/v7e-m+fp/hard\libm.a(libm_a-k_rem_pio2.o)
 .data          0x00000000        0x0 C:/Program Files (x86)/Arm/GNU Toolchain mingw-w64-i686-arm-none-eabi/bin/../lib/gcc/arm-none-eabi/15.2.1/../../../../arm-none-eabi/lib/thumb/v7e-m+fp/hard\libm.a(libm_a-k_rem_pio2.o)
 .bss           0x00000000        0x0 C:/Program Files (x86)/Arm/GNU Toolchain mingw-w64-i686-arm-none-eabi/bin/../lib/gcc/arm-none-eabi/15.2.1/../../../../arm-none-eabi/lib/thumb/v7e-m+fp/hard\libm.a(libm_a-k_rem_pio2.o)
 .text          0x00000000        0x0 C:/Program Files (x86)/Arm/GNU Toolchain mingw-w64-i686-arm-none-eabi/bin/../lib/gcc/arm-none-eabi/15.2.1/../../../../arm-none-eabi/lib/thumb/v7e-m+fp/hard\libm.a(libm_a-s_scalbn.o)
 .data          0x00000000        0x0 C:/Program Files (x86)/Arm/GNU Toolchain mingw-w64-i686-arm-none-eabi/bin/../lib/gcc/arm-none-eabi/15.2.1/../../../../arm-none-eabi/lib/thumb/v7e-m+fp/hard\libm.a(libm_a-s_scalbn.o)
 .bss           0x00000000        0x0 C:/Program Files (x86)/Arm/GNU Toolchain mingw-w64-i686-arm-none-eabi/bin/../lib/gcc/arm-none-eabi/15.2.1/../../../../arm-none-eabi/lib/thumb/v7e-m+fp/hard\libm.a(libm_a-s_scalbn.o)
 .text          0x00000000        0x0 C:/Program Files (x86)/Arm/GNU Toolchain mingw-w64-i686-arm-none-eabi/bin/../lib/gcc/arm-none-eabi/15.2.1/../../../../arm-none-eabi/lib/thumb/v7e-m+fp/hard\libm.a(libm_a-s_floor.o)
 .data          0x00000000        0x0 C:/Program Files (x86)/Arm/GNU Toolchain mingw-w64-i686-arm-none-eabi/bin/../lib/gcc/arm-none-eabi/15.2.1/../../../../arm-none-eabi/lib/thumb/v7e-m+fp/hard\libm.a(libm_a-s_floor.o)
 .bss           0x00000000        0x0 C:/Program Files (x86)/Arm/GNU Toolchain mingw-w64-i686-arm-none-eabi/bin/../lib/gcc/arm-none-eabi/15.2.1/../../../../arm-none-eabi/lib/thumb/v7e-m+fp/hard\libm.a(libm_a-s_floor.o)
 .text          0x00000000      0x254 C:/Program Files (x86)/Arm/GNU Toolchain mingw-w64-i686-arm-none-eabi/bin/../lib/gcc/arm-none-eabi/15.2.1/thumb/v7e-m+fp/hard\libgcc.a(_arm_muldf3.o)
 .data          0x00000000        0x0 C:/Program Files (x86)/Arm/GNU Toolchain mingw-w64-i686-arm-none-eabi/bin/../lib/gcc/arm-none-eabi/15.2.1/thumb/v7e-m+fp/hard\libgcc.a(_arm_muldf3.o)
 .bss           0x00000000        0x0 C:/Program Files (x86)/Arm/GNU Toolchain mingw-w64-i686-arm-none-eabi/bin/../lib/gcc/arm-none-eabi/15.2.1/thumb/v7e-m+fp/hard\libgcc.a(_arm_muldf3.o)
 .debug_line_str
                0x00000000       0xce C:/Program Files (x86)/Arm/GNU Toolchain mingw-w64-i686-arm-none-eabi/bin/../lib/gcc/arm-none-eabi/15.2.1/thumb/v7e-m+fp/hard\libgcc.a(_arm_muldf3.o)
 .debug_frame   0x00000000       0x30 C:/Program Files (x86)/Arm/GNU Toolchain mingw-w64-i686-arm-none-eabi/bin/../lib/gcc/arm-none-eabi/15.2.1/thumb/v7e-m+fp/hard\libgcc.a(_arm_muldf3.o)
 .ARM.attributes
                0x00000000       0x22 C:/Program Files (x86)/Arm/GNU Toolchain mingw-w64-i686-arm-none-eabi/bin/../lib/gcc/arm-none-eabi/15.2.1/thumb/v7e-m+fp/hard\libgcc.a(_arm_muldf3.o)
 .data          0x00000000        0x0 C:/Program Files (x86)/Arm/GNU Toolchain mingw-w64-i686-arm-none-eabi/bin/../lib/gcc/arm-none-eabi/15.2.1/thumb/v7e-m+fp/hard\libgcc.a(_arm_addsubdf3.o)
 .bss           0x00000000        0x0 C:/Program Files (x86)/Arm/GNU Toolchain mingw-w64-i686-arm-none-eabi/bin/../lib/gcc/arm-none-eabi/15.2.1/thumb/v7e-m+fp/hard\libgcc.a(_arm_addsubdf3.o)
 .data          0x00000000        0x0 C:/Program Files (x86)/Arm/GNU Toolchain mingw-w64-i686-arm-none-eabi/bin/../lib/gcc/arm-none-eabi/15.2.1/thumb/v7e-m+fp/hard\libgcc.a(_arm_muldivdf3.o)
 .bss           0x00000000        0x0 C:/Program Files (x86)/Arm/GNU Toolchain mingw-w64-i686-arm-none-eabi/bin/../lib/gcc/arm-none-eabi/15.2.1/thumb/v7e-m+fp/hard\libgcc.a(_arm_muldivdf3.o)
 .data          0x00000000        0x0 C:/Program Files (x86)/Arm/GNU Toolchain mingw-w64-i686-arm-none-eabi/bin/../lib/gcc/arm-none-eabi/15.2.1/thumb/v7e-m+fp/hard\libgcc.a(_arm_cmpdf2.o)
 .bss           0x00000000        0x0 C:/Program Files (x86)/Arm/GNU Toolchain mingw-w64-i686-arm-none-eabi/bin/../lib/gcc/arm-none-eabi/15.2.1/thumb/v7e-m+fp/hard\libgcc.a(_arm_cmpdf2.o)
 .data          0x00000000        0x0 C:/Program Files (x86)/Arm/GNU Toolchain mingw-w64-i686-arm-none-eabi/bin/../lib/gcc/arm-none-eabi/15.2.1/thumb/v7e-m+fp/hard\libgcc.a(_arm_unorddf2.o)
 .bss           0x00000000        0x0 C:/Program Files (x86)/Arm/GNU Toolchain mingw-w64-i686-arm-none-eabi/bin/../lib/gcc/arm-none-eabi/15.2.1/thumb/v7e-m+fp/hard\libgcc.a(_arm_unorddf2.o)
 .data          0x00000000        0x0 C:/Program Files (x86)/Arm/GNU Toolchain mingw-w64-i686-arm-none-eabi/bin/../lib/gcc/arm-none-eabi/15.2.1/thumb/v7e-m+fp/hard\libgcc.a(_arm_fixdfsi.o)
 .bss           0x00000000        0x0 C:/Program Files (x86)/Arm/GNU Toolchain mingw-w64-i686-arm-none-eabi/bin/../lib/gcc/arm-none-eabi/15.2.1/thumb/v7e-m+fp/hard\libgcc.a(_arm_fixdfsi.o)
 .text          0x00000000       0x40 C:/Program Files (x86)/Arm/GNU Toolchain mingw-w64-i686-arm-none-eabi/bin/../lib/gcc/arm-none-eabi/15.2.1/thumb/v7e-m+fp/hard\libgcc.a(_arm_fixunsdfsi.o)
 .data          0x00000000        0x0 C:/Program Files (x86)/Arm/GNU Toolchain mingw-w64-i686-arm-none-eabi/bin/../lib/gcc/arm-none-eabi/15.2.1/thumb/v7e-m+fp/hard\libgcc.a(_arm_fixunsdfsi.o)
 .bss           0x00000000        0x0 C:/Program Files (x86)/Arm/GNU Toolchain mingw-w64-i686-arm-none-eabi/bin/../lib/gcc/arm-none-eabi/15.2.1/thumb/v7e-m+fp/hard\libgcc.a(_arm_fixunsdfsi.o)
 .debug_line_str
                0x00000000       0xce C:/Program Files (x86)/Arm/GNU Toolchain mingw-w64-i686-arm-none-eabi/bin/../lib/gcc/arm-none-eabi/15.2.1/thumb/v7e-m+fp/hard\libgcc.a(_arm_fixunsdfsi.o)
 .debug_frame   0x00000000       0x24 C:/Program Files (x86)/Arm/GNU Toolchain mingw-w64-i686-arm-none-eabi/bin/../lib/gcc/arm-none-eabi/15.2.1/thumb/v7e-m+fp/hard\libgcc.a(_arm_fixunsdfsi.o)
 .ARM.attributes
                0x00000000       0x22 C:/Program Files (x86)/Arm/GNU Toolchain mingw-w64-i686-arm-none-eabi/bin/../lib/gcc/arm-none-eabi/15.2.1/thumb/v7e-m+fp/hard\libgcc.a(_arm_fixunsdfsi.o)
 .data          0x00000000        0x0 C:/Program Files (x86)/Arm/GNU Toolchain mingw-w64-i686-arm-none-eabi/bin/../lib/gcc/arm-none-eabi/15.2.1/thumb/v7e-m+fp/hard\libgcc.a(_arm_truncdfsf2.o)
 .bss           0x00000000        0x0 C:/Program Files (x86)/Arm/GNU Toolchain mingw-w64-i686-arm-none-eabi/bin/../lib/gcc/arm-none-eabi/15.2.1/thumb/v7e-m+fp/hard\libgcc.a(_arm_truncdfsf2.o)
 .text          0x00000000        0x0 C:/Program Files (x86)/Arm/GNU Toolchain mingw-w64-i686-arm-none-eabi/bin/../lib/gcc/arm-none-eabi/15.2.1/thumb/v7e-m+fp/hard/crtend.o
 .data          0x00000000        0x0 C:/Program Files (x86)/Arm/GNU Toolchain mingw-w64-i686-arm-none-eabi/bin/../lib/gcc/arm-none-eabi/15.2.1/thumb/v7e-m+fp/hard/crtend.o
 .bss           0x00000000        0x0 C:/Program Files (x86)/Arm/GNU Toolchain mingw-w64-i686-arm-none-eabi/bin/../lib/gcc/arm-none-eabi/15.2.1/thumb/v7e-m+fp/hard/crtend.o
 .rodata.all_implied_fbits
                0x00000000       0x24 C:/Program Files (x86)/Arm/GNU Toolchain mingw-w64-i686-arm-none-eabi/bin/../lib/gcc/arm-none-eabi/15.2.1/thumb/v7e-m+fp/hard/crtend.o
 .eh_frame      0x00000000        0x4 C:/Program Files (x86)/Arm/GNU Toolchain mingw-w64-i686-arm-none-eabi/bin/../lib/gcc/arm-none-eabi/15.2.1/thumb/v7e-m+fp/hard/crtend.o
 .text          0x00000000        0x0 C:/Program Files (x86)/Arm/GNU Toolchain mingw-w64-i686-arm-none-eabi/bin/../lib/gcc/arm-none-eabi/15.2.1/thumb/v7e-m+fp/hard/crtn.o
 .data          0x00000000        0x0 C:/Program Files (x86)/Arm/GNU Toolchain mingw-w64-i686-arm-none-eabi/bin/../lib/gcc/arm-none-eabi/15.2.1/thumb/v7e-m+fp/hard/crtn.o
 .bss           0x00000000        0x0 C:/Program Files (x86)/Arm/GNU Toolchain mingw-w64-i686-arm-none-eabi/bin/../lib/gcc/arm-none-eabi/15.2.1/thumb/v7e-m+fp/hard/crtn.o

Memory Configuration

Name             Origin             Length             Attributes
FLASH            0x08000000         0x00100000         xr
RAM              0x20000000         0x00018000         xrw
SPIM             0x08400000         0x01000000         xr
*default*        0x00000000         0xffffffff

Linker script and memory map

LOAD C:/Program Files (x86)/Arm/GNU Toolchain mingw-w64-i686-arm-none-eabi/bin/../lib/gcc/arm-none-eabi/15.2.1/thumb/v7e-m+fp/hard/crti.o
LOAD C:/Program Files (x86)/Arm/GNU Toolchain mingw-w64-i686-arm-none-eabi/bin/../lib/gcc/arm-none-eabi/15.2.1/thumb/v7e-m+fp/hard/crtbegin.o
LOAD C:/Program Files (x86)/Arm/GNU Toolchain mingw-w64-i686-arm-none-eabi/bin/../lib/gcc/arm-none-eabi/15.2.1/../../../../arm-none-eabi/lib/thumb/v7e-m+fp/hard/crt0.o
LOAD build/main.o
LOAD build/syscalls.o
LOAD build/sysmem.o
LOAD build/at32f403a_407_wk_config.o
LOAD build/at32f403a_407_int.o
LOAD build/wk_system.o
LOAD build/wk_acc.o
LOAD build/wk_adc.o
LOAD build/wk_can.o
LOAD build/wk_debug.o
LOAD build/wk_spi.o
LOAD build/wk_tmr.o
LOAD build/wk_usbfs.o
LOAD build/wk_dma.o
LOAD build/wk_gpio.o
LOAD build/usb_app.o
LOAD build/freertos_app.o
LOAD build/cdc_class.o
LOAD build/cdc_desc.o
LOAD build/system_at32f403a_407.o
LOAD build/at32f403a_407_crm.o
LOAD build/at32f403a_407_tmr.o
LOAD build/at32f403a_407_gpio.o
LOAD build/at32f403a_407_pwc.o
LOAD build/at32f403a_407_adc.o
LOAD build/at32f403a_407_spi.o
LOAD build/at32f403a_407_dma.o
LOAD build/at32f403a_407_flash.o
LOAD build/at32f403a_407_exint.o
LOAD build/at32f403a_407_misc.o
LOAD build/at32f403a_407_usb.o
LOAD build/at32f403a_407_acc.o
LOAD build/at32f403a_407_can.o
LOAD build/at32f403a_407_debug.o
LOAD build/can_cia402.o
LOAD build/motor_control.o
LOAD build/motor_foc.o
LOAD build/motor_monitor.o
LOAD build/motor_params.o
LOAD build/usb_cdc.o
LOAD build/modbus_protocol.o
LOAD build/common_utils.o
LOAD build/usbd_core.o
LOAD build/usbd_int.o
LOAD build/usbd_sdr.o
LOAD build/croutine.o
LOAD build/event_groups.o
LOAD build/list.o
LOAD build/queue.o
LOAD build/tasks.o
LOAD build/timers.o
LOAD build/port.o
LOAD build/heap_4.o
LOAD build/stream_buffer.o
LOAD build/startup_at32f403a_407.o
LOAD C:/Program Files (x86)/Arm/GNU Toolchain mingw-w64-i686-arm-none-eabi/bin/../lib/gcc/arm-none-eabi/15.2.1/../../../../arm-none-eabi/lib/thumb/v7e-m+fp/hard\libc_nano.a
LOAD C:/Program Files (x86)/Arm/GNU Toolchain mingw-w64-i686-arm-none-eabi/bin/../lib/gcc/arm-none-eabi/15.2.1/../../../../arm-none-eabi/lib/thumb/v7e-m+fp/hard\libm.a
LOAD C:/Program Files (x86)/Arm/GNU Toolchain mingw-w64-i686-arm-none-eabi/bin/../lib/gcc/arm-none-eabi/15.2.1/../../../../arm-none-eabi/lib/thumb/v7e-m+fp/hard\libnosys.a
START GROUP
LOAD C:/Program Files (x86)/Arm/GNU Toolchain mingw-w64-i686-arm-none-eabi/bin/../lib/gcc/arm-none-eabi/15.2.1/thumb/v7e-m+fp/hard\libgcc.a
LOAD C:/Program Files (x86)/Arm/GNU Toolchain mingw-w64-i686-arm-none-eabi/bin/../lib/gcc/arm-none-eabi/15.2.1/../../../../arm-none-eabi/lib/thumb/v7e-m+fp/hard\libc_nano.a
END GROUP
START GROUP
LOAD C:/Program Files (x86)/Arm/GNU Toolchain mingw-w64-i686-arm-none-eabi/bin/../lib/gcc/arm-none-eabi/15.2.1/thumb/v7e-m+fp/hard\libgcc.a
LOAD C:/Program Files (x86)/Arm/GNU Toolchain mingw-w64-i686-arm-none-eabi/bin/../lib/gcc/arm-none-eabi/15.2.1/../../../../arm-none-eabi/lib/thumb/v7e-m+fp/hard\libc_nano.a
END GROUP
LOAD C:/Program Files (x86)/Arm/GNU Toolchain mingw-w64-i686-arm-none-eabi/bin/../lib/gcc/arm-none-eabi/15.2.1/thumb/v7e-m+fp/hard/crtend.o
LOAD C:/Program Files (x86)/Arm/GNU Toolchain mingw-w64-i686-arm-none-eabi/bin/../lib/gcc/arm-none-eabi/15.2.1/thumb/v7e-m+fp/hard/crtn.o
                0x20018000                        _estack = 0x20018000
                0x00000200                        _Min_Heap_Size = 0x200
                0x00000400                        _Min_Stack_Size = 0x400

.isr_vector     0x08000000      0x184
                0x08000000                        . = ALIGN (0x4)
 *(.isr_vector)
 .isr_vector    0x08000000      0x184 build/startup_at32f403a_407.o
                0x08000000                g_pfnVectors
                0x08000184                        . = ALIGN (0x4)

.text           0x08000190     0x9d18
                0x08000190                        . = ALIGN (0x4)
 *(.text)
 .text          0x08000190       0xa0 C:/Program Files (x86)/Arm/GNU Toolchain mingw-w64-i686-arm-none-eabi/bin/../lib/gcc/arm-none-eabi/15.2.1/../../../../arm-none-eabi/lib/thumb/v7e-m+fp/hard\libc_nano.a(libc_a-memchr.o)
                0x08000190                memchr
 .text          0x08000230      0x378 C:/Program Files (x86)/Arm/GNU Toolchain mingw-w64-i686-arm-none-eabi/bin/../lib/gcc/arm-none-eabi/15.2.1/thumb/v7e-m+fp/hard\libgcc.a(_arm_addsubdf3.o)
                0x08000230                __aeabi_drsub
                0x08000238                __aeabi_dsub
                0x08000238                __subdf3
                0x0800023c                __aeabi_dadd
                0x0800023c                __adddf3
                0x080004b4                __floatunsidf
                0x080004b4                __aeabi_ui2d
                0x080004d4                __floatsidf
                0x080004d4                __aeabi_i2d
                0x080004f8                __aeabi_f2d
                0x080004f8                __extendsfdf2
                0x0800053c                __floatundidf
                0x0800053c                __aeabi_ul2d
                0x0800054c                __floatdidf
                0x0800054c                __aeabi_l2d
 .text          0x080005a8      0x424 C:/Program Files (x86)/Arm/GNU Toolchain mingw-w64-i686-arm-none-eabi/bin/../lib/gcc/arm-none-eabi/15.2.1/thumb/v7e-m+fp/hard\libgcc.a(_arm_muldivdf3.o)
                0x080005a8                __aeabi_dmul
                0x080005a8                __muldf3
                0x080007fc                __divdf3
                0x080007fc                __aeabi_ddiv
 .text          0x080009cc      0x110 C:/Program Files (x86)/Arm/GNU Toolchain mingw-w64-i686-arm-none-eabi/bin/../lib/gcc/arm-none-eabi/15.2.1/thumb/v7e-m+fp/hard\libgcc.a(_arm_cmpdf2.o)
                0x080009cc                __gtdf2
                0x080009cc                __gedf2
                0x080009d4                __ltdf2
                0x080009d4                __ledf2
                0x080009dc                __nedf2
                0x080009dc                __eqdf2
                0x080009dc                __cmpdf2
                0x08000a58                __aeabi_cdrcmple
                0x08000a68                __aeabi_cdcmpeq
                0x08000a68                __aeabi_cdcmple
                0x08000a78                __aeabi_dcmpeq
                0x08000a8c                __aeabi_dcmplt
                0x08000aa0                __aeabi_dcmple
                0x08000ab4                __aeabi_dcmpge
                0x08000ac8                __aeabi_dcmpgt
 .text          0x08000adc       0x2c C:/Program Files (x86)/Arm/GNU Toolchain mingw-w64-i686-arm-none-eabi/bin/../lib/gcc/arm-none-eabi/15.2.1/thumb/v7e-m+fp/hard\libgcc.a(_arm_unorddf2.o)
                0x08000adc                __unorddf2
                0x08000adc                __aeabi_dcmpun
 .text          0x08000b08       0x50 C:/Program Files (x86)/Arm/GNU Toolchain mingw-w64-i686-arm-none-eabi/bin/../lib/gcc/arm-none-eabi/15.2.1/thumb/v7e-m+fp/hard\libgcc.a(_arm_fixdfsi.o)
                0x08000b08                __aeabi_d2iz
                0x08000b08                __fixdfsi
 .text          0x08000b58       0xa0 C:/Program Files (x86)/Arm/GNU Toolchain mingw-w64-i686-arm-none-eabi/bin/../lib/gcc/arm-none-eabi/15.2.1/thumb/v7e-m+fp/hard\libgcc.a(_arm_truncdfsf2.o)
                0x08000b58                __truncdfsf2
                0x08000b58                __aeabi_d2f
 *(.text*)
 .text.deregister_tm_clones
                0x08000bf8       0x1c C:/Program Files (x86)/Arm/GNU Toolchain mingw-w64-i686-arm-none-eabi/bin/../lib/gcc/arm-none-eabi/15.2.1/thumb/v7e-m+fp/hard/crtbegin.o
 .text.register_tm_clones
                0x08000c14       0x24 C:/Program Files (x86)/Arm/GNU Toolchain mingw-w64-i686-arm-none-eabi/bin/../lib/gcc/arm-none-eabi/15.2.1/thumb/v7e-m+fp/hard/crtbegin.o
 .text.__do_global_dtors_aux
                0x08000c38       0x28 C:/Program Files (x86)/Arm/GNU Toolchain mingw-w64-i686-arm-none-eabi/bin/../lib/gcc/arm-none-eabi/15.2.1/thumb/v7e-m+fp/hard/crtbegin.o
 .text.frame_dummy
                0x08000c60       0x24 C:/Program Files (x86)/Arm/GNU Toolchain mingw-w64-i686-arm-none-eabi/bin/../lib/gcc/arm-none-eabi/15.2.1/thumb/v7e-m+fp/hard/crtbegin.o
 .text.main     0x08000c84       0x64 build/main.o
                0x08000c84                main
 .text._read    0x08000ce8       0x20 build/syscalls.o
                0x08000ce8                _read
 .text._write   0x08000d08       0x1c build/syscalls.o
                0x08000d08                _write
 .text._close   0x08000d24        0x6 build/syscalls.o
                0x08000d24                _close
 .text._fstat   0x08000d2a        0xa build/syscalls.o
                0x08000d2a                _fstat
 .text._isatty  0x08000d34        0x4 build/syscalls.o
                0x08000d34                _isatty
 .text._lseek   0x08000d38        0x4 build/syscalls.o
                0x08000d38                _lseek
 .text._sbrk    0x08000d3c       0x4c build/sysmem.o
                0x08000d3c                _sbrk
 .text.NVIC_EncodePriority
                0x08000d88       0x46 build/at32f403a_407_wk_config.o
 *fill*         0x08000dce        0x2 
 .text.wk_system_clock_config
                0x08000dd0       0x8c build/at32f403a_407_wk_config.o
                0x08000dd0                wk_system_clock_config
 .text.wk_periph_clock_config
                0x08000e5c       0x9c build/at32f403a_407_wk_config.o
                0x08000e5c                wk_periph_clock_config
 .text.wk_nvic_config
                0x08000ef8       0xe0 build/at32f403a_407_wk_config.o
                0x08000ef8                wk_nvic_config
 .text.NMI_Handler
                0x08000fd8        0x2 build/at32f403a_407_int.o
                0x08000fd8                NMI_Handler
 .text.HardFault_Handler
                0x08000fda        0x2 build/at32f403a_407_int.o
                0x08000fda                HardFault_Handler
 .text.MemManage_Handler
                0x08000fdc        0x2 build/at32f403a_407_int.o
                0x08000fdc                MemManage_Handler
 .text.BusFault_Handler
                0x08000fde        0x2 build/at32f403a_407_int.o
                0x08000fde                BusFault_Handler
 .text.UsageFault_Handler
                0x08000fe0        0x2 build/at32f403a_407_int.o
                0x08000fe0                UsageFault_Handler
 .text.DebugMon_Handler
                0x08000fe2        0x2 build/at32f403a_407_int.o
                0x08000fe2                DebugMon_Handler
 .text.SysTick_Handler
                0x08000fe4       0x12 build/at32f403a_407_int.o
                0x08000fe4                SysTick_Handler
 .text.DMA1_Channel1_IRQHandler
                0x08000ff6       0x14 build/at32f403a_407_int.o
                0x08000ff6                DMA1_Channel1_IRQHandler
 .text.TMR1_BRK_TMR9_IRQHandler
                0x0800100a        0x2 build/at32f403a_407_int.o
                0x0800100a                TMR1_BRK_TMR9_IRQHandler
 .text.TMR1_OVF_TMR10_IRQHandler
                0x0800100c        0x2 build/at32f403a_407_int.o
                0x0800100c                TMR1_OVF_TMR10_IRQHandler
 .text.TMR1_TRG_HALL_TMR11_IRQHandler
                0x0800100e        0x2 build/at32f403a_407_int.o
                0x0800100e                TMR1_TRG_HALL_TMR11_IRQHandler
 .text.SPI1_IRQHandler
                0x08001010        0x2 build/at32f403a_407_int.o
                0x08001010                SPI1_IRQHandler
 .text.USBFS_MAPL_IRQHandler
                0x08001012        0x8 build/at32f403a_407_int.o
                0x08001012                USBFS_MAPL_IRQHandler
 *fill*         0x0800101a        0x2 
 .text.wk_timebase_init
                0x0800101c       0x4c build/wk_system.o
                0x0800101c                wk_timebase_init
 .text.wk_acc_init
                0x08001068       0x24 build/wk_acc.o
                0x08001068                wk_acc_init
 .text.wk_adc1_init
                0x0800108c      0x134 build/wk_adc.o
                0x0800108c                wk_adc1_init
 .text.wk_can1_init
                0x080011c0       0xe8 build/wk_can.o
                0x080011c0                wk_can1_init
 .text.wk_debug_config
                0x080012a8       0x10 build/wk_debug.o
                0x080012a8                wk_debug_config
 .text.wk_spi1_init
                0x080012b8       0xdc build/wk_spi.o
                0x080012b8                wk_spi1_init
 .text.wk_tmr1_init
                0x08001394      0x230 build/wk_tmr.o
                0x08001394                wk_tmr1_init
 .text.wk_usbfs_init
                0x080015c4       0x10 build/wk_usbfs.o
                0x080015c4                wk_usbfs_init
 .text.wk_dma1_channel1_init
                0x080015d4       0x60 build/wk_dma.o
                0x080015d4                wk_dma1_channel1_init
 .text.wk_dma_channel_config
                0x08001634        0x8 build/wk_dma.o
                0x08001634                wk_dma_channel_config
 .text.wk_gpio_config
                0x0800163c       0x44 build/wk_gpio.o
                0x0800163c                wk_gpio_config
 .text.wk_usb_app_init
                0x08001680       0x30 build/usb_app.o
                0x08001680                wk_usb_app_init
 .text.wk_usb_app_task
                0x080016b0       0x50 build/usb_app.o
                0x080016b0                wk_usb_app_task
 .text.wk_usbfs_irq_handler
                0x08001700       0x10 build/usb_app.o
                0x08001700                wk_usbfs_irq_handler
 .text.Debug_Task_func
                0x08001710       0xc0 build/freertos_app.o
                0x08001710                Debug_Task_func
 .text.CANCom_Task_func
                0x080017d0        0xa build/freertos_app.o
                0x080017d0                CANCom_Task_func
 *fill*         0x080017da        0x2 
 .text.Monitor_Task_func
                0x080017dc       0xfc build/freertos_app.o
                0x080017dc                Monitor_Task_func
 .text.Mc_Task_func
                0x080018d8      0x170 build/freertos_app.o
                0x080018d8                Mc_Task_func
 .text.vApplicationGetIdleTaskMemory
                0x08001a48       0x18 build/freertos_app.o
                0x08001a48                vApplicationGetIdleTaskMemory
 .text.vApplicationGetTimerTaskMemory
                0x08001a60       0x18 build/freertos_app.o
                0x08001a60                vApplicationGetTimerTaskMemory
 .text.freertos_task_create
                0x08001a78       0x90 build/freertos_app.o
                0x08001a78                freertos_task_create
 .text.wk_freertos_init
                0x08001b08       0x14 build/freertos_app.o
                0x08001b08                wk_freertos_init
 .text.class_ept0_tx_handler
                0x08001b1c        0x4 build/cdc_class.o
 .text.class_in_handler
                0x08001b20        0xe build/cdc_class.o
 .text.class_sof_handler
                0x08001b2e        0x4 build/cdc_class.o
 .text.class_event_handler
                0x08001b32        0x4 build/cdc_class.o
 *fill*         0x08001b36        0x2 
 .text.cdc_struct_init
                0x08001b38       0x30 build/cdc_class.o
 .text.usb_vcp_cmd_process
                0x08001b68       0x64 build/cdc_class.o
 .text.class_out_handler
                0x08001bcc       0x18 build/cdc_class.o
 .text.class_ept0_rx_handler
                0x08001be4       0x28 build/cdc_class.o
 .text.class_setup_handler
                0x08001c0c       0x8c build/cdc_class.o
 .text.class_clear_handler
                0x08001c98       0x1e build/cdc_class.o
 .text.class_init_handler
                0x08001cb6       0x40 build/cdc_class.o
 .text.usb_vcp_get_rxdata
                0x08001cf6       0x42 build/cdc_class.o
                0x08001cf6                usb_vcp_get_rxdata
 .text.usb_vcp_send_data
                0x08001d38       0x2c build/cdc_class.o
                0x08001d38                usb_vcp_send_data
 .text.usbd_unicode_convert
                0x08001d64       0x40 build/cdc_desc.o
 .text.usbd_int_to_unicode
                0x08001da4       0x44 build/cdc_desc.o
 .text.get_serial_num
                0x08001de8       0x38 build/cdc_desc.o
 .text.get_device_descriptor
                0x08001e20        0x8 build/cdc_desc.o
 .text.get_device_qualifier
                0x08001e28        0x4 build/cdc_desc.o
 .text.get_device_configuration
                0x08001e2c        0x8 build/cdc_desc.o
 .text.get_device_other_speed
                0x08001e34        0x4 build/cdc_desc.o
 .text.get_device_lang_id
                0x08001e38        0x8 build/cdc_desc.o
 .text.get_device_manufacturer_string
                0x08001e40       0x24 build/cdc_desc.o
 .text.get_device_product_string
                0x08001e64       0x24 build/cdc_desc.o
 .text.get_device_serial_string
                0x08001e88       0x10 build/cdc_desc.o
 .text.get_device_interface_string
                0x08001e98       0x24 build/cdc_desc.o
 .text.get_device_config_string
                0x08001ebc       0x24 build/cdc_desc.o
 .text.SystemInit
                0x08001ee0       0x64 build/system_at32f403a_407.o
                0x08001ee0                SystemInit
 .text.system_core_clock_update
                0x08001f44       0xdc build/system_at32f403a_407.o
                0x08001f44                system_core_clock_update
 .text.crm_reset
                0x08002020       0x48 build/at32f403a_407_crm.o
                0x08002020                crm_reset
 .text.crm_flag_get
                0x08002068       0x20 build/at32f403a_407_crm.o
                0x08002068                crm_flag_get
 .text.crm_hext_stable_wait
                0x08002088       0x26 build/at32f403a_407_crm.o
                0x08002088                crm_hext_stable_wait
 .text.crm_periph_clock_enable
                0x080020ae       0x38 build/at32f403a_407_crm.o
                0x080020ae                crm_periph_clock_enable
 .text.crm_periph_reset
                0x080020e6       0x38 build/at32f403a_407_crm.o
                0x080020e6                crm_periph_reset
 *fill*         0x0800211e        0x2 
 .text.crm_clock_source_enable
                0x08002120       0x58 build/at32f403a_407_crm.o
                0x08002120                crm_clock_source_enable
 .text.crm_ahb_div_set
                0x08002178       0x10 build/at32f403a_407_crm.o
                0x08002178                crm_ahb_div_set
 .text.crm_apb1_div_set
                0x08002188       0x10 build/at32f403a_407_crm.o
                0x08002188                crm_apb1_div_set
 .text.crm_apb2_div_set
                0x08002198       0x10 build/at32f403a_407_crm.o
                0x08002198                crm_apb2_div_set
 .text.crm_adc_clock_div_set
                0x080021a8       0x1c build/at32f403a_407_crm.o
                0x080021a8                crm_adc_clock_div_set
 .text.crm_pll_config
                0x080021c4       0x60 build/at32f403a_407_crm.o
                0x080021c4                crm_pll_config
 .text.crm_sysclk_switch
                0x08002224       0x38 build/at32f403a_407_crm.o
                0x08002224                crm_sysclk_switch
 .text.crm_sysclk_switch_status_get
                0x0800225c       0x10 build/at32f403a_407_crm.o
                0x0800225c                crm_sysclk_switch_status_get
 .text.crm_clocks_freq_get
                0x0800226c      0x110 build/at32f403a_407_crm.o
                0x0800226c                crm_clocks_freq_get
 .text.crm_auto_step_mode_enable
                0x0800237c       0x20 build/at32f403a_407_crm.o
                0x0800237c                crm_auto_step_mode_enable
 .text.crm_usb_interrupt_remapping_set
                0x0800239c       0x10 build/at32f403a_407_crm.o
                0x0800239c                crm_usb_interrupt_remapping_set
 .text.crm_hick_divider_select
                0x080023ac       0x10 build/at32f403a_407_crm.o
                0x080023ac                crm_hick_divider_select
 .text.crm_hick_sclk_frequency_select
                0x080023bc       0x1c build/at32f403a_407_crm.o
                0x080023bc                crm_hick_sclk_frequency_select
 .text.crm_usb_clock_source_select
                0x080023d8       0x20 build/at32f403a_407_crm.o
                0x080023d8                crm_usb_clock_source_select
 .text.tmr_counter_enable
                0x080023f8        0xa build/at32f403a_407_tmr.o
                0x080023f8                tmr_counter_enable
 .text.tmr_base_init
                0x08002402        0xe build/at32f403a_407_tmr.o
                0x08002402                tmr_base_init
 .text.tmr_clock_source_div_set
                0x08002410        0xa build/at32f403a_407_tmr.o
                0x08002410                tmr_clock_source_div_set
 .text.tmr_cnt_dir_set
                0x0800241a        0xa build/at32f403a_407_tmr.o
                0x0800241a                tmr_cnt_dir_set
 .text.tmr_repetition_counter_set
                0x08002424        0xa build/at32f403a_407_tmr.o
                0x08002424                tmr_repetition_counter_set
 .text.tmr_output_channel_config
                0x0800242e      0x118 build/at32f403a_407_tmr.o
                0x0800242e                tmr_output_channel_config
 .text.tmr_channel_value_set
                0x08002546       0x24 build/at32f403a_407_tmr.o
                0x08002546                tmr_channel_value_set
 .text.tmr_period_buffer_enable
                0x0800256a        0xa build/at32f403a_407_tmr.o
                0x0800256a                tmr_period_buffer_enable
 .text.tmr_output_channel_buffer_enable
                0x08002574       0x3c build/at32f403a_407_tmr.o
                0x08002574                tmr_output_channel_buffer_enable
 .text.tmr_output_channel_immediately_set
                0x080025b0       0x3c build/at32f403a_407_tmr.o
                0x080025b0                tmr_output_channel_immediately_set
 .text.tmr_primary_mode_select
                0x080025ec        0xa build/at32f403a_407_tmr.o
                0x080025ec                tmr_primary_mode_select
 .text.tmr_sub_sync_mode_set
                0x080025f6        0xa build/at32f403a_407_tmr.o
                0x080025f6                tmr_sub_sync_mode_set
 .text.tmr_output_enable
                0x08002600        0xa build/at32f403a_407_tmr.o
                0x08002600                tmr_output_enable
 .text.tmr_brkdt_config
                0x0800260a       0x48 build/at32f403a_407_tmr.o
                0x0800260a                tmr_brkdt_config
 .text.gpio_init
                0x08002652       0xb8 build/at32f403a_407_gpio.o
                0x08002652                gpio_init
 .text.gpio_default_para_init
                0x0800270a       0x16 build/at32f403a_407_gpio.o
                0x0800270a                gpio_default_para_init
 .text.gpio_bits_reset
                0x08002720        0x4 build/at32f403a_407_gpio.o
                0x08002720                gpio_bits_reset
 .text.gpio_bits_toggle
                0x08002724       0x12 build/at32f403a_407_gpio.o
                0x08002724                gpio_bits_toggle
 .text.gpio_pin_remap_config
                0x08002736       0x4a build/at32f403a_407_gpio.o
                0x08002736                gpio_pin_remap_config
 .text.adc_reset
                0x08002780       0x64 build/at32f403a_407_adc.o
                0x08002780                adc_reset
 .text.adc_enable
                0x080027e4        0xa build/at32f403a_407_adc.o
                0x080027e4                adc_enable
 *fill*         0x080027ee        0x2 
 .text.adc_combine_mode_select
                0x080027f0       0x10 build/at32f403a_407_adc.o
                0x080027f0                adc_combine_mode_select
 .text.adc_base_default_para_init
                0x08002800        0xe build/at32f403a_407_adc.o
                0x08002800                adc_base_default_para_init
 .text.adc_base_config
                0x0800280e       0x2c build/at32f403a_407_adc.o
                0x0800280e                adc_base_config
 .text.adc_dma_mode_enable
                0x0800283a        0xa build/at32f403a_407_adc.o
                0x0800283a                adc_dma_mode_enable
 .text.adc_calibration_init
                0x08002844        0xa build/at32f403a_407_adc.o
                0x08002844                adc_calibration_init
 .text.adc_calibration_init_status_get
                0x0800284e       0x10 build/at32f403a_407_adc.o
                0x0800284e                adc_calibration_init_status_get
 .text.adc_calibration_start
                0x0800285e        0xa build/at32f403a_407_adc.o
                0x0800285e                adc_calibration_start
 .text.adc_calibration_status_get
                0x08002868       0x10 build/at32f403a_407_adc.o
                0x08002868                adc_calibration_status_get
 .text.adc_ordinary_channel_set
                0x08002878       0xa4 build/at32f403a_407_adc.o
                0x08002878                adc_ordinary_channel_set
 .text.adc_ordinary_conversion_trigger_set
                0x0800291c       0x30 build/at32f403a_407_adc.o
                0x0800291c                adc_ordinary_conversion_trigger_set
 .text.adc_ordinary_part_mode_enable
                0x0800294c        0xa build/at32f403a_407_adc.o
                0x0800294c                adc_ordinary_part_mode_enable
 .text.adc_ordinary_software_trigger_enable
                0x08002956        0xa build/at32f403a_407_adc.o
                0x08002956                adc_ordinary_software_trigger_enable
 .text.spi_default_para_init
                0x08002960       0x16 build/at32f403a_407_spi.o
                0x08002960                spi_default_para_init
 .text.spi_init
                0x08002976      0x108 build/at32f403a_407_spi.o
                0x08002976                spi_init
 .text.spi_hardware_cs_output_enable
                0x08002a7e        0xa build/at32f403a_407_spi.o
                0x08002a7e                spi_hardware_cs_output_enable
 .text.spi_enable
                0x08002a88        0xa build/at32f403a_407_spi.o
                0x08002a88                spi_enable
 *fill*         0x08002a92        0x2 
 .text.dma_reset
                0x08002a94       0x78 build/at32f403a_407_dma.o
                0x08002a94                dma_reset
 .text.dma_interrupt_enable
                0x08002b0c       0x14 build/at32f403a_407_dma.o
                0x08002b0c                dma_interrupt_enable
 .text.dma_channel_enable
                0x08002b20        0xa build/at32f403a_407_dma.o
                0x08002b20                dma_channel_enable
 .text.dma_flexible_config
                0x08002b2a       0x96 build/at32f403a_407_dma.o
                0x08002b2a                dma_flexible_config
 .text.dma_interrupt_flag_get
                0x08002bc0       0x24 build/at32f403a_407_dma.o
                0x08002bc0                dma_interrupt_flag_get
 .text.dma_flag_get
                0x08002be4       0x24 build/at32f403a_407_dma.o
                0x08002be4                dma_flag_get
 .text.dma_flag_clear
                0x08002c08       0x20 build/at32f403a_407_dma.o
                0x08002c08                dma_flag_clear
 .text.dma_default_para_init
                0x08002c28       0x1c build/at32f403a_407_dma.o
                0x08002c28                dma_default_para_init
 .text.dma_init
                0x08002c44       0x62 build/at32f403a_407_dma.o
                0x08002c44                dma_init
 *fill*         0x08002ca6        0x2 
 .text.__NVIC_EnableIRQ
                0x08002ca8       0x1c build/at32f403a_407_misc.o
 .text.__NVIC_SetPriority
                0x08002cc4       0x28 build/at32f403a_407_misc.o
 .text.NVIC_EncodePriority
                0x08002cec       0x46 build/at32f403a_407_misc.o
 *fill*         0x08002d32        0x2 
 .text.nvic_irq_enable
                0x08002d34       0x24 build/at32f403a_407_misc.o
                0x08002d34                nvic_irq_enable
 .text.nvic_priority_group_config
                0x08002d58       0x24 build/at32f403a_407_misc.o
                0x08002d58                nvic_priority_group_config
 .text.usb_connect
                0x08002d7c       0x12 build/at32f403a_407_usb.o
                0x08002d7c                usb_connect
 *fill*         0x08002d8e        0x2 
 .text.usb_ept_open
                0x08002d90      0x418 build/at32f403a_407_usb.o
                0x08002d90                usb_ept_open
 .text.usb_ept_close
                0x080031a8      0x198 build/at32f403a_407_usb.o
                0x080031a8                usb_ept_close
 .text.usb_write_packet
                0x08003340       0x24 build/at32f403a_407_usb.o
                0x08003340                usb_write_packet
 .text.usb_read_packet
                0x08003364       0x24 build/at32f403a_407_usb.o
                0x08003364                usb_read_packet
 .text.usb_interrupt_enable
                0x08003388       0x16 build/at32f403a_407_usb.o
                0x08003388                usb_interrupt_enable
 .text.usb_dev_init
                0x0800339e       0x20 build/at32f403a_407_usb.o
                0x0800339e                usb_dev_init
 .text.usb_set_address
                0x080033be       0x12 build/at32f403a_407_usb.o
                0x080033be                usb_set_address
 .text.usb_enter_suspend
                0x080033d0       0x12 build/at32f403a_407_usb.o
                0x080033d0                usb_enter_suspend
 .text.usb_exit_suspend
                0x080033e2       0x12 build/at32f403a_407_usb.o
                0x080033e2                usb_exit_suspend
 .text.usb_buffer_malloc
                0x080033f4       0x10 build/at32f403a_407_usb.o
                0x080033f4                usb_buffer_malloc
 .text.usb_buffer_free
                0x08003404        0xc build/at32f403a_407_usb.o
                0x08003404                usb_buffer_free
 .text.usb_flag_clear
                0x08003410        0x6 build/at32f403a_407_usb.o
                0x08003410                usb_flag_clear
 *fill*         0x08003416        0x2 
 .text.acc_calibration_mode_enable
                0x08003418       0x28 build/at32f403a_407_acc.o
                0x08003418                acc_calibration_mode_enable
 .text.acc_write_c1
                0x08003440        0xc build/at32f403a_407_acc.o
                0x08003440                acc_write_c1
 .text.acc_write_c2
                0x0800344c        0xc build/at32f403a_407_acc.o
                0x0800344c                acc_write_c2
 .text.acc_write_c3
                0x08003458        0xc build/at32f403a_407_acc.o
                0x08003458                acc_write_c3
 .text.can_baudrate_set
                0x08003464       0x8a build/at32f403a_407_can.o
                0x08003464                can_baudrate_set
 .text.can_default_para_init
                0x080034ee       0x12 build/at32f403a_407_can.o
                0x080034ee                can_default_para_init
 .text.can_base_init
                0x08003500       0xb4 build/at32f403a_407_can.o
                0x08003500                can_base_init
 .text.can_filter_init
                0x080035b4      0x14e build/at32f403a_407_can.o
                0x080035b4                can_filter_init
 .text.motor_control_update_sensor_data
                0x08003702       0xf0 build/motor_control.o
                0x08003702                motor_control_update_sensor_data
 .text.foc_update_angle
                0x080037f2       0x5e build/motor_foc.o
                0x080037f2                foc_update_angle
 .text.motor_monitor_process
                0x08003850       0xcc build/motor_monitor.o
                0x08003850                motor_monitor_process
 .text.motor_monitor_convert_adc_to_current
                0x0800391c       0xb4 build/motor_monitor.o
                0x0800391c                motor_monitor_convert_adc_to_current
 .text.motor_monitor_convert_adc_to_voltage
                0x080039d0       0x3c build/motor_monitor.o
                0x080039d0                motor_monitor_convert_adc_to_voltage
 *fill*         0x08003a0c        0x4 
 .text.motor_monitor_convert_adc_to_temperature
                0x08003a10       0xb0 build/motor_monitor.o
                0x08003a10                motor_monitor_convert_adc_to_temperature
 .text.motor_params_update
                0x08003ac0      0x690 build/motor_params.o
                0x08003ac0                motor_params_update
 .text.motor_params_get
                0x08004150      0x700 build/motor_params.o
                0x08004150                motor_params_get
 .text.ring_buffer_pop
                0x08004850       0x40 build/modbus_protocol.o
 .text.ring_buffer_push
                0x08004890       0x48 build/modbus_protocol.o
 .text.ring_buffer_count
                0x080048d8        0xc build/modbus_protocol.o
 .text.ring_buffer_pop_n
                0x080048e4       0x24 build/modbus_protocol.o
 .text.modbus_calculate_crc
                0x08004908       0x38 build/modbus_protocol.o
 .text.ring_buffer_copy
                0x08004940       0x48 build/modbus_protocol.o
 .text.modbus_protocol_init
                0x08004988        0x2 build/modbus_protocol.o
                0x08004988                modbus_protocol_init
 *fill*         0x0800498a        0x2 
 .text.modbus_send_response
                0x0800498c       0x58 build/modbus_protocol.o
                0x0800498c                modbus_send_response
 .text.modbus_send_exception_response
                0x080049e4       0x3c build/modbus_protocol.o
                0x080049e4                modbus_send_exception_response
 .text.modbus_protocol_process
                0x08004a20      0x2c8 build/modbus_protocol.o
                0x08004a20                modbus_protocol_process
 .text.memset   0x08004ce8       0x10 build/common_utils.o
                0x08004ce8                memset
 .text.memcpy   0x08004cf8       0x14 build/common_utils.o
                0x08004cf8                memcpy
 .text.usbd_core_setup_handler
                0x08004d0c       0x48 build/usbd_core.o
                0x08004d0c                usbd_core_setup_handler
 .text.usbd_clear_stall
                0x08004d54       0xa8 build/usbd_core.o
                0x08004d54                usbd_clear_stall
 .text.usbd_set_stall
                0x08004dfc       0x78 build/usbd_core.o
                0x08004dfc                usbd_set_stall
 .text.usbd_ctrl_unsupport
                0x08004e74       0x14 build/usbd_core.o
                0x08004e74                usbd_ctrl_unsupport
 .text.usbd_ept_send
                0x08004e88       0xfc build/usbd_core.o
                0x08004e88                usbd_ept_send
 .text.usbd_ctrl_send
                0x08004f84       0x18 build/usbd_core.o
                0x08004f84                usbd_ctrl_send
 .text.usbd_ctrl_send_status
                0x08004f9c       0x14 build/usbd_core.o
                0x08004f9c                usbd_ctrl_send_status
 .text.usbd_ept_recv
                0x08004fb0       0x58 build/usbd_core.o
                0x08004fb0                usbd_ept_recv
 .text.usbd_core_out_handler
                0x08005008       0x76 build/usbd_core.o
                0x08005008                usbd_core_out_handler
 .text.usbd_ctrl_recv
                0x0800507e       0x1c build/usbd_core.o
                0x0800507e                usbd_ctrl_recv
 .text.usbd_ctrl_recv_status
                0x0800509a       0x14 build/usbd_core.o
                0x0800509a                usbd_ctrl_recv_status
 .text.usbd_core_in_handler
                0x080050ae       0xc0 build/usbd_core.o
                0x080050ae                usbd_core_in_handler
 .text.usbd_get_recv_len
                0x0800516e        0xe build/usbd_core.o
                0x0800516e                usbd_get_recv_len
 .text.usbd_ept_buf_auto_define
                0x0800517c       0x48 build/usbd_core.o
                0x0800517c                usbd_ept_buf_auto_define
 .text.usbd_ept_open
                0x080051c4       0x54 build/usbd_core.o
                0x080051c4                usbd_ept_open
 .text.usbd_ept_close
                0x08005218       0x2c build/usbd_core.o
                0x08005218                usbd_ept_close
 .text.usbd_connect
                0x08005244        0xa build/usbd_core.o
                0x08005244                usbd_connect
 .text.usbd_connect_state_get
                0x0800524e        0x6 build/usbd_core.o
                0x0800524e                usbd_connect_state_get
 .text.usbd_enter_suspend
                0x08005254        0xa build/usbd_core.o
                0x08005254                usbd_enter_suspend
 .text.usbd_ept_defaut_init
                0x0800525e       0x58 build/usbd_core.o
                0x0800525e                usbd_ept_defaut_init
 .text.usbd_core_init
                0x080052b6       0x1c build/usbd_core.o
                0x080052b6                usbd_core_init
 *fill*         0x080052d2        0x2 
 .text.usbd_eptn_handler
                0x080052d4      0x1d4 build/usbd_int.o
                0x080052d4                usbd_eptn_handler
 .text.usbd_ept_loop_handler
                0x080054a8       0x1c build/usbd_int.o
                0x080054a8                usbd_ept_loop_handler
 .text.usbd_reset_handler
                0x080054c4       0x42 build/usbd_int.o
                0x080054c4                usbd_reset_handler
 .text.usbd_sof_handler
                0x08005506        0xc build/usbd_int.o
                0x08005506                usbd_sof_handler
 .text.usbd_suspend_handler
                0x08005512       0x24 build/usbd_int.o
                0x08005512                usbd_suspend_handler
 .text.usbd_wakeup_handler
                0x08005536       0x20 build/usbd_int.o
                0x08005536                usbd_wakeup_handler
 .text.usbd_irq_handler
                0x08005556       0xa2 build/usbd_int.o
                0x08005556                usbd_irq_handler
 .text.usbd_get_status
                0x080055f8       0x32 build/usbd_sdr.o
 .text.usbd_get_descriptor
                0x0800562a       0xc8 build/usbd_sdr.o
 .text.usbd_get_configuration
                0x080056f2       0x42 build/usbd_sdr.o
 .text.usbd_clear_feature
                0x08005734       0x42 build/usbd_sdr.o
 .text.usbd_set_feature
                0x08005776       0x2a build/usbd_sdr.o
 .text.usbd_set_address
                0x080057a0       0x46 build/usbd_sdr.o
 *fill*         0x080057e6        0x2 
 .text.usbd_set_configuration
                0x080057e8       0xa4 build/usbd_sdr.o
 .text.usbd_setup_request_parse
                0x0800588c       0x28 build/usbd_sdr.o
                0x0800588c                usbd_setup_request_parse
 .text.usbd_device_request
                0x080058b4       0x6a build/usbd_sdr.o
                0x080058b4                usbd_device_request
 .text.usbd_interface_request
                0x0800591e       0x36 build/usbd_sdr.o
                0x0800591e                usbd_interface_request
 .text.usbd_endpoint_request
                0x08005954      0x150 build/usbd_sdr.o
                0x08005954                usbd_endpoint_request
 .text.vListInitialise
                0x08005aa4       0x16 build/list.o
                0x08005aa4                vListInitialise
 .text.vListInitialiseItem
                0x08005aba        0x6 build/list.o
                0x08005aba                vListInitialiseItem
 .text.vListInsertEnd
                0x08005ac0       0x16 build/list.o
                0x08005ac0                vListInsertEnd
 .text.vListInsert
                0x08005ad6       0x38 build/list.o
                0x08005ad6                vListInsert
 .text.uxListRemove
                0x08005b0e       0x26 build/list.o
                0x08005b0e                uxListRemove
 .text.prvIsQueueFull
                0x08005b34       0x1e build/queue.o
 .text.prvIsQueueEmpty
                0x08005b52       0x1e build/queue.o
 .text.prvCopyDataToQueue
                0x08005b70       0x76 build/queue.o
 .text.prvCopyDataFromQueue
                0x08005be6       0x24 build/queue.o
 .text.prvUnlockQueue
                0x08005c0a       0x6e build/queue.o
 .text.xQueueGenericReset
                0x08005c78       0x84 build/queue.o
                0x08005c78                xQueueGenericReset
 .text.prvInitialiseNewQueue
                0x08005cfc       0x22 build/queue.o
 .text.xQueueGenericCreateStatic
                0x08005d1e       0x94 build/queue.o
                0x08005d1e                xQueueGenericCreateStatic
 .text.xQueueGenericSend
                0x08005db2      0x188 build/queue.o
                0x08005db2                xQueueGenericSend
 .text.xQueueGenericSendFromISR
                0x08005f3a       0xe8 build/queue.o
                0x08005f3a                xQueueGenericSendFromISR
 .text.xQueueReceive
                0x08006022      0x15e build/queue.o
                0x08006022                xQueueReceive
 .text.vQueueAddToRegistry
                0x08006180       0x28 build/queue.o
                0x08006180                vQueueAddToRegistry
 .text.vQueueWaitForMessageRestricted
                0x080061a8       0x52 build/queue.o
                0x080061a8                vQueueWaitForMessageRestricted
 *fill*         0x080061fa        0x2 
 .text.prvResetNextTaskUnblockTime
                0x080061fc       0x28 build/tasks.o
 .text.prvInitialiseNewTask
                0x08006224       0x9a build/tasks.o
 *fill*         0x080062be        0x2 
 .text.prvInitialiseTaskLists
                0x080062c0       0x68 build/tasks.o
 .text.prvAddNewTaskToReadyList
                0x08006328       0xac build/tasks.o
 .text.prvDeleteTCB
                0x080063d4       0x38 build/tasks.o
 .text.prvCheckTasksWaitingTermination
                0x0800640c       0x4c build/tasks.o
 .text.prvIdleTask
                0x08006458       0x28 build/tasks.o
 .text.prvAddCurrentTaskToDelayedList
                0x08006480       0x7c build/tasks.o
 .text.xTaskCreateStatic
                0x080064fc       0x80 build/tasks.o
                0x080064fc                xTaskCreateStatic
 .text.xTaskCreate
                0x0800657c       0x62 build/tasks.o
                0x0800657c                xTaskCreate
 *fill*         0x080065de        0x2 
 .text.vTaskStartScheduler
                0x080065e0       0xa0 build/tasks.o
                0x080065e0                vTaskStartScheduler
 .text.vTaskSuspendAll
                0x08006680       0x10 build/tasks.o
                0x08006680                vTaskSuspendAll
 .text.xTaskGetTickCount
                0x08006690        0xc build/tasks.o
                0x08006690                xTaskGetTickCount
 .text.xTaskIncrementTick
                0x0800669c      0x124 build/tasks.o
                0x0800669c                xTaskIncrementTick
 .text.xTaskResumeAll
                0x080067c0       0xf8 build/tasks.o
                0x080067c0                xTaskResumeAll
 .text.vTaskDelay
                0x080068b8       0x4c build/tasks.o
                0x080068b8                vTaskDelay
 .text.vTaskSwitchContext
                0x08006904       0x98 build/tasks.o
                0x08006904                vTaskSwitchContext
 .text.vTaskPlaceOnEventList
                0x0800699c       0x30 build/tasks.o
                0x0800699c                vTaskPlaceOnEventList
 .text.vTaskPlaceOnEventListRestricted
                0x080069cc       0x3c build/tasks.o
                0x080069cc                vTaskPlaceOnEventListRestricted
 .text.xTaskRemoveFromEventList
                0x08006a08       0x90 build/tasks.o
                0x08006a08                xTaskRemoveFromEventList
 .text.vTaskInternalSetTimeOutState
                0x08006a98       0x18 build/tasks.o
                0x08006a98                vTaskInternalSetTimeOutState
 .text.xTaskCheckForTimeOut
                0x08006ab0       0x8c build/tasks.o
                0x08006ab0                xTaskCheckForTimeOut
 .text.vTaskMissedYield
                0x08006b3c        0xc build/tasks.o
                0x08006b3c                vTaskMissedYield
 .text.xTaskGetSchedulerState
                0x08006b48       0x20 build/tasks.o
                0x08006b48                xTaskGetSchedulerState
 .text.xTaskPriorityDisinherit
                0x08006b68       0x90 build/tasks.o
                0x08006b68                xTaskPriorityDisinherit
 .text.prvGetNextExpireTime
                0x08006bf8       0x20 build/timers.o
 .text.prvInsertTimerInActiveList
                0x08006c18       0x48 build/timers.o
 .text.prvCheckForValidListAndQueue
                0x08006c60       0x70 build/timers.o
 .text.xTimerCreateTimerTask
                0x08006cd0       0x64 build/timers.o
                0x08006cd0                xTimerCreateTimerTask
 .text.xTimerGenericCommand
                0x08006d34       0x68 build/timers.o
                0x08006d34                xTimerGenericCommand
 .text.prvSwitchTimerLists
                0x08006d9c       0x7c build/timers.o
 .text.prvSampleTimeNow
                0x08006e18       0x2c build/timers.o
 .text.prvProcessExpiredTimer
                0x08006e44       0x6c build/timers.o
 .text.prvProcessTimerOrBlockTask
                0x08006eb0       0x78 build/timers.o
 .text.prvProcessReceivedCommands
                0x08006f28      0x124 build/timers.o
 .text.prvTimerTask
                0x0800704c       0x16 build/timers.o
 *fill*         0x08007062        0x2 
 .text.prvTaskExitError
                0x08007064       0x40 build/port.o
 .text.prvPortStartFirstTask
                0x080070a4       0x28 build/port.o
 .text.vPortEnableVFP
                0x080070cc       0x14 build/port.o
 .text.pxPortInitialiseStack
                0x080070e0       0x2c build/port.o
                0x080070e0                pxPortInitialiseStack
 *fill*         0x0800710c        0x4 
 .text.SVC_Handler
                0x08007110       0x24 build/port.o
                0x08007110                SVC_Handler
 .text.vPortEnterCritical
                0x08007134       0x44 build/port.o
                0x08007134                vPortEnterCritical
 .text.vPortExitCritical
                0x08007178       0x2c build/port.o
                0x08007178                vPortExitCritical
 *fill*         0x080071a4        0xc 
 .text.PendSV_Handler
                0x080071b0       0x64 build/port.o
                0x080071b0                PendSV_Handler
 .text.xPortSysTickHandler
                0x08007214       0x2c build/port.o
                0x08007214                xPortSysTickHandler
 .text.vPortSetupTimerInterrupt
                0x08007240       0x28 build/port.o
                0x08007240                vPortSetupTimerInterrupt
 .text.xPortStartScheduler
                0x08007268      0x11c build/port.o
                0x08007268                xPortStartScheduler
 .text.vPortValidateInterruptPriority
                0x08007384       0x5c build/port.o
                0x08007384                vPortValidateInterruptPriority
 .text.prvHeapInit
                0x080073e0       0x64 build/heap_4.o
 .text.prvInsertBlockIntoFreeList
                0x08007444       0x5c build/heap_4.o
 .text.pvPortMalloc
                0x080074a0      0x110 build/heap_4.o
                0x080074a0                pvPortMalloc
 .text.vPortFree
                0x080075b0       0x80 build/heap_4.o
                0x080075b0                vPortFree
 .text.Reset_Handler
                0x08007630       0x48 build/startup_at32f403a_407.o
                0x08007630                Reset_Handler
 .text.Default_Handler
                0x08007678        0x2 build/startup_at32f403a_407.o
                0x08007678                SDIO1_IRQHandler
                0x08007678                XMC_IRQHandler
                0x08007678                EXINT2_IRQHandler
                0x08007678                USBFS_L_CAN1_RX0_IRQHandler
                0x08007678                UART8_IRQHandler
                0x08007678                SPI4_IRQHandler
                0x08007678                I2C2_EVT_IRQHandler
                0x08007678                TMR8_TRG_HALL_TMR14_IRQHandler
                0x08007678                USBFS_H_CAN1_TX_IRQHandler
                0x08007678                I2C1_ERR_IRQHandler
                0x08007678                EXINT9_5_IRQHandler
                0x08007678                EMAC_IRQHandler
                0x08007678                CAN2_RX1_IRQHandler
                0x08007678                TMR5_GLOBAL_IRQHandler
                0x08007678                SDIO2_IRQHandler
                0x08007678                ADC1_2_IRQHandler
                0x08007678                TAMPER_IRQHandler
                0x08007678                CAN2_RX0_IRQHandler
                0x08007678                DMA2_Channel2_IRQHandler
                0x08007678                DMA1_Channel4_IRQHandler
                0x08007678                TMR8_CH_IRQHandler
                0x08007678                USART6_IRQHandler
                0x08007678                EXINT0_IRQHandler
                0x08007678                USART3_IRQHandler
                0x08007678                RTC_IRQHandler
                0x08007678                DMA1_Channel7_IRQHandler
                0x08007678                CAN1_RX1_IRQHandler
                0x08007678                UART5_IRQHandler
                0x08007678                ADC3_IRQHandler
                0x08007678                ACC_IRQHandler
                0x08007678                EMAC_WKUP_IRQHandler
                0x08007678                DMA2_Channel1_IRQHandler
                0x08007678                EXINT3_IRQHandler
                0x08007678                DMA1_Channel6_IRQHandler
                0x08007678                UART4_IRQHandler
                0x08007678                Default_Handler
                0x08007678                USBFS_MAPH_IRQHandler
                0x08007678                TMR3_GLOBAL_IRQHandler
                0x08007678                TMR7_GLOBAL_IRQHandler
                0x08007678                CAN1_SE_IRQHandler
                0x08007678                CAN2_TX_IRQHandler
                0x08007678                I2C3_ERR_IRQHandler
                0x08007678                SPI3_I2S3EXT_IRQHandler
                0x08007678                TMR8_BRK_TMR12_IRQHandler
                0x08007678                DMA1_Channel5_IRQHandler
                0x08007678                TMR4_GLOBAL_IRQHandler
                0x08007678                EXINT4_IRQHandler
                0x08007678                CAN2_SE_IRQHandler
                0x08007678                DMA2_Channel6_7_IRQHandler
                0x08007678                PVM_IRQHandler
                0x08007678                I2C3_EVT_IRQHandler
                0x08007678                DMA1_Channel3_IRQHandler
                0x08007678                I2C1_EVT_IRQHandler
                0x08007678                TMR8_OVF_TMR13_IRQHandler
                0x08007678                TMR6_GLOBAL_IRQHandler
                0x08007678                EXINT1_IRQHandler
                0x08007678                RTCAlarm_IRQHandler
                0x08007678                DMA2_Channel4_5_IRQHandler
                0x08007678                UART7_IRQHandler
                0x08007678                USART2_IRQHandler
                0x08007678                DMA1_Channel2_IRQHandler
                0x08007678                TMR2_GLOBAL_IRQHandler
                0x08007678                FLASH_IRQHandler
                0x08007678                SPI2_I2S2EXT_IRQHandler
                0x08007678                I2C2_ERR_IRQHandler
                0x08007678                USBFSWakeUp_IRQHandler
                0x08007678                USART1_IRQHandler
                0x08007678                TMR1_CH_IRQHandler
                0x08007678                CRM_IRQHandler
                0x08007678                EXINT15_10_IRQHandler
                0x08007678                WWDT_IRQHandler
                0x08007678                DMA2_Channel3_IRQHandler
 *fill*         0x0800767a        0x2 
 .text.std      0x0800767c       0x6c C:/Program Files (x86)/Arm/GNU Toolchain mingw-w64-i686-arm-none-eabi/bin/../lib/gcc/arm-none-eabi/15.2.1/../../../../arm-none-eabi/lib/thumb/v7e-m+fp/hard\libc_nano.a(libc_a-findfp.o)
 .text.stdio_exit_handler
                0x080076e8       0x18 C:/Program Files (x86)/Arm/GNU Toolchain mingw-w64-i686-arm-none-eabi/bin/../lib/gcc/arm-none-eabi/15.2.1/../../../../arm-none-eabi/lib/thumb/v7e-m+fp/hard\libc_nano.a(libc_a-findfp.o)
 .text.cleanup_stdio
                0x08007700       0x40 C:/Program Files (x86)/Arm/GNU Toolchain mingw-w64-i686-arm-none-eabi/bin/../lib/gcc/arm-none-eabi/15.2.1/../../../../arm-none-eabi/lib/thumb/v7e-m+fp/hard\libc_nano.a(libc_a-findfp.o)
 .text.global_stdio_init.part.0
                0x08007740       0x40 C:/Program Files (x86)/Arm/GNU Toolchain mingw-w64-i686-arm-none-eabi/bin/../lib/gcc/arm-none-eabi/15.2.1/../../../../arm-none-eabi/lib/thumb/v7e-m+fp/hard\libc_nano.a(libc_a-findfp.o)
 .text.__sfp_lock_acquire
                0x08007780        0xc C:/Program Files (x86)/Arm/GNU Toolchain mingw-w64-i686-arm-none-eabi/bin/../lib/gcc/arm-none-eabi/15.2.1/../../../../arm-none-eabi/lib/thumb/v7e-m+fp/hard\libc_nano.a(libc_a-findfp.o)
                0x08007780                __sfp_lock_acquire
 .text.__sfp_lock_release
                0x0800778c        0xc C:/Program Files (x86)/Arm/GNU Toolchain mingw-w64-i686-arm-none-eabi/bin/../lib/gcc/arm-none-eabi/15.2.1/../../../../arm-none-eabi/lib/thumb/v7e-m+fp/hard\libc_nano.a(libc_a-findfp.o)
                0x0800778c                __sfp_lock_release
 .text.__sinit  0x08007798       0x30 C:/Program Files (x86)/Arm/GNU Toolchain mingw-w64-i686-arm-none-eabi/bin/../lib/gcc/arm-none-eabi/15.2.1/../../../../arm-none-eabi/lib/thumb/v7e-m+fp/hard\libc_nano.a(libc_a-findfp.o)
                0x08007798                __sinit
 .text._fwalk_sglue
                0x080077c8       0x3a C:/Program Files (x86)/Arm/GNU Toolchain mingw-w64-i686-arm-none-eabi/bin/../lib/gcc/arm-none-eabi/15.2.1/../../../../arm-none-eabi/lib/thumb/v7e-m+fp/hard\libc_nano.a(libc_a-fwalk.o)
                0x080077c8                _fwalk_sglue
 *fill*         0x08007802        0x2 
 .text.printf   0x08007804       0x24 C:/Program Files (x86)/Arm/GNU Toolchain mingw-w64-i686-arm-none-eabi/bin/../lib/gcc/arm-none-eabi/15.2.1/../../../../arm-none-eabi/lib/thumb/v7e-m+fp/hard\libc_nano.a(libc_a-printf.o)
                0x08007804                iprintf
                0x08007804                printf
 .text._puts_r  0x08007828       0xaa C:/Program Files (x86)/Arm/GNU Toolchain mingw-w64-i686-arm-none-eabi/bin/../lib/gcc/arm-none-eabi/15.2.1/../../../../arm-none-eabi/lib/thumb/v7e-m+fp/hard\libc_nano.a(libc_a-puts.o)
                0x08007828                _puts_r
 *fill*         0x080078d2        0x2 
 .text.puts     0x080078d4       0x10 C:/Program Files (x86)/Arm/GNU Toolchain mingw-w64-i686-arm-none-eabi/bin/../lib/gcc/arm-none-eabi/15.2.1/../../../../arm-none-eabi/lib/thumb/v7e-m+fp/hard\libc_nano.a(libc_a-puts.o)
                0x080078d4                puts
 .text.__sread  0x080078e4       0x22 C:/Program Files (x86)/Arm/GNU Toolchain mingw-w64-i686-arm-none-eabi/bin/../lib/gcc/arm-none-eabi/15.2.1/../../../../arm-none-eabi/lib/thumb/v7e-m+fp/hard\libc_nano.a(libc_a-stdio.o)
                0x080078e4                __sread
 .text.__swrite
                0x08007906       0x38 C:/Program Files (x86)/Arm/GNU Toolchain mingw-w64-i686-arm-none-eabi/bin/../lib/gcc/arm-none-eabi/15.2.1/../../../../arm-none-eabi/lib/thumb/v7e-m+fp/hard\libc_nano.a(libc_a-stdio.o)
                0x08007906                __swrite
 .text.__sseek  0x0800793e       0x26 C:/Program Files (x86)/Arm/GNU Toolchain mingw-w64-i686-arm-none-eabi/bin/../lib/gcc/arm-none-eabi/15.2.1/../../../../arm-none-eabi/lib/thumb/v7e-m+fp/hard\libc_nano.a(libc_a-stdio.o)
                0x0800793e                __sseek
 .text.__sclose
                0x08007964        0x8 C:/Program Files (x86)/Arm/GNU Toolchain mingw-w64-i686-arm-none-eabi/bin/../lib/gcc/arm-none-eabi/15.2.1/../../../../arm-none-eabi/lib/thumb/v7e-m+fp/hard\libc_nano.a(libc_a-stdio.o)
                0x08007964                __sclose
 .text.__swbuf_r
                0x0800796c       0x7a C:/Program Files (x86)/Arm/GNU Toolchain mingw-w64-i686-arm-none-eabi/bin/../lib/gcc/arm-none-eabi/15.2.1/../../../../arm-none-eabi/lib/thumb/v7e-m+fp/hard\libc_nano.a(libc_a-wbuf.o)
                0x0800796c                __swbuf_r
 *fill*         0x080079e6        0x2 
 .text.__swsetup_r
                0x080079e8       0xa8 C:/Program Files (x86)/Arm/GNU Toolchain mingw-w64-i686-arm-none-eabi/bin/../lib/gcc/arm-none-eabi/15.2.1/../../../../arm-none-eabi/lib/thumb/v7e-m+fp/hard\libc_nano.a(libc_a-wsetup.o)
                0x080079e8                __swsetup_r
 .text._close_r
                0x08007a90       0x20 C:/Program Files (x86)/Arm/GNU Toolchain mingw-w64-i686-arm-none-eabi/bin/../lib/gcc/arm-none-eabi/15.2.1/../../../../arm-none-eabi/lib/thumb/v7e-m+fp/hard\libc_nano.a(libc_a-closer.o)
                0x08007a90                _close_r
 .text._lseek_r
                0x08007ab0       0x24 C:/Program Files (x86)/Arm/GNU Toolchain mingw-w64-i686-arm-none-eabi/bin/../lib/gcc/arm-none-eabi/15.2.1/../../../../arm-none-eabi/lib/thumb/v7e-m+fp/hard\libc_nano.a(libc_a-lseekr.o)
                0x08007ab0                _lseek_r
 .text._read_r  0x08007ad4       0x24 C:/Program Files (x86)/Arm/GNU Toolchain mingw-w64-i686-arm-none-eabi/bin/../lib/gcc/arm-none-eabi/15.2.1/../../../../arm-none-eabi/lib/thumb/v7e-m+fp/hard\libc_nano.a(libc_a-readr.o)
                0x08007ad4                _read_r
 .text._write_r
                0x08007af8       0x24 C:/Program Files (x86)/Arm/GNU Toolchain mingw-w64-i686-arm-none-eabi/bin/../lib/gcc/arm-none-eabi/15.2.1/../../../../arm-none-eabi/lib/thumb/v7e-m+fp/hard\libc_nano.a(libc_a-writer.o)
                0x08007af8                _write_r
 .text.__errno  0x08007b1c        0xc C:/Program Files (x86)/Arm/GNU Toolchain mingw-w64-i686-arm-none-eabi/bin/../lib/gcc/arm-none-eabi/15.2.1/../../../../arm-none-eabi/lib/thumb/v7e-m+fp/hard\libc_nano.a(libc_a-errno.o)
                0x08007b1c                __errno
 .text.__libc_init_array
                0x08007b28       0x48 C:/Program Files (x86)/Arm/GNU Toolchain mingw-w64-i686-arm-none-eabi/bin/../lib/gcc/arm-none-eabi/15.2.1/../../../../arm-none-eabi/lib/thumb/v7e-m+fp/hard\libc_nano.a(libc_a-init.o)
                0x08007b28                __libc_init_array
 .text.__retarget_lock_init_recursive
                0x08007b70        0x2 C:/Program Files (x86)/Arm/GNU Toolchain mingw-w64-i686-arm-none-eabi/bin/../lib/gcc/arm-none-eabi/15.2.1/../../../../arm-none-eabi/lib/thumb/v7e-m+fp/hard\libc_nano.a(libc_a-lock.o)
                0x08007b70                __retarget_lock_init_recursive
 .text.__retarget_lock_acquire_recursive
                0x08007b72        0x2 C:/Program Files (x86)/Arm/GNU Toolchain mingw-w64-i686-arm-none-eabi/bin/../lib/gcc/arm-none-eabi/15.2.1/../../../../arm-none-eabi/lib/thumb/v7e-m+fp/hard\libc_nano.a(libc_a-lock.o)
                0x08007b72                __retarget_lock_acquire_recursive
 .text.__retarget_lock_release_recursive
                0x08007b74        0x2 C:/Program Files (x86)/Arm/GNU Toolchain mingw-w64-i686-arm-none-eabi/bin/../lib/gcc/arm-none-eabi/15.2.1/../../../../arm-none-eabi/lib/thumb/v7e-m+fp/hard\libc_nano.a(libc_a-lock.o)
                0x08007b74                __retarget_lock_release_recursive
 *fill*         0x08007b76        0x2 
 .text._free_r  0x08007b78       0x98 C:/Program Files (x86)/Arm/GNU Toolchain mingw-w64-i686-arm-none-eabi/bin/../lib/gcc/arm-none-eabi/15.2.1/../../../../arm-none-eabi/lib/thumb/v7e-m+fp/hard\libc_nano.a(libc_a-freer.o)
                0x08007b78                _free_r
 .text.sbrk_aligned
                0x08007c10       0x44 C:/Program Files (x86)/Arm/GNU Toolchain mingw-w64-i686-arm-none-eabi/bin/../lib/gcc/arm-none-eabi/15.2.1/../../../../arm-none-eabi/lib/thumb/v7e-m+fp/hard\libc_nano.a(libc_a-mallocr.o)
 .text._malloc_r
                0x08007c54       0xf8 C:/Program Files (x86)/Arm/GNU Toolchain mingw-w64-i686-arm-none-eabi/bin/../lib/gcc/arm-none-eabi/15.2.1/../../../../arm-none-eabi/lib/thumb/v7e-m+fp/hard\libc_nano.a(libc_a-mallocr.o)
                0x08007c54                _malloc_r
 .text.__malloc_lock
                0x08007d4c        0xc C:/Program Files (x86)/Arm/GNU Toolchain mingw-w64-i686-arm-none-eabi/bin/../lib/gcc/arm-none-eabi/15.2.1/../../../../arm-none-eabi/lib/thumb/v7e-m+fp/hard\libc_nano.a(libc_a-mlock.o)
                0x08007d4c                __malloc_lock
 .text.__malloc_unlock
                0x08007d58        0xc C:/Program Files (x86)/Arm/GNU Toolchain mingw-w64-i686-arm-none-eabi/bin/../lib/gcc/arm-none-eabi/15.2.1/../../../../arm-none-eabi/lib/thumb/v7e-m+fp/hard\libc_nano.a(libc_a-mlock.o)
                0x08007d58                __malloc_unlock
 .text.__sfputc_r
                0x08007d64       0x2a C:/Program Files (x86)/Arm/GNU Toolchain mingw-w64-i686-arm-none-eabi/bin/../lib/gcc/arm-none-eabi/15.2.1/../../../../arm-none-eabi/lib/thumb/v7e-m+fp/hard\libc_nano.a(libc_a-nano-vfprintf.o)
 .text.__sfputs_r
                0x08007d8e       0x24 C:/Program Files (x86)/Arm/GNU Toolchain mingw-w64-i686-arm-none-eabi/bin/../lib/gcc/arm-none-eabi/15.2.1/../../../../arm-none-eabi/lib/thumb/v7e-m+fp/hard\libc_nano.a(libc_a-nano-vfprintf.o)
                0x08007d8e                __sfputs_r
 *fill*         0x08007db2        0x2 
 .text._vfprintf_r
                0x08007db4      0x228 C:/Program Files (x86)/Arm/GNU Toolchain mingw-w64-i686-arm-none-eabi/bin/../lib/gcc/arm-none-eabi/15.2.1/../../../../arm-none-eabi/lib/thumb/v7e-m+fp/hard\libc_nano.a(libc_a-nano-vfprintf.o)
                0x08007db4                _vfprintf_r
                0x08007db4                _vfiprintf_r
 .text._printf_common
                0x08007fdc       0xea C:/Program Files (x86)/Arm/GNU Toolchain mingw-w64-i686-arm-none-eabi/bin/../lib/gcc/arm-none-eabi/15.2.1/../../../../arm-none-eabi/lib/thumb/v7e-m+fp/hard\libc_nano.a(libc_a-nano-vfprintf_i.o)
                0x08007fdc                _printf_common
 *fill*         0x080080c6        0x2 
 .text._printf_i
                0x080080c8      0x254 C:/Program Files (x86)/Arm/GNU Toolchain mingw-w64-i686-arm-none-eabi/bin/../lib/gcc/arm-none-eabi/15.2.1/../../../../arm-none-eabi/lib/thumb/v7e-m+fp/hard\libc_nano.a(libc_a-nano-vfprintf_i.o)
                0x080080c8                _printf_i
 .text.__sflush_r
                0x0800831c      0x100 C:/Program Files (x86)/Arm/GNU Toolchain mingw-w64-i686-arm-none-eabi/bin/../lib/gcc/arm-none-eabi/15.2.1/../../../../arm-none-eabi/lib/thumb/v7e-m+fp/hard\libc_nano.a(libc_a-fflush.o)
                0x0800831c                __sflush_r
 .text._fflush_r
                0x0800841c       0x50 C:/Program Files (x86)/Arm/GNU Toolchain mingw-w64-i686-arm-none-eabi/bin/../lib/gcc/arm-none-eabi/15.2.1/../../../../arm-none-eabi/lib/thumb/v7e-m+fp/hard\libc_nano.a(libc_a-fflush.o)
                0x0800841c                _fflush_r
 .text.__swhatbuf_r
                0x0800846c       0x48 C:/Program Files (x86)/Arm/GNU Toolchain mingw-w64-i686-arm-none-eabi/bin/../lib/gcc/arm-none-eabi/15.2.1/../../../../arm-none-eabi/lib/thumb/v7e-m+fp/hard\libc_nano.a(libc_a-makebuf.o)
                0x0800846c                __swhatbuf_r
 .text.__smakebuf_r
                0x080084b4       0x72 C:/Program Files (x86)/Arm/GNU Toolchain mingw-w64-i686-arm-none-eabi/bin/../lib/gcc/arm-none-eabi/15.2.1/../../../../arm-none-eabi/lib/thumb/v7e-m+fp/hard\libc_nano.a(libc_a-makebuf.o)
                0x080084b4                __smakebuf_r
 *fill*         0x08008526        0x2 
 .text._fstat_r
                0x08008528       0x24 C:/Program Files (x86)/Arm/GNU Toolchain mingw-w64-i686-arm-none-eabi/bin/../lib/gcc/arm-none-eabi/15.2.1/../../../../arm-none-eabi/lib/thumb/v7e-m+fp/hard\libc_nano.a(libc_a-fstatr.o)
                0x08008528                _fstat_r
 .text._isatty_r
                0x0800854c       0x20 C:/Program Files (x86)/Arm/GNU Toolchain mingw-w64-i686-arm-none-eabi/bin/../lib/gcc/arm-none-eabi/15.2.1/../../../../arm-none-eabi/lib/thumb/v7e-m+fp/hard\libc_nano.a(libc_a-isattyr.o)
                0x0800854c                _isatty_r
 .text._sbrk_r  0x0800856c       0x20 C:/Program Files (x86)/Arm/GNU Toolchain mingw-w64-i686-arm-none-eabi/bin/../lib/gcc/arm-none-eabi/15.2.1/../../../../arm-none-eabi/lib/thumb/v7e-m+fp/hard\libc_nano.a(libc_a-sbrkr.o)
                0x0800856c                _sbrk_r
 *fill*         0x0800858c        0x4 
 .text.log      0x08008590       0x8c C:/Program Files (x86)/Arm/GNU Toolchain mingw-w64-i686-arm-none-eabi/bin/../lib/gcc/arm-none-eabi/15.2.1/../../../../arm-none-eabi/lib/thumb/v7e-m+fp/hard\libm.a(libm_a-w_log.o)
                0x08008590                log
 *fill*         0x0800861c        0x4 
 .text.cos      0x08008620       0x90 C:/Program Files (x86)/Arm/GNU Toolchain mingw-w64-i686-arm-none-eabi/bin/../lib/gcc/arm-none-eabi/15.2.1/../../../../arm-none-eabi/lib/thumb/v7e-m+fp/hard\libm.a(libm_a-s_cos.o)
                0x08008620                cos
 .text.sin      0x080086b0       0x98 C:/Program Files (x86)/Arm/GNU Toolchain mingw-w64-i686-arm-none-eabi/bin/../lib/gcc/arm-none-eabi/15.2.1/../../../../arm-none-eabi/lib/thumb/v7e-m+fp/hard\libm.a(libm_a-s_sin.o)
                0x080086b0                sin
 .text.nan      0x08008748       0x10 C:/Program Files (x86)/Arm/GNU Toolchain mingw-w64-i686-arm-none-eabi/bin/../lib/gcc/arm-none-eabi/15.2.1/../../../../arm-none-eabi/lib/thumb/v7e-m+fp/hard\libm.a(libm_a-s_nan.o)
                0x08008748                nan
 .text.__kernel_cos
                0x08008758      0x27c C:/Program Files (x86)/Arm/GNU Toolchain mingw-w64-i686-arm-none-eabi/bin/../lib/gcc/arm-none-eabi/15.2.1/../../../../arm-none-eabi/lib/thumb/v7e-m+fp/hard\libm.a(libm_a-k_cos.o)
                0x08008758                __kernel_cos
 *fill*         0x080089d4        0x4 
 .text.__kernel_sin
                0x080089d8      0x194 C:/Program Files (x86)/Arm/GNU Toolchain mingw-w64-i686-arm-none-eabi/bin/../lib/gcc/arm-none-eabi/15.2.1/../../../../arm-none-eabi/lib/thumb/v7e-m+fp/hard\libm.a(libm_a-k_sin.o)
                0x080089d8                __kernel_sin
 *fill*         0x08008b6c        0x4 
 .text.__ieee754_log
                0x08008b70      0x408 C:/Program Files (x86)/Arm/GNU Toolchain mingw-w64-i686-arm-none-eabi/bin/../lib/gcc/arm-none-eabi/15.2.1/../../../../arm-none-eabi/lib/thumb/v7e-m+fp/hard\libm.a(libm_a-e_log.o)
                0x08008b70                __ieee754_log
 .text.__ieee754_rem_pio2
                0x08008f78      0x43c C:/Program Files (x86)/Arm/GNU Toolchain mingw-w64-i686-arm-none-eabi/bin/../lib/gcc/arm-none-eabi/15.2.1/../../../../arm-none-eabi/lib/thumb/v7e-m+fp/hard\libm.a(libm_a-e_rem_pio2.o)
                0x08008f78                __ieee754_rem_pio2
 .text.fabs     0x080093b4       0x14 C:/Program Files (x86)/Arm/GNU Toolchain mingw-w64-i686-arm-none-eabi/bin/../lib/gcc/arm-none-eabi/15.2.1/../../../../arm-none-eabi/lib/thumb/v7e-m+fp/hard\libm.a(libm_a-s_fabs.o)
                0x080093b4                fabs
 .text.__kernel_rem_pio2
                0x080093c8      0x890 C:/Program Files (x86)/Arm/GNU Toolchain mingw-w64-i686-arm-none-eabi/bin/../lib/gcc/arm-none-eabi/15.2.1/../../../../arm-none-eabi/lib/thumb/v7e-m+fp/hard\libm.a(libm_a-k_rem_pio2.o)
                0x080093c8                __kernel_rem_pio2
 .text.scalbn   0x08009c58      0x12c C:/Program Files (x86)/Arm/GNU Toolchain mingw-w64-i686-arm-none-eabi/bin/../lib/gcc/arm-none-eabi/15.2.1/../../../../arm-none-eabi/lib/thumb/v7e-m+fp/hard\libm.a(libm_a-s_scalbn.o)
                0x08009c58                scalbn
 *fill*         0x08009d84        0x4 
 .text.floor    0x08009d88      0x108 C:/Program Files (x86)/Arm/GNU Toolchain mingw-w64-i686-arm-none-eabi/bin/../lib/gcc/arm-none-eabi/15.2.1/../../../../arm-none-eabi/lib/thumb/v7e-m+fp/hard\libm.a(libm_a-s_floor.o)
                0x08009d88                floor
 *(.glue_7)
 .glue_7        0x08009e90        0x0 linker stubs
 *(.glue_7t)
 .glue_7t       0x08009e90        0x0 linker stubs
 *(.eh_frame)
 .eh_frame      0x08009e90        0x0 C:/Program Files (x86)/Arm/GNU Toolchain mingw-w64-i686-arm-none-eabi/bin/../lib/gcc/arm-none-eabi/15.2.1/thumb/v7e-m+fp/hard/crtbegin.o
 *(.init)
 .init          0x08009e90        0x4 C:/Program Files (x86)/Arm/GNU Toolchain mingw-w64-i686-arm-none-eabi/bin/../lib/gcc/arm-none-eabi/15.2.1/thumb/v7e-m+fp/hard/crti.o
                0x08009e90                _init
 .init          0x08009e94        0x8 C:/Program Files (x86)/Arm/GNU Toolchain mingw-w64-i686-arm-none-eabi/bin/../lib/gcc/arm-none-eabi/15.2.1/thumb/v7e-m+fp/hard/crtn.o
 *(.fini)
 .fini          0x08009e9c        0x4 C:/Program Files (x86)/Arm/GNU Toolchain mingw-w64-i686-arm-none-eabi/bin/../lib/gcc/arm-none-eabi/15.2.1/thumb/v7e-m+fp/hard/crti.o
                0x08009e9c                _fini
 .fini          0x08009ea0        0x8 C:/Program Files (x86)/Arm/GNU Toolchain mingw-w64-i686-arm-none-eabi/bin/../lib/gcc/arm-none-eabi/15.2.1/thumb/v7e-m+fp/hard/crtn.o
                0x08009ea8                        . = ALIGN (0x4)
                0x08009ea8                        _etext = .

.vfp11_veneer   0x08009ea8        0x0
 .vfp11_veneer  0x08009ea8        0x0 linker stubs

.v4_bx          0x08009ea8        0x0
 .v4_bx         0x08009ea8        0x0 linker stubs

.iplt           0x08009ea8        0x0
 .iplt          0x08009ea8        0x0 C:/Program Files (x86)/Arm/GNU Toolchain mingw-w64-i686-arm-none-eabi/bin/../lib/gcc/arm-none-eabi/15.2.1/thumb/v7e-m+fp/hard/crtbegin.o

.rodata         0x08009ea8      0x3c8
                0x08009ea8                        . = ALIGN (0x4)
 *(.rodata)
 *(.rodata*)
 .rodata.Debug_Task_func.str1.4
                0x08009ea8      0x180 build/freertos_app.o
                                 0x3e (size before relaxing)
 .rodata.Mc_Task_func.str1.4
                0x0800a028        0x0 build/freertos_app.o
                                 0x77 (size before relaxing)
 .rodata.freertos_task_create.str1.4
                0x0800a028        0x0 build/freertos_app.o
                                 0x30 (size before relaxing)
 .rodata.get_device_manufacturer_string.str1.4
                0x0800a028        0x0 build/cdc_desc.o
                                  0x7 (size before relaxing)
 .rodata.get_device_product_string.str1.4
                0x0800a028        0x0 build/cdc_desc.o
                                 0x11 (size before relaxing)
 .rodata.get_device_interface_string.str1.4
                0x0800a028        0x0 build/cdc_desc.o
                                 0x1a (size before relaxing)
 .rodata.get_device_config_string.str1.4
                0x0800a028        0x0 build/cdc_desc.o
                                 0x17 (size before relaxing)
 .rodata.sys_ahb_div_table.0
                0x0800a028       0x10 build/system_at32f403a_407.o
 .rodata.adc_div_table.0
                0x0800a038        0x8 build/at32f403a_407_crm.o
 .rodata.ahb_apb2_div_table.1
                0x0800a040        0x8 build/at32f403a_407_crm.o
 .rodata.ahb_apb1_div_table.2
                0x0800a048        0x8 build/at32f403a_407_crm.o
 .rodata.sclk_ahb_div_table.3
                0x0800a050       0x10 build/at32f403a_407_crm.o
 .rodata.motor_monitor_convert_adc_to_current.str1.4
                0x0800a060        0x0 build/motor_monitor.o
                                 0x30 (size before relaxing)
 .rodata.vTaskStartScheduler.str1.4
                0x0800a060        0x0 build/tasks.o
                                  0x5 (size before relaxing)
 .rodata.uxTopUsedPriority
                0x0800a060        0x4 build/tasks.o
                0x0800a060                uxTopUsedPriority
 .rodata.prvCheckForValidListAndQueue.str1.4
                0x0800a064        0x0 build/timers.o
                                  0x5 (size before relaxing)
 .rodata.xTimerCreateTimerTask.str1.4
                0x0800a064        0x0 build/timers.o
                                  0x8 (size before relaxing)
 .rodata._vfprintf_r.str1.1
                0x0800a064       0x33 C:/Program Files (x86)/Arm/GNU Toolchain mingw-w64-i686-arm-none-eabi/bin/../lib/gcc/arm-none-eabi/15.2.1/../../../../arm-none-eabi/lib/thumb/v7e-m+fp/hard\libc_nano.a(libc_a-nano-vfprintf.o)
                                 0x11 (size before relaxing)
 .rodata._printf_i.str1.1
                0x0800a097        0x0 C:/Program Files (x86)/Arm/GNU Toolchain mingw-w64-i686-arm-none-eabi/bin/../lib/gcc/arm-none-eabi/15.2.1/../../../../arm-none-eabi/lib/thumb/v7e-m+fp/hard\libc_nano.a(libc_a-nano-vfprintf_i.o)
                                 0x22 (size before relaxing)
 .rodata.log.str1.4
                0x0800a097        0x0 C:/Program Files (x86)/Arm/GNU Toolchain mingw-w64-i686-arm-none-eabi/bin/../lib/gcc/arm-none-eabi/15.2.1/../../../../arm-none-eabi/lib/thumb/v7e-m+fp/hard\libm.a(libm_a-w_log.o)
                                  0x1 (size before relaxing)
 *fill*         0x0800a097        0x1 
 .rodata.npio2_hw
                0x0800a098       0x80 C:/Program Files (x86)/Arm/GNU Toolchain mingw-w64-i686-arm-none-eabi/bin/../lib/gcc/arm-none-eabi/15.2.1/../../../../arm-none-eabi/lib/thumb/v7e-m+fp/hard\libm.a(libm_a-e_rem_pio2.o)
 .rodata.two_over_pi
                0x0800a118      0x108 C:/Program Files (x86)/Arm/GNU Toolchain mingw-w64-i686-arm-none-eabi/bin/../lib/gcc/arm-none-eabi/15.2.1/../../../../arm-none-eabi/lib/thumb/v7e-m+fp/hard\libm.a(libm_a-e_rem_pio2.o)
 .rodata.PIo2   0x0800a220       0x40 C:/Program Files (x86)/Arm/GNU Toolchain mingw-w64-i686-arm-none-eabi/bin/../lib/gcc/arm-none-eabi/15.2.1/../../../../arm-none-eabi/lib/thumb/v7e-m+fp/hard\libm.a(libm_a-k_rem_pio2.o)
 .rodata.init_jk
                0x0800a260       0x10 C:/Program Files (x86)/Arm/GNU Toolchain mingw-w64-i686-arm-none-eabi/bin/../lib/gcc/arm-none-eabi/15.2.1/../../../../arm-none-eabi/lib/thumb/v7e-m+fp/hard\libm.a(libm_a-k_rem_pio2.o)
                0x0800a270                        . = ALIGN (0x4)

.ARM.extab
 *(.ARM.extab* .gnu.linkonce.armextab.*)

.ARM            0x0800a270        0x8
                0x0800a270                        __exidx_start = .
 *(.ARM.exidx*)
 .ARM.exidx     0x0800a270        0x8 C:/Program Files (x86)/Arm/GNU Toolchain mingw-w64-i686-arm-none-eabi/bin/../lib/gcc/arm-none-eabi/15.2.1/../../../../arm-none-eabi/lib/thumb/v7e-m+fp/hard\libc_nano.a(libc_a-memchr.o)
                0x0800a278                        __exidx_end = .

.rel.dyn        0x0800a278        0x0
 .rel.iplt      0x0800a278        0x0 C:/Program Files (x86)/Arm/GNU Toolchain mingw-w64-i686-arm-none-eabi/bin/../lib/gcc/arm-none-eabi/15.2.1/thumb/v7e-m+fp/hard/crtbegin.o

.preinit_array  0x0800a278        0x0
                0x0800a278                        PROVIDE (__preinit_array_start = .)
 *(.preinit_array*)
                0x0800a278                        PROVIDE (__preinit_array_end = .)

.init_array     0x0800a278        0x4
                0x0800a278                        PROVIDE (__init_array_start = .)
 *(SORT_BY_NAME(.init_array.*))
 *(.init_array*)
 .init_array    0x0800a278        0x4 C:/Program Files (x86)/Arm/GNU Toolchain mingw-w64-i686-arm-none-eabi/bin/../lib/gcc/arm-none-eabi/15.2.1/thumb/v7e-m+fp/hard/crtbegin.o
                0x0800a27c                        PROVIDE (__init_array_end = .)

.fini_array     0x0800a27c        0x4
                [!provide]                        PROVIDE (__fini_array_start = .)
 *(SORT_BY_NAME(.fini_array.*))
 *(.fini_array*)
 .fini_array    0x0800a27c        0x4 C:/Program Files (x86)/Arm/GNU Toolchain mingw-w64-i686-arm-none-eabi/bin/../lib/gcc/arm-none-eabi/15.2.1/thumb/v7e-m+fp/hard/crtbegin.o
                [!provide]                        PROVIDE (__fini_array_end = .)
                0x0800a280                        _sidata = LOADADDR (.data)

.data           0x20000000      0x368 load address 0x0800a280
                0x20000000                        . = ALIGN (0x4)
                0x20000000                        _sdata = .
 *(.data)
 *(.data*)
 .data.cdc_class_handler
                0x20000000       0x28 build/cdc_class.o
                0x20000000                cdc_class_handler
 .data.linecoding
                0x20000028        0x8 build/cdc_class.o
                0x20000028                linecoding
 .data.serial_descriptor
                0x20000030        0x8 build/cdc_desc.o
 .data.langid_descriptor
                0x20000038        0x8 build/cdc_desc.o
 .data.config_descriptor
                0x20000040        0x8 build/cdc_desc.o
 .data.device_descriptor
                0x20000048        0x8 build/cdc_desc.o
 .data.g_string_serial
                0x20000050       0x1a build/cdc_desc.o
 *fill*         0x2000006a        0x2 
 .data.g_string_lang_id
                0x2000006c        0x4 build/cdc_desc.o
 .data.g_usbd_configuration
                0x20000070       0x43 build/cdc_desc.o
 *fill*         0x200000b3        0x1 
 .data.g_usbd_descriptor
                0x200000b4       0x12 build/cdc_desc.o
 *fill*         0x200000c6        0x2 
 .data.cdc_desc_handler
                0x200000c8       0x28 build/cdc_desc.o
                0x200000c8                cdc_desc_handler
 .data.system_core_clock
                0x200000f0        0x4 build/system_at32f403a_407.o
                0x200000f0                system_core_clock
 .data.g_usb_offset_addr
                0x200000f4        0x2 build/at32f403a_407_usb.o
 *fill*         0x200000f6        0x2 
 .data.g_usb_packet_address
                0x200000f8        0x4 build/at32f403a_407_usb.o
                0x200000f8                g_usb_packet_address
 .data.cdc_dev  0x200000fc      0x20c build/usb_cdc.o
                0x200000fc                cdc_dev
 .data.uxCriticalNesting
                0x20000308        0x4 build/port.o
 .data.__sglue  0x2000030c        0xc C:/Program Files (x86)/Arm/GNU Toolchain mingw-w64-i686-arm-none-eabi/bin/../lib/gcc/arm-none-eabi/15.2.1/../../../../arm-none-eabi/lib/thumb/v7e-m+fp/hard\libc_nano.a(libc_a-findfp.o)
                0x2000030c                __sglue
 .data._impure_ptr
                0x20000318        0x4 C:/Program Files (x86)/Arm/GNU Toolchain mingw-w64-i686-arm-none-eabi/bin/../lib/gcc/arm-none-eabi/15.2.1/../../../../arm-none-eabi/lib/thumb/v7e-m+fp/hard\libc_nano.a(libc_a-impure.o)
                0x20000318                _impure_ptr
 .data._impure_data
                0x2000031c       0x4c C:/Program Files (x86)/Arm/GNU Toolchain mingw-w64-i686-arm-none-eabi/bin/../lib/gcc/arm-none-eabi/15.2.1/../../../../arm-none-eabi/lib/thumb/v7e-m+fp/hard\libc_nano.a(libc_a-impure.o)
                0x2000031c                _impure_data
                0x20000368                        . = ALIGN (0x4)
                0x20000368                        _edata = .
                0x08400000                        _spim_init_base = LOADADDR (.spim)
                0x00000000                        _spim_init_length = SIZEOF (.spim)

.tm_clone_table
                0x20000368        0x0 load address 0x0800a5e8
 .tm_clone_table
                0x20000368        0x0 C:/Program Files (x86)/Arm/GNU Toolchain mingw-w64-i686-arm-none-eabi/bin/../lib/gcc/arm-none-eabi/15.2.1/thumb/v7e-m+fp/hard/crtbegin.o
 .tm_clone_table
                0x20000368        0x0 C:/Program Files (x86)/Arm/GNU Toolchain mingw-w64-i686-arm-none-eabi/bin/../lib/gcc/arm-none-eabi/15.2.1/thumb/v7e-m+fp/hard/crtend.o

.igot.plt       0x20000368        0x0 load address 0x0800a5e8
 .igot.plt      0x20000368        0x0 C:/Program Files (x86)/Arm/GNU Toolchain mingw-w64-i686-arm-none-eabi/bin/../lib/gcc/arm-none-eabi/15.2.1/thumb/v7e-m+fp/hard/crtbegin.o

.spim           0x08400000        0x0
                0x08400000                        . = ALIGN (0x4)
                0x08400000                        _spim_start = .
 *(.spim)
 *(.spim*)
                0x08400000                        . = ALIGN (0x4)
                0x08400000                        _spim_end = .
                0x08400000                        . = ALIGN (0x4)

.bss            0x20000368     0x5268
                0x20000368                        _sbss = .
                0x20000368                        __bss_start__ = _sbss
 *(.bss)
 *(.bss*)
 .bss.completed.1
                0x20000368        0x1 C:/Program Files (x86)/Arm/GNU Toolchain mingw-w64-i686-arm-none-eabi/bin/../lib/gcc/arm-none-eabi/15.2.1/thumb/v7e-m+fp/hard/crtbegin.o
 *fill*         0x20000369        0x3 
 .bss.object.0  0x2000036c       0x18 C:/Program Files (x86)/Arm/GNU Toolchain mingw-w64-i686-arm-none-eabi/bin/../lib/gcc/arm-none-eabi/15.2.1/thumb/v7e-m+fp/hard/crtbegin.o
 .bss.adc_odt   0x20000384       0x28 build/main.o
                0x20000384                adc_odt
 .bss.__sbrk_heap_end
                0x200003ac        0x4 build/sysmem.o
 .bss.ticks_count_us
                0x200003b0        0x4 build/wk_system.o
                0x200003b0                ticks_count_us
 .bss.send_zero_packet.0
                0x200003b4        0x1 build/usb_app.o
 *fill*         0x200003b5        0x3 
 .bss.usbd_app_buffer_fs1
                0x200003b8      0x200 build/usb_app.o
                0x200003b8                usbd_app_buffer_fs1
 .bss.usb_core_dev
                0x200005b8      0x22c build/usb_app.o
                0x200005b8                usb_core_dev
 .bss.timer_task_tcb
                0x200007e4       0x5c build/freertos_app.o
 .bss.idle_task_tcb
                0x20000840       0x5c build/freertos_app.o
 .bss.timer_task_stack
                0x2000089c      0x400 build/freertos_app.o
 .bss.idle_task_stack
                0x20000c9c      0x200 build/freertos_app.o
 .bss.MC_Task_handle
                0x20000e9c        0x4 build/freertos_app.o
                0x20000e9c                MC_Task_handle
 .bss.Monitor_Task_handle
                0x20000ea0        0x4 build/freertos_app.o
                0x20000ea0                Monitor_Task_handle
 .bss.CANCom_Task_handle
                0x20000ea4        0x4 build/freertos_app.o
                0x20000ea4                CANCom_Task_handle
 .bss.Debug_Task_handle
                0x20000ea8        0x4 build/freertos_app.o
                0x20000ea8                Debug_Task_handle
 .bss.motor     0x20000eac     0x16f0 build/freertos_app.o
                0x20000eac                motor
 .bss.cdc_struct
                0x2000259c       0x5c build/cdc_class.o
                0x2000259c                cdc_struct
 .bss.vp_desc   0x200025f8        0x8 build/cdc_desc.o
 .bss.g_usbd_desc_buffer
                0x20002600      0x100 build/cdc_desc.o
 .bss.counter.0
                0x20002700        0x4 build/motor_monitor.o
 .bss.rx_count  0x20002704        0x2 build/modbus_protocol.o
 .bss.rx_tail   0x20002706        0x2 build/modbus_protocol.o
 .bss.rx_head   0x20002708        0x2 build/modbus_protocol.o
 *fill*         0x2000270a        0x2 
 .bss.rx_buffer
                0x2000270c      0x200 build/modbus_protocol.o
 .bss.config_value.0
                0x2000290c        0x1 build/usbd_sdr.o
 *fill*         0x2000290d        0x3 
 .bss.xQueueRegistry
                0x20002910       0x40 build/queue.o
                0x20002910                xQueueRegistry
 .bss.uxSchedulerSuspended
                0x20002950        0x4 build/tasks.o
 .bss.xIdleTaskHandle
                0x20002954        0x4 build/tasks.o
 .bss.xNextTaskUnblockTime
                0x20002958        0x4 build/tasks.o
 .bss.uxTaskNumber
                0x2000295c        0x4 build/tasks.o
 .bss.xNumOfOverflows
                0x20002960        0x4 build/tasks.o
 .bss.xYieldPending
                0x20002964        0x4 build/tasks.o
 .bss.xPendedTicks
                0x20002968        0x4 build/tasks.o
 .bss.xSchedulerRunning
                0x2000296c        0x4 build/tasks.o
 .bss.uxTopReadyPriority
                0x20002970        0x4 build/tasks.o
 .bss.xTickCount
                0x20002974        0x4 build/tasks.o
 .bss.uxCurrentNumberOfTasks
                0x20002978        0x4 build/tasks.o
 .bss.xSuspendedTaskList
                0x2000297c       0x14 build/tasks.o
 .bss.uxDeletedTasksWaitingCleanUp
                0x20002990        0x4 build/tasks.o
 .bss.xTasksWaitingTermination
                0x20002994       0x14 build/tasks.o
 .bss.xPendingReadyList
                0x200029a8       0x14 build/tasks.o
 .bss.pxOverflowDelayedTaskList
                0x200029bc        0x4 build/tasks.o
 .bss.pxDelayedTaskList
                0x200029c0        0x4 build/tasks.o
 .bss.xDelayedTaskList2
                0x200029c4       0x14 build/tasks.o
 .bss.xDelayedTaskList1
                0x200029d8       0x14 build/tasks.o
 .bss.pxReadyTasksLists
                0x200029ec      0x140 build/tasks.o
 .bss.pxCurrentTCB
                0x20002b2c        0x4 build/tasks.o
                0x20002b2c                pxCurrentTCB
 .bss.xStaticTimerQueue.0
                0x20002b30       0x50 build/timers.o
 .bss.ucStaticTimerQueueStorage.1
                0x20002b80       0xa0 build/timers.o
 .bss.xLastTime.2
                0x20002c20        0x4 build/timers.o
 .bss.xTimerTaskHandle
                0x20002c24        0x4 build/timers.o
 .bss.xTimerQueue
                0x20002c28        0x4 build/timers.o
 .bss.pxOverflowTimerList
                0x20002c2c        0x4 build/timers.o
 .bss.pxCurrentTimerList
                0x20002c30        0x4 build/timers.o
 .bss.xActiveTimerList2
                0x20002c34       0x14 build/timers.o
 .bss.xActiveTimerList1
                0x20002c48       0x14 build/timers.o
 .bss.ulMaxPRIGROUPValue
                0x20002c5c        0x4 build/port.o
 .bss.ucMaxSysCallPriority
                0x20002c60        0x1 build/port.o
 *fill*         0x20002c61        0x3 
 .bss.xBlockAllocatedBit
                0x20002c64        0x4 build/heap_4.o
 .bss.xNumberOfSuccessfulFrees
                0x20002c68        0x4 build/heap_4.o
 .bss.xNumberOfSuccessfulAllocations
                0x20002c6c        0x4 build/heap_4.o
 .bss.xMinimumEverFreeBytesRemaining
                0x20002c70        0x4 build/heap_4.o
 .bss.xFreeBytesRemaining
                0x20002c74        0x4 build/heap_4.o
 .bss.pxEnd     0x20002c78        0x4 build/heap_4.o
 .bss.xStart    0x20002c7c        0x8 build/heap_4.o
 .bss.ucHeap    0x20002c84     0x2800 build/heap_4.o
 .bss.__sf      0x20005484      0x138 C:/Program Files (x86)/Arm/GNU Toolchain mingw-w64-i686-arm-none-eabi/bin/../lib/gcc/arm-none-eabi/15.2.1/../../../../arm-none-eabi/lib/thumb/v7e-m+fp/hard\libc_nano.a(libc_a-findfp.o)
                0x20005484                __sf
 .bss.__stdio_exit_handler
                0x200055bc        0x4 C:/Program Files (x86)/Arm/GNU Toolchain mingw-w64-i686-arm-none-eabi/bin/../lib/gcc/arm-none-eabi/15.2.1/../../../../arm-none-eabi/lib/thumb/v7e-m+fp/hard\libc_nano.a(libc_a-findfp.o)
                0x200055bc                __stdio_exit_handler
 .bss.errno     0x200055c0        0x4 C:/Program Files (x86)/Arm/GNU Toolchain mingw-w64-i686-arm-none-eabi/bin/../lib/gcc/arm-none-eabi/15.2.1/../../../../arm-none-eabi/lib/thumb/v7e-m+fp/hard\libc_nano.a(libc_a-reent.o)
                0x200055c0                errno
 .bss.__lock___malloc_recursive_mutex
                0x200055c4        0x1 C:/Program Files (x86)/Arm/GNU Toolchain mingw-w64-i686-arm-none-eabi/bin/../lib/gcc/arm-none-eabi/15.2.1/../../../../arm-none-eabi/lib/thumb/v7e-m+fp/hard\libc_nano.a(libc_a-lock.o)
                0x200055c4                __lock___malloc_recursive_mutex
 .bss.__lock___sfp_recursive_mutex
                0x200055c5        0x1 C:/Program Files (x86)/Arm/GNU Toolchain mingw-w64-i686-arm-none-eabi/bin/../lib/gcc/arm-none-eabi/15.2.1/../../../../arm-none-eabi/lib/thumb/v7e-m+fp/hard\libc_nano.a(libc_a-lock.o)
                0x200055c5                __lock___sfp_recursive_mutex
 *fill*         0x200055c6        0x2 
 .bss.__malloc_sbrk_start
                0x200055c8        0x4 C:/Program Files (x86)/Arm/GNU Toolchain mingw-w64-i686-arm-none-eabi/bin/../lib/gcc/arm-none-eabi/15.2.1/../../../../arm-none-eabi/lib/thumb/v7e-m+fp/hard\libc_nano.a(libc_a-mallocr.o)
                0x200055c8                __malloc_sbrk_start
 .bss.__malloc_free_list
                0x200055cc        0x4 C:/Program Files (x86)/Arm/GNU Toolchain mingw-w64-i686-arm-none-eabi/bin/../lib/gcc/arm-none-eabi/15.2.1/../../../../arm-none-eabi/lib/thumb/v7e-m+fp/hard\libc_nano.a(libc_a-mallocr.o)
                0x200055cc                __malloc_free_list
 *(COMMON)
                0x200055d0                        . = ALIGN (0x4)
                0x200055d0                        _ebss = .
                0x200055d0                        __bss_end__ = _ebss

._user_heap_stack
                0x200055d0      0x600
                0x200055d0                        . = ALIGN (0x8)
                [!provide]                        PROVIDE (end = .)
                0x200055d0                        PROVIDE (_end = .)
                0x200057d0                        . = (. + _Min_Heap_Size)
 *fill*         0x200055d0      0x200 
                0x20005bd0                        . = (. + _Min_Stack_Size)
 *fill*         0x200057d0      0x400 
                0x20005bd0                        . = ALIGN (0x8)

/DISCARD/
 libc.a(*)
 libm.a(*)
 libgcc.a(*)

.ARM.attributes
                0x00000000       0x30
 *(.ARM.attributes)
 .ARM.attributes
                0x00000000       0x22 C:/Program Files (x86)/Arm/GNU Toolchain mingw-w64-i686-arm-none-eabi/bin/../lib/gcc/arm-none-eabi/15.2.1/thumb/v7e-m+fp/hard/crti.o
 .ARM.attributes
                0x00000022       0x34 C:/Program Files (x86)/Arm/GNU Toolchain mingw-w64-i686-arm-none-eabi/bin/../lib/gcc/arm-none-eabi/15.2.1/thumb/v7e-m+fp/hard/crtbegin.o
 .ARM.attributes
                0x00000056       0x34 build/main.o
 .ARM.attributes
                0x0000008a       0x34 build/syscalls.o
 .ARM.attributes
                0x000000be       0x34 build/sysmem.o
 .ARM.attributes
                0x000000f2       0x34 build/at32f403a_407_wk_config.o
 .ARM.attributes
                0x00000126       0x34 build/at32f403a_407_int.o
 .ARM.attributes
                0x0000015a       0x34 build/wk_system.o
 .ARM.attributes
                0x0000018e       0x34 build/wk_acc.o
 .ARM.attributes
                0x000001c2       0x34 build/wk_adc.o
 .ARM.attributes
                0x000001f6       0x34 build/wk_can.o
 .ARM.attributes
                0x0000022a       0x34 build/wk_debug.o
 .ARM.attributes
                0x0000025e       0x34 build/wk_spi.o
 .ARM.attributes
                0x00000292       0x34 build/wk_tmr.o
 .ARM.attributes
                0x000002c6       0x34 build/wk_usbfs.o
 .ARM.attributes
                0x000002fa       0x34 build/wk_dma.o
 .ARM.attributes
                0x0000032e       0x34 build/wk_gpio.o
 .ARM.attributes
                0x00000362       0x34 build/usb_app.o
 .ARM.attributes
                0x00000396       0x34 build/freertos_app.o
 .ARM.attributes
                0x000003ca       0x34 build/cdc_class.o
 .ARM.attributes
                0x000003fe       0x34 build/cdc_desc.o
 .ARM.attributes
                0x00000432       0x34 build/system_at32f403a_407.o
 .ARM.attributes
                0x00000466       0x34 build/at32f403a_407_crm.o
 .ARM.attributes
                0x0000049a       0x34 build/at32f403a_407_tmr.o
 .ARM.attributes
                0x000004ce       0x34 build/at32f403a_407_gpio.o
 .ARM.attributes
                0x00000502       0x34 build/at32f403a_407_adc.o
 .ARM.attributes
                0x00000536       0x34 build/at32f403a_407_spi.o
 .ARM.attributes
                0x0000056a       0x34 build/at32f403a_407_dma.o
 .ARM.attributes
                0x0000059e       0x34 build/at32f403a_407_misc.o
 .ARM.attributes
                0x000005d2       0x34 build/at32f403a_407_usb.o
 .ARM.attributes
                0x00000606       0x34 build/at32f403a_407_acc.o
 .ARM.attributes
                0x0000063a       0x34 build/at32f403a_407_can.o
 .ARM.attributes
                0x0000066e       0x34 build/motor_control.o
 .ARM.attributes
                0x000006a2       0x34 build/motor_foc.o
 .ARM.attributes
                0x000006d6       0x34 build/motor_monitor.o
 .ARM.attributes
                0x0000070a       0x34 build/motor_params.o
 .ARM.attributes
                0x0000073e       0x34 build/usb_cdc.o
 .ARM.attributes
                0x00000772       0x34 build/modbus_protocol.o
 .ARM.attributes
                0x000007a6       0x34 build/common_utils.o
 .ARM.attributes
                0x000007da       0x34 build/usbd_core.o
 .ARM.attributes
                0x0000080e       0x34 build/usbd_int.o
 .ARM.attributes
                0x00000842       0x34 build/usbd_sdr.o
 .ARM.attributes
                0x00000876       0x34 build/list.o
 .ARM.attributes
                0x000008aa       0x34 build/queue.o
 .ARM.attributes
                0x000008de       0x34 build/tasks.o
 .ARM.attributes
                0x00000912       0x34 build/timers.o
 .ARM.attributes
                0x00000946       0x34 build/port.o
 .ARM.attributes
                0x0000097a       0x34 build/heap_4.o
 .ARM.attributes
                0x000009ae       0x21 build/startup_at32f403a_407.o
 .ARM.attributes
                0x000009cf       0x34 C:/Program Files (x86)/Arm/GNU Toolchain mingw-w64-i686-arm-none-eabi/bin/../lib/gcc/arm-none-eabi/15.2.1/../../../../arm-none-eabi/lib/thumb/v7e-m+fp/hard\libc_nano.a(libc_a-findfp.o)
 .ARM.attributes
                0x00000a03       0x34 C:/Program Files (x86)/Arm/GNU Toolchain mingw-w64-i686-arm-none-eabi/bin/../lib/gcc/arm-none-eabi/15.2.1/../../../../arm-none-eabi/lib/thumb/v7e-m+fp/hard\libc_nano.a(libc_a-fwalk.o)
 .ARM.attributes
                0x00000a37       0x34 C:/Program Files (x86)/Arm/GNU Toolchain mingw-w64-i686-arm-none-eabi/bin/../lib/gcc/arm-none-eabi/15.2.1/../../../../arm-none-eabi/lib/thumb/v7e-m+fp/hard\libc_nano.a(libc_a-printf.o)
 .ARM.attributes
                0x00000a6b       0x34 C:/Program Files (x86)/Arm/GNU Toolchain mingw-w64-i686-arm-none-eabi/bin/../lib/gcc/arm-none-eabi/15.2.1/../../../../arm-none-eabi/lib/thumb/v7e-m+fp/hard\libc_nano.a(libc_a-puts.o)
 .ARM.attributes
                0x00000a9f       0x34 C:/Program Files (x86)/Arm/GNU Toolchain mingw-w64-i686-arm-none-eabi/bin/../lib/gcc/arm-none-eabi/15.2.1/../../../../arm-none-eabi/lib/thumb/v7e-m+fp/hard\libc_nano.a(libc_a-stdio.o)
 .ARM.attributes
                0x00000ad3       0x34 C:/Program Files (x86)/Arm/GNU Toolchain mingw-w64-i686-arm-none-eabi/bin/../lib/gcc/arm-none-eabi/15.2.1/../../../../arm-none-eabi/lib/thumb/v7e-m+fp/hard\libc_nano.a(libc_a-wbuf.o)
 .ARM.attributes
                0x00000b07       0x34 C:/Program Files (x86)/Arm/GNU Toolchain mingw-w64-i686-arm-none-eabi/bin/../lib/gcc/arm-none-eabi/15.2.1/../../../../arm-none-eabi/lib/thumb/v7e-m+fp/hard\libc_nano.a(libc_a-wsetup.o)
 .ARM.attributes
                0x00000b3b       0x34 C:/Program Files (x86)/Arm/GNU Toolchain mingw-w64-i686-arm-none-eabi/bin/../lib/gcc/arm-none-eabi/15.2.1/../../../../arm-none-eabi/lib/thumb/v7e-m+fp/hard\libc_nano.a(libc_a-closer.o)
 .ARM.attributes
                0x00000b6f       0x34 C:/Program Files (x86)/Arm/GNU Toolchain mingw-w64-i686-arm-none-eabi/bin/../lib/gcc/arm-none-eabi/15.2.1/../../../../arm-none-eabi/lib/thumb/v7e-m+fp/hard\libc_nano.a(libc_a-reent.o)
 .ARM.attributes
                0x00000ba3       0x34 C:/Program Files (x86)/Arm/GNU Toolchain mingw-w64-i686-arm-none-eabi/bin/../lib/gcc/arm-none-eabi/15.2.1/../../../../arm-none-eabi/lib/thumb/v7e-m+fp/hard\libc_nano.a(libc_a-impure.o)
 .ARM.attributes
                0x00000bd7       0x34 C:/Program Files (x86)/Arm/GNU Toolchain mingw-w64-i686-arm-none-eabi/bin/../lib/gcc/arm-none-eabi/15.2.1/../../../../arm-none-eabi/lib/thumb/v7e-m+fp/hard\libc_nano.a(libc_a-lseekr.o)
 .ARM.attributes
                0x00000c0b       0x34 C:/Program Files (x86)/Arm/GNU Toolchain mingw-w64-i686-arm-none-eabi/bin/../lib/gcc/arm-none-eabi/15.2.1/../../../../arm-none-eabi/lib/thumb/v7e-m+fp/hard\libc_nano.a(libc_a-readr.o)
 .ARM.attributes
                0x00000c3f       0x34 C:/Program Files (x86)/Arm/GNU Toolchain mingw-w64-i686-arm-none-eabi/bin/../lib/gcc/arm-none-eabi/15.2.1/../../../../arm-none-eabi/lib/thumb/v7e-m+fp/hard\libc_nano.a(libc_a-writer.o)
 .ARM.attributes
                0x00000c73       0x34 C:/Program Files (x86)/Arm/GNU Toolchain mingw-w64-i686-arm-none-eabi/bin/../lib/gcc/arm-none-eabi/15.2.1/../../../../arm-none-eabi/lib/thumb/v7e-m+fp/hard\libc_nano.a(libc_a-errno.o)
 .ARM.attributes
                0x00000ca7       0x34 C:/Program Files (x86)/Arm/GNU Toolchain mingw-w64-i686-arm-none-eabi/bin/../lib/gcc/arm-none-eabi/15.2.1/../../../../arm-none-eabi/lib/thumb/v7e-m+fp/hard\libc_nano.a(libc_a-init.o)
 .ARM.attributes
                0x00000cdb       0x34 C:/Program Files (x86)/Arm/GNU Toolchain mingw-w64-i686-arm-none-eabi/bin/../lib/gcc/arm-none-eabi/15.2.1/../../../../arm-none-eabi/lib/thumb/v7e-m+fp/hard\libc_nano.a(libc_a-lock.o)
 .ARM.attributes
                0x00000d0f       0x34 C:/Program Files (x86)/Arm/GNU Toolchain mingw-w64-i686-arm-none-eabi/bin/../lib/gcc/arm-none-eabi/15.2.1/../../../../arm-none-eabi/lib/thumb/v7e-m+fp/hard\libc_nano.a(libc_a-freer.o)
 .ARM.attributes
                0x00000d43       0x34 C:/Program Files (x86)/Arm/GNU Toolchain mingw-w64-i686-arm-none-eabi/bin/../lib/gcc/arm-none-eabi/15.2.1/../../../../arm-none-eabi/lib/thumb/v7e-m+fp/hard\libc_nano.a(libc_a-mallocr.o)
 .ARM.attributes
                0x00000d77       0x34 C:/Program Files (x86)/Arm/GNU Toolchain mingw-w64-i686-arm-none-eabi/bin/../lib/gcc/arm-none-eabi/15.2.1/../../../../arm-none-eabi/lib/thumb/v7e-m+fp/hard\libc_nano.a(libc_a-mlock.o)
 .ARM.attributes
                0x00000dab       0x34 C:/Program Files (x86)/Arm/GNU Toolchain mingw-w64-i686-arm-none-eabi/bin/../lib/gcc/arm-none-eabi/15.2.1/../../../../arm-none-eabi/lib/thumb/v7e-m+fp/hard\libc_nano.a(libc_a-nano-vfprintf.o)
 .ARM.attributes
                0x00000ddf       0x34 C:/Program Files (x86)/Arm/GNU Toolchain mingw-w64-i686-arm-none-eabi/bin/../lib/gcc/arm-none-eabi/15.2.1/../../../../arm-none-eabi/lib/thumb/v7e-m+fp/hard\libc_nano.a(libc_a-nano-vfprintf_i.o)
 .ARM.attributes
                0x00000e13       0x34 C:/Program Files (x86)/Arm/GNU Toolchain mingw-w64-i686-arm-none-eabi/bin/../lib/gcc/arm-none-eabi/15.2.1/../../../../arm-none-eabi/lib/thumb/v7e-m+fp/hard\libc_nano.a(libc_a-fflush.o)
 .ARM.attributes
                0x00000e47       0x34 C:/Program Files (x86)/Arm/GNU Toolchain mingw-w64-i686-arm-none-eabi/bin/../lib/gcc/arm-none-eabi/15.2.1/../../../../arm-none-eabi/lib/thumb/v7e-m+fp/hard\libc_nano.a(libc_a-makebuf.o)
 .ARM.attributes
                0x00000e7b       0x34 C:/Program Files (x86)/Arm/GNU Toolchain mingw-w64-i686-arm-none-eabi/bin/../lib/gcc/arm-none-eabi/15.2.1/../../../../arm-none-eabi/lib/thumb/v7e-m+fp/hard\libc_nano.a(libc_a-fstatr.o)
 .ARM.attributes
                0x00000eaf       0x34 C:/Program Files (x86)/Arm/GNU Toolchain mingw-w64-i686-arm-none-eabi/bin/../lib/gcc/arm-none-eabi/15.2.1/../../../../arm-none-eabi/lib/thumb/v7e-m+fp/hard\libc_nano.a(libc_a-isattyr.o)
 .ARM.attributes
                0x00000ee3       0x34 C:/Program Files (x86)/Arm/GNU Toolchain mingw-w64-i686-arm-none-eabi/bin/../lib/gcc/arm-none-eabi/15.2.1/../../../../arm-none-eabi/lib/thumb/v7e-m+fp/hard\libc_nano.a(libc_a-sbrkr.o)
 .ARM.attributes
                0x00000f17       0x1c C:/Program Files (x86)/Arm/GNU Toolchain mingw-w64-i686-arm-none-eabi/bin/../lib/gcc/arm-none-eabi/15.2.1/../../../../arm-none-eabi/lib/thumb/v7e-m+fp/hard\libc_nano.a(libc_a-memchr.o)
 .ARM.attributes
                0x00000f33       0x34 C:/Program Files (x86)/Arm/GNU Toolchain mingw-w64-i686-arm-none-eabi/bin/../lib/gcc/arm-none-eabi/15.2.1/../../../../arm-none-eabi/lib/thumb/v7e-m+fp/hard\libm.a(libm_a-w_log.o)
 .ARM.attributes
                0x00000f67       0x34 C:/Program Files (x86)/Arm/GNU Toolchain mingw-w64-i686-arm-none-eabi/bin/../lib/gcc/arm-none-eabi/15.2.1/../../../../arm-none-eabi/lib/thumb/v7e-m+fp/hard\libm.a(libm_a-s_cos.o)
 .ARM.attributes
                0x00000f9b       0x34 C:/Program Files (x86)/Arm/GNU Toolchain mingw-w64-i686-arm-none-eabi/bin/../lib/gcc/arm-none-eabi/15.2.1/../../../../arm-none-eabi/lib/thumb/v7e-m+fp/hard\libm.a(libm_a-s_sin.o)
 .ARM.attributes
                0x00000fcf       0x34 C:/Program Files (x86)/Arm/GNU Toolchain mingw-w64-i686-arm-none-eabi/bin/../lib/gcc/arm-none-eabi/15.2.1/../../../../arm-none-eabi/lib/thumb/v7e-m+fp/hard\libm.a(libm_a-s_nan.o)
 .ARM.attributes
                0x00001003       0x34 C:/Program Files (x86)/Arm/GNU Toolchain mingw-w64-i686-arm-none-eabi/bin/../lib/gcc/arm-none-eabi/15.2.1/../../../../arm-none-eabi/lib/thumb/v7e-m+fp/hard\libm.a(libm_a-k_cos.o)
 .ARM.attributes
                0x00001037       0x34 C:/Program Files (x86)/Arm/GNU Toolchain mingw-w64-i686-arm-none-eabi/bin/../lib/gcc/arm-none-eabi/15.2.1/../../../../arm-none-eabi/lib/thumb/v7e-m+fp/hard\libm.a(libm_a-k_sin.o)
 .ARM.attributes
                0x0000106b       0x34 C:/Program Files (x86)/Arm/GNU Toolchain mingw-w64-i686-arm-none-eabi/bin/../lib/gcc/arm-none-eabi/15.2.1/../../../../arm-none-eabi/lib/thumb/v7e-m+fp/hard\libm.a(libm_a-e_log.o)
 .ARM.attributes
                0x0000109f       0x34 C:/Program Files (x86)/Arm/GNU Toolchain mingw-w64-i686-arm-none-eabi/bin/../lib/gcc/arm-none-eabi/15.2.1/../../../../arm-none-eabi/lib/thumb/v7e-m+fp/hard\libm.a(libm_a-e_rem_pio2.o)
 .ARM.attributes
                0x000010d3       0x34 C:/Program Files (x86)/Arm/GNU Toolchain mingw-w64-i686-arm-none-eabi/bin/../lib/gcc/arm-none-eabi/15.2.1/../../../../arm-none-eabi/lib/thumb/v7e-m+fp/hard\libm.a(libm_a-s_fabs.o)
 .ARM.attributes
                0x00001107       0x34 C:/Program Files (x86)/Arm/GNU Toolchain mingw-w64-i686-arm-none-eabi/bin/../lib/gcc/arm-none-eabi/15.2.1/../../../../arm-none-eabi/lib/thumb/v7e-m+fp/hard\libm.a(libm_a-k_rem_pio2.o)
 .ARM.attributes
                0x0000113b       0x34 C:/Program Files (x86)/Arm/GNU Toolchain mingw-w64-i686-arm-none-eabi/bin/../lib/gcc/arm-none-eabi/15.2.1/../../../../arm-none-eabi/lib/thumb/v7e-m+fp/hard\libm.a(libm_a-s_scalbn.o)
 .ARM.attributes
                0x0000116f       0x34 C:/Program Files (x86)/Arm/GNU Toolchain mingw-w64-i686-arm-none-eabi/bin/../lib/gcc/arm-none-eabi/15.2.1/../../../../arm-none-eabi/lib/thumb/v7e-m+fp/hard\libm.a(libm_a-s_floor.o)
 .ARM.attributes
                0x000011a3       0x22 C:/Program Files (x86)/Arm/GNU Toolchain mingw-w64-i686-arm-none-eabi/bin/../lib/gcc/arm-none-eabi/15.2.1/thumb/v7e-m+fp/hard\libgcc.a(_arm_addsubdf3.o)
 .ARM.attributes
                0x000011c5       0x22 C:/Program Files (x86)/Arm/GNU Toolchain mingw-w64-i686-arm-none-eabi/bin/../lib/gcc/arm-none-eabi/15.2.1/thumb/v7e-m+fp/hard\libgcc.a(_arm_muldivdf3.o)
 .ARM.attributes
                0x000011e7       0x22 C:/Program Files (x86)/Arm/GNU Toolchain mingw-w64-i686-arm-none-eabi/bin/../lib/gcc/arm-none-eabi/15.2.1/thumb/v7e-m+fp/hard\libgcc.a(_arm_cmpdf2.o)
 .ARM.attributes
                0x00001209       0x22 C:/Program Files (x86)/Arm/GNU Toolchain mingw-w64-i686-arm-none-eabi/bin/../lib/gcc/arm-none-eabi/15.2.1/thumb/v7e-m+fp/hard\libgcc.a(_arm_unorddf2.o)
 .ARM.attributes
                0x0000122b       0x22 C:/Program Files (x86)/Arm/GNU Toolchain mingw-w64-i686-arm-none-eabi/bin/../lib/gcc/arm-none-eabi/15.2.1/thumb/v7e-m+fp/hard\libgcc.a(_arm_fixdfsi.o)
 .ARM.attributes
                0x0000124d       0x22 C:/Program Files (x86)/Arm/GNU Toolchain mingw-w64-i686-arm-none-eabi/bin/../lib/gcc/arm-none-eabi/15.2.1/thumb/v7e-m+fp/hard\libgcc.a(_arm_truncdfsf2.o)
 .ARM.attributes
                0x0000126f       0x34 C:/Program Files (x86)/Arm/GNU Toolchain mingw-w64-i686-arm-none-eabi/bin/../lib/gcc/arm-none-eabi/15.2.1/thumb/v7e-m+fp/hard/crtend.o
 .ARM.attributes
                0x000012a3       0x22 C:/Program Files (x86)/Arm/GNU Toolchain mingw-w64-i686-arm-none-eabi/bin/../lib/gcc/arm-none-eabi/15.2.1/thumb/v7e-m+fp/hard/crtn.o
OUTPUT(build/AT32WorkBench.elf elf32-littlearm)
LOAD linker stubs
LOAD C:/Program Files (x86)/Arm/GNU Toolchain mingw-w64-i686-arm-none-eabi/bin/../lib/gcc/arm-none-eabi/15.2.1/../../../../arm-none-eabi/lib/thumb/v7e-m+fp/hard\libc.a
LOAD C:/Program Files (x86)/Arm/GNU Toolchain mingw-w64-i686-arm-none-eabi/bin/../lib/gcc/arm-none-eabi/15.2.1/../../../../arm-none-eabi/lib/thumb/v7e-m+fp/hard\libm.a
LOAD C:/Program Files (x86)/Arm/GNU Toolchain mingw-w64-i686-arm-none-eabi/bin/../lib/gcc/arm-none-eabi/15.2.1/thumb/v7e-m+fp/hard\libgcc.a

.debug_info     0x00000000    0x485f0
 .debug_info    0x00000000     0x1218 build/main.o
 .debug_info    0x00001218      0x849 build/syscalls.o
 .debug_info    0x00001a61      0x18c build/sysmem.o
 .debug_info    0x00001bed     0x146e build/at32f403a_407_wk_config.o
 .debug_info    0x0000305b      0x291 build/at32f403a_407_int.o
 .debug_info    0x000032ec     0x1377 build/wk_system.o
 .debug_info    0x00004663      0x183 build/wk_acc.o
 .debug_info    0x000047e6     0x22b8 build/wk_adc.o
 .debug_info    0x00006a9e     0x2925 build/wk_can.o
 .debug_info    0x000093c3      0x10a build/wk_debug.o
 .debug_info    0x000094cd     0x1912 build/wk_spi.o
 .debug_info    0x0000addf     0x26f8 build/wk_tmr.o
 .debug_info    0x0000d4d7      0x136 build/wk_usbfs.o
 .debug_info    0x0000d60d      0xe55 build/wk_dma.o
 .debug_info    0x0000e462      0xfbc build/wk_gpio.o
 .debug_info    0x0000f41e      0xf53 build/usb_app.o
 .debug_info    0x00010371     0x5e46 build/freertos_app.o
 .debug_info    0x000161b7     0x16f7 build/cdc_class.o
 .debug_info    0x000178ae      0x66e build/cdc_desc.o
 .debug_info    0x00017f1c     0x17e7 build/system_at32f403a_407.o
 .debug_info    0x00019703     0x26b0 build/at32f403a_407_crm.o
 .debug_info    0x0001bdb3     0x2d72 build/at32f403a_407_tmr.o
 .debug_info    0x0001eb25     0x23f7 build/at32f403a_407_gpio.o
 .debug_info    0x00020f1c     0x1c2c build/at32f403a_407_adc.o
 .debug_info    0x00022b48     0x1498 build/at32f403a_407_spi.o
 .debug_info    0x00023fe0      0xfad build/at32f403a_407_dma.o
 .debug_info    0x00024f8d      0xb78 build/at32f403a_407_misc.o
 .debug_info    0x00025b05     0x24fb build/at32f403a_407_usb.o
 .debug_info    0x00028000      0x5ea build/at32f403a_407_acc.o
 .debug_info    0x000285ea     0x25fa build/at32f403a_407_can.o
 .debug_info    0x0002abe4     0x338c build/motor_control.o
 .debug_info    0x0002df70     0x41a0 build/motor_foc.o
 .debug_info    0x00032110     0x2b04 build/motor_monitor.o
 .debug_info    0x00034c14     0x2585 build/motor_params.o
 .debug_info    0x00037199     0x1097 build/usb_cdc.o
 .debug_info    0x00038230     0x3125 build/modbus_protocol.o
 .debug_info    0x0003b355      0x29f build/common_utils.o
 .debug_info    0x0003b5f4     0x1b03 build/usbd_core.o
 .debug_info    0x0003d0f7     0x1325 build/usbd_int.o
 .debug_info    0x0003e41c     0x151f build/usbd_sdr.o
 .debug_info    0x0003f93b      0x31b build/list.o
 .debug_info    0x0003fc56     0x2ad3 build/queue.o
 .debug_info    0x00042729     0x357b build/tasks.o
 .debug_info    0x00045ca4     0x1d4f build/timers.o
 .debug_info    0x000479f3      0x5c2 build/port.o
 .debug_info    0x00047fb5      0x60b build/heap_4.o
 .debug_info    0x000485c0       0x30 build/startup_at32f403a_407.o

.debug_abbrev   0x00000000     0x6bd4
 .debug_abbrev  0x00000000      0x1d8 build/main.o
 .debug_abbrev  0x000001d8      0x1e5 build/syscalls.o
 .debug_abbrev  0x000003bd       0xeb build/sysmem.o
 .debug_abbrev  0x000004a8      0x293 build/at32f403a_407_wk_config.o
 .debug_abbrev  0x0000073b      0x165 build/at32f403a_407_int.o
 .debug_abbrev  0x000008a0      0x1d2 build/wk_system.o
 .debug_abbrev  0x00000a72       0xc0 build/wk_acc.o
 .debug_abbrev  0x00000b32      0x1ee build/wk_adc.o
 .debug_abbrev  0x00000d20      0x1c4 build/wk_can.o
 .debug_abbrev  0x00000ee4       0xb3 build/wk_debug.o
 .debug_abbrev  0x00000f97      0x19c build/wk_spi.o
 .debug_abbrev  0x00001133      0x18d build/wk_tmr.o
 .debug_abbrev  0x000012c0       0xb1 build/wk_usbfs.o
 .debug_abbrev  0x00001371      0x1c3 build/wk_dma.o
 .debug_abbrev  0x00001534      0x163 build/wk_gpio.o
 .debug_abbrev  0x00001697      0x258 build/usb_app.o
 .debug_abbrev  0x000018ef      0x447 build/freertos_app.o
 .debug_abbrev  0x00001d36      0x36d build/cdc_class.o
 .debug_abbrev  0x000020a3      0x1d9 build/cdc_desc.o
 .debug_abbrev  0x0000227c      0x1c0 build/system_at32f403a_407.o
 .debug_abbrev  0x0000243c      0x29c build/at32f403a_407_crm.o
 .debug_abbrev  0x000026d8      0x255 build/at32f403a_407_tmr.o
 .debug_abbrev  0x0000292d      0x2a9 build/at32f403a_407_gpio.o
 .debug_abbrev  0x00002bd6      0x2b6 build/at32f403a_407_adc.o
 .debug_abbrev  0x00002e8c      0x293 build/at32f403a_407_spi.o
 .debug_abbrev  0x0000311f      0x234 build/at32f403a_407_dma.o
 .debug_abbrev  0x00003353      0x2ca build/at32f403a_407_misc.o
 .debug_abbrev  0x0000361d      0x2d6 build/at32f403a_407_usb.o
 .debug_abbrev  0x000038f3      0x181 build/at32f403a_407_acc.o
 .debug_abbrev  0x00003a74      0x2d9 build/at32f403a_407_can.o
 .debug_abbrev  0x00003d4d      0x271 build/motor_control.o
 .debug_abbrev  0x00003fbe      0x3cd build/motor_foc.o
 .debug_abbrev  0x0000438b      0x2f5 build/motor_monitor.o
 .debug_abbrev  0x00004680      0x26d build/motor_params.o
 .debug_abbrev  0x000048ed      0x2c0 build/usb_cdc.o
 .debug_abbrev  0x00004bad      0x3c7 build/modbus_protocol.o
 .debug_abbrev  0x00004f74       0xf8 build/common_utils.o
 .debug_abbrev  0x0000506c      0x388 build/usbd_core.o
 .debug_abbrev  0x000053f4      0x289 build/usbd_int.o
 .debug_abbrev  0x0000567d      0x32d build/usbd_sdr.o
 .debug_abbrev  0x000059aa      0x124 build/list.o
 .debug_abbrev  0x00005ace      0x3fc build/queue.o
 .debug_abbrev  0x00005eca      0x40a build/tasks.o
 .debug_abbrev  0x000062d4      0x3d4 build/timers.o
 .debug_abbrev  0x000066a8      0x2af build/port.o
 .debug_abbrev  0x00006957      0x260 build/heap_4.o
 .debug_abbrev  0x00006bb7       0x1d build/startup_at32f403a_407.o

.debug_loc      0x00000000    0x19f93
 .debug_loc     0x00000000       0x20 build/main.o
 .debug_loc     0x00000020      0x583 build/syscalls.o
 .debug_loc     0x000005a3       0x90 build/sysmem.o
 .debug_loc     0x00000633      0x2a8 build/at32f403a_407_wk_config.o
 .debug_loc     0x000008db       0x60 build/at32f403a_407_int.o
 .debug_loc     0x0000093b      0x156 build/wk_system.o
 .debug_loc     0x00000a91       0x20 build/wk_acc.o
 .debug_loc     0x00000ab1       0x38 build/wk_adc.o
 .debug_loc     0x00000ae9       0x39 build/wk_can.o
 .debug_loc     0x00000b22       0x20 build/wk_debug.o
 .debug_loc     0x00000b42       0x38 build/wk_spi.o
 .debug_loc     0x00000b7a       0x38 build/wk_tmr.o
 .debug_loc     0x00000bb2       0x20 build/wk_usbfs.o
 .debug_loc     0x00000bd2       0x38 build/wk_dma.o
 .debug_loc     0x00000c0a       0x38 build/wk_gpio.o
 .debug_loc     0x00000c42      0x160 build/usb_app.o
 .debug_loc     0x00000da2      0x443 build/freertos_app.o
 .debug_loc     0x000011e5      0x9cc build/cdc_class.o
 .debug_loc     0x00001bb1      0x2c5 build/cdc_desc.o
 .debug_loc     0x00001e76      0x1f2 build/system_at32f403a_407.o
 .debug_loc     0x00002068      0xa15 build/at32f403a_407_crm.o
 .debug_loc     0x00002a7d      0xdf9 build/at32f403a_407_tmr.o
 .debug_loc     0x00003876      0x712 build/at32f403a_407_gpio.o
 .debug_loc     0x00003f88      0x8b7 build/at32f403a_407_adc.o
 .debug_loc     0x0000483f      0x7f8 build/at32f403a_407_spi.o
 .debug_loc     0x00005037      0x213 build/at32f403a_407_dma.o
 .debug_loc     0x0000524a      0x45a build/at32f403a_407_misc.o
 .debug_loc     0x000056a4      0xa40 build/at32f403a_407_usb.o
 .debug_loc     0x000060e4      0x14d build/at32f403a_407_acc.o
 .debug_loc     0x00006231     0x144f build/at32f403a_407_can.o
 .debug_loc     0x00007680      0xbcf build/motor_control.o
 .debug_loc     0x0000824f      0xccd build/motor_foc.o
 .debug_loc     0x00008f1c      0x6d5 build/motor_monitor.o
 .debug_loc     0x000095f1     0x57a7 build/motor_params.o
 .debug_loc     0x0000ed98      0x1b3 build/usb_cdc.o
 .debug_loc     0x0000ef4b      0xdb3 build/modbus_protocol.o
 .debug_loc     0x0000fcfe      0x2b9 build/common_utils.o
 .debug_loc     0x0000ffb7     0x16c3 build/usbd_core.o
 .debug_loc     0x0001167a      0x4e8 build/usbd_int.o
 .debug_loc     0x00011b62     0x148b build/usbd_sdr.o
 .debug_loc     0x00012fed      0x122 build/list.o
 .debug_loc     0x0001310f     0x21f0 build/queue.o
 .debug_loc     0x000152ff     0x2ebd build/tasks.o
 .debug_loc     0x000181bc     0x173b build/timers.o
 .debug_loc     0x000198f7      0x1c6 build/port.o
 .debug_loc     0x00019abd      0x4d6 build/heap_4.o

.debug_aranges  0x00000000     0x1800
 .debug_aranges
                0x00000000       0x20 build/main.o
 .debug_aranges
                0x00000020       0xa8 build/syscalls.o
 .debug_aranges
                0x000000c8       0x20 build/sysmem.o
 .debug_aranges
                0x000000e8       0x38 build/at32f403a_407_wk_config.o
 .debug_aranges
                0x00000120       0x80 build/at32f403a_407_int.o
 .debug_aranges
                0x000001a0       0x30 build/wk_system.o
 .debug_aranges
                0x000001d0       0x20 build/wk_acc.o
 .debug_aranges
                0x000001f0       0x20 build/wk_adc.o
 .debug_aranges
                0x00000210       0x20 build/wk_can.o
 .debug_aranges
                0x00000230       0x20 build/wk_debug.o
 .debug_aranges
                0x00000250       0x20 build/wk_spi.o
 .debug_aranges
                0x00000270       0x20 build/wk_tmr.o
 .debug_aranges
                0x00000290       0x20 build/wk_usbfs.o
 .debug_aranges
                0x000002b0       0x28 build/wk_dma.o
 .debug_aranges
                0x000002d8       0x20 build/wk_gpio.o
 .debug_aranges
                0x000002f8       0x38 build/usb_app.o
 .debug_aranges
                0x00000330       0x58 build/freertos_app.o
 .debug_aranges
                0x00000388       0x80 build/cdc_class.o
 .debug_aranges
                0x00000408       0x80 build/cdc_desc.o
 .debug_aranges
                0x00000488       0x28 build/system_at32f403a_407.o
 .debug_aranges
                0x000004b0      0x138 build/at32f403a_407_crm.o
 .debug_aranges
                0x000005e8      0x1d8 build/at32f403a_407_tmr.o
 .debug_aranges
                0x000007c0       0xb0 build/at32f403a_407_gpio.o
 .debug_aranges
                0x00000870      0x130 build/at32f403a_407_adc.o
 .debug_aranges
                0x000009a0       0xd8 build/at32f403a_407_spi.o
 .debug_aranges
                0x00000a78       0x70 build/at32f403a_407_dma.o
 .debug_aranges
                0x00000ae8       0x78 build/at32f403a_407_misc.o
 .debug_aranges
                0x00000b60       0xb8 build/at32f403a_407_usb.o
 .debug_aranges
                0x00000c18       0x88 build/at32f403a_407_acc.o
 .debug_aranges
                0x00000ca0       0xe0 build/at32f403a_407_can.o
 .debug_aranges
                0x00000d80       0x90 build/motor_control.o
 .debug_aranges
                0x00000e10       0xb8 build/motor_foc.o
 .debug_aranges
                0x00000ec8       0xa8 build/motor_monitor.o
 .debug_aranges
                0x00000f70       0x50 build/motor_params.o
 .debug_aranges
                0x00000fc0       0x60 build/usb_cdc.o
 .debug_aranges
                0x00001020       0x68 build/modbus_protocol.o
 .debug_aranges
                0x00001088       0x40 build/common_utils.o
 .debug_aranges
                0x000010c8       0xe8 build/usbd_core.o
 .debug_aranges
                0x000011b0       0x50 build/usbd_int.o
 .debug_aranges
                0x00001200       0x70 build/usbd_sdr.o
 .debug_aranges
                0x00001270       0x40 build/list.o
 .debug_aranges
                0x000012b0      0x158 build/queue.o
 .debug_aranges
                0x00001408      0x208 build/tasks.o
 .debug_aranges
                0x00001610       0xf0 build/timers.o
 .debug_aranges
                0x00001700       0x80 build/port.o
 .debug_aranges
                0x00001780       0x58 build/heap_4.o
 .debug_aranges
                0x000017d8       0x28 build/startup_at32f403a_407.o

.debug_ranges   0x00000000     0x18d8
 .debug_ranges  0x00000000       0x10 build/main.o
 .debug_ranges  0x00000010       0x98 build/syscalls.o
 .debug_ranges  0x000000a8       0x10 build/sysmem.o
 .debug_ranges  0x000000b8       0x28 build/at32f403a_407_wk_config.o
 .debug_ranges  0x000000e0       0x70 build/at32f403a_407_int.o
 .debug_ranges  0x00000150       0x20 build/wk_system.o
 .debug_ranges  0x00000170       0x10 build/wk_acc.o
 .debug_ranges  0x00000180       0x10 build/wk_adc.o
 .debug_ranges  0x00000190       0x10 build/wk_can.o
 .debug_ranges  0x000001a0       0x10 build/wk_debug.o
 .debug_ranges  0x000001b0       0x10 build/wk_spi.o
 .debug_ranges  0x000001c0       0x10 build/wk_tmr.o
 .debug_ranges  0x000001d0       0x10 build/wk_usbfs.o
 .debug_ranges  0x000001e0       0x18 build/wk_dma.o
 .debug_ranges  0x000001f8       0x10 build/wk_gpio.o
 .debug_ranges  0x00000208       0x28 build/usb_app.o
 .debug_ranges  0x00000230       0xc0 build/freertos_app.o
 .debug_ranges  0x000002f0       0x70 build/cdc_class.o
 .debug_ranges  0x00000360       0x70 build/cdc_desc.o
 .debug_ranges  0x000003d0       0x18 build/system_at32f403a_407.o
 .debug_ranges  0x000003e8      0x128 build/at32f403a_407_crm.o
 .debug_ranges  0x00000510      0x1c8 build/at32f403a_407_tmr.o
 .debug_ranges  0x000006d8       0xa0 build/at32f403a_407_gpio.o
 .debug_ranges  0x00000778      0x120 build/at32f403a_407_adc.o
 .debug_ranges  0x00000898       0xc8 build/at32f403a_407_spi.o
 .debug_ranges  0x00000960       0x60 build/at32f403a_407_dma.o
 .debug_ranges  0x000009c0       0x68 build/at32f403a_407_misc.o
 .debug_ranges  0x00000a28      0x138 build/at32f403a_407_usb.o
 .debug_ranges  0x00000b60       0x78 build/at32f403a_407_acc.o
 .debug_ranges  0x00000bd8       0xd0 build/at32f403a_407_can.o
 .debug_ranges  0x00000ca8       0x80 build/motor_control.o
 .debug_ranges  0x00000d28       0xa8 build/motor_foc.o
 .debug_ranges  0x00000dd0       0x98 build/motor_monitor.o
 .debug_ranges  0x00000e68       0x40 build/motor_params.o
 .debug_ranges  0x00000ea8       0x50 build/usb_cdc.o
 .debug_ranges  0x00000ef8       0xb8 build/modbus_protocol.o
 .debug_ranges  0x00000fb0       0x30 build/common_utils.o
 .debug_ranges  0x00000fe0       0xd8 build/usbd_core.o
 .debug_ranges  0x000010b8       0x40 build/usbd_int.o
 .debug_ranges  0x000010f8       0x78 build/usbd_sdr.o
 .debug_ranges  0x00001170       0x30 build/list.o
 .debug_ranges  0x000011a0      0x218 build/queue.o
 .debug_ranges  0x000013b8      0x350 build/tasks.o
 .debug_ranges  0x00001708       0xe0 build/timers.o
 .debug_ranges  0x000017e8       0x88 build/port.o
 .debug_ranges  0x00001870       0x48 build/heap_4.o
 .debug_ranges  0x000018b8       0x20 build/startup_at32f403a_407.o

.debug_line     0x00000000    0x169b8
 .debug_line    0x00000000      0x29b build/main.o
 .debug_line    0x0000029b      0x406 build/syscalls.o
 .debug_line    0x000006a1      0x202 build/sysmem.o
 .debug_line    0x000008a3      0x4e2 build/at32f403a_407_wk_config.o
 .debug_line    0x00000d85      0x35d build/at32f403a_407_int.o
 .debug_line    0x000010e2      0x266 build/wk_system.o
 .debug_line    0x00001348      0x198 build/wk_acc.o
 .debug_line    0x000014e0      0x25d build/wk_adc.o
 .debug_line    0x0000173d      0x2a8 build/wk_can.o
 .debug_line    0x000019e5      0x198 build/wk_debug.o
 .debug_line    0x00001b7d      0x297 build/wk_spi.o
 .debug_line    0x00001e14      0x39c build/wk_tmr.o
 .debug_line    0x000021b0       0x7d build/wk_usbfs.o
 .debug_line    0x0000222d      0x1fe build/wk_dma.o
 .debug_line    0x0000242b      0x18c build/wk_gpio.o
 .debug_line    0x000025b7      0x2e1 build/usb_app.o
 .debug_line    0x00002898      0x699 build/freertos_app.o
 .debug_line    0x00002f31      0x5c8 build/cdc_class.o
 .debug_line    0x000034f9      0x41c build/cdc_desc.o
 .debug_line    0x00003915      0x365 build/system_at32f403a_407.o
 .debug_line    0x00003c7a      0xa42 build/at32f403a_407_crm.o
 .debug_line    0x000046bc     0x10ee build/at32f403a_407_tmr.o
 .debug_line    0x000057aa      0x68d build/at32f403a_407_gpio.o
 .debug_line    0x00005e37      0x946 build/at32f403a_407_adc.o
 .debug_line    0x0000677d      0x9dc build/at32f403a_407_spi.o
 .debug_line    0x00007159      0x4dd build/at32f403a_407_dma.o
 .debug_line    0x00007636      0x49a build/at32f403a_407_misc.o
 .debug_line    0x00007ad0      0x97d build/at32f403a_407_usb.o
 .debug_line    0x0000844d      0x3ca build/at32f403a_407_acc.o
 .debug_line    0x00008817      0xfb7 build/at32f403a_407_can.o
 .debug_line    0x000097ce      0x580 build/motor_control.o
 .debug_line    0x00009d4e      0xebb build/motor_foc.o
 .debug_line    0x0000ac09      0x741 build/motor_monitor.o
 .debug_line    0x0000b34a     0x3177 build/motor_params.o
 .debug_line    0x0000e4c1      0x3c9 build/usb_cdc.o
 .debug_line    0x0000e88a      0x88f build/modbus_protocol.o
 .debug_line    0x0000f119      0x279 build/common_utils.o
 .debug_line    0x0000f392      0xa71 build/usbd_core.o
 .debug_line    0x0000fe03      0x48c build/usbd_int.o
 .debug_line    0x0001028f      0x7d7 build/usbd_sdr.o
 .debug_line    0x00010a66      0x35a build/list.o
 .debug_line    0x00010dc0     0x1b3f build/queue.o
 .debug_line    0x000128ff     0x2691 build/tasks.o
 .debug_line    0x00014f90      0xd09 build/timers.o
 .debug_line    0x00015c99      0x5d8 build/port.o
 .debug_line    0x00016271      0x6d7 build/heap_4.o
 .debug_line    0x00016948       0x70 build/startup_at32f403a_407.o

.debug_str      0x00000000    0x10760
 .debug_str     0x00000000    0x10760 build/main.o
                                0x822 (size before relaxing)
 .debug_str     0x00010760        0x0 build/syscalls.o
                                0x3ed (size before relaxing)
 .debug_str     0x00010760        0x0 build/sysmem.o
                                0x219 (size before relaxing)
 .debug_str     0x00010760        0x0 build/at32f403a_407_wk_config.o
                               0x15c2 (size before relaxing)
 .debug_str     0x00010760        0x0 build/at32f403a_407_int.o
                                0x32e (size before relaxing)
 .debug_str     0x00010760        0x0 build/wk_system.o
                                0x85a (size before relaxing)
 .debug_str     0x00010760        0x0 build/wk_acc.o
                                0x202 (size before relaxing)
 .debug_str     0x00010760        0x0 build/wk_adc.o
                               0x121f (size before relaxing)
 .debug_str     0x00010760        0x0 build/wk_can.o
                               0x11f8 (size before relaxing)
 .debug_str     0x00010760        0x0 build/wk_debug.o
                                0x1db (size before relaxing)
 .debug_str     0x00010760        0x0 build/wk_spi.o
                                0xbef (size before relaxing)
 .debug_str     0x00010760        0x0 build/wk_tmr.o
                               0x10e0 (size before relaxing)
 .debug_str     0x00010760        0x0 build/wk_usbfs.o
                                0x25c (size before relaxing)
 .debug_str     0x00010760        0x0 build/wk_dma.o
                                0xe58 (size before relaxing)
 .debug_str     0x00010760        0x0 build/wk_gpio.o
                                0x6e0 (size before relaxing)
 .debug_str     0x00010760        0x0 build/usb_app.o
                                0xa33 (size before relaxing)
 .debug_str     0x00010760        0x0 build/freertos_app.o
                               0x2df7 (size before relaxing)
 .debug_str     0x00010760        0x0 build/cdc_class.o
                                0xbe0 (size before relaxing)
 .debug_str     0x00010760        0x0 build/cdc_desc.o
                                0x5b0 (size before relaxing)
 .debug_str     0x00010760        0x0 build/system_at32f403a_407.o
                                0xb47 (size before relaxing)
 .debug_str     0x00010760        0x0 build/at32f403a_407_crm.o
                               0x2172 (size before relaxing)
 .debug_str     0x00010760        0x0 build/at32f403a_407_tmr.o
                               0x205b (size before relaxing)
 .debug_str     0x00010760        0x0 build/at32f403a_407_gpio.o
                               0x13fa (size before relaxing)
 .debug_str     0x00010760        0x0 build/at32f403a_407_adc.o
                               0x18a0 (size before relaxing)
 .debug_str     0x00010760        0x0 build/at32f403a_407_spi.o
                               0x1240 (size before relaxing)
 .debug_str     0x00010760        0x0 build/at32f403a_407_dma.o
                                0xf09 (size before relaxing)
 .debug_str     0x00010760        0x0 build/at32f403a_407_misc.o
                                0xafd (size before relaxing)
 .debug_str     0x00010760        0x0 build/at32f403a_407_usb.o
                                0xe5c (size before relaxing)
 .debug_str     0x00010760        0x0 build/at32f403a_407_acc.o
                                0x3c6 (size before relaxing)
 .debug_str     0x00010760        0x0 build/at32f403a_407_can.o
                               0x17cb (size before relaxing)
 .debug_str     0x00010760        0x0 build/motor_control.o
                               0x39b2 (size before relaxing)
 .debug_str     0x00010760        0x0 build/motor_foc.o
                               0x3bb7 (size before relaxing)
 .debug_str     0x00010760        0x0 build/motor_monitor.o
                               0x3831 (size before relaxing)
 .debug_str     0x00010760        0x0 build/motor_params.o
                               0x351f (size before relaxing)
 .debug_str     0x00010760        0x0 build/usb_cdc.o
                                0xac0 (size before relaxing)
 .debug_str     0x00010760        0x0 build/modbus_protocol.o
                               0x2015 (size before relaxing)
 .debug_str     0x00010760        0x0 build/common_utils.o
                                0x1e7 (size before relaxing)
 .debug_str     0x00010760        0x0 build/usbd_core.o
                                0xb56 (size before relaxing)
 .debug_str     0x00010760        0x0 build/usbd_int.o
                                0xa02 (size before relaxing)
 .debug_str     0x00010760        0x0 build/usbd_sdr.o
                                0x924 (size before relaxing)
 .debug_str     0x00010760        0x0 build/list.o
                                0x2e7 (size before relaxing)
 .debug_str     0x00010760        0x0 build/queue.o
                                0xcfd (size before relaxing)
 .debug_str     0x00010760        0x0 build/tasks.o
                               0x133d (size before relaxing)
 .debug_str     0x00010760        0x0 build/timers.o
                                0xc2d (size before relaxing)
 .debug_str     0x00010760        0x0 build/port.o
                                0x469 (size before relaxing)
 .debug_str     0x00010760        0x0 build/heap_4.o
                                0x500 (size before relaxing)
 .debug_str     0x00010760        0x0 build/startup_at32f403a_407.o
                                 0x75 (size before relaxing)

.comment        0x00000000       0x45
 .comment       0x00000000       0x45 build/main.o
                                 0x46 (size before relaxing)
 .comment       0x00000045        0x0 build/syscalls.o
                                 0x46 (size before relaxing)
 .comment       0x00000045        0x0 build/sysmem.o
                                 0x46 (size before relaxing)
 .comment       0x00000045        0x0 build/at32f403a_407_wk_config.o
                                 0x46 (size before relaxing)
 .comment       0x00000045        0x0 build/at32f403a_407_int.o
                                 0x46 (size before relaxing)
 .comment       0x00000045        0x0 build/wk_system.o
                                 0x46 (size before relaxing)
 .comment       0x00000045        0x0 build/wk_acc.o
                                 0x46 (size before relaxing)
 .comment       0x00000045        0x0 build/wk_adc.o
                                 0x46 (size before relaxing)
 .comment       0x00000045        0x0 build/wk_can.o
                                 0x46 (size before relaxing)
 .comment       0x00000045        0x0 build/wk_debug.o
                                 0x46 (size before relaxing)
 .comment       0x00000045        0x0 build/wk_spi.o
                                 0x46 (size before relaxing)
 .comment       0x00000045        0x0 build/wk_tmr.o
                                 0x46 (size before relaxing)
 .comment       0x00000045        0x0 build/wk_usbfs.o
                                 0x46 (size before relaxing)
 .comment       0x00000045        0x0 build/wk_dma.o
                                 0x46 (size before relaxing)
 .comment       0x00000045        0x0 build/wk_gpio.o
                                 0x46 (size before relaxing)
 .comment       0x00000045        0x0 build/usb_app.o
                                 0x46 (size before relaxing)
 .comment       0x00000045        0x0 build/freertos_app.o
                                 0x46 (size before relaxing)
 .comment       0x00000045        0x0 build/cdc_class.o
                                 0x46 (size before relaxing)
 .comment       0x00000045        0x0 build/cdc_desc.o
                                 0x46 (size before relaxing)
 .comment       0x00000045        0x0 build/system_at32f403a_407.o
                                 0x46 (size before relaxing)
 .comment       0x00000045        0x0 build/at32f403a_407_crm.o
                                 0x46 (size before relaxing)
 .comment       0x00000045        0x0 build/at32f403a_407_tmr.o
                                 0x46 (size before relaxing)
 .comment       0x00000045        0x0 build/at32f403a_407_gpio.o
                                 0x46 (size before relaxing)
 .comment       0x00000045        0x0 build/at32f403a_407_adc.o
                                 0x46 (size before relaxing)
 .comment       0x00000045        0x0 build/at32f403a_407_spi.o
                                 0x46 (size before relaxing)
 .comment       0x00000045        0x0 build/at32f403a_407_dma.o
                                 0x46 (size before relaxing)
 .comment       0x00000045        0x0 build/at32f403a_407_misc.o
                                 0x46 (size before relaxing)
 .comment       0x00000045        0x0 build/at32f403a_407_usb.o
                                 0x46 (size before relaxing)
 .comment       0x00000045        0x0 build/at32f403a_407_acc.o
                                 0x46 (size before relaxing)
 .comment       0x00000045        0x0 build/at32f403a_407_can.o
                                 0x46 (size before relaxing)
 .comment       0x00000045        0x0 build/motor_control.o
                                 0x46 (size before relaxing)
 .comment       0x00000045        0x0 build/motor_foc.o
                                 0x46 (size before relaxing)
 .comment       0x00000045        0x0 build/motor_monitor.o
                                 0x46 (size before relaxing)
 .comment       0x00000045        0x0 build/motor_params.o
                                 0x46 (size before relaxing)
 .comment       0x00000045        0x0 build/usb_cdc.o
                                 0x46 (size before relaxing)
 .comment       0x00000045        0x0 build/modbus_protocol.o
                                 0x46 (size before relaxing)
 .comment       0x00000045        0x0 build/common_utils.o
                                 0x46 (size before relaxing)
 .comment       0x00000045        0x0 build/usbd_core.o
                                 0x46 (size before relaxing)
 .comment       0x00000045        0x0 build/usbd_int.o
                                 0x46 (size before relaxing)
 .comment       0x00000045        0x0 build/usbd_sdr.o
                                 0x46 (size before relaxing)
 .comment       0x00000045        0x0 build/list.o
                                 0x46 (size before relaxing)
 .comment       0x00000045        0x0 build/queue.o
                                 0x46 (size before relaxing)
 .comment       0x00000045        0x0 build/tasks.o
                                 0x46 (size before relaxing)
 .comment       0x00000045        0x0 build/timers.o
                                 0x46 (size before relaxing)
 .comment       0x00000045        0x0 build/port.o
                                 0x46 (size before relaxing)
 .comment       0x00000045        0x0 build/heap_4.o
                                 0x46 (size before relaxing)

.debug_frame    0x00000000     0x459c
 .debug_frame   0x00000000       0x28 build/main.o
 .debug_frame   0x00000028      0x190 build/syscalls.o
 .debug_frame   0x000001b8       0x28 build/sysmem.o
 .debug_frame   0x000001e0       0x70 build/at32f403a_407_wk_config.o
 .debug_frame   0x00000250       0xf8 build/at32f403a_407_int.o
 .debug_frame   0x00000348       0x58 build/wk_system.o
 .debug_frame   0x000003a0       0x28 build/wk_acc.o
 .debug_frame   0x000003c8       0x3c build/wk_adc.o
 .debug_frame   0x00000404       0x38 build/wk_can.o
 .debug_frame   0x0000043c       0x28 build/wk_debug.o
 .debug_frame   0x00000464       0x3c build/wk_spi.o
 .debug_frame   0x000004a0       0x3c build/wk_tmr.o
 .debug_frame   0x000004dc       0x28 build/wk_usbfs.o
 .debug_frame   0x00000504       0x44 build/wk_dma.o
 .debug_frame   0x00000548       0x30 build/wk_gpio.o
 .debug_frame   0x00000578       0x7c build/usb_app.o
 .debug_frame   0x000005f4       0xe4 build/freertos_app.o
 .debug_frame   0x000006d8      0x124 build/cdc_class.o
 .debug_frame   0x000007fc      0x124 build/cdc_desc.o
 .debug_frame   0x00000920       0x38 build/system_at32f403a_407.o
 .debug_frame   0x00000958      0x270 build/at32f403a_407_crm.o
 .debug_frame   0x00000bc8      0x3b8 build/at32f403a_407_tmr.o
 .debug_frame   0x00000f80      0x164 build/at32f403a_407_gpio.o
 .debug_frame   0x000010e4      0x258 build/at32f403a_407_adc.o
 .debug_frame   0x0000133c      0x1ac build/at32f403a_407_spi.o
 .debug_frame   0x000014e8       0xc0 build/at32f403a_407_dma.o
 .debug_frame   0x000015a8       0xf0 build/at32f403a_407_misc.o
 .debug_frame   0x00001698      0x168 build/at32f403a_407_usb.o
 .debug_frame   0x00001800       0xf0 build/at32f403a_407_acc.o
 .debug_frame   0x000018f0      0x1e0 build/at32f403a_407_can.o
 .debug_frame   0x00001ad0      0x248 build/motor_control.o
 .debug_frame   0x00001d18      0x268 build/motor_foc.o
 .debug_frame   0x00001f80      0x180 build/motor_monitor.o
 .debug_frame   0x00002100       0x9c build/motor_params.o
 .debug_frame   0x0000219c       0xbc build/usb_cdc.o
 .debug_frame   0x00002258      0x110 build/modbus_protocol.o
 .debug_frame   0x00002368       0x60 build/common_utils.o
 .debug_frame   0x000023c8      0x254 build/usbd_core.o
 .debug_frame   0x0000261c       0xc8 build/usbd_int.o
 .debug_frame   0x000026e4      0x118 build/usbd_sdr.o
 .debug_frame   0x000027fc       0x6c build/list.o
 .debug_frame   0x00002868      0x458 build/queue.o
 .debug_frame   0x00002cc0      0x680 build/tasks.o
 .debug_frame   0x00003340      0x300 build/timers.o
 .debug_frame   0x00003640      0x10c build/port.o
 .debug_frame   0x0000374c       0xc0 build/heap_4.o
 .debug_frame   0x0000380c      0x144 C:/Program Files (x86)/Arm/GNU Toolchain mingw-w64-i686-arm-none-eabi/bin/../lib/gcc/arm-none-eabi/15.2.1/../../../../arm-none-eabi/lib/thumb/v7e-m+fp/hard\libc_nano.a(libc_a-findfp.o)
 .debug_frame   0x00003950       0x34 C:/Program Files (x86)/Arm/GNU Toolchain mingw-w64-i686-arm-none-eabi/bin/../lib/gcc/arm-none-eabi/15.2.1/../../../../arm-none-eabi/lib/thumb/v7e-m+fp/hard\libc_nano.a(libc_a-fwalk.o)
 .debug_frame   0x00003984       0x6c C:/Program Files (x86)/Arm/GNU Toolchain mingw-w64-i686-arm-none-eabi/bin/../lib/gcc/arm-none-eabi/15.2.1/../../../../arm-none-eabi/lib/thumb/v7e-m+fp/hard\libc_nano.a(libc_a-printf.o)
 .debug_frame   0x000039f0       0x3c C:/Program Files (x86)/Arm/GNU Toolchain mingw-w64-i686-arm-none-eabi/bin/../lib/gcc/arm-none-eabi/15.2.1/../../../../arm-none-eabi/lib/thumb/v7e-m+fp/hard\libc_nano.a(libc_a-puts.o)
 .debug_frame   0x00003a2c       0x88 C:/Program Files (x86)/Arm/GNU Toolchain mingw-w64-i686-arm-none-eabi/bin/../lib/gcc/arm-none-eabi/15.2.1/../../../../arm-none-eabi/lib/thumb/v7e-m+fp/hard\libc_nano.a(libc_a-stdio.o)
 .debug_frame   0x00003ab4       0x40 C:/Program Files (x86)/Arm/GNU Toolchain mingw-w64-i686-arm-none-eabi/bin/../lib/gcc/arm-none-eabi/15.2.1/../../../../arm-none-eabi/lib/thumb/v7e-m+fp/hard\libc_nano.a(libc_a-wbuf.o)
 .debug_frame   0x00003af4       0x2c C:/Program Files (x86)/Arm/GNU Toolchain mingw-w64-i686-arm-none-eabi/bin/../lib/gcc/arm-none-eabi/15.2.1/../../../../arm-none-eabi/lib/thumb/v7e-m+fp/hard\libc_nano.a(libc_a-wsetup.o)
 .debug_frame   0x00003b20       0x2c C:/Program Files (x86)/Arm/GNU Toolchain mingw-w64-i686-arm-none-eabi/bin/../lib/gcc/arm-none-eabi/15.2.1/../../../../arm-none-eabi/lib/thumb/v7e-m+fp/hard\libc_nano.a(libc_a-closer.o)
 .debug_frame   0x00003b4c       0x38 C:/Program Files (x86)/Arm/GNU Toolchain mingw-w64-i686-arm-none-eabi/bin/../lib/gcc/arm-none-eabi/15.2.1/../../../../arm-none-eabi/lib/thumb/v7e-m+fp/hard\libc_nano.a(libc_a-reent.o)
 .debug_frame   0x00003b84       0x2c C:/Program Files (x86)/Arm/GNU Toolchain mingw-w64-i686-arm-none-eabi/bin/../lib/gcc/arm-none-eabi/15.2.1/../../../../arm-none-eabi/lib/thumb/v7e-m+fp/hard\libc_nano.a(libc_a-lseekr.o)
 .debug_frame   0x00003bb0       0x2c C:/Program Files (x86)/Arm/GNU Toolchain mingw-w64-i686-arm-none-eabi/bin/../lib/gcc/arm-none-eabi/15.2.1/../../../../arm-none-eabi/lib/thumb/v7e-m+fp/hard\libc_nano.a(libc_a-readr.o)
 .debug_frame   0x00003bdc       0x2c C:/Program Files (x86)/Arm/GNU Toolchain mingw-w64-i686-arm-none-eabi/bin/../lib/gcc/arm-none-eabi/15.2.1/../../../../arm-none-eabi/lib/thumb/v7e-m+fp/hard\libc_nano.a(libc_a-writer.o)
 .debug_frame   0x00003c08       0x20 C:/Program Files (x86)/Arm/GNU Toolchain mingw-w64-i686-arm-none-eabi/bin/../lib/gcc/arm-none-eabi/15.2.1/../../../../arm-none-eabi/lib/thumb/v7e-m+fp/hard\libc_nano.a(libc_a-errno.o)
 .debug_frame   0x00003c28       0x2c C:/Program Files (x86)/Arm/GNU Toolchain mingw-w64-i686-arm-none-eabi/bin/../lib/gcc/arm-none-eabi/15.2.1/../../../../arm-none-eabi/lib/thumb/v7e-m+fp/hard\libc_nano.a(libc_a-init.o)
 .debug_frame   0x00003c54       0xb0 C:/Program Files (x86)/Arm/GNU Toolchain mingw-w64-i686-arm-none-eabi/bin/../lib/gcc/arm-none-eabi/15.2.1/../../../../arm-none-eabi/lib/thumb/v7e-m+fp/hard\libc_nano.a(libc_a-lock.o)
 .debug_frame   0x00003d04       0x38 C:/Program Files (x86)/Arm/GNU Toolchain mingw-w64-i686-arm-none-eabi/bin/../lib/gcc/arm-none-eabi/15.2.1/../../../../arm-none-eabi/lib/thumb/v7e-m+fp/hard\libc_nano.a(libc_a-freer.o)
 .debug_frame   0x00003d3c       0x50 C:/Program Files (x86)/Arm/GNU Toolchain mingw-w64-i686-arm-none-eabi/bin/../lib/gcc/arm-none-eabi/15.2.1/../../../../arm-none-eabi/lib/thumb/v7e-m+fp/hard\libc_nano.a(libc_a-mallocr.o)
 .debug_frame   0x00003d8c       0x30 C:/Program Files (x86)/Arm/GNU Toolchain mingw-w64-i686-arm-none-eabi/bin/../lib/gcc/arm-none-eabi/15.2.1/../../../../arm-none-eabi/lib/thumb/v7e-m+fp/hard\libc_nano.a(libc_a-mlock.o)
 .debug_frame   0x00003dbc       0xa8 C:/Program Files (x86)/Arm/GNU Toolchain mingw-w64-i686-arm-none-eabi/bin/../lib/gcc/arm-none-eabi/15.2.1/../../../../arm-none-eabi/lib/thumb/v7e-m+fp/hard\libc_nano.a(libc_a-nano-vfprintf.o)
 .debug_frame   0x00003e64       0x60 C:/Program Files (x86)/Arm/GNU Toolchain mingw-w64-i686-arm-none-eabi/bin/../lib/gcc/arm-none-eabi/15.2.1/../../../../arm-none-eabi/lib/thumb/v7e-m+fp/hard\libc_nano.a(libc_a-nano-vfprintf_i.o)
 .debug_frame   0x00003ec4       0x5c C:/Program Files (x86)/Arm/GNU Toolchain mingw-w64-i686-arm-none-eabi/bin/../lib/gcc/arm-none-eabi/15.2.1/../../../../arm-none-eabi/lib/thumb/v7e-m+fp/hard\libc_nano.a(libc_a-fflush.o)
 .debug_frame   0x00003f20       0x58 C:/Program Files (x86)/Arm/GNU Toolchain mingw-w64-i686-arm-none-eabi/bin/../lib/gcc/arm-none-eabi/15.2.1/../../../../arm-none-eabi/lib/thumb/v7e-m+fp/hard\libc_nano.a(libc_a-makebuf.o)
 .debug_frame   0x00003f78       0x2c C:/Program Files (x86)/Arm/GNU Toolchain mingw-w64-i686-arm-none-eabi/bin/../lib/gcc/arm-none-eabi/15.2.1/../../../../arm-none-eabi/lib/thumb/v7e-m+fp/hard\libc_nano.a(libc_a-fstatr.o)
 .debug_frame   0x00003fa4       0x2c C:/Program Files (x86)/Arm/GNU Toolchain mingw-w64-i686-arm-none-eabi/bin/../lib/gcc/arm-none-eabi/15.2.1/../../../../arm-none-eabi/lib/thumb/v7e-m+fp/hard\libc_nano.a(libc_a-isattyr.o)
 .debug_frame   0x00003fd0       0x2c C:/Program Files (x86)/Arm/GNU Toolchain mingw-w64-i686-arm-none-eabi/bin/../lib/gcc/arm-none-eabi/15.2.1/../../../../arm-none-eabi/lib/thumb/v7e-m+fp/hard\libc_nano.a(libc_a-sbrkr.o)
 .debug_frame   0x00003ffc       0x4c C:/Program Files (x86)/Arm/GNU Toolchain mingw-w64-i686-arm-none-eabi/bin/../lib/gcc/arm-none-eabi/15.2.1/../../../../arm-none-eabi/lib/thumb/v7e-m+fp/hard\libc_nano.a(libc_a-memchr.o)
 .debug_frame   0x00004048       0x4c C:/Program Files (x86)/Arm/GNU Toolchain mingw-w64-i686-arm-none-eabi/bin/../lib/gcc/arm-none-eabi/15.2.1/../../../../arm-none-eabi/lib/thumb/v7e-m+fp/hard\libm.a(libm_a-w_log.o)
 .debug_frame   0x00004094       0x40 C:/Program Files (x86)/Arm/GNU Toolchain mingw-w64-i686-arm-none-eabi/bin/../lib/gcc/arm-none-eabi/15.2.1/../../../../arm-none-eabi/lib/thumb/v7e-m+fp/hard\libm.a(libm_a-s_cos.o)
 .debug_frame   0x000040d4       0x40 C:/Program Files (x86)/Arm/GNU Toolchain mingw-w64-i686-arm-none-eabi/bin/../lib/gcc/arm-none-eabi/15.2.1/../../../../arm-none-eabi/lib/thumb/v7e-m+fp/hard\libm.a(libm_a-s_sin.o)
 .debug_frame   0x00004114       0x20 C:/Program Files (x86)/Arm/GNU Toolchain mingw-w64-i686-arm-none-eabi/bin/../lib/gcc/arm-none-eabi/15.2.1/../../../../arm-none-eabi/lib/thumb/v7e-m+fp/hard\libm.a(libm_a-s_nan.o)
 .debug_frame   0x00004134       0x68 C:/Program Files (x86)/Arm/GNU Toolchain mingw-w64-i686-arm-none-eabi/bin/../lib/gcc/arm-none-eabi/15.2.1/../../../../arm-none-eabi/lib/thumb/v7e-m+fp/hard\libm.a(libm_a-k_cos.o)
 .debug_frame   0x0000419c       0x68 C:/Program Files (x86)/Arm/GNU Toolchain mingw-w64-i686-arm-none-eabi/bin/../lib/gcc/arm-none-eabi/15.2.1/../../../../arm-none-eabi/lib/thumb/v7e-m+fp/hard\libm.a(libm_a-k_sin.o)
 .debug_frame   0x00004204       0x54 C:/Program Files (x86)/Arm/GNU Toolchain mingw-w64-i686-arm-none-eabi/bin/../lib/gcc/arm-none-eabi/15.2.1/../../../../arm-none-eabi/lib/thumb/v7e-m+fp/hard\libm.a(libm_a-e_log.o)
 .debug_frame   0x00004258       0x48 C:/Program Files (x86)/Arm/GNU Toolchain mingw-w64-i686-arm-none-eabi/bin/../lib/gcc/arm-none-eabi/15.2.1/../../../../arm-none-eabi/lib/thumb/v7e-m+fp/hard\libm.a(libm_a-e_rem_pio2.o)
 .debug_frame   0x000042a0       0x20 C:/Program Files (x86)/Arm/GNU Toolchain mingw-w64-i686-arm-none-eabi/bin/../lib/gcc/arm-none-eabi/15.2.1/../../../../arm-none-eabi/lib/thumb/v7e-m+fp/hard\libm.a(libm_a-s_fabs.o)
 .debug_frame   0x000042c0       0x58 C:/Program Files (x86)/Arm/GNU Toolchain mingw-w64-i686-arm-none-eabi/bin/../lib/gcc/arm-none-eabi/15.2.1/../../../../arm-none-eabi/lib/thumb/v7e-m+fp/hard\libm.a(libm_a-k_rem_pio2.o)
 .debug_frame   0x00004318       0x2c C:/Program Files (x86)/Arm/GNU Toolchain mingw-w64-i686-arm-none-eabi/bin/../lib/gcc/arm-none-eabi/15.2.1/../../../../arm-none-eabi/lib/thumb/v7e-m+fp/hard\libm.a(libm_a-s_scalbn.o)
 .debug_frame   0x00004344       0x30 C:/Program Files (x86)/Arm/GNU Toolchain mingw-w64-i686-arm-none-eabi/bin/../lib/gcc/arm-none-eabi/15.2.1/../../../../arm-none-eabi/lib/thumb/v7e-m+fp/hard\libm.a(libm_a-s_floor.o)
 .debug_frame   0x00004374       0xac C:/Program Files (x86)/Arm/GNU Toolchain mingw-w64-i686-arm-none-eabi/bin/../lib/gcc/arm-none-eabi/15.2.1/thumb/v7e-m+fp/hard\libgcc.a(_arm_addsubdf3.o)
 .debug_frame   0x00004420       0x50 C:/Program Files (x86)/Arm/GNU Toolchain mingw-w64-i686-arm-none-eabi/bin/../lib/gcc/arm-none-eabi/15.2.1/thumb/v7e-m+fp/hard\libgcc.a(_arm_muldivdf3.o)
 .debug_frame   0x00004470       0xc4 C:/Program Files (x86)/Arm/GNU Toolchain mingw-w64-i686-arm-none-eabi/bin/../lib/gcc/arm-none-eabi/15.2.1/thumb/v7e-m+fp/hard\libgcc.a(_arm_cmpdf2.o)
 .debug_frame   0x00004534       0x20 C:/Program Files (x86)/Arm/GNU Toolchain mingw-w64-i686-arm-none-eabi/bin/../lib/gcc/arm-none-eabi/15.2.1/thumb/v7e-m+fp/hard\libgcc.a(_arm_unorddf2.o)
 .debug_frame   0x00004554       0x24 C:/Program Files (x86)/Arm/GNU Toolchain mingw-w64-i686-arm-none-eabi/bin/../lib/gcc/arm-none-eabi/15.2.1/thumb/v7e-m+fp/hard\libgcc.a(_arm_fixdfsi.o)
 .debug_frame   0x00004578       0x24 C:/Program Files (x86)/Arm/GNU Toolchain mingw-w64-i686-arm-none-eabi/bin/../lib/gcc/arm-none-eabi/15.2.1/thumb/v7e-m+fp/hard\libgcc.a(_arm_truncdfsf2.o)

.debug_line_str
                0x00000000      0x1af
 .debug_line_str
                0x00000000      0x1af C:/Program Files (x86)/Arm/GNU Toolchain mingw-w64-i686-arm-none-eabi/bin/../lib/gcc/arm-none-eabi/15.2.1/../../../../arm-none-eabi/lib/thumb/v7e-m+fp/hard\libc_nano.a(libc_a-memchr.o)
                                 0xe1 (size before relaxing)
 .debug_line_str
                0x000001af        0x0 C:/Program Files (x86)/Arm/GNU Toolchain mingw-w64-i686-arm-none-eabi/bin/../lib/gcc/arm-none-eabi/15.2.1/thumb/v7e-m+fp/hard\libgcc.a(_arm_addsubdf3.o)
                                 0xce (size before relaxing)
 .debug_line_str
                0x000001af        0x0 C:/Program Files (x86)/Arm/GNU Toolchain mingw-w64-i686-arm-none-eabi/bin/../lib/gcc/arm-none-eabi/15.2.1/thumb/v7e-m+fp/hard\libgcc.a(_arm_muldivdf3.o)
                                 0xce (size before relaxing)
 .debug_line_str
                0x000001af        0x0 C:/Program Files (x86)/Arm/GNU Toolchain mingw-w64-i686-arm-none-eabi/bin/../lib/gcc/arm-none-eabi/15.2.1/thumb/v7e-m+fp/hard\libgcc.a(_arm_cmpdf2.o)
                                 0xce (size before relaxing)
 .debug_line_str
                0x000001af        0x0 C:/Program Files (x86)/Arm/GNU Toolchain mingw-w64-i686-arm-none-eabi/bin/../lib/gcc/arm-none-eabi/15.2.1/thumb/v7e-m+fp/hard\libgcc.a(_arm_unorddf2.o)
                                 0xce (size before relaxing)
 .debug_line_str
                0x000001af        0x0 C:/Program Files (x86)/Arm/GNU Toolchain mingw-w64-i686-arm-none-eabi/bin/../lib/gcc/arm-none-eabi/15.2.1/thumb/v7e-m+fp/hard\libgcc.a(_arm_fixdfsi.o)
                                 0xce (size before relaxing)
 .debug_line_str
                0x000001af        0x0 C:/Program Files (x86)/Arm/GNU Toolchain mingw-w64-i686-arm-none-eabi/bin/../lib/gcc/arm-none-eabi/15.2.1/thumb/v7e-m+fp/hard\libgcc.a(_arm_truncdfsf2.o)
                                 0xce (size before relaxing)

Cross Reference Table

Symbol                                            File
ACC_IRQHandler                                    build/startup_at32f403a_407.o
ADC1_2_IRQHandler                                 build/startup_at32f403a_407.o
ADC3_IRQHandler                                   build/startup_at32f403a_407.o
BusFault_Handler                                  build/at32f403a_407_int.o
CAN1_RX1_IRQHandler                               build/startup_at32f403a_407.o
CAN1_SE_IRQHandler                                build/startup_at32f403a_407.o
CAN2_RX0_IRQHandler                               build/startup_at32f403a_407.o
CAN2_RX1_IRQHandler                               build/startup_at32f403a_407.o
CAN2_SE_IRQHandler                                build/startup_at32f403a_407.o
CAN2_TX_IRQHandler                                build/startup_at32f403a_407.o
CANCom_Task_func                                  build/freertos_app.o
CANCom_Task_handle                                build/freertos_app.o
CRM_IRQHandler                                    build/startup_at32f403a_407.o
DMA1_Channel1_IRQHandler                          build/at32f403a_407_int.o
DMA1_Channel2_IRQHandler                          build/startup_at32f403a_407.o
DMA1_Channel3_IRQHandler                          build/startup_at32f403a_407.o
DMA1_Channel4_IRQHandler                          build/startup_at32f403a_407.o
DMA1_Channel5_IRQHandler                          build/startup_at32f403a_407.o
DMA1_Channel6_IRQHandler                          build/startup_at32f403a_407.o
DMA1_Channel7_IRQHandler                          build/startup_at32f403a_407.o
DMA2_Channel1_IRQHandler                          build/startup_at32f403a_407.o
DMA2_Channel2_IRQHandler                          build/startup_at32f403a_407.o
DMA2_Channel3_IRQHandler                          build/startup_at32f403a_407.o
DMA2_Channel4_5_IRQHandler                        build/startup_at32f403a_407.o
DMA2_Channel6_7_IRQHandler                        build/startup_at32f403a_407.o
DebugMon_Handler                                  build/at32f403a_407_int.o
Debug_Task_func                                   build/freertos_app.o
Debug_Task_handle                                 build/freertos_app.o
Default_Handler                                   build/startup_at32f403a_407.o
EMAC_IRQHandler                                   build/startup_at32f403a_407.o
EMAC_WKUP_IRQHandler                              build/startup_at32f403a_407.o
EXINT0_IRQHandler                                 build/startup_at32f403a_407.o
EXINT15_10_IRQHandler                             build/startup_at32f403a_407.o
EXINT1_IRQHandler                                 build/startup_at32f403a_407.o
EXINT2_IRQHandler                                 build/startup_at32f403a_407.o
EXINT3_IRQHandler                                 build/startup_at32f403a_407.o
EXINT4_IRQHandler                                 build/startup_at32f403a_407.o
EXINT9_5_IRQHandler                               build/startup_at32f403a_407.o
FLASH_IRQHandler                                  build/startup_at32f403a_407.o
HardFault_Handler                                 build/at32f403a_407_int.o
I2C1_ERR_IRQHandler                               build/startup_at32f403a_407.o
I2C1_EVT_IRQHandler                               build/startup_at32f403a_407.o
I2C2_ERR_IRQHandler                               build/startup_at32f403a_407.o
I2C2_EVT_IRQHandler                               build/startup_at32f403a_407.o
I2C3_ERR_IRQHandler                               build/startup_at32f403a_407.o
I2C3_EVT_IRQHandler                               build/startup_at32f403a_407.o
MC_Task_handle                                    build/freertos_app.o
Mc_Task_func                                      build/freertos_app.o
MemManage_Handler                                 build/at32f403a_407_int.o
Monitor_Task_func                                 build/freertos_app.o
Monitor_Task_handle                               build/freertos_app.o
NMI_Handler                                       build/at32f403a_407_int.o
PVM_IRQHandler                                    build/startup_at32f403a_407.o
PendSV_Handler                                    build/port.o
RTCAlarm_IRQHandler                               build/startup_at32f403a_407.o
RTC_IRQHandler                                    build/startup_at32f403a_407.o
Reset_Handler                                     build/startup_at32f403a_407.o
SDIO1_IRQHandler                                  build/startup_at32f403a_407.o
SDIO2_IRQHandler                                  build/startup_at32f403a_407.o
SPI1_IRQHandler                                   build/at32f403a_407_int.o
SPI2_I2S2EXT_IRQHandler                           build/startup_at32f403a_407.o
SPI3_I2S3EXT_IRQHandler                           build/startup_at32f403a_407.o
SPI4_IRQHandler                                   build/startup_at32f403a_407.o
SVC_Handler                                       build/port.o
SysTick_Handler                                   build/at32f403a_407_int.o
SystemInit                                        build/system_at32f403a_407.o
                                                  build/startup_at32f403a_407.o
TAMPER_IRQHandler                                 build/startup_at32f403a_407.o
TMR1_BRK_TMR9_IRQHandler                          build/at32f403a_407_int.o
TMR1_CH_IRQHandler                                build/startup_at32f403a_407.o
TMR1_OVF_TMR10_IRQHandler                         build/at32f403a_407_int.o
TMR1_TRG_HALL_TMR11_IRQHandler                    build/at32f403a_407_int.o
TMR2_GLOBAL_IRQHandler                            build/startup_at32f403a_407.o
TMR3_GLOBAL_IRQHandler                            build/startup_at32f403a_407.o
TMR4_GLOBAL_IRQHandler                            build/startup_at32f403a_407.o
TMR5_GLOBAL_IRQHandler                            build/startup_at32f403a_407.o
TMR6_GLOBAL_IRQHandler                            build/startup_at32f403a_407.o
TMR7_GLOBAL_IRQHandler                            build/startup_at32f403a_407.o
TMR8_BRK_TMR12_IRQHandler                         build/startup_at32f403a_407.o
TMR8_CH_IRQHandler                                build/startup_at32f403a_407.o
TMR8_OVF_TMR13_IRQHandler                         build/startup_at32f403a_407.o
TMR8_TRG_HALL_TMR14_IRQHandler                    build/startup_at32f403a_407.o
UART4_IRQHandler                                  build/startup_at32f403a_407.o
UART5_IRQHandler                                  build/startup_at32f403a_407.o
UART7_IRQHandler                                  build/startup_at32f403a_407.o
UART8_IRQHandler                                  build/startup_at32f403a_407.o
USART1_IRQHandler                                 build/startup_at32f403a_407.o
USART2_IRQHandler                                 build/startup_at32f403a_407.o
USART3_IRQHandler                                 build/startup_at32f403a_407.o
USART6_IRQHandler                                 build/startup_at32f403a_407.o
USBFSWakeUp_IRQHandler                            build/startup_at32f403a_407.o
USBFS_H_CAN1_TX_IRQHandler                        build/startup_at32f403a_407.o
USBFS_L_CAN1_RX0_IRQHandler                       build/startup_at32f403a_407.o
USBFS_MAPH_IRQHandler                             build/startup_at32f403a_407.o
USBFS_MAPL_IRQHandler                             build/at32f403a_407_int.o
UsageFault_Handler                                build/at32f403a_407_int.o
WWDT_IRQHandler                                   build/startup_at32f403a_407.o
XMC_IRQHandler                                    build/startup_at32f403a_407.o
_ITM_deregisterTMCloneTable                       C:/Program Files (x86)/Arm/GNU Toolchain mingw-w64-i686-arm-none-eabi/bin/../lib/gcc/arm-none-eabi/15.2.1/thumb/v7e-m+fp/hard/crtbegin.o
_ITM_registerTMCloneTable                         C:/Program Files (x86)/Arm/GNU Toolchain mingw-w64-i686-arm-none-eabi/bin/../lib/gcc/arm-none-eabi/15.2.1/thumb/v7e-m+fp/hard/crtbegin.o
_Min_Stack_Size                                   build/sysmem.o
__TMC_END__                                       C:/Program Files (x86)/Arm/GNU Toolchain mingw-w64-i686-arm-none-eabi/bin/../lib/gcc/arm-none-eabi/15.2.1/thumb/v7e-m+fp/hard/crtend.o
                                                  C:/Program Files (x86)/Arm/GNU Toolchain mingw-w64-i686-arm-none-eabi/bin/../lib/gcc/arm-none-eabi/15.2.1/thumb/v7e-m+fp/hard/crtbegin.o
__adddf3                                          C:/Program Files (x86)/Arm/GNU Toolchain mingw-w64-i686-arm-none-eabi/bin/../lib/gcc/arm-none-eabi/15.2.1/thumb/v7e-m+fp/hard\libgcc.a(_arm_addsubdf3.o)
__aeabi_cdcmpeq                                   C:/Program Files (x86)/Arm/GNU Toolchain mingw-w64-i686-arm-none-eabi/bin/../lib/gcc/arm-none-eabi/15.2.1/thumb/v7e-m+fp/hard\libgcc.a(_arm_cmpdf2.o)
__aeabi_cdcmple                                   C:/Program Files (x86)/Arm/GNU Toolchain mingw-w64-i686-arm-none-eabi/bin/../lib/gcc/arm-none-eabi/15.2.1/thumb/v7e-m+fp/hard\libgcc.a(_arm_cmpdf2.o)
__aeabi_cdrcmple                                  C:/Program Files (x86)/Arm/GNU Toolchain mingw-w64-i686-arm-none-eabi/bin/../lib/gcc/arm-none-eabi/15.2.1/thumb/v7e-m+fp/hard\libgcc.a(_arm_cmpdf2.o)
__aeabi_d2f                                       C:/Program Files (x86)/Arm/GNU Toolchain mingw-w64-i686-arm-none-eabi/bin/../lib/gcc/arm-none-eabi/15.2.1/thumb/v7e-m+fp/hard\libgcc.a(_arm_truncdfsf2.o)
                                                  build/motor_monitor.o
                                                  build/motor_foc.o
__aeabi_d2iz                                      C:/Program Files (x86)/Arm/GNU Toolchain mingw-w64-i686-arm-none-eabi/bin/../lib/gcc/arm-none-eabi/15.2.1/thumb/v7e-m+fp/hard\libgcc.a(_arm_fixdfsi.o)
                                                  C:/Program Files (x86)/Arm/GNU Toolchain mingw-w64-i686-arm-none-eabi/bin/../lib/gcc/arm-none-eabi/15.2.1/../../../../arm-none-eabi/lib/thumb/v7e-m+fp/hard\libm.a(libm_a-k_rem_pio2.o)
                                                  C:/Program Files (x86)/Arm/GNU Toolchain mingw-w64-i686-arm-none-eabi/bin/../lib/gcc/arm-none-eabi/15.2.1/../../../../arm-none-eabi/lib/thumb/v7e-m+fp/hard\libm.a(libm_a-e_rem_pio2.o)
                                                  C:/Program Files (x86)/Arm/GNU Toolchain mingw-w64-i686-arm-none-eabi/bin/../lib/gcc/arm-none-eabi/15.2.1/../../../../arm-none-eabi/lib/thumb/v7e-m+fp/hard\libm.a(libm_a-k_sin.o)
                                                  C:/Program Files (x86)/Arm/GNU Toolchain mingw-w64-i686-arm-none-eabi/bin/../lib/gcc/arm-none-eabi/15.2.1/../../../../arm-none-eabi/lib/thumb/v7e-m+fp/hard\libm.a(libm_a-k_cos.o)
__aeabi_d2uiz                                     C:/Program Files (x86)/Arm/GNU Toolchain mingw-w64-i686-arm-none-eabi/bin/../lib/gcc/arm-none-eabi/15.2.1/thumb/v7e-m+fp/hard\libgcc.a(_arm_fixunsdfsi.o)
                                                  build/motor_foc.o
__aeabi_dadd                                      C:/Program Files (x86)/Arm/GNU Toolchain mingw-w64-i686-arm-none-eabi/bin/../lib/gcc/arm-none-eabi/15.2.1/thumb/v7e-m+fp/hard\libgcc.a(_arm_addsubdf3.o)
                                                  C:/Program Files (x86)/Arm/GNU Toolchain mingw-w64-i686-arm-none-eabi/bin/../lib/gcc/arm-none-eabi/15.2.1/../../../../arm-none-eabi/lib/thumb/v7e-m+fp/hard\libm.a(libm_a-s_floor.o)
                                                  C:/Program Files (x86)/Arm/GNU Toolchain mingw-w64-i686-arm-none-eabi/bin/../lib/gcc/arm-none-eabi/15.2.1/../../../../arm-none-eabi/lib/thumb/v7e-m+fp/hard\libm.a(libm_a-s_scalbn.o)
                                                  C:/Program Files (x86)/Arm/GNU Toolchain mingw-w64-i686-arm-none-eabi/bin/../lib/gcc/arm-none-eabi/15.2.1/../../../../arm-none-eabi/lib/thumb/v7e-m+fp/hard\libm.a(libm_a-k_rem_pio2.o)
                                                  C:/Program Files (x86)/Arm/GNU Toolchain mingw-w64-i686-arm-none-eabi/bin/../lib/gcc/arm-none-eabi/15.2.1/../../../../arm-none-eabi/lib/thumb/v7e-m+fp/hard\libm.a(libm_a-s_atan.o)
                                                  C:/Program Files (x86)/Arm/GNU Toolchain mingw-w64-i686-arm-none-eabi/bin/../lib/gcc/arm-none-eabi/15.2.1/../../../../arm-none-eabi/lib/thumb/v7e-m+fp/hard\libm.a(libm_a-e_rem_pio2.o)
                                                  C:/Program Files (x86)/Arm/GNU Toolchain mingw-w64-i686-arm-none-eabi/bin/../lib/gcc/arm-none-eabi/15.2.1/../../../../arm-none-eabi/lib/thumb/v7e-m+fp/hard\libm.a(libm_a-e_log.o)
                                                  C:/Program Files (x86)/Arm/GNU Toolchain mingw-w64-i686-arm-none-eabi/bin/../lib/gcc/arm-none-eabi/15.2.1/../../../../arm-none-eabi/lib/thumb/v7e-m+fp/hard\libm.a(libm_a-e_atan2.o)
                                                  C:/Program Files (x86)/Arm/GNU Toolchain mingw-w64-i686-arm-none-eabi/bin/../lib/gcc/arm-none-eabi/15.2.1/../../../../arm-none-eabi/lib/thumb/v7e-m+fp/hard\libm.a(libm_a-k_sin.o)
                                                  C:/Program Files (x86)/Arm/GNU Toolchain mingw-w64-i686-arm-none-eabi/bin/../lib/gcc/arm-none-eabi/15.2.1/../../../../arm-none-eabi/lib/thumb/v7e-m+fp/hard\libm.a(libm_a-k_cos.o)
                                                  C:/Program Files (x86)/Arm/GNU Toolchain mingw-w64-i686-arm-none-eabi/bin/../lib/gcc/arm-none-eabi/15.2.1/../../../../arm-none-eabi/lib/thumb/v7e-m+fp/hard\libm.a(libm_a-e_sqrt.o)
                                                  build/motor_monitor.o
                                                  build/motor_foc.o
__aeabi_dcmpeq                                    C:/Program Files (x86)/Arm/GNU Toolchain mingw-w64-i686-arm-none-eabi/bin/../lib/gcc/arm-none-eabi/15.2.1/thumb/v7e-m+fp/hard\libgcc.a(_arm_cmpdf2.o)
                                                  C:/Program Files (x86)/Arm/GNU Toolchain mingw-w64-i686-arm-none-eabi/bin/../lib/gcc/arm-none-eabi/15.2.1/../../../../arm-none-eabi/lib/thumb/v7e-m+fp/hard\libm.a(libm_a-k_rem_pio2.o)
                                                  C:/Program Files (x86)/Arm/GNU Toolchain mingw-w64-i686-arm-none-eabi/bin/../lib/gcc/arm-none-eabi/15.2.1/../../../../arm-none-eabi/lib/thumb/v7e-m+fp/hard\libm.a(libm_a-e_rem_pio2.o)
                                                  C:/Program Files (x86)/Arm/GNU Toolchain mingw-w64-i686-arm-none-eabi/bin/../lib/gcc/arm-none-eabi/15.2.1/../../../../arm-none-eabi/lib/thumb/v7e-m+fp/hard\libm.a(libm_a-e_log.o)
                                                  C:/Program Files (x86)/Arm/GNU Toolchain mingw-w64-i686-arm-none-eabi/bin/../lib/gcc/arm-none-eabi/15.2.1/../../../../arm-none-eabi/lib/thumb/v7e-m+fp/hard\libm.a(libm_a-w_log.o)
__aeabi_dcmpge                                    C:/Program Files (x86)/Arm/GNU Toolchain mingw-w64-i686-arm-none-eabi/bin/../lib/gcc/arm-none-eabi/15.2.1/thumb/v7e-m+fp/hard\libgcc.a(_arm_cmpdf2.o)
                                                  C:/Program Files (x86)/Arm/GNU Toolchain mingw-w64-i686-arm-none-eabi/bin/../lib/gcc/arm-none-eabi/15.2.1/../../../../arm-none-eabi/lib/thumb/v7e-m+fp/hard\libm.a(libm_a-k_rem_pio2.o)
__aeabi_dcmpgt                                    C:/Program Files (x86)/Arm/GNU Toolchain mingw-w64-i686-arm-none-eabi/bin/../lib/gcc/arm-none-eabi/15.2.1/thumb/v7e-m+fp/hard\libgcc.a(_arm_cmpdf2.o)
                                                  C:/Program Files (x86)/Arm/GNU Toolchain mingw-w64-i686-arm-none-eabi/bin/../lib/gcc/arm-none-eabi/15.2.1/../../../../arm-none-eabi/lib/thumb/v7e-m+fp/hard\libm.a(libm_a-s_floor.o)
                                                  C:/Program Files (x86)/Arm/GNU Toolchain mingw-w64-i686-arm-none-eabi/bin/../lib/gcc/arm-none-eabi/15.2.1/../../../../arm-none-eabi/lib/thumb/v7e-m+fp/hard\libm.a(libm_a-s_atan.o)
                                                  C:/Program Files (x86)/Arm/GNU Toolchain mingw-w64-i686-arm-none-eabi/bin/../lib/gcc/arm-none-eabi/15.2.1/../../../../arm-none-eabi/lib/thumb/v7e-m+fp/hard\libm.a(libm_a-w_log.o)
                                                  build/motor_foc.o
__aeabi_dcmple                                    C:/Program Files (x86)/Arm/GNU Toolchain mingw-w64-i686-arm-none-eabi/bin/../lib/gcc/arm-none-eabi/15.2.1/thumb/v7e-m+fp/hard\libgcc.a(_arm_cmpdf2.o)
                                                  C:/Program Files (x86)/Arm/GNU Toolchain mingw-w64-i686-arm-none-eabi/bin/../lib/gcc/arm-none-eabi/15.2.1/../../../../arm-none-eabi/lib/thumb/v7e-m+fp/hard\libm.a(libm_a-e_sqrt.o)
__aeabi_dcmplt                                    C:/Program Files (x86)/Arm/GNU Toolchain mingw-w64-i686-arm-none-eabi/bin/../lib/gcc/arm-none-eabi/15.2.1/thumb/v7e-m+fp/hard\libgcc.a(_arm_cmpdf2.o)
                                                  C:/Program Files (x86)/Arm/GNU Toolchain mingw-w64-i686-arm-none-eabi/bin/../lib/gcc/arm-none-eabi/15.2.1/../../../../arm-none-eabi/lib/thumb/v7e-m+fp/hard\libm.a(libm_a-e_sqrt.o)
                                                  C:/Program Files (x86)/Arm/GNU Toolchain mingw-w64-i686-arm-none-eabi/bin/../lib/gcc/arm-none-eabi/15.2.1/../../../../arm-none-eabi/lib/thumb/v7e-m+fp/hard\libm.a(libm_a-w_sqrt.o)
__aeabi_dcmpun                                    C:/Program Files (x86)/Arm/GNU Toolchain mingw-w64-i686-arm-none-eabi/bin/../lib/gcc/arm-none-eabi/15.2.1/thumb/v7e-m+fp/hard\libgcc.a(_arm_unorddf2.o)
                                                  C:/Program Files (x86)/Arm/GNU Toolchain mingw-w64-i686-arm-none-eabi/bin/../lib/gcc/arm-none-eabi/15.2.1/../../../../arm-none-eabi/lib/thumb/v7e-m+fp/hard\libm.a(libm_a-w_sqrt.o)
                                                  C:/Program Files (x86)/Arm/GNU Toolchain mingw-w64-i686-arm-none-eabi/bin/../lib/gcc/arm-none-eabi/15.2.1/../../../../arm-none-eabi/lib/thumb/v7e-m+fp/hard\libm.a(libm_a-w_log.o)
__aeabi_ddiv                                      C:/Program Files (x86)/Arm/GNU Toolchain mingw-w64-i686-arm-none-eabi/bin/../lib/gcc/arm-none-eabi/15.2.1/thumb/v7e-m+fp/hard\libgcc.a(_arm_muldivdf3.o)
                                                  C:/Program Files (x86)/Arm/GNU Toolchain mingw-w64-i686-arm-none-eabi/bin/../lib/gcc/arm-none-eabi/15.2.1/../../../../arm-none-eabi/lib/thumb/v7e-m+fp/hard\libm.a(libm_a-s_atan.o)
                                                  C:/Program Files (x86)/Arm/GNU Toolchain mingw-w64-i686-arm-none-eabi/bin/../lib/gcc/arm-none-eabi/15.2.1/../../../../arm-none-eabi/lib/thumb/v7e-m+fp/hard\libm.a(libm_a-e_log.o)
                                                  C:/Program Files (x86)/Arm/GNU Toolchain mingw-w64-i686-arm-none-eabi/bin/../lib/gcc/arm-none-eabi/15.2.1/../../../../arm-none-eabi/lib/thumb/v7e-m+fp/hard\libm.a(libm_a-e_atan2.o)
                                                  C:/Program Files (x86)/Arm/GNU Toolchain mingw-w64-i686-arm-none-eabi/bin/../lib/gcc/arm-none-eabi/15.2.1/../../../../arm-none-eabi/lib/thumb/v7e-m+fp/hard\libm.a(libm_a-e_sqrt.o)
                                                  C:/Program Files (x86)/Arm/GNU Toolchain mingw-w64-i686-arm-none-eabi/bin/../lib/gcc/arm-none-eabi/15.2.1/../../../../arm-none-eabi/lib/thumb/v7e-m+fp/hard\libm.a(libm_a-w_sqrt.o)
                                                  build/motor_foc.o
__aeabi_dmul                                      C:/Program Files (x86)/Arm/GNU Toolchain mingw-w64-i686-arm-none-eabi/bin/../lib/gcc/arm-none-eabi/15.2.1/thumb/v7e-m+fp/hard\libgcc.a(_arm_muldivdf3.o)
                                                  C:/Program Files (x86)/Arm/GNU Toolchain mingw-w64-i686-arm-none-eabi/bin/../lib/gcc/arm-none-eabi/15.2.1/thumb/v7e-m+fp/hard\libgcc.a(_arm_muldf3.o)
                                                  C:/Program Files (x86)/Arm/GNU Toolchain mingw-w64-i686-arm-none-eabi/bin/../lib/gcc/arm-none-eabi/15.2.1/../../../../arm-none-eabi/lib/thumb/v7e-m+fp/hard\libm.a(libm_a-s_scalbn.o)
                                                  C:/Program Files (x86)/Arm/GNU Toolchain mingw-w64-i686-arm-none-eabi/bin/../lib/gcc/arm-none-eabi/15.2.1/../../../../arm-none-eabi/lib/thumb/v7e-m+fp/hard\libm.a(libm_a-k_rem_pio2.o)
                                                  C:/Program Files (x86)/Arm/GNU Toolchain mingw-w64-i686-arm-none-eabi/bin/../lib/gcc/arm-none-eabi/15.2.1/../../../../arm-none-eabi/lib/thumb/v7e-m+fp/hard\libm.a(libm_a-s_atan.o)
                                                  C:/Program Files (x86)/Arm/GNU Toolchain mingw-w64-i686-arm-none-eabi/bin/../lib/gcc/arm-none-eabi/15.2.1/../../../../arm-none-eabi/lib/thumb/v7e-m+fp/hard\libm.a(libm_a-e_rem_pio2.o)
                                                  C:/Program Files (x86)/Arm/GNU Toolchain mingw-w64-i686-arm-none-eabi/bin/../lib/gcc/arm-none-eabi/15.2.1/../../../../arm-none-eabi/lib/thumb/v7e-m+fp/hard\libm.a(libm_a-e_log.o)
                                                  C:/Program Files (x86)/Arm/GNU Toolchain mingw-w64-i686-arm-none-eabi/bin/../lib/gcc/arm-none-eabi/15.2.1/../../../../arm-none-eabi/lib/thumb/v7e-m+fp/hard\libm.a(libm_a-k_sin.o)
                                                  C:/Program Files (x86)/Arm/GNU Toolchain mingw-w64-i686-arm-none-eabi/bin/../lib/gcc/arm-none-eabi/15.2.1/../../../../arm-none-eabi/lib/thumb/v7e-m+fp/hard\libm.a(libm_a-k_cos.o)
                                                  C:/Program Files (x86)/Arm/GNU Toolchain mingw-w64-i686-arm-none-eabi/bin/../lib/gcc/arm-none-eabi/15.2.1/../../../../arm-none-eabi/lib/thumb/v7e-m+fp/hard\libm.a(libm_a-e_sqrt.o)
                                                  build/motor_monitor.o
                                                  build/motor_foc.o
__aeabi_drsub                                     C:/Program Files (x86)/Arm/GNU Toolchain mingw-w64-i686-arm-none-eabi/bin/../lib/gcc/arm-none-eabi/15.2.1/thumb/v7e-m+fp/hard\libgcc.a(_arm_addsubdf3.o)
__aeabi_dsub                                      C:/Program Files (x86)/Arm/GNU Toolchain mingw-w64-i686-arm-none-eabi/bin/../lib/gcc/arm-none-eabi/15.2.1/thumb/v7e-m+fp/hard\libgcc.a(_arm_addsubdf3.o)
                                                  C:/Program Files (x86)/Arm/GNU Toolchain mingw-w64-i686-arm-none-eabi/bin/../lib/gcc/arm-none-eabi/15.2.1/../../../../arm-none-eabi/lib/thumb/v7e-m+fp/hard\libm.a(libm_a-k_rem_pio2.o)
                                                  C:/Program Files (x86)/Arm/GNU Toolchain mingw-w64-i686-arm-none-eabi/bin/../lib/gcc/arm-none-eabi/15.2.1/../../../../arm-none-eabi/lib/thumb/v7e-m+fp/hard\libm.a(libm_a-s_atan.o)
                                                  C:/Program Files (x86)/Arm/GNU Toolchain mingw-w64-i686-arm-none-eabi/bin/../lib/gcc/arm-none-eabi/15.2.1/../../../../arm-none-eabi/lib/thumb/v7e-m+fp/hard\libm.a(libm_a-e_rem_pio2.o)
                                                  C:/Program Files (x86)/Arm/GNU Toolchain mingw-w64-i686-arm-none-eabi/bin/../lib/gcc/arm-none-eabi/15.2.1/../../../../arm-none-eabi/lib/thumb/v7e-m+fp/hard\libm.a(libm_a-e_log.o)
                                                  C:/Program Files (x86)/Arm/GNU Toolchain mingw-w64-i686-arm-none-eabi/bin/../lib/gcc/arm-none-eabi/15.2.1/../../../../arm-none-eabi/lib/thumb/v7e-m+fp/hard\libm.a(libm_a-e_atan2.o)
                                                  C:/Program Files (x86)/Arm/GNU Toolchain mingw-w64-i686-arm-none-eabi/bin/../lib/gcc/arm-none-eabi/15.2.1/../../../../arm-none-eabi/lib/thumb/v7e-m+fp/hard\libm.a(libm_a-k_sin.o)
                                                  C:/Program Files (x86)/Arm/GNU Toolchain mingw-w64-i686-arm-none-eabi/bin/../lib/gcc/arm-none-eabi/15.2.1/../../../../arm-none-eabi/lib/thumb/v7e-m+fp/hard\libm.a(libm_a-k_cos.o)
                                                  C:/Program Files (x86)/Arm/GNU Toolchain mingw-w64-i686-arm-none-eabi/bin/../lib/gcc/arm-none-eabi/15.2.1/../../../../arm-none-eabi/lib/thumb/v7e-m+fp/hard\libm.a(libm_a-e_sqrt.o)
                                                  C:/Program Files (x86)/Arm/GNU Toolchain mingw-w64-i686-arm-none-eabi/bin/../lib/gcc/arm-none-eabi/15.2.1/../../../../arm-none-eabi/lib/thumb/v7e-m+fp/hard\libm.a(libm_a-s_sin.o)
                                                  C:/Program Files (x86)/Arm/GNU Toolchain mingw-w64-i686-arm-none-eabi/bin/../lib/gcc/arm-none-eabi/15.2.1/../../../../arm-none-eabi/lib/thumb/v7e-m+fp/hard\libm.a(libm_a-s_cos.o)
                                                  build/motor_foc.o
__aeabi_f2d                                       C:/Program Files (x86)/Arm/GNU Toolchain mingw-w64-i686-arm-none-eabi/bin/../lib/gcc/arm-none-eabi/15.2.1/thumb/v7e-m+fp/hard\libgcc.a(_arm_addsubdf3.o)
                                                  build/motor_monitor.o
                                                  build/motor_foc.o
__aeabi_i2d                                       C:/Program Files (x86)/Arm/GNU Toolchain mingw-w64-i686-arm-none-eabi/bin/../lib/gcc/arm-none-eabi/15.2.1/thumb/v7e-m+fp/hard\libgcc.a(_arm_addsubdf3.o)
                                                  C:/Program Files (x86)/Arm/GNU Toolchain mingw-w64-i686-arm-none-eabi/bin/../lib/gcc/arm-none-eabi/15.2.1/../../../../arm-none-eabi/lib/thumb/v7e-m+fp/hard\libm.a(libm_a-k_rem_pio2.o)
                                                  C:/Program Files (x86)/Arm/GNU Toolchain mingw-w64-i686-arm-none-eabi/bin/../lib/gcc/arm-none-eabi/15.2.1/../../../../arm-none-eabi/lib/thumb/v7e-m+fp/hard\libm.a(libm_a-e_rem_pio2.o)
                                                  C:/Program Files (x86)/Arm/GNU Toolchain mingw-w64-i686-arm-none-eabi/bin/../lib/gcc/arm-none-eabi/15.2.1/../../../../arm-none-eabi/lib/thumb/v7e-m+fp/hard\libm.a(libm_a-e_log.o)
                                                  build/motor_foc.o
__aeabi_l2d                                       C:/Program Files (x86)/Arm/GNU Toolchain mingw-w64-i686-arm-none-eabi/bin/../lib/gcc/arm-none-eabi/15.2.1/thumb/v7e-m+fp/hard\libgcc.a(_arm_addsubdf3.o)
__aeabi_ui2d                                      C:/Program Files (x86)/Arm/GNU Toolchain mingw-w64-i686-arm-none-eabi/bin/../lib/gcc/arm-none-eabi/15.2.1/thumb/v7e-m+fp/hard\libgcc.a(_arm_addsubdf3.o)
__aeabi_ul2d                                      C:/Program Files (x86)/Arm/GNU Toolchain mingw-w64-i686-arm-none-eabi/bin/../lib/gcc/arm-none-eabi/15.2.1/thumb/v7e-m+fp/hard\libgcc.a(_arm_addsubdf3.o)
__bss_end__                                       C:/Program Files (x86)/Arm/GNU Toolchain mingw-w64-i686-arm-none-eabi/bin/../lib/gcc/arm-none-eabi/15.2.1/../../../../arm-none-eabi/lib/thumb/v7e-m+fp/hard/crt0.o
__bss_start__                                     C:/Program Files (x86)/Arm/GNU Toolchain mingw-w64-i686-arm-none-eabi/bin/../lib/gcc/arm-none-eabi/15.2.1/../../../../arm-none-eabi/lib/thumb/v7e-m+fp/hard/crt0.o
__call_exitprocs                                  C:/Program Files (x86)/Arm/GNU Toolchain mingw-w64-i686-arm-none-eabi/bin/../lib/gcc/arm-none-eabi/15.2.1/../../../../arm-none-eabi/lib/thumb/v7e-m+fp/hard\libc_nano.a(libc_a-exit.o)
__cmpdf2                                          C:/Program Files (x86)/Arm/GNU Toolchain mingw-w64-i686-arm-none-eabi/bin/../lib/gcc/arm-none-eabi/15.2.1/thumb/v7e-m+fp/hard\libgcc.a(_arm_cmpdf2.o)
__deregister_frame_info                           C:/Program Files (x86)/Arm/GNU Toolchain mingw-w64-i686-arm-none-eabi/bin/../lib/gcc/arm-none-eabi/15.2.1/thumb/v7e-m+fp/hard/crtbegin.o
__divdf3                                          C:/Program Files (x86)/Arm/GNU Toolchain mingw-w64-i686-arm-none-eabi/bin/../lib/gcc/arm-none-eabi/15.2.1/thumb/v7e-m+fp/hard\libgcc.a(_arm_muldivdf3.o)
__dso_handle                                      C:/Program Files (x86)/Arm/GNU Toolchain mingw-w64-i686-arm-none-eabi/bin/../lib/gcc/arm-none-eabi/15.2.1/thumb/v7e-m+fp/hard/crtbegin.o
__env                                             build/syscalls.o
__eqdf2                                           C:/Program Files (x86)/Arm/GNU Toolchain mingw-w64-i686-arm-none-eabi/bin/../lib/gcc/arm-none-eabi/15.2.1/thumb/v7e-m+fp/hard\libgcc.a(_arm_cmpdf2.o)
__errno                                           C:/Program Files (x86)/Arm/GNU Toolchain mingw-w64-i686-arm-none-eabi/bin/../lib/gcc/arm-none-eabi/15.2.1/../../../../arm-none-eabi/lib/thumb/v7e-m+fp/hard\libc_nano.a(libc_a-errno.o)
                                                  C:/Program Files (x86)/Arm/GNU Toolchain mingw-w64-i686-arm-none-eabi/bin/../lib/gcc/arm-none-eabi/15.2.1/../../../../arm-none-eabi/lib/thumb/v7e-m+fp/hard\libm.a(libm_a-w_sqrt.o)
                                                  C:/Program Files (x86)/Arm/GNU Toolchain mingw-w64-i686-arm-none-eabi/bin/../lib/gcc/arm-none-eabi/15.2.1/../../../../arm-none-eabi/lib/thumb/v7e-m+fp/hard\libm.a(libm_a-w_log.o)
                                                  build/sysmem.o
                                                  build/syscalls.o
__extendsfdf2                                     C:/Program Files (x86)/Arm/GNU Toolchain mingw-w64-i686-arm-none-eabi/bin/../lib/gcc/arm-none-eabi/15.2.1/thumb/v7e-m+fp/hard\libgcc.a(_arm_addsubdf3.o)
__fixdfsi                                         C:/Program Files (x86)/Arm/GNU Toolchain mingw-w64-i686-arm-none-eabi/bin/../lib/gcc/arm-none-eabi/15.2.1/thumb/v7e-m+fp/hard\libgcc.a(_arm_fixdfsi.o)
__fixunsdfsi                                      C:/Program Files (x86)/Arm/GNU Toolchain mingw-w64-i686-arm-none-eabi/bin/../lib/gcc/arm-none-eabi/15.2.1/thumb/v7e-m+fp/hard\libgcc.a(_arm_fixunsdfsi.o)
__floatdidf                                       C:/Program Files (x86)/Arm/GNU Toolchain mingw-w64-i686-arm-none-eabi/bin/../lib/gcc/arm-none-eabi/15.2.1/thumb/v7e-m+fp/hard\libgcc.a(_arm_addsubdf3.o)
__floatsidf                                       C:/Program Files (x86)/Arm/GNU Toolchain mingw-w64-i686-arm-none-eabi/bin/../lib/gcc/arm-none-eabi/15.2.1/thumb/v7e-m+fp/hard\libgcc.a(_arm_addsubdf3.o)
__floatundidf                                     C:/Program Files (x86)/Arm/GNU Toolchain mingw-w64-i686-arm-none-eabi/bin/../lib/gcc/arm-none-eabi/15.2.1/thumb/v7e-m+fp/hard\libgcc.a(_arm_addsubdf3.o)
__floatunsidf                                     C:/Program Files (x86)/Arm/GNU Toolchain mingw-w64-i686-arm-none-eabi/bin/../lib/gcc/arm-none-eabi/15.2.1/thumb/v7e-m+fp/hard\libgcc.a(_arm_addsubdf3.o)
__fp_lock_all                                     C:/Program Files (x86)/Arm/GNU Toolchain mingw-w64-i686-arm-none-eabi/bin/../lib/gcc/arm-none-eabi/15.2.1/../../../../arm-none-eabi/lib/thumb/v7e-m+fp/hard\libc_nano.a(libc_a-findfp.o)
__fp_unlock_all                                   C:/Program Files (x86)/Arm/GNU Toolchain mingw-w64-i686-arm-none-eabi/bin/../lib/gcc/arm-none-eabi/15.2.1/../../../../arm-none-eabi/lib/thumb/v7e-m+fp/hard\libc_nano.a(libc_a-findfp.o)
__gedf2                                           C:/Program Files (x86)/Arm/GNU Toolchain mingw-w64-i686-arm-none-eabi/bin/../lib/gcc/arm-none-eabi/15.2.1/thumb/v7e-m+fp/hard\libgcc.a(_arm_cmpdf2.o)
__gtdf2                                           C:/Program Files (x86)/Arm/GNU Toolchain mingw-w64-i686-arm-none-eabi/bin/../lib/gcc/arm-none-eabi/15.2.1/thumb/v7e-m+fp/hard\libgcc.a(_arm_cmpdf2.o)
__ieee754_atan2                                   C:/Program Files (x86)/Arm/GNU Toolchain mingw-w64-i686-arm-none-eabi/bin/../lib/gcc/arm-none-eabi/15.2.1/../../../../arm-none-eabi/lib/thumb/v7e-m+fp/hard\libm.a(libm_a-e_atan2.o)
                                                  C:/Program Files (x86)/Arm/GNU Toolchain mingw-w64-i686-arm-none-eabi/bin/../lib/gcc/arm-none-eabi/15.2.1/../../../../arm-none-eabi/lib/thumb/v7e-m+fp/hard\libm.a(libm_a-w_atan2.o)
__ieee754_log                                     C:/Program Files (x86)/Arm/GNU Toolchain mingw-w64-i686-arm-none-eabi/bin/../lib/gcc/arm-none-eabi/15.2.1/../../../../arm-none-eabi/lib/thumb/v7e-m+fp/hard\libm.a(libm_a-e_log.o)
                                                  C:/Program Files (x86)/Arm/GNU Toolchain mingw-w64-i686-arm-none-eabi/bin/../lib/gcc/arm-none-eabi/15.2.1/../../../../arm-none-eabi/lib/thumb/v7e-m+fp/hard\libm.a(libm_a-w_log.o)
__ieee754_rem_pio2                                C:/Program Files (x86)/Arm/GNU Toolchain mingw-w64-i686-arm-none-eabi/bin/../lib/gcc/arm-none-eabi/15.2.1/../../../../arm-none-eabi/lib/thumb/v7e-m+fp/hard\libm.a(libm_a-e_rem_pio2.o)
                                                  C:/Program Files (x86)/Arm/GNU Toolchain mingw-w64-i686-arm-none-eabi/bin/../lib/gcc/arm-none-eabi/15.2.1/../../../../arm-none-eabi/lib/thumb/v7e-m+fp/hard\libm.a(libm_a-s_sin.o)
                                                  C:/Program Files (x86)/Arm/GNU Toolchain mingw-w64-i686-arm-none-eabi/bin/../lib/gcc/arm-none-eabi/15.2.1/../../../../arm-none-eabi/lib/thumb/v7e-m+fp/hard\libm.a(libm_a-s_cos.o)
__ieee754_sqrt                                    C:/Program Files (x86)/Arm/GNU Toolchain mingw-w64-i686-arm-none-eabi/bin/../lib/gcc/arm-none-eabi/15.2.1/../../../../arm-none-eabi/lib/thumb/v7e-m+fp/hard\libm.a(libm_a-e_sqrt.o)
                                                  C:/Program Files (x86)/Arm/GNU Toolchain mingw-w64-i686-arm-none-eabi/bin/../lib/gcc/arm-none-eabi/15.2.1/../../../../arm-none-eabi/lib/thumb/v7e-m+fp/hard\libm.a(libm_a-w_sqrt.o)
__init_array_end                                  C:/Program Files (x86)/Arm/GNU Toolchain mingw-w64-i686-arm-none-eabi/bin/../lib/gcc/arm-none-eabi/15.2.1/../../../../arm-none-eabi/lib/thumb/v7e-m+fp/hard\libc_nano.a(libc_a-init.o)
__init_array_start                                C:/Program Files (x86)/Arm/GNU Toolchain mingw-w64-i686-arm-none-eabi/bin/../lib/gcc/arm-none-eabi/15.2.1/../../../../arm-none-eabi/lib/thumb/v7e-m+fp/hard\libc_nano.a(libc_a-init.o)
__io_getchar                                      build/syscalls.o
__io_putchar                                      build/syscalls.o
__kernel_cos                                      C:/Program Files (x86)/Arm/GNU Toolchain mingw-w64-i686-arm-none-eabi/bin/../lib/gcc/arm-none-eabi/15.2.1/../../../../arm-none-eabi/lib/thumb/v7e-m+fp/hard\libm.a(libm_a-k_cos.o)
                                                  C:/Program Files (x86)/Arm/GNU Toolchain mingw-w64-i686-arm-none-eabi/bin/../lib/gcc/arm-none-eabi/15.2.1/../../../../arm-none-eabi/lib/thumb/v7e-m+fp/hard\libm.a(libm_a-s_sin.o)
                                                  C:/Program Files (x86)/Arm/GNU Toolchain mingw-w64-i686-arm-none-eabi/bin/../lib/gcc/arm-none-eabi/15.2.1/../../../../arm-none-eabi/lib/thumb/v7e-m+fp/hard\libm.a(libm_a-s_cos.o)
__kernel_rem_pio2                                 C:/Program Files (x86)/Arm/GNU Toolchain mingw-w64-i686-arm-none-eabi/bin/../lib/gcc/arm-none-eabi/15.2.1/../../../../arm-none-eabi/lib/thumb/v7e-m+fp/hard\libm.a(libm_a-k_rem_pio2.o)
                                                  C:/Program Files (x86)/Arm/GNU Toolchain mingw-w64-i686-arm-none-eabi/bin/../lib/gcc/arm-none-eabi/15.2.1/../../../../arm-none-eabi/lib/thumb/v7e-m+fp/hard\libm.a(libm_a-e_rem_pio2.o)
__kernel_sin                                      C:/Program Files (x86)/Arm/GNU Toolchain mingw-w64-i686-arm-none-eabi/bin/../lib/gcc/arm-none-eabi/15.2.1/../../../../arm-none-eabi/lib/thumb/v7e-m+fp/hard\libm.a(libm_a-k_sin.o)
                                                  C:/Program Files (x86)/Arm/GNU Toolchain mingw-w64-i686-arm-none-eabi/bin/../lib/gcc/arm-none-eabi/15.2.1/../../../../arm-none-eabi/lib/thumb/v7e-m+fp/hard\libm.a(libm_a-s_sin.o)
                                                  C:/Program Files (x86)/Arm/GNU Toolchain mingw-w64-i686-arm-none-eabi/bin/../lib/gcc/arm-none-eabi/15.2.1/../../../../arm-none-eabi/lib/thumb/v7e-m+fp/hard\libm.a(libm_a-s_cos.o)
__ledf2                                           C:/Program Files (x86)/Arm/GNU Toolchain mingw-w64-i686-arm-none-eabi/bin/../lib/gcc/arm-none-eabi/15.2.1/thumb/v7e-m+fp/hard\libgcc.a(_arm_cmpdf2.o)
__libc_fini_array                                 C:/Program Files (x86)/Arm/GNU Toolchain mingw-w64-i686-arm-none-eabi/bin/../lib/gcc/arm-none-eabi/15.2.1/../../../../arm-none-eabi/lib/thumb/v7e-m+fp/hard/crt0.o
__libc_init_array                                 C:/Program Files (x86)/Arm/GNU Toolchain mingw-w64-i686-arm-none-eabi/bin/../lib/gcc/arm-none-eabi/15.2.1/../../../../arm-none-eabi/lib/thumb/v7e-m+fp/hard\libc_nano.a(libc_a-init.o)
                                                  build/startup_at32f403a_407.o
                                                  C:/Program Files (x86)/Arm/GNU Toolchain mingw-w64-i686-arm-none-eabi/bin/../lib/gcc/arm-none-eabi/15.2.1/../../../../arm-none-eabi/lib/thumb/v7e-m+fp/hard/crt0.o
__lock___arc4random_mutex                         C:/Program Files (x86)/Arm/GNU Toolchain mingw-w64-i686-arm-none-eabi/bin/../lib/gcc/arm-none-eabi/15.2.1/../../../../arm-none-eabi/lib/thumb/v7e-m+fp/hard\libc_nano.a(libc_a-lock.o)
__lock___at_quick_exit_mutex                      C:/Program Files (x86)/Arm/GNU Toolchain mingw-w64-i686-arm-none-eabi/bin/../lib/gcc/arm-none-eabi/15.2.1/../../../../arm-none-eabi/lib/thumb/v7e-m+fp/hard\libc_nano.a(libc_a-lock.o)
__lock___atexit_recursive_mutex                   C:/Program Files (x86)/Arm/GNU Toolchain mingw-w64-i686-arm-none-eabi/bin/../lib/gcc/arm-none-eabi/15.2.1/../../../../arm-none-eabi/lib/thumb/v7e-m+fp/hard\libc_nano.a(libc_a-lock.o)
__lock___dd_hash_mutex                            C:/Program Files (x86)/Arm/GNU Toolchain mingw-w64-i686-arm-none-eabi/bin/../lib/gcc/arm-none-eabi/15.2.1/../../../../arm-none-eabi/lib/thumb/v7e-m+fp/hard\libc_nano.a(libc_a-lock.o)
__lock___env_recursive_mutex                      C:/Program Files (x86)/Arm/GNU Toolchain mingw-w64-i686-arm-none-eabi/bin/../lib/gcc/arm-none-eabi/15.2.1/../../../../arm-none-eabi/lib/thumb/v7e-m+fp/hard\libc_nano.a(libc_a-lock.o)
__lock___malloc_recursive_mutex                   C:/Program Files (x86)/Arm/GNU Toolchain mingw-w64-i686-arm-none-eabi/bin/../lib/gcc/arm-none-eabi/15.2.1/../../../../arm-none-eabi/lib/thumb/v7e-m+fp/hard\libc_nano.a(libc_a-lock.o)
                                                  C:/Program Files (x86)/Arm/GNU Toolchain mingw-w64-i686-arm-none-eabi/bin/../lib/gcc/arm-none-eabi/15.2.1/../../../../arm-none-eabi/lib/thumb/v7e-m+fp/hard\libc_nano.a(libc_a-mlock.o)
__lock___sfp_recursive_mutex                      C:/Program Files (x86)/Arm/GNU Toolchain mingw-w64-i686-arm-none-eabi/bin/../lib/gcc/arm-none-eabi/15.2.1/../../../../arm-none-eabi/lib/thumb/v7e-m+fp/hard\libc_nano.a(libc_a-lock.o)
                                                  C:/Program Files (x86)/Arm/GNU Toolchain mingw-w64-i686-arm-none-eabi/bin/../lib/gcc/arm-none-eabi/15.2.1/../../../../arm-none-eabi/lib/thumb/v7e-m+fp/hard\libc_nano.a(libc_a-findfp.o)
__lock___tz_mutex                                 C:/Program Files (x86)/Arm/GNU Toolchain mingw-w64-i686-arm-none-eabi/bin/../lib/gcc/arm-none-eabi/15.2.1/../../../../arm-none-eabi/lib/thumb/v7e-m+fp/hard\libc_nano.a(libc_a-lock.o)
__ltdf2                                           C:/Program Files (x86)/Arm/GNU Toolchain mingw-w64-i686-arm-none-eabi/bin/../lib/gcc/arm-none-eabi/15.2.1/thumb/v7e-m+fp/hard\libgcc.a(_arm_cmpdf2.o)
__malloc_free_list                                C:/Program Files (x86)/Arm/GNU Toolchain mingw-w64-i686-arm-none-eabi/bin/../lib/gcc/arm-none-eabi/15.2.1/../../../../arm-none-eabi/lib/thumb/v7e-m+fp/hard\libc_nano.a(libc_a-mallocr.o)
                                                  C:/Program Files (x86)/Arm/GNU Toolchain mingw-w64-i686-arm-none-eabi/bin/../lib/gcc/arm-none-eabi/15.2.1/../../../../arm-none-eabi/lib/thumb/v7e-m+fp/hard\libc_nano.a(libc_a-freer.o)
__malloc_lock                                     C:/Program Files (x86)/Arm/GNU Toolchain mingw-w64-i686-arm-none-eabi/bin/../lib/gcc/arm-none-eabi/15.2.1/../../../../arm-none-eabi/lib/thumb/v7e-m+fp/hard\libc_nano.a(libc_a-mlock.o)
                                                  C:/Program Files (x86)/Arm/GNU Toolchain mingw-w64-i686-arm-none-eabi/bin/../lib/gcc/arm-none-eabi/15.2.1/../../../../arm-none-eabi/lib/thumb/v7e-m+fp/hard\libc_nano.a(libc_a-mallocr.o)
                                                  C:/Program Files (x86)/Arm/GNU Toolchain mingw-w64-i686-arm-none-eabi/bin/../lib/gcc/arm-none-eabi/15.2.1/../../../../arm-none-eabi/lib/thumb/v7e-m+fp/hard\libc_nano.a(libc_a-freer.o)
__malloc_sbrk_start                               C:/Program Files (x86)/Arm/GNU Toolchain mingw-w64-i686-arm-none-eabi/bin/../lib/gcc/arm-none-eabi/15.2.1/../../../../arm-none-eabi/lib/thumb/v7e-m+fp/hard\libc_nano.a(libc_a-mallocr.o)
__malloc_unlock                                   C:/Program Files (x86)/Arm/GNU Toolchain mingw-w64-i686-arm-none-eabi/bin/../lib/gcc/arm-none-eabi/15.2.1/../../../../arm-none-eabi/lib/thumb/v7e-m+fp/hard\libc_nano.a(libc_a-mlock.o)
                                                  C:/Program Files (x86)/Arm/GNU Toolchain mingw-w64-i686-arm-none-eabi/bin/../lib/gcc/arm-none-eabi/15.2.1/../../../../arm-none-eabi/lib/thumb/v7e-m+fp/hard\libc_nano.a(libc_a-mallocr.o)
                                                  C:/Program Files (x86)/Arm/GNU Toolchain mingw-w64-i686-arm-none-eabi/bin/../lib/gcc/arm-none-eabi/15.2.1/../../../../arm-none-eabi/lib/thumb/v7e-m+fp/hard\libc_nano.a(libc_a-freer.o)
__muldf3                                          C:/Program Files (x86)/Arm/GNU Toolchain mingw-w64-i686-arm-none-eabi/bin/../lib/gcc/arm-none-eabi/15.2.1/thumb/v7e-m+fp/hard\libgcc.a(_arm_muldivdf3.o)
                                                  C:/Program Files (x86)/Arm/GNU Toolchain mingw-w64-i686-arm-none-eabi/bin/../lib/gcc/arm-none-eabi/15.2.1/thumb/v7e-m+fp/hard\libgcc.a(_arm_muldf3.o)
__nedf2                                           C:/Program Files (x86)/Arm/GNU Toolchain mingw-w64-i686-arm-none-eabi/bin/../lib/gcc/arm-none-eabi/15.2.1/thumb/v7e-m+fp/hard\libgcc.a(_arm_cmpdf2.o)
__preinit_array_end                               C:/Program Files (x86)/Arm/GNU Toolchain mingw-w64-i686-arm-none-eabi/bin/../lib/gcc/arm-none-eabi/15.2.1/../../../../arm-none-eabi/lib/thumb/v7e-m+fp/hard\libc_nano.a(libc_a-init.o)
__preinit_array_start                             C:/Program Files (x86)/Arm/GNU Toolchain mingw-w64-i686-arm-none-eabi/bin/../lib/gcc/arm-none-eabi/15.2.1/../../../../arm-none-eabi/lib/thumb/v7e-m+fp/hard\libc_nano.a(libc_a-init.o)
__register_frame_info                             C:/Program Files (x86)/Arm/GNU Toolchain mingw-w64-i686-arm-none-eabi/bin/../lib/gcc/arm-none-eabi/15.2.1/thumb/v7e-m+fp/hard/crtbegin.o
__retarget_lock_acquire                           C:/Program Files (x86)/Arm/GNU Toolchain mingw-w64-i686-arm-none-eabi/bin/../lib/gcc/arm-none-eabi/15.2.1/../../../../arm-none-eabi/lib/thumb/v7e-m+fp/hard\libc_nano.a(libc_a-lock.o)
__retarget_lock_acquire_recursive                 C:/Program Files (x86)/Arm/GNU Toolchain mingw-w64-i686-arm-none-eabi/bin/../lib/gcc/arm-none-eabi/15.2.1/../../../../arm-none-eabi/lib/thumb/v7e-m+fp/hard\libc_nano.a(libc_a-lock.o)
                                                  C:/Program Files (x86)/Arm/GNU Toolchain mingw-w64-i686-arm-none-eabi/bin/../lib/gcc/arm-none-eabi/15.2.1/../../../../arm-none-eabi/lib/thumb/v7e-m+fp/hard\libc_nano.a(libc_a-fflush.o)
                                                  C:/Program Files (x86)/Arm/GNU Toolchain mingw-w64-i686-arm-none-eabi/bin/../lib/gcc/arm-none-eabi/15.2.1/../../../../arm-none-eabi/lib/thumb/v7e-m+fp/hard\libc_nano.a(libc_a-nano-vfprintf.o)
                                                  C:/Program Files (x86)/Arm/GNU Toolchain mingw-w64-i686-arm-none-eabi/bin/../lib/gcc/arm-none-eabi/15.2.1/../../../../arm-none-eabi/lib/thumb/v7e-m+fp/hard\libc_nano.a(libc_a-mlock.o)
                                                  C:/Program Files (x86)/Arm/GNU Toolchain mingw-w64-i686-arm-none-eabi/bin/../lib/gcc/arm-none-eabi/15.2.1/../../../../arm-none-eabi/lib/thumb/v7e-m+fp/hard\libc_nano.a(libc_a-puts.o)
                                                  C:/Program Files (x86)/Arm/GNU Toolchain mingw-w64-i686-arm-none-eabi/bin/../lib/gcc/arm-none-eabi/15.2.1/../../../../arm-none-eabi/lib/thumb/v7e-m+fp/hard\libc_nano.a(libc_a-findfp.o)
__retarget_lock_close                             C:/Program Files (x86)/Arm/GNU Toolchain mingw-w64-i686-arm-none-eabi/bin/../lib/gcc/arm-none-eabi/15.2.1/../../../../arm-none-eabi/lib/thumb/v7e-m+fp/hard\libc_nano.a(libc_a-lock.o)
__retarget_lock_close_recursive                   C:/Program Files (x86)/Arm/GNU Toolchain mingw-w64-i686-arm-none-eabi/bin/../lib/gcc/arm-none-eabi/15.2.1/../../../../arm-none-eabi/lib/thumb/v7e-m+fp/hard\libc_nano.a(libc_a-lock.o)
__retarget_lock_init                              C:/Program Files (x86)/Arm/GNU Toolchain mingw-w64-i686-arm-none-eabi/bin/../lib/gcc/arm-none-eabi/15.2.1/../../../../arm-none-eabi/lib/thumb/v7e-m+fp/hard\libc_nano.a(libc_a-lock.o)
__retarget_lock_init_recursive                    C:/Program Files (x86)/Arm/GNU Toolchain mingw-w64-i686-arm-none-eabi/bin/../lib/gcc/arm-none-eabi/15.2.1/../../../../arm-none-eabi/lib/thumb/v7e-m+fp/hard\libc_nano.a(libc_a-lock.o)
                                                  C:/Program Files (x86)/Arm/GNU Toolchain mingw-w64-i686-arm-none-eabi/bin/../lib/gcc/arm-none-eabi/15.2.1/../../../../arm-none-eabi/lib/thumb/v7e-m+fp/hard\libc_nano.a(libc_a-findfp.o)
__retarget_lock_release                           C:/Program Files (x86)/Arm/GNU Toolchain mingw-w64-i686-arm-none-eabi/bin/../lib/gcc/arm-none-eabi/15.2.1/../../../../arm-none-eabi/lib/thumb/v7e-m+fp/hard\libc_nano.a(libc_a-lock.o)
__retarget_lock_release_recursive                 C:/Program Files (x86)/Arm/GNU Toolchain mingw-w64-i686-arm-none-eabi/bin/../lib/gcc/arm-none-eabi/15.2.1/../../../../arm-none-eabi/lib/thumb/v7e-m+fp/hard\libc_nano.a(libc_a-lock.o)
                                                  C:/Program Files (x86)/Arm/GNU Toolchain mingw-w64-i686-arm-none-eabi/bin/../lib/gcc/arm-none-eabi/15.2.1/../../../../arm-none-eabi/lib/thumb/v7e-m+fp/hard\libc_nano.a(libc_a-fflush.o)
                                                  C:/Program Files (x86)/Arm/GNU Toolchain mingw-w64-i686-arm-none-eabi/bin/../lib/gcc/arm-none-eabi/15.2.1/../../../../arm-none-eabi/lib/thumb/v7e-m+fp/hard\libc_nano.a(libc_a-nano-vfprintf.o)
                                                  C:/Program Files (x86)/Arm/GNU Toolchain mingw-w64-i686-arm-none-eabi/bin/../lib/gcc/arm-none-eabi/15.2.1/../../../../arm-none-eabi/lib/thumb/v7e-m+fp/hard\libc_nano.a(libc_a-mlock.o)
                                                  C:/Program Files (x86)/Arm/GNU Toolchain mingw-w64-i686-arm-none-eabi/bin/../lib/gcc/arm-none-eabi/15.2.1/../../../../arm-none-eabi/lib/thumb/v7e-m+fp/hard\libc_nano.a(libc_a-puts.o)
                                                  C:/Program Files (x86)/Arm/GNU Toolchain mingw-w64-i686-arm-none-eabi/bin/../lib/gcc/arm-none-eabi/15.2.1/../../../../arm-none-eabi/lib/thumb/v7e-m+fp/hard\libc_nano.a(libc_a-findfp.o)
__retarget_lock_try_acquire                       C:/Program Files (x86)/Arm/GNU Toolchain mingw-w64-i686-arm-none-eabi/bin/../lib/gcc/arm-none-eabi/15.2.1/../../../../arm-none-eabi/lib/thumb/v7e-m+fp/hard\libc_nano.a(libc_a-lock.o)
__retarget_lock_try_acquire_recursive             C:/Program Files (x86)/Arm/GNU Toolchain mingw-w64-i686-arm-none-eabi/bin/../lib/gcc/arm-none-eabi/15.2.1/../../../../arm-none-eabi/lib/thumb/v7e-m+fp/hard\libc_nano.a(libc_a-lock.o)
__sclose                                          C:/Program Files (x86)/Arm/GNU Toolchain mingw-w64-i686-arm-none-eabi/bin/../lib/gcc/arm-none-eabi/15.2.1/../../../../arm-none-eabi/lib/thumb/v7e-m+fp/hard\libc_nano.a(libc_a-stdio.o)
                                                  C:/Program Files (x86)/Arm/GNU Toolchain mingw-w64-i686-arm-none-eabi/bin/../lib/gcc/arm-none-eabi/15.2.1/../../../../arm-none-eabi/lib/thumb/v7e-m+fp/hard\libc_nano.a(libc_a-findfp.o)
__seofread                                        C:/Program Files (x86)/Arm/GNU Toolchain mingw-w64-i686-arm-none-eabi/bin/../lib/gcc/arm-none-eabi/15.2.1/../../../../arm-none-eabi/lib/thumb/v7e-m+fp/hard\libc_nano.a(libc_a-stdio.o)
__sf                                              C:/Program Files (x86)/Arm/GNU Toolchain mingw-w64-i686-arm-none-eabi/bin/../lib/gcc/arm-none-eabi/15.2.1/../../../../arm-none-eabi/lib/thumb/v7e-m+fp/hard\libc_nano.a(libc_a-findfp.o)
                                                  C:/Program Files (x86)/Arm/GNU Toolchain mingw-w64-i686-arm-none-eabi/bin/../lib/gcc/arm-none-eabi/15.2.1/../../../../arm-none-eabi/lib/thumb/v7e-m+fp/hard\libc_nano.a(libc_a-impure.o)
__sflush_r                                        C:/Program Files (x86)/Arm/GNU Toolchain mingw-w64-i686-arm-none-eabi/bin/../lib/gcc/arm-none-eabi/15.2.1/../../../../arm-none-eabi/lib/thumb/v7e-m+fp/hard\libc_nano.a(libc_a-fflush.o)
__sfp                                             C:/Program Files (x86)/Arm/GNU Toolchain mingw-w64-i686-arm-none-eabi/bin/../lib/gcc/arm-none-eabi/15.2.1/../../../../arm-none-eabi/lib/thumb/v7e-m+fp/hard\libc_nano.a(libc_a-findfp.o)
__sfp_lock_acquire                                C:/Program Files (x86)/Arm/GNU Toolchain mingw-w64-i686-arm-none-eabi/bin/../lib/gcc/arm-none-eabi/15.2.1/../../../../arm-none-eabi/lib/thumb/v7e-m+fp/hard\libc_nano.a(libc_a-findfp.o)
__sfp_lock_release                                C:/Program Files (x86)/Arm/GNU Toolchain mingw-w64-i686-arm-none-eabi/bin/../lib/gcc/arm-none-eabi/15.2.1/../../../../arm-none-eabi/lib/thumb/v7e-m+fp/hard\libc_nano.a(libc_a-findfp.o)
__sfputs_r                                        C:/Program Files (x86)/Arm/GNU Toolchain mingw-w64-i686-arm-none-eabi/bin/../lib/gcc/arm-none-eabi/15.2.1/../../../../arm-none-eabi/lib/thumb/v7e-m+fp/hard\libc_nano.a(libc_a-nano-vfprintf.o)
__sfvwrite_r                                      C:/Program Files (x86)/Arm/GNU Toolchain mingw-w64-i686-arm-none-eabi/bin/../lib/gcc/arm-none-eabi/15.2.1/../../../../arm-none-eabi/lib/thumb/v7e-m+fp/hard\libc_nano.a(libc_a-fvwrite.o)
                                                  C:/Program Files (x86)/Arm/GNU Toolchain mingw-w64-i686-arm-none-eabi/bin/../lib/gcc/arm-none-eabi/15.2.1/../../../../arm-none-eabi/lib/thumb/v7e-m+fp/hard\libc_nano.a(libc_a-nano-vfprintf.o)
__sglue                                           C:/Program Files (x86)/Arm/GNU Toolchain mingw-w64-i686-arm-none-eabi/bin/../lib/gcc/arm-none-eabi/15.2.1/../../../../arm-none-eabi/lib/thumb/v7e-m+fp/hard\libc_nano.a(libc_a-findfp.o)
                                                  C:/Program Files (x86)/Arm/GNU Toolchain mingw-w64-i686-arm-none-eabi/bin/../lib/gcc/arm-none-eabi/15.2.1/../../../../arm-none-eabi/lib/thumb/v7e-m+fp/hard\libc_nano.a(libc_a-fflush.o)
__sinit                                           C:/Program Files (x86)/Arm/GNU Toolchain mingw-w64-i686-arm-none-eabi/bin/../lib/gcc/arm-none-eabi/15.2.1/../../../../arm-none-eabi/lib/thumb/v7e-m+fp/hard\libc_nano.a(libc_a-findfp.o)
                                                  C:/Program Files (x86)/Arm/GNU Toolchain mingw-w64-i686-arm-none-eabi/bin/../lib/gcc/arm-none-eabi/15.2.1/../../../../arm-none-eabi/lib/thumb/v7e-m+fp/hard\libc_nano.a(libc_a-fflush.o)
                                                  C:/Program Files (x86)/Arm/GNU Toolchain mingw-w64-i686-arm-none-eabi/bin/../lib/gcc/arm-none-eabi/15.2.1/../../../../arm-none-eabi/lib/thumb/v7e-m+fp/hard\libc_nano.a(libc_a-nano-vfprintf.o)
                                                  C:/Program Files (x86)/Arm/GNU Toolchain mingw-w64-i686-arm-none-eabi/bin/../lib/gcc/arm-none-eabi/15.2.1/../../../../arm-none-eabi/lib/thumb/v7e-m+fp/hard\libc_nano.a(libc_a-wsetup.o)
                                                  C:/Program Files (x86)/Arm/GNU Toolchain mingw-w64-i686-arm-none-eabi/bin/../lib/gcc/arm-none-eabi/15.2.1/../../../../arm-none-eabi/lib/thumb/v7e-m+fp/hard\libc_nano.a(libc_a-wbuf.o)
                                                  C:/Program Files (x86)/Arm/GNU Toolchain mingw-w64-i686-arm-none-eabi/bin/../lib/gcc/arm-none-eabi/15.2.1/../../../../arm-none-eabi/lib/thumb/v7e-m+fp/hard\libc_nano.a(libc_a-puts.o)
__smakebuf_r                                      C:/Program Files (x86)/Arm/GNU Toolchain mingw-w64-i686-arm-none-eabi/bin/../lib/gcc/arm-none-eabi/15.2.1/../../../../arm-none-eabi/lib/thumb/v7e-m+fp/hard\libc_nano.a(libc_a-makebuf.o)
                                                  C:/Program Files (x86)/Arm/GNU Toolchain mingw-w64-i686-arm-none-eabi/bin/../lib/gcc/arm-none-eabi/15.2.1/../../../../arm-none-eabi/lib/thumb/v7e-m+fp/hard\libc_nano.a(libc_a-wsetup.o)
__sprint_r                                        C:/Program Files (x86)/Arm/GNU Toolchain mingw-w64-i686-arm-none-eabi/bin/../lib/gcc/arm-none-eabi/15.2.1/../../../../arm-none-eabi/lib/thumb/v7e-m+fp/hard\libc_nano.a(libc_a-nano-vfprintf.o)
__sread                                           C:/Program Files (x86)/Arm/GNU Toolchain mingw-w64-i686-arm-none-eabi/bin/../lib/gcc/arm-none-eabi/15.2.1/../../../../arm-none-eabi/lib/thumb/v7e-m+fp/hard\libc_nano.a(libc_a-stdio.o)
                                                  C:/Program Files (x86)/Arm/GNU Toolchain mingw-w64-i686-arm-none-eabi/bin/../lib/gcc/arm-none-eabi/15.2.1/../../../../arm-none-eabi/lib/thumb/v7e-m+fp/hard\libc_nano.a(libc_a-findfp.o)
__sseek                                           C:/Program Files (x86)/Arm/GNU Toolchain mingw-w64-i686-arm-none-eabi/bin/../lib/gcc/arm-none-eabi/15.2.1/../../../../arm-none-eabi/lib/thumb/v7e-m+fp/hard\libc_nano.a(libc_a-stdio.o)
                                                  C:/Program Files (x86)/Arm/GNU Toolchain mingw-w64-i686-arm-none-eabi/bin/../lib/gcc/arm-none-eabi/15.2.1/../../../../arm-none-eabi/lib/thumb/v7e-m+fp/hard\libc_nano.a(libc_a-findfp.o)
__stack                                           C:/Program Files (x86)/Arm/GNU Toolchain mingw-w64-i686-arm-none-eabi/bin/../lib/gcc/arm-none-eabi/15.2.1/../../../../arm-none-eabi/lib/thumb/v7e-m+fp/hard/crt0.o
__stdio_exit_handler                              C:/Program Files (x86)/Arm/GNU Toolchain mingw-w64-i686-arm-none-eabi/bin/../lib/gcc/arm-none-eabi/15.2.1/../../../../arm-none-eabi/lib/thumb/v7e-m+fp/hard\libc_nano.a(libc_a-findfp.o)
                                                  C:/Program Files (x86)/Arm/GNU Toolchain mingw-w64-i686-arm-none-eabi/bin/../lib/gcc/arm-none-eabi/15.2.1/../../../../arm-none-eabi/lib/thumb/v7e-m+fp/hard\libc_nano.a(libc_a-exit.o)
__subdf3                                          C:/Program Files (x86)/Arm/GNU Toolchain mingw-w64-i686-arm-none-eabi/bin/../lib/gcc/arm-none-eabi/15.2.1/thumb/v7e-m+fp/hard\libgcc.a(_arm_addsubdf3.o)
__swbuf                                           C:/Program Files (x86)/Arm/GNU Toolchain mingw-w64-i686-arm-none-eabi/bin/../lib/gcc/arm-none-eabi/15.2.1/../../../../arm-none-eabi/lib/thumb/v7e-m+fp/hard\libc_nano.a(libc_a-wbuf.o)
__swbuf_r                                         C:/Program Files (x86)/Arm/GNU Toolchain mingw-w64-i686-arm-none-eabi/bin/../lib/gcc/arm-none-eabi/15.2.1/../../../../arm-none-eabi/lib/thumb/v7e-m+fp/hard\libc_nano.a(libc_a-wbuf.o)
                                                  C:/Program Files (x86)/Arm/GNU Toolchain mingw-w64-i686-arm-none-eabi/bin/../lib/gcc/arm-none-eabi/15.2.1/../../../../arm-none-eabi/lib/thumb/v7e-m+fp/hard\libc_nano.a(libc_a-nano-vfprintf.o)
                                                  C:/Program Files (x86)/Arm/GNU Toolchain mingw-w64-i686-arm-none-eabi/bin/../lib/gcc/arm-none-eabi/15.2.1/../../../../arm-none-eabi/lib/thumb/v7e-m+fp/hard\libc_nano.a(libc_a-puts.o)
__swhatbuf_r                                      C:/Program Files (x86)/Arm/GNU Toolchain mingw-w64-i686-arm-none-eabi/bin/../lib/gcc/arm-none-eabi/15.2.1/../../../../arm-none-eabi/lib/thumb/v7e-m+fp/hard\libc_nano.a(libc_a-makebuf.o)
__swrite                                          C:/Program Files (x86)/Arm/GNU Toolchain mingw-w64-i686-arm-none-eabi/bin/../lib/gcc/arm-none-eabi/15.2.1/../../../../arm-none-eabi/lib/thumb/v7e-m+fp/hard\libc_nano.a(libc_a-stdio.o)
                                                  C:/Program Files (x86)/Arm/GNU Toolchain mingw-w64-i686-arm-none-eabi/bin/../lib/gcc/arm-none-eabi/15.2.1/../../../../arm-none-eabi/lib/thumb/v7e-m+fp/hard\libc_nano.a(libc_a-findfp.o)
__swsetup_r                                       C:/Program Files (x86)/Arm/GNU Toolchain mingw-w64-i686-arm-none-eabi/bin/../lib/gcc/arm-none-eabi/15.2.1/../../../../arm-none-eabi/lib/thumb/v7e-m+fp/hard\libc_nano.a(libc_a-wsetup.o)
                                                  C:/Program Files (x86)/Arm/GNU Toolchain mingw-w64-i686-arm-none-eabi/bin/../lib/gcc/arm-none-eabi/15.2.1/../../../../arm-none-eabi/lib/thumb/v7e-m+fp/hard\libc_nano.a(libc_a-fvwrite.o)
                                                  C:/Program Files (x86)/Arm/GNU Toolchain mingw-w64-i686-arm-none-eabi/bin/../lib/gcc/arm-none-eabi/15.2.1/../../../../arm-none-eabi/lib/thumb/v7e-m+fp/hard\libc_nano.a(libc_a-nano-vfprintf.o)
                                                  C:/Program Files (x86)/Arm/GNU Toolchain mingw-w64-i686-arm-none-eabi/bin/../lib/gcc/arm-none-eabi/15.2.1/../../../../arm-none-eabi/lib/thumb/v7e-m+fp/hard\libc_nano.a(libc_a-wbuf.o)
                                                  C:/Program Files (x86)/Arm/GNU Toolchain mingw-w64-i686-arm-none-eabi/bin/../lib/gcc/arm-none-eabi/15.2.1/../../../../arm-none-eabi/lib/thumb/v7e-m+fp/hard\libc_nano.a(libc_a-puts.o)
__truncdfsf2                                      C:/Program Files (x86)/Arm/GNU Toolchain mingw-w64-i686-arm-none-eabi/bin/../lib/gcc/arm-none-eabi/15.2.1/thumb/v7e-m+fp/hard\libgcc.a(_arm_truncdfsf2.o)
__unorddf2                                        C:/Program Files (x86)/Arm/GNU Toolchain mingw-w64-i686-arm-none-eabi/bin/../lib/gcc/arm-none-eabi/15.2.1/thumb/v7e-m+fp/hard\libgcc.a(_arm_unorddf2.o)
_close                                            build/syscalls.o
                                                  C:/Program Files (x86)/Arm/GNU Toolchain mingw-w64-i686-arm-none-eabi/bin/../lib/gcc/arm-none-eabi/15.2.1/../../../../arm-none-eabi/lib/thumb/v7e-m+fp/hard\libc_nano.a(libc_a-closer.o)
_close_r                                          C:/Program Files (x86)/Arm/GNU Toolchain mingw-w64-i686-arm-none-eabi/bin/../lib/gcc/arm-none-eabi/15.2.1/../../../../arm-none-eabi/lib/thumb/v7e-m+fp/hard\libc_nano.a(libc_a-closer.o)
                                                  C:/Program Files (x86)/Arm/GNU Toolchain mingw-w64-i686-arm-none-eabi/bin/../lib/gcc/arm-none-eabi/15.2.1/../../../../arm-none-eabi/lib/thumb/v7e-m+fp/hard\libc_nano.a(libc_a-stdio.o)
_ebss                                             build/startup_at32f403a_407.o
_edata                                            build/startup_at32f403a_407.o
_end                                              build/sysmem.o
_estack                                           build/startup_at32f403a_407.o
                                                  build/sysmem.o
_execve                                           build/syscalls.o
_exit                                             build/syscalls.o
                                                  C:/Program Files (x86)/Arm/GNU Toolchain mingw-w64-i686-arm-none-eabi/bin/../lib/gcc/arm-none-eabi/15.2.1/../../../../arm-none-eabi/lib/thumb/v7e-m+fp/hard\libc_nano.a(libc_a-exit.o)
_fflush_r                                         C:/Program Files (x86)/Arm/GNU Toolchain mingw-w64-i686-arm-none-eabi/bin/../lib/gcc/arm-none-eabi/15.2.1/../../../../arm-none-eabi/lib/thumb/v7e-m+fp/hard\libc_nano.a(libc_a-fflush.o)
                                                  C:/Program Files (x86)/Arm/GNU Toolchain mingw-w64-i686-arm-none-eabi/bin/../lib/gcc/arm-none-eabi/15.2.1/../../../../arm-none-eabi/lib/thumb/v7e-m+fp/hard\libc_nano.a(libc_a-fvwrite.o)
                                                  C:/Program Files (x86)/Arm/GNU Toolchain mingw-w64-i686-arm-none-eabi/bin/../lib/gcc/arm-none-eabi/15.2.1/../../../../arm-none-eabi/lib/thumb/v7e-m+fp/hard\libc_nano.a(libc_a-wbuf.o)
                                                  C:/Program Files (x86)/Arm/GNU Toolchain mingw-w64-i686-arm-none-eabi/bin/../lib/gcc/arm-none-eabi/15.2.1/../../../../arm-none-eabi/lib/thumb/v7e-m+fp/hard\libc_nano.a(libc_a-findfp.o)
_fini                                             C:/Program Files (x86)/Arm/GNU Toolchain mingw-w64-i686-arm-none-eabi/bin/../lib/gcc/arm-none-eabi/15.2.1/thumb/v7e-m+fp/hard/crti.o
_fork                                             build/syscalls.o
_free_r                                           C:/Program Files (x86)/Arm/GNU Toolchain mingw-w64-i686-arm-none-eabi/bin/../lib/gcc/arm-none-eabi/15.2.1/../../../../arm-none-eabi/lib/thumb/v7e-m+fp/hard\libc_nano.a(libc_a-freer.o)
                                                  C:/Program Files (x86)/Arm/GNU Toolchain mingw-w64-i686-arm-none-eabi/bin/../lib/gcc/arm-none-eabi/15.2.1/../../../../arm-none-eabi/lib/thumb/v7e-m+fp/hard\libc_nano.a(libc_a-reallocr.o)
                                                  C:/Program Files (x86)/Arm/GNU Toolchain mingw-w64-i686-arm-none-eabi/bin/../lib/gcc/arm-none-eabi/15.2.1/../../../../arm-none-eabi/lib/thumb/v7e-m+fp/hard\libc_nano.a(libc_a-fvwrite.o)
                                                  C:/Program Files (x86)/Arm/GNU Toolchain mingw-w64-i686-arm-none-eabi/bin/../lib/gcc/arm-none-eabi/15.2.1/../../../../arm-none-eabi/lib/thumb/v7e-m+fp/hard\libc_nano.a(libc_a-fflush.o)
                                                  C:/Program Files (x86)/Arm/GNU Toolchain mingw-w64-i686-arm-none-eabi/bin/../lib/gcc/arm-none-eabi/15.2.1/../../../../arm-none-eabi/lib/thumb/v7e-m+fp/hard\libc_nano.a(libc_a-reent.o)
                                                  C:/Program Files (x86)/Arm/GNU Toolchain mingw-w64-i686-arm-none-eabi/bin/../lib/gcc/arm-none-eabi/15.2.1/../../../../arm-none-eabi/lib/thumb/v7e-m+fp/hard\libc_nano.a(libc_a-wsetup.o)
_fstat                                            build/syscalls.o
                                                  C:/Program Files (x86)/Arm/GNU Toolchain mingw-w64-i686-arm-none-eabi/bin/../lib/gcc/arm-none-eabi/15.2.1/../../../../arm-none-eabi/lib/thumb/v7e-m+fp/hard\libc_nano.a(libc_a-fstatr.o)
_fstat_r                                          C:/Program Files (x86)/Arm/GNU Toolchain mingw-w64-i686-arm-none-eabi/bin/../lib/gcc/arm-none-eabi/15.2.1/../../../../arm-none-eabi/lib/thumb/v7e-m+fp/hard\libc_nano.a(libc_a-fstatr.o)
                                                  C:/Program Files (x86)/Arm/GNU Toolchain mingw-w64-i686-arm-none-eabi/bin/../lib/gcc/arm-none-eabi/15.2.1/../../../../arm-none-eabi/lib/thumb/v7e-m+fp/hard\libc_nano.a(libc_a-makebuf.o)
_fwalk_sglue                                      C:/Program Files (x86)/Arm/GNU Toolchain mingw-w64-i686-arm-none-eabi/bin/../lib/gcc/arm-none-eabi/15.2.1/../../../../arm-none-eabi/lib/thumb/v7e-m+fp/hard\libc_nano.a(libc_a-fwalk.o)
                                                  C:/Program Files (x86)/Arm/GNU Toolchain mingw-w64-i686-arm-none-eabi/bin/../lib/gcc/arm-none-eabi/15.2.1/../../../../arm-none-eabi/lib/thumb/v7e-m+fp/hard\libc_nano.a(libc_a-fflush.o)
                                                  C:/Program Files (x86)/Arm/GNU Toolchain mingw-w64-i686-arm-none-eabi/bin/../lib/gcc/arm-none-eabi/15.2.1/../../../../arm-none-eabi/lib/thumb/v7e-m+fp/hard\libc_nano.a(libc_a-findfp.o)
_getpid                                           build/syscalls.o
_impure_data                                      C:/Program Files (x86)/Arm/GNU Toolchain mingw-w64-i686-arm-none-eabi/bin/../lib/gcc/arm-none-eabi/15.2.1/../../../../arm-none-eabi/lib/thumb/v7e-m+fp/hard\libc_nano.a(libc_a-impure.o)
                                                  C:/Program Files (x86)/Arm/GNU Toolchain mingw-w64-i686-arm-none-eabi/bin/../lib/gcc/arm-none-eabi/15.2.1/../../../../arm-none-eabi/lib/thumb/v7e-m+fp/hard\libc_nano.a(libc_a-fflush.o)
                                                  C:/Program Files (x86)/Arm/GNU Toolchain mingw-w64-i686-arm-none-eabi/bin/../lib/gcc/arm-none-eabi/15.2.1/../../../../arm-none-eabi/lib/thumb/v7e-m+fp/hard\libc_nano.a(libc_a-findfp.o)
_impure_ptr                                       C:/Program Files (x86)/Arm/GNU Toolchain mingw-w64-i686-arm-none-eabi/bin/../lib/gcc/arm-none-eabi/15.2.1/../../../../arm-none-eabi/lib/thumb/v7e-m+fp/hard\libc_nano.a(libc_a-impure.o)
                                                  C:/Program Files (x86)/Arm/GNU Toolchain mingw-w64-i686-arm-none-eabi/bin/../lib/gcc/arm-none-eabi/15.2.1/../../../../arm-none-eabi/lib/thumb/v7e-m+fp/hard\libc_nano.a(libc_a-fflush.o)
                                                  C:/Program Files (x86)/Arm/GNU Toolchain mingw-w64-i686-arm-none-eabi/bin/../lib/gcc/arm-none-eabi/15.2.1/../../../../arm-none-eabi/lib/thumb/v7e-m+fp/hard\libc_nano.a(libc_a-nano-vfprintf.o)
                                                  C:/Program Files (x86)/Arm/GNU Toolchain mingw-w64-i686-arm-none-eabi/bin/../lib/gcc/arm-none-eabi/15.2.1/../../../../arm-none-eabi/lib/thumb/v7e-m+fp/hard\libc_nano.a(libc_a-errno.o)
                                                  C:/Program Files (x86)/Arm/GNU Toolchain mingw-w64-i686-arm-none-eabi/bin/../lib/gcc/arm-none-eabi/15.2.1/../../../../arm-none-eabi/lib/thumb/v7e-m+fp/hard\libc_nano.a(libc_a-reent.o)
                                                  C:/Program Files (x86)/Arm/GNU Toolchain mingw-w64-i686-arm-none-eabi/bin/../lib/gcc/arm-none-eabi/15.2.1/../../../../arm-none-eabi/lib/thumb/v7e-m+fp/hard\libc_nano.a(libc_a-wsetup.o)
                                                  C:/Program Files (x86)/Arm/GNU Toolchain mingw-w64-i686-arm-none-eabi/bin/../lib/gcc/arm-none-eabi/15.2.1/../../../../arm-none-eabi/lib/thumb/v7e-m+fp/hard\libc_nano.a(libc_a-wbuf.o)
                                                  C:/Program Files (x86)/Arm/GNU Toolchain mingw-w64-i686-arm-none-eabi/bin/../lib/gcc/arm-none-eabi/15.2.1/../../../../arm-none-eabi/lib/thumb/v7e-m+fp/hard\libc_nano.a(libc_a-puts.o)
                                                  C:/Program Files (x86)/Arm/GNU Toolchain mingw-w64-i686-arm-none-eabi/bin/../lib/gcc/arm-none-eabi/15.2.1/../../../../arm-none-eabi/lib/thumb/v7e-m+fp/hard\libc_nano.a(libc_a-printf.o)
_init                                             C:/Program Files (x86)/Arm/GNU Toolchain mingw-w64-i686-arm-none-eabi/bin/../lib/gcc/arm-none-eabi/15.2.1/thumb/v7e-m+fp/hard/crti.o
                                                  C:/Program Files (x86)/Arm/GNU Toolchain mingw-w64-i686-arm-none-eabi/bin/../lib/gcc/arm-none-eabi/15.2.1/../../../../arm-none-eabi/lib/thumb/v7e-m+fp/hard\libc_nano.a(libc_a-init.o)
_iprintf_r                                        C:/Program Files (x86)/Arm/GNU Toolchain mingw-w64-i686-arm-none-eabi/bin/../lib/gcc/arm-none-eabi/15.2.1/../../../../arm-none-eabi/lib/thumb/v7e-m+fp/hard\libc_nano.a(libc_a-printf.o)
_isatty                                           build/syscalls.o
                                                  C:/Program Files (x86)/Arm/GNU Toolchain mingw-w64-i686-arm-none-eabi/bin/../lib/gcc/arm-none-eabi/15.2.1/../../../../arm-none-eabi/lib/thumb/v7e-m+fp/hard\libc_nano.a(libc_a-isattyr.o)
_isatty_r                                         C:/Program Files (x86)/Arm/GNU Toolchain mingw-w64-i686-arm-none-eabi/bin/../lib/gcc/arm-none-eabi/15.2.1/../../../../arm-none-eabi/lib/thumb/v7e-m+fp/hard\libc_nano.a(libc_a-isattyr.o)
                                                  C:/Program Files (x86)/Arm/GNU Toolchain mingw-w64-i686-arm-none-eabi/bin/../lib/gcc/arm-none-eabi/15.2.1/../../../../arm-none-eabi/lib/thumb/v7e-m+fp/hard\libc_nano.a(libc_a-makebuf.o)
_kill                                             build/syscalls.o
_link                                             build/syscalls.o
_lseek                                            build/syscalls.o
                                                  C:/Program Files (x86)/Arm/GNU Toolchain mingw-w64-i686-arm-none-eabi/bin/../lib/gcc/arm-none-eabi/15.2.1/../../../../arm-none-eabi/lib/thumb/v7e-m+fp/hard\libc_nano.a(libc_a-lseekr.o)
_lseek_r                                          C:/Program Files (x86)/Arm/GNU Toolchain mingw-w64-i686-arm-none-eabi/bin/../lib/gcc/arm-none-eabi/15.2.1/../../../../arm-none-eabi/lib/thumb/v7e-m+fp/hard\libc_nano.a(libc_a-lseekr.o)
                                                  C:/Program Files (x86)/Arm/GNU Toolchain mingw-w64-i686-arm-none-eabi/bin/../lib/gcc/arm-none-eabi/15.2.1/../../../../arm-none-eabi/lib/thumb/v7e-m+fp/hard\libc_nano.a(libc_a-stdio.o)
_mainCRTStartup                                   C:/Program Files (x86)/Arm/GNU Toolchain mingw-w64-i686-arm-none-eabi/bin/../lib/gcc/arm-none-eabi/15.2.1/../../../../arm-none-eabi/lib/thumb/v7e-m+fp/hard/crt0.o
_malloc_r                                         C:/Program Files (x86)/Arm/GNU Toolchain mingw-w64-i686-arm-none-eabi/bin/../lib/gcc/arm-none-eabi/15.2.1/../../../../arm-none-eabi/lib/thumb/v7e-m+fp/hard\libc_nano.a(libc_a-mallocr.o)
                                                  C:/Program Files (x86)/Arm/GNU Toolchain mingw-w64-i686-arm-none-eabi/bin/../lib/gcc/arm-none-eabi/15.2.1/../../../../arm-none-eabi/lib/thumb/v7e-m+fp/hard\libc_nano.a(libc_a-reallocr.o)
                                                  C:/Program Files (x86)/Arm/GNU Toolchain mingw-w64-i686-arm-none-eabi/bin/../lib/gcc/arm-none-eabi/15.2.1/../../../../arm-none-eabi/lib/thumb/v7e-m+fp/hard\libc_nano.a(libc_a-makebuf.o)
                                                  C:/Program Files (x86)/Arm/GNU Toolchain mingw-w64-i686-arm-none-eabi/bin/../lib/gcc/arm-none-eabi/15.2.1/../../../../arm-none-eabi/lib/thumb/v7e-m+fp/hard\libc_nano.a(libc_a-fvwrite.o)
                                                  C:/Program Files (x86)/Arm/GNU Toolchain mingw-w64-i686-arm-none-eabi/bin/../lib/gcc/arm-none-eabi/15.2.1/../../../../arm-none-eabi/lib/thumb/v7e-m+fp/hard\libc_nano.a(libc_a-findfp.o)
_malloc_usable_size_r                             C:/Program Files (x86)/Arm/GNU Toolchain mingw-w64-i686-arm-none-eabi/bin/../lib/gcc/arm-none-eabi/15.2.1/../../../../arm-none-eabi/lib/thumb/v7e-m+fp/hard\libc_nano.a(libc_a-msizer.o)
                                                  C:/Program Files (x86)/Arm/GNU Toolchain mingw-w64-i686-arm-none-eabi/bin/../lib/gcc/arm-none-eabi/15.2.1/../../../../arm-none-eabi/lib/thumb/v7e-m+fp/hard\libc_nano.a(libc_a-reallocr.o)
_open                                             build/syscalls.o
_printf_common                                    C:/Program Files (x86)/Arm/GNU Toolchain mingw-w64-i686-arm-none-eabi/bin/../lib/gcc/arm-none-eabi/15.2.1/../../../../arm-none-eabi/lib/thumb/v7e-m+fp/hard\libc_nano.a(libc_a-nano-vfprintf_i.o)
_printf_float                                     C:/Program Files (x86)/Arm/GNU Toolchain mingw-w64-i686-arm-none-eabi/bin/../lib/gcc/arm-none-eabi/15.2.1/../../../../arm-none-eabi/lib/thumb/v7e-m+fp/hard\libc_nano.a(libc_a-nano-vfprintf.o)
_printf_i                                         C:/Program Files (x86)/Arm/GNU Toolchain mingw-w64-i686-arm-none-eabi/bin/../lib/gcc/arm-none-eabi/15.2.1/../../../../arm-none-eabi/lib/thumb/v7e-m+fp/hard\libc_nano.a(libc_a-nano-vfprintf_i.o)
                                                  C:/Program Files (x86)/Arm/GNU Toolchain mingw-w64-i686-arm-none-eabi/bin/../lib/gcc/arm-none-eabi/15.2.1/../../../../arm-none-eabi/lib/thumb/v7e-m+fp/hard\libc_nano.a(libc_a-nano-vfprintf.o)
_printf_r                                         C:/Program Files (x86)/Arm/GNU Toolchain mingw-w64-i686-arm-none-eabi/bin/../lib/gcc/arm-none-eabi/15.2.1/../../../../arm-none-eabi/lib/thumb/v7e-m+fp/hard\libc_nano.a(libc_a-printf.o)
_puts_r                                           C:/Program Files (x86)/Arm/GNU Toolchain mingw-w64-i686-arm-none-eabi/bin/../lib/gcc/arm-none-eabi/15.2.1/../../../../arm-none-eabi/lib/thumb/v7e-m+fp/hard\libc_nano.a(libc_a-puts.o)
_read                                             build/syscalls.o
                                                  C:/Program Files (x86)/Arm/GNU Toolchain mingw-w64-i686-arm-none-eabi/bin/../lib/gcc/arm-none-eabi/15.2.1/../../../../arm-none-eabi/lib/thumb/v7e-m+fp/hard\libc_nano.a(libc_a-readr.o)
_read_r                                           C:/Program Files (x86)/Arm/GNU Toolchain mingw-w64-i686-arm-none-eabi/bin/../lib/gcc/arm-none-eabi/15.2.1/../../../../arm-none-eabi/lib/thumb/v7e-m+fp/hard\libc_nano.a(libc_a-readr.o)
                                                  C:/Program Files (x86)/Arm/GNU Toolchain mingw-w64-i686-arm-none-eabi/bin/../lib/gcc/arm-none-eabi/15.2.1/../../../../arm-none-eabi/lib/thumb/v7e-m+fp/hard\libc_nano.a(libc_a-stdio.o)
_realloc_r                                        C:/Program Files (x86)/Arm/GNU Toolchain mingw-w64-i686-arm-none-eabi/bin/../lib/gcc/arm-none-eabi/15.2.1/../../../../arm-none-eabi/lib/thumb/v7e-m+fp/hard\libc_nano.a(libc_a-reallocr.o)
                                                  C:/Program Files (x86)/Arm/GNU Toolchain mingw-w64-i686-arm-none-eabi/bin/../lib/gcc/arm-none-eabi/15.2.1/../../../../arm-none-eabi/lib/thumb/v7e-m+fp/hard\libc_nano.a(libc_a-fvwrite.o)
_reclaim_reent                                    C:/Program Files (x86)/Arm/GNU Toolchain mingw-w64-i686-arm-none-eabi/bin/../lib/gcc/arm-none-eabi/15.2.1/../../../../arm-none-eabi/lib/thumb/v7e-m+fp/hard\libc_nano.a(libc_a-reent.o)
_sbrk                                             build/sysmem.o
                                                  C:/Program Files (x86)/Arm/GNU Toolchain mingw-w64-i686-arm-none-eabi/bin/../lib/gcc/arm-none-eabi/15.2.1/../../../../arm-none-eabi/lib/thumb/v7e-m+fp/hard\libc_nano.a(libc_a-sbrkr.o)
_sbrk_r                                           C:/Program Files (x86)/Arm/GNU Toolchain mingw-w64-i686-arm-none-eabi/bin/../lib/gcc/arm-none-eabi/15.2.1/../../../../arm-none-eabi/lib/thumb/v7e-m+fp/hard\libc_nano.a(libc_a-sbrkr.o)
                                                  C:/Program Files (x86)/Arm/GNU Toolchain mingw-w64-i686-arm-none-eabi/bin/../lib/gcc/arm-none-eabi/15.2.1/../../../../arm-none-eabi/lib/thumb/v7e-m+fp/hard\libc_nano.a(libc_a-mallocr.o)
_sbss                                             build/startup_at32f403a_407.o
_sdata                                            build/startup_at32f403a_407.o
_sidata                                           build/startup_at32f403a_407.o
_stack_init                                       C:/Program Files (x86)/Arm/GNU Toolchain mingw-w64-i686-arm-none-eabi/bin/../lib/gcc/arm-none-eabi/15.2.1/../../../../arm-none-eabi/lib/thumb/v7e-m+fp/hard/crt0.o
_start                                            C:/Program Files (x86)/Arm/GNU Toolchain mingw-w64-i686-arm-none-eabi/bin/../lib/gcc/arm-none-eabi/15.2.1/../../../../arm-none-eabi/lib/thumb/v7e-m+fp/hard/crt0.o
_stat                                             build/syscalls.o
_times                                            build/syscalls.o
_unlink                                           build/syscalls.o
_vfiprintf_r                                      C:/Program Files (x86)/Arm/GNU Toolchain mingw-w64-i686-arm-none-eabi/bin/../lib/gcc/arm-none-eabi/15.2.1/../../../../arm-none-eabi/lib/thumb/v7e-m+fp/hard\libc_nano.a(libc_a-nano-vfprintf.o)
_vfprintf_r                                       C:/Program Files (x86)/Arm/GNU Toolchain mingw-w64-i686-arm-none-eabi/bin/../lib/gcc/arm-none-eabi/15.2.1/../../../../arm-none-eabi/lib/thumb/v7e-m+fp/hard\libc_nano.a(libc_a-nano-vfprintf.o)
                                                  C:/Program Files (x86)/Arm/GNU Toolchain mingw-w64-i686-arm-none-eabi/bin/../lib/gcc/arm-none-eabi/15.2.1/../../../../arm-none-eabi/lib/thumb/v7e-m+fp/hard\libc_nano.a(libc_a-printf.o)
_wait                                             build/syscalls.o
_write                                            build/syscalls.o
                                                  C:/Program Files (x86)/Arm/GNU Toolchain mingw-w64-i686-arm-none-eabi/bin/../lib/gcc/arm-none-eabi/15.2.1/../../../../arm-none-eabi/lib/thumb/v7e-m+fp/hard\libc_nano.a(libc_a-writer.o)
_write_r                                          C:/Program Files (x86)/Arm/GNU Toolchain mingw-w64-i686-arm-none-eabi/bin/../lib/gcc/arm-none-eabi/15.2.1/../../../../arm-none-eabi/lib/thumb/v7e-m+fp/hard\libc_nano.a(libc_a-writer.o)
                                                  C:/Program Files (x86)/Arm/GNU Toolchain mingw-w64-i686-arm-none-eabi/bin/../lib/gcc/arm-none-eabi/15.2.1/../../../../arm-none-eabi/lib/thumb/v7e-m+fp/hard\libc_nano.a(libc_a-stdio.o)
acc_calibration_mode_enable                       build/at32f403a_407_acc.o
                                                  build/wk_acc.o
acc_flag_clear                                    build/at32f403a_407_acc.o
acc_flag_get                                      build/at32f403a_407_acc.o
acc_hickcal_get                                   build/at32f403a_407_acc.o
acc_hicktrim_get                                  build/at32f403a_407_acc.o
acc_interrupt_enable                              build/at32f403a_407_acc.o
acc_interrupt_flag_get                            build/at32f403a_407_acc.o
acc_read_c1                                       build/at32f403a_407_acc.o
acc_read_c2                                       build/at32f403a_407_acc.o
acc_read_c3                                       build/at32f403a_407_acc.o
acc_step_set                                      build/at32f403a_407_acc.o
acc_write_c1                                      build/at32f403a_407_acc.o
                                                  build/wk_acc.o
acc_write_c2                                      build/at32f403a_407_acc.o
                                                  build/wk_acc.o
acc_write_c3                                      build/at32f403a_407_acc.o
                                                  build/wk_acc.o
adc_base_config                                   build/at32f403a_407_adc.o
                                                  build/wk_adc.o
adc_base_default_para_init                        build/at32f403a_407_adc.o
                                                  build/wk_adc.o
adc_calibration_init                              build/at32f403a_407_adc.o
                                                  build/wk_adc.o
adc_calibration_init_status_get                   build/at32f403a_407_adc.o
                                                  build/wk_adc.o
adc_calibration_start                             build/at32f403a_407_adc.o
                                                  build/wk_adc.o
adc_calibration_status_get                        build/at32f403a_407_adc.o
                                                  build/wk_adc.o
adc_combine_mode_select                           build/at32f403a_407_adc.o
                                                  build/wk_adc.o
adc_combine_ordinary_conversion_data_get          build/at32f403a_407_adc.o
adc_dma_mode_enable                               build/at32f403a_407_adc.o
                                                  build/wk_adc.o
adc_enable                                        build/at32f403a_407_adc.o
                                                  build/wk_adc.o
adc_flag_clear                                    build/at32f403a_407_adc.o
adc_flag_get                                      build/at32f403a_407_adc.o
adc_interrupt_enable                              build/at32f403a_407_adc.o
adc_interrupt_flag_get                            build/at32f403a_407_adc.o
adc_odt                                           build/main.o
                                                  build/freertos_app.o
adc_ordinary_channel_set                          build/at32f403a_407_adc.o
                                                  build/wk_adc.o
adc_ordinary_conversion_data_get                  build/at32f403a_407_adc.o
adc_ordinary_conversion_trigger_set               build/at32f403a_407_adc.o
                                                  build/wk_adc.o
adc_ordinary_part_count_set                       build/at32f403a_407_adc.o
adc_ordinary_part_mode_enable                     build/at32f403a_407_adc.o
                                                  build/wk_adc.o
adc_ordinary_software_trigger_enable              build/at32f403a_407_adc.o
                                                  build/freertos_app.o
adc_ordinary_software_trigger_status_get          build/at32f403a_407_adc.o
adc_preempt_auto_mode_enable                      build/at32f403a_407_adc.o
adc_preempt_channel_length_set                    build/at32f403a_407_adc.o
adc_preempt_channel_set                           build/at32f403a_407_adc.o
adc_preempt_conversion_data_get                   build/at32f403a_407_adc.o
adc_preempt_conversion_trigger_set                build/at32f403a_407_adc.o
adc_preempt_offset_value_set                      build/at32f403a_407_adc.o
adc_preempt_part_mode_enable                      build/at32f403a_407_adc.o
adc_preempt_software_trigger_enable               build/at32f403a_407_adc.o
adc_preempt_software_trigger_status_get           build/at32f403a_407_adc.o
adc_reset                                         build/at32f403a_407_adc.o
                                                  build/wk_adc.o
adc_tempersensor_vintrv_enable                    build/at32f403a_407_adc.o
adc_voltage_monitor_enable                        build/at32f403a_407_adc.o
adc_voltage_monitor_single_channel_select         build/at32f403a_407_adc.o
adc_voltage_monitor_threshold_value_set           build/at32f403a_407_adc.o
atan                                              C:/Program Files (x86)/Arm/GNU Toolchain mingw-w64-i686-arm-none-eabi/bin/../lib/gcc/arm-none-eabi/15.2.1/../../../../arm-none-eabi/lib/thumb/v7e-m+fp/hard\libm.a(libm_a-s_atan.o)
                                                  C:/Program Files (x86)/Arm/GNU Toolchain mingw-w64-i686-arm-none-eabi/bin/../lib/gcc/arm-none-eabi/15.2.1/../../../../arm-none-eabi/lib/thumb/v7e-m+fp/hard\libm.a(libm_a-e_atan2.o)
atan2                                             C:/Program Files (x86)/Arm/GNU Toolchain mingw-w64-i686-arm-none-eabi/bin/../lib/gcc/arm-none-eabi/15.2.1/../../../../arm-none-eabi/lib/thumb/v7e-m+fp/hard\libm.a(libm_a-w_atan2.o)
                                                  build/motor_foc.o
atexit                                            C:/Program Files (x86)/Arm/GNU Toolchain mingw-w64-i686-arm-none-eabi/bin/../lib/gcc/arm-none-eabi/15.2.1/../../../../arm-none-eabi/lib/thumb/v7e-m+fp/hard/crt0.o
can_base_init                                     build/at32f403a_407_can.o
                                                  build/wk_can.o
can_baudrate_default_para_init                    build/at32f403a_407_can.o
can_baudrate_set                                  build/at32f403a_407_can.o
                                                  build/wk_can.o
can_debug_transmission_prohibit                   build/at32f403a_407_can.o
can_default_para_init                             build/at32f403a_407_can.o
                                                  build/wk_can.o
can_doze_mode_enter                               build/at32f403a_407_can.o
can_doze_mode_exit                                build/at32f403a_407_can.o
can_error_type_record_get                         build/at32f403a_407_can.o
can_filter_default_para_init                      build/at32f403a_407_can.o
can_filter_init                                   build/at32f403a_407_can.o
                                                  build/wk_can.o
can_flag_clear                                    build/at32f403a_407_can.o
can_flag_get                                      build/at32f403a_407_can.o
can_interrupt_enable                              build/at32f403a_407_can.o
can_interrupt_flag_get                            build/at32f403a_407_can.o
can_message_receive                               build/at32f403a_407_can.o
can_message_transmit                              build/at32f403a_407_can.o
can_operating_mode_set                            build/at32f403a_407_can.o
can_receive_error_counter_get                     build/at32f403a_407_can.o
can_receive_fifo_release                          build/at32f403a_407_can.o
can_receive_message_pending_get                   build/at32f403a_407_can.o
can_reset                                         build/at32f403a_407_can.o
can_transmit_cancel                               build/at32f403a_407_can.o
can_transmit_error_counter_get                    build/at32f403a_407_can.o
can_transmit_status_get                           build/at32f403a_407_can.o
can_ttc_mode_enable                               build/at32f403a_407_can.o
cdc_class_connection_changed                      build/usb_cdc.o
cdc_class_data_received                           build/usb_cdc.o
cdc_class_handler                                 build/cdc_class.o
                                                  build/usb_app.o
cdc_class_set_control_line_state                  build/usb_cdc.o
cdc_class_set_line_coding                         build/usb_cdc.o
cdc_desc_handler                                  build/cdc_desc.o
                                                  build/usb_app.o
cdc_dev                                           build/usb_cdc.o
                                                  build/freertos_app.o
cdc_init                                          build/usb_cdc.o
cdc_is_connected                                  build/usb_cdc.o
cdc_process                                       build/usb_cdc.o
cdc_receive_data                                  build/usb_cdc.o
cdc_send_data                                     build/usb_cdc.o
cdc_struct                                        build/cdc_class.o
cia402_get_control_mode                           build/can_cia402.o
cia402_get_state                                  build/can_cia402.o
                                                  build/motor_control.o
cia402_get_status_word                            build/can_cia402.o
cia402_init                                       build/can_cia402.o
                                                  build/motor_control.o
cia402_process                                    build/can_cia402.o
                                                  build/motor_control.o
cia402_process_state_machine                      build/can_cia402.o
cia402_set_control_mode                           build/can_cia402.o
cia402_set_control_word                           build/can_cia402.o
                                                  build/motor_control.o
cia402_set_target_position                        build/can_cia402.o
cia402_set_target_torque                          build/can_cia402.o
cia402_set_target_velocity                        build/can_cia402.o
cos                                               C:/Program Files (x86)/Arm/GNU Toolchain mingw-w64-i686-arm-none-eabi/bin/../lib/gcc/arm-none-eabi/15.2.1/../../../../arm-none-eabi/lib/thumb/v7e-m+fp/hard\libm.a(libm_a-s_cos.o)
                                                  build/motor_foc.o
crc16                                             build/common_utils.o
crm_adc_clock_div_set                             build/at32f403a_407_crm.o
                                                  build/wk_adc.o
crm_ahb_div_set                                   build/at32f403a_407_crm.o
                                                  build/at32f403a_407_wk_config.o
crm_apb1_div_set                                  build/at32f403a_407_crm.o
                                                  build/at32f403a_407_wk_config.o
crm_apb2_div_set                                  build/at32f403a_407_crm.o
                                                  build/at32f403a_407_wk_config.o
crm_auto_step_mode_enable                         build/at32f403a_407_crm.o
                                                  build/at32f403a_407_wk_config.o
crm_battery_powered_domain_reset                  build/at32f403a_407_crm.o
crm_clkout_div_set                                build/at32f403a_407_crm.o
crm_clkout_to_tmr10_enable                        build/at32f403a_407_crm.o
crm_clock_failure_detection_enable                build/at32f403a_407_crm.o
crm_clock_out_set                                 build/at32f403a_407_crm.o
crm_clock_source_enable                           build/at32f403a_407_crm.o
                                                  build/at32f403a_407_wk_config.o
crm_clocks_freq_get                               build/at32f403a_407_crm.o
                                                  build/at32f403a_407_spi.o
                                                  build/wk_system.o
crm_flag_clear                                    build/at32f403a_407_crm.o
crm_flag_get                                      build/at32f403a_407_crm.o
                                                  build/at32f403a_407_wk_config.o
crm_hext_bypass                                   build/at32f403a_407_crm.o
crm_hext_clock_div_set                            build/at32f403a_407_crm.o
crm_hext_stable_wait                              build/at32f403a_407_crm.o
                                                  build/at32f403a_407_wk_config.o
crm_hick_clock_calibration_set                    build/at32f403a_407_crm.o
crm_hick_clock_trimming_set                       build/at32f403a_407_crm.o
crm_hick_divider_select                           build/at32f403a_407_crm.o
crm_hick_sclk_frequency_select                    build/at32f403a_407_crm.o
crm_interrupt_enable                              build/at32f403a_407_crm.o
crm_interrupt_flag_get                            build/at32f403a_407_crm.o
crm_lext_bypass                                   build/at32f403a_407_crm.o
crm_periph_clock_enable                           build/at32f403a_407_crm.o
                                                  build/at32f403a_407_wk_config.o
crm_periph_reset                                  build/at32f403a_407_crm.o
                                                  build/at32f403a_407_can.o
                                                  build/at32f403a_407_spi.o
                                                  build/at32f403a_407_adc.o
                                                  build/at32f403a_407_pwc.o
                                                  build/at32f403a_407_gpio.o
                                                  build/at32f403a_407_tmr.o
crm_periph_sleep_mode_clock_enable                build/at32f403a_407_crm.o
crm_pll_config                                    build/at32f403a_407_crm.o
                                                  build/at32f403a_407_wk_config.o
crm_reset                                         build/at32f403a_407_crm.o
                                                  build/at32f403a_407_wk_config.o
crm_rtc_clock_enable                              build/at32f403a_407_crm.o
crm_rtc_clock_select                              build/at32f403a_407_crm.o
crm_sysclk_switch                                 build/at32f403a_407_crm.o
                                                  build/at32f403a_407_wk_config.o
crm_sysclk_switch_status_get                      build/at32f403a_407_crm.o
                                                  build/system_at32f403a_407.o
                                                  build/at32f403a_407_wk_config.o
crm_usb_clock_div_set                             build/at32f403a_407_crm.o
crm_usb_clock_source_select                       build/at32f403a_407_crm.o
                                                  build/wk_usbfs.o
crm_usb_interrupt_remapping_set                   build/at32f403a_407_crm.o
                                                  build/wk_usbfs.o
debug_device_id_get                               build/at32f403a_407_debug.o
debug_periph_mode_set                             build/at32f403a_407_debug.o
delay_ms                                          build/common_utils.o
delay_us                                          build/common_utils.o
dma_channel_enable                                build/at32f403a_407_dma.o
                                                  build/main.o
dma_data_number_get                               build/at32f403a_407_dma.o
dma_data_number_set                               build/at32f403a_407_dma.o
dma_default_para_init                             build/at32f403a_407_dma.o
                                                  build/wk_dma.o
dma_flag_clear                                    build/at32f403a_407_dma.o
                                                  build/freertos_app.o
                                                  build/at32f403a_407_int.o
dma_flag_get                                      build/at32f403a_407_dma.o
                                                  build/freertos_app.o
dma_flexible_config                               build/at32f403a_407_dma.o
                                                  build/wk_dma.o
dma_init                                          build/at32f403a_407_dma.o
                                                  build/wk_dma.o
dma_interrupt_enable                              build/at32f403a_407_dma.o
                                                  build/wk_dma.o
dma_interrupt_flag_get                            build/at32f403a_407_dma.o
                                                  build/at32f403a_407_int.o
dma_reset                                         build/at32f403a_407_dma.o
                                                  build/wk_dma.o
eTaskGetState                                     build/tasks.o
environ                                           build/syscalls.o
errno                                             C:/Program Files (x86)/Arm/GNU Toolchain mingw-w64-i686-arm-none-eabi/bin/../lib/gcc/arm-none-eabi/15.2.1/../../../../arm-none-eabi/lib/thumb/v7e-m+fp/hard\libc_nano.a(libc_a-reent.o)
                                                  C:/Program Files (x86)/Arm/GNU Toolchain mingw-w64-i686-arm-none-eabi/bin/../lib/gcc/arm-none-eabi/15.2.1/../../../../arm-none-eabi/lib/thumb/v7e-m+fp/hard\libc_nano.a(libc_a-sbrkr.o)
                                                  C:/Program Files (x86)/Arm/GNU Toolchain mingw-w64-i686-arm-none-eabi/bin/../lib/gcc/arm-none-eabi/15.2.1/../../../../arm-none-eabi/lib/thumb/v7e-m+fp/hard\libc_nano.a(libc_a-isattyr.o)
                                                  C:/Program Files (x86)/Arm/GNU Toolchain mingw-w64-i686-arm-none-eabi/bin/../lib/gcc/arm-none-eabi/15.2.1/../../../../arm-none-eabi/lib/thumb/v7e-m+fp/hard\libc_nano.a(libc_a-fstatr.o)
                                                  C:/Program Files (x86)/Arm/GNU Toolchain mingw-w64-i686-arm-none-eabi/bin/../lib/gcc/arm-none-eabi/15.2.1/../../../../arm-none-eabi/lib/thumb/v7e-m+fp/hard\libc_nano.a(libc_a-writer.o)
                                                  C:/Program Files (x86)/Arm/GNU Toolchain mingw-w64-i686-arm-none-eabi/bin/../lib/gcc/arm-none-eabi/15.2.1/../../../../arm-none-eabi/lib/thumb/v7e-m+fp/hard\libc_nano.a(libc_a-readr.o)
                                                  C:/Program Files (x86)/Arm/GNU Toolchain mingw-w64-i686-arm-none-eabi/bin/../lib/gcc/arm-none-eabi/15.2.1/../../../../arm-none-eabi/lib/thumb/v7e-m+fp/hard\libc_nano.a(libc_a-lseekr.o)
                                                  C:/Program Files (x86)/Arm/GNU Toolchain mingw-w64-i686-arm-none-eabi/bin/../lib/gcc/arm-none-eabi/15.2.1/../../../../arm-none-eabi/lib/thumb/v7e-m+fp/hard\libc_nano.a(libc_a-closer.o)
exint_default_para_init                           build/at32f403a_407_exint.o
exint_event_enable                                build/at32f403a_407_exint.o
exint_flag_clear                                  build/at32f403a_407_exint.o
exint_flag_get                                    build/at32f403a_407_exint.o
exint_init                                        build/at32f403a_407_exint.o
exint_interrupt_enable                            build/at32f403a_407_exint.o
exint_interrupt_flag_get                          build/at32f403a_407_exint.o
exint_reset                                       build/at32f403a_407_exint.o
exint_software_interrupt_event_generate           build/at32f403a_407_exint.o
exit                                              C:/Program Files (x86)/Arm/GNU Toolchain mingw-w64-i686-arm-none-eabi/bin/../lib/gcc/arm-none-eabi/15.2.1/../../../../arm-none-eabi/lib/thumb/v7e-m+fp/hard\libc_nano.a(libc_a-exit.o)
                                                  C:/Program Files (x86)/Arm/GNU Toolchain mingw-w64-i686-arm-none-eabi/bin/../lib/gcc/arm-none-eabi/15.2.1/../../../../arm-none-eabi/lib/thumb/v7e-m+fp/hard/crt0.o
fabs                                              C:/Program Files (x86)/Arm/GNU Toolchain mingw-w64-i686-arm-none-eabi/bin/../lib/gcc/arm-none-eabi/15.2.1/../../../../arm-none-eabi/lib/thumb/v7e-m+fp/hard\libm.a(libm_a-s_fabs.o)
                                                  C:/Program Files (x86)/Arm/GNU Toolchain mingw-w64-i686-arm-none-eabi/bin/../lib/gcc/arm-none-eabi/15.2.1/../../../../arm-none-eabi/lib/thumb/v7e-m+fp/hard\libm.a(libm_a-s_atan.o)
                                                  C:/Program Files (x86)/Arm/GNU Toolchain mingw-w64-i686-arm-none-eabi/bin/../lib/gcc/arm-none-eabi/15.2.1/../../../../arm-none-eabi/lib/thumb/v7e-m+fp/hard\libm.a(libm_a-e_rem_pio2.o)
                                                  C:/Program Files (x86)/Arm/GNU Toolchain mingw-w64-i686-arm-none-eabi/bin/../lib/gcc/arm-none-eabi/15.2.1/../../../../arm-none-eabi/lib/thumb/v7e-m+fp/hard\libm.a(libm_a-e_atan2.o)
fflush                                            C:/Program Files (x86)/Arm/GNU Toolchain mingw-w64-i686-arm-none-eabi/bin/../lib/gcc/arm-none-eabi/15.2.1/../../../../arm-none-eabi/lib/thumb/v7e-m+fp/hard\libc_nano.a(libc_a-fflush.o)
flash_bank1_erase                                 build/at32f403a_407_flash.o
flash_bank1_lock                                  build/at32f403a_407_flash.o
flash_bank1_operation_status_get                  build/at32f403a_407_flash.o
flash_bank1_operation_wait_for                    build/at32f403a_407_flash.o
flash_bank1_unlock                                build/at32f403a_407_flash.o
flash_bank2_erase                                 build/at32f403a_407_flash.o
flash_bank2_lock                                  build/at32f403a_407_flash.o
flash_bank2_operation_status_get                  build/at32f403a_407_flash.o
flash_bank2_operation_wait_for                    build/at32f403a_407_flash.o
flash_bank2_unlock                                build/at32f403a_407_flash.o
flash_byte_program                                build/at32f403a_407_flash.o
flash_crc_calibrate                               build/at32f403a_407_flash.o
flash_epp_set                                     build/at32f403a_407_flash.o
flash_epp_status_get                              build/at32f403a_407_flash.o
flash_fap_enable                                  build/at32f403a_407_flash.o
flash_fap_status_get                              build/at32f403a_407_flash.o
flash_flag_clear                                  build/at32f403a_407_flash.o
flash_flag_get                                    build/at32f403a_407_flash.o
flash_halfword_program                            build/at32f403a_407_flash.o
flash_internal_all_erase                          build/at32f403a_407_flash.o
flash_interrupt_enable                            build/at32f403a_407_flash.o
flash_lock                                        build/at32f403a_407_flash.o
flash_operation_status_get                        build/at32f403a_407_flash.o
flash_operation_wait_for                          build/at32f403a_407_flash.o
flash_sector_erase                                build/at32f403a_407_flash.o
flash_slib_datastart_sector_get                   build/at32f403a_407_flash.o
flash_slib_disable                                build/at32f403a_407_flash.o
flash_slib_enable                                 build/at32f403a_407_flash.o
flash_slib_end_sector_get                         build/at32f403a_407_flash.o
flash_slib_remaining_count_get                    build/at32f403a_407_flash.o
flash_slib_start_sector_get                       build/at32f403a_407_flash.o
flash_slib_state_get                              build/at32f403a_407_flash.o
flash_spim_all_erase                              build/at32f403a_407_flash.o
flash_spim_dummy_read                             build/at32f403a_407_flash.o
flash_spim_encryption_range_set                   build/at32f403a_407_flash.o
flash_spim_lock                                   build/at32f403a_407_flash.o
flash_spim_mass_program                           build/at32f403a_407_flash.o
flash_spim_model_select                           build/at32f403a_407_flash.o
flash_spim_operation_status_get                   build/at32f403a_407_flash.o
flash_spim_operation_wait_for                     build/at32f403a_407_flash.o
flash_spim_unlock                                 build/at32f403a_407_flash.o
flash_ssb_set                                     build/at32f403a_407_flash.o
flash_ssb_status_get                              build/at32f403a_407_flash.o
flash_unlock                                      build/at32f403a_407_flash.o
flash_user_system_data_erase                      build/at32f403a_407_flash.o
flash_user_system_data_program                    build/at32f403a_407_flash.o
flash_word_program                                build/at32f403a_407_flash.o
floor                                             C:/Program Files (x86)/Arm/GNU Toolchain mingw-w64-i686-arm-none-eabi/bin/../lib/gcc/arm-none-eabi/15.2.1/../../../../arm-none-eabi/lib/thumb/v7e-m+fp/hard\libm.a(libm_a-s_floor.o)
                                                  C:/Program Files (x86)/Arm/GNU Toolchain mingw-w64-i686-arm-none-eabi/bin/../lib/gcc/arm-none-eabi/15.2.1/../../../../arm-none-eabi/lib/thumb/v7e-m+fp/hard\libm.a(libm_a-k_rem_pio2.o)
foc_disable                                       build/motor_foc.o
                                                  build/motor_control.o
foc_enable                                        build/motor_foc.o
                                                  build/motor_control.o
foc_init                                          build/motor_foc.o
                                                  build/motor_control.o
foc_process                                       build/motor_foc.o
                                                  build/motor_control.o
foc_process_with_sensorless                       build/motor_foc.o
                                                  build/motor_control.o
foc_sensorless_disable                            build/motor_foc.o
                                                  build/motor_control.o
foc_sensorless_enable                             build/motor_foc.o
                                                  build/motor_control.o
foc_sensorless_estimate                           build/motor_foc.o
foc_sensorless_init                               build/motor_foc.o
                                                  build/motor_control.o
foc_sensorless_set_params                         build/motor_foc.o
                                                  build/motor_control.o
foc_set_control_mode                              build/motor_foc.o
                                                  build/motor_control.o
foc_set_pid_gains                                 build/motor_foc.o
                                                  build/motor_control.o
foc_set_target_position                           build/motor_foc.o
                                                  build/motor_control.o
foc_set_target_torque                             build/motor_foc.o
                                                  build/motor_control.o
foc_set_target_velocity                           build/motor_foc.o
                                                  build/motor_control.o
foc_update_angle                                  build/motor_foc.o
                                                  build/motor_control.o
freertos_task_create                              build/freertos_app.o
g_pfnVectors                                      build/startup_at32f403a_407.o
g_usb_packet_address                              build/at32f403a_407_usb.o
                                                  build/usbd_int.o
                                                  build/usbd_core.o
gpio_bits_reset                                   build/at32f403a_407_gpio.o
                                                  build/wk_gpio.o
gpio_bits_set                                     build/at32f403a_407_gpio.o
gpio_bits_toggle                                  build/at32f403a_407_gpio.o
                                                  build/freertos_app.o
gpio_bits_write                                   build/at32f403a_407_gpio.o
gpio_default_para_init                            build/at32f403a_407_gpio.o
                                                  build/wk_gpio.o
                                                  build/wk_tmr.o
                                                  build/wk_spi.o
                                                  build/wk_can.o
                                                  build/wk_adc.o
gpio_event_output_config                          build/at32f403a_407_gpio.o
gpio_event_output_enable                          build/at32f403a_407_gpio.o
gpio_exint_line_config                            build/at32f403a_407_gpio.o
gpio_init                                         build/at32f403a_407_gpio.o
                                                  build/wk_gpio.o
                                                  build/wk_tmr.o
                                                  build/wk_spi.o
                                                  build/wk_can.o
                                                  build/wk_adc.o
gpio_input_data_bit_read                          build/at32f403a_407_gpio.o
gpio_input_data_read                              build/at32f403a_407_gpio.o
gpio_iomux_reset                                  build/at32f403a_407_gpio.o
gpio_output_data_bit_read                         build/at32f403a_407_gpio.o
gpio_output_data_read                             build/at32f403a_407_gpio.o
gpio_pin_remap_config                             build/at32f403a_407_gpio.o
                                                  build/wk_debug.o
                                                  build/wk_can.o
gpio_pin_wp_config                                build/at32f403a_407_gpio.o
gpio_pins_huge_driven_config                      build/at32f403a_407_gpio.o
gpio_port_write                                   build/at32f403a_407_gpio.o
gpio_reset                                        build/at32f403a_407_gpio.o
hardware_init_hook                                C:/Program Files (x86)/Arm/GNU Toolchain mingw-w64-i686-arm-none-eabi/bin/../lib/gcc/arm-none-eabi/15.2.1/../../../../arm-none-eabi/lib/thumb/v7e-m+fp/hard/crt0.o
i2s_default_para_init                             build/at32f403a_407_spi.o
i2s_enable                                        build/at32f403a_407_spi.o
i2s_init                                          build/at32f403a_407_spi.o
initialise_monitor_handles                        build/syscalls.o
iprintf                                           C:/Program Files (x86)/Arm/GNU Toolchain mingw-w64-i686-arm-none-eabi/bin/../lib/gcc/arm-none-eabi/15.2.1/../../../../arm-none-eabi/lib/thumb/v7e-m+fp/hard\libc_nano.a(libc_a-printf.o)
linecoding                                        build/cdc_class.o
log                                               C:/Program Files (x86)/Arm/GNU Toolchain mingw-w64-i686-arm-none-eabi/bin/../lib/gcc/arm-none-eabi/15.2.1/../../../../arm-none-eabi/lib/thumb/v7e-m+fp/hard\libm.a(libm_a-w_log.o)
                                                  build/motor_monitor.o
main                                              build/main.o
                                                  build/startup_at32f403a_407.o
                                                  C:/Program Files (x86)/Arm/GNU Toolchain mingw-w64-i686-arm-none-eabi/bin/../lib/gcc/arm-none-eabi/15.2.1/../../../../arm-none-eabi/lib/thumb/v7e-m+fp/hard/crt0.o
memchr                                            C:/Program Files (x86)/Arm/GNU Toolchain mingw-w64-i686-arm-none-eabi/bin/../lib/gcc/arm-none-eabi/15.2.1/../../../../arm-none-eabi/lib/thumb/v7e-m+fp/hard\libc_nano.a(libc_a-memchr.o)
                                                  C:/Program Files (x86)/Arm/GNU Toolchain mingw-w64-i686-arm-none-eabi/bin/../lib/gcc/arm-none-eabi/15.2.1/../../../../arm-none-eabi/lib/thumb/v7e-m+fp/hard\libc_nano.a(libc_a-fvwrite.o)
                                                  C:/Program Files (x86)/Arm/GNU Toolchain mingw-w64-i686-arm-none-eabi/bin/../lib/gcc/arm-none-eabi/15.2.1/../../../../arm-none-eabi/lib/thumb/v7e-m+fp/hard\libc_nano.a(libc_a-nano-vfprintf_i.o)
                                                  C:/Program Files (x86)/Arm/GNU Toolchain mingw-w64-i686-arm-none-eabi/bin/../lib/gcc/arm-none-eabi/15.2.1/../../../../arm-none-eabi/lib/thumb/v7e-m+fp/hard\libc_nano.a(libc_a-nano-vfprintf.o)
memcpy                                            build/common_utils.o
                                                  C:/Program Files (x86)/Arm/GNU Toolchain mingw-w64-i686-arm-none-eabi/bin/../lib/gcc/arm-none-eabi/15.2.1/../../../../arm-none-eabi/lib/thumb/v7e-m+fp/hard\libc_nano.a(libc_a-reallocr.o)
                                                  C:/Program Files (x86)/Arm/GNU Toolchain mingw-w64-i686-arm-none-eabi/bin/../lib/gcc/arm-none-eabi/15.2.1/../../../../arm-none-eabi/lib/thumb/v7e-m+fp/hard\libc_nano.a(libc_a-fvwrite.o)
                                                  build/stream_buffer.o
                                                  build/queue.o
                                                  build/modbus_protocol.o
                                                  build/usb_cdc.o
memmove                                           C:/Program Files (x86)/Arm/GNU Toolchain mingw-w64-i686-arm-none-eabi/bin/../lib/gcc/arm-none-eabi/15.2.1/../../../../arm-none-eabi/lib/thumb/v7e-m+fp/hard\libc_nano.a(libc_a-memmove.o)
                                                  C:/Program Files (x86)/Arm/GNU Toolchain mingw-w64-i686-arm-none-eabi/bin/../lib/gcc/arm-none-eabi/15.2.1/../../../../arm-none-eabi/lib/thumb/v7e-m+fp/hard\libc_nano.a(libc_a-fvwrite.o)
                                                  build/usb_cdc.o
memset                                            build/common_utils.o
                                                  C:/Program Files (x86)/Arm/GNU Toolchain mingw-w64-i686-arm-none-eabi/bin/../lib/gcc/arm-none-eabi/15.2.1/../../../../arm-none-eabi/lib/thumb/v7e-m+fp/hard\libc_nano.a(libc_a-findfp.o)
                                                  build/stream_buffer.o
                                                  build/tasks.o
                                                  build/modbus_protocol.o
                                                  build/motor_params.o
                                                  C:/Program Files (x86)/Arm/GNU Toolchain mingw-w64-i686-arm-none-eabi/bin/../lib/gcc/arm-none-eabi/15.2.1/../../../../arm-none-eabi/lib/thumb/v7e-m+fp/hard/crt0.o
modbus_protocol_init                              build/modbus_protocol.o
                                                  build/freertos_app.o
modbus_protocol_process                           build/modbus_protocol.o
                                                  build/freertos_app.o
modbus_send_exception_response                    build/modbus_protocol.o
modbus_send_response                              build/modbus_protocol.o
motor                                             build/freertos_app.o
                                                  build/modbus_protocol.o
motor_control_disable                             build/motor_control.o
motor_control_enable                              build/motor_control.o
motor_control_get_state                           build/motor_control.o
motor_control_handle_fault                        build/motor_control.o
motor_control_init                                build/motor_control.o
motor_control_process                             build/motor_control.o
motor_control_sensorless_disable                  build/motor_control.o
motor_control_sensorless_enable                   build/motor_control.o
motor_control_sensorless_init                     build/motor_control.o
motor_control_sensorless_set_params               build/motor_control.o
motor_control_set_control_mode                    build/motor_control.o
motor_control_set_target_position                 build/motor_control.o
motor_control_set_target_torque                   build/motor_control.o
motor_control_set_target_velocity                 build/motor_control.o
motor_control_update_sensor_data                  build/motor_control.o
                                                  build/freertos_app.o
motor_monitor_clear_fault                         build/motor_monitor.o
                                                  build/motor_control.o
motor_monitor_convert_adc_to_current              build/motor_monitor.o
                                                  build/freertos_app.o
motor_monitor_convert_adc_to_temperature          build/motor_monitor.o
                                                  build/freertos_app.o
motor_monitor_convert_adc_to_voltage              build/motor_monitor.o
                                                  build/freertos_app.o
motor_monitor_enable_protection                   build/motor_monitor.o
                                                  build/motor_control.o
motor_monitor_get_bus_voltage                     build/motor_monitor.o
motor_monitor_get_current_a                       build/motor_monitor.o
motor_monitor_get_current_b                       build/motor_monitor.o
motor_monitor_get_current_c                       build/motor_monitor.o
motor_monitor_get_fault                           build/motor_monitor.o
motor_monitor_get_temperature                     build/motor_monitor.o
motor_monitor_init                                build/motor_monitor.o
                                                  build/motor_control.o
motor_monitor_is_fault_active                     build/motor_monitor.o
                                                  build/motor_control.o
motor_monitor_process                             build/motor_monitor.o
                                                  build/motor_control.o
                                                  build/freertos_app.o
motor_monitor_set_limits                          build/motor_monitor.o
                                                  build/motor_control.o
motor_monitor_update_current                      build/motor_monitor.o
motor_monitor_update_temperature                  build/motor_monitor.o
motor_monitor_update_voltage                      build/motor_monitor.o
motor_params_clear_errors                         build/motor_params.o
                                                  build/motor_control.o
motor_params_get                                  build/motor_params.o
                                                  build/modbus_protocol.o
                                                  build/motor_monitor.o
                                                  build/motor_foc.o
                                                  build/motor_control.o
motor_params_get_sub                              build/motor_params.o
motor_params_init                                 build/motor_params.o
motor_params_load_default                         build/motor_params.o
                                                  build/motor_control.o
motor_params_update                               build/motor_params.o
                                                  build/modbus_protocol.o
                                                  build/motor_control.o
motor_params_update_sub                           build/motor_params.o
nan                                               C:/Program Files (x86)/Arm/GNU Toolchain mingw-w64-i686-arm-none-eabi/bin/../lib/gcc/arm-none-eabi/15.2.1/../../../../arm-none-eabi/lib/thumb/v7e-m+fp/hard\libm.a(libm_a-s_nan.o)
                                                  C:/Program Files (x86)/Arm/GNU Toolchain mingw-w64-i686-arm-none-eabi/bin/../lib/gcc/arm-none-eabi/15.2.1/../../../../arm-none-eabi/lib/thumb/v7e-m+fp/hard\libm.a(libm_a-w_log.o)
nvic_irq_disable                                  build/at32f403a_407_misc.o
nvic_irq_enable                                   build/at32f403a_407_misc.o
                                                  build/at32f403a_407_wk_config.o
nvic_lowpower_mode_config                         build/at32f403a_407_misc.o
nvic_priority_group_config                        build/at32f403a_407_misc.o
                                                  build/at32f403a_407_wk_config.o
nvic_system_reset                                 build/at32f403a_407_misc.o
nvic_vector_table_set                             build/at32f403a_407_misc.o
pcQueueGetName                                    build/queue.o
pcTaskGetName                                     build/tasks.o
pcTimerGetName                                    build/timers.o
printf                                            C:/Program Files (x86)/Arm/GNU Toolchain mingw-w64-i686-arm-none-eabi/bin/../lib/gcc/arm-none-eabi/15.2.1/../../../../arm-none-eabi/lib/thumb/v7e-m+fp/hard\libc_nano.a(libc_a-printf.o)
                                                  build/motor_monitor.o
                                                  build/freertos_app.o
puts                                              C:/Program Files (x86)/Arm/GNU Toolchain mingw-w64-i686-arm-none-eabi/bin/../lib/gcc/arm-none-eabi/15.2.1/../../../../arm-none-eabi/lib/thumb/v7e-m+fp/hard\libc_nano.a(libc_a-puts.o)
                                                  build/freertos_app.o
pvPortMalloc                                      build/heap_4.o
                                                  build/stream_buffer.o
                                                  build/timers.o
                                                  build/tasks.o
                                                  build/queue.o
                                                  build/event_groups.o
pvTaskIncrementMutexHeldCount                     build/tasks.o
                                                  build/queue.o
pvTimerGetTimerID                                 build/timers.o
pwc_battery_powered_domain_access                 build/at32f403a_407_pwc.o
pwc_deep_sleep_mode_enter                         build/at32f403a_407_pwc.o
pwc_flag_clear                                    build/at32f403a_407_pwc.o
pwc_flag_get                                      build/at32f403a_407_pwc.o
pwc_power_voltage_monitor_enable                  build/at32f403a_407_pwc.o
pwc_pvm_level_select                              build/at32f403a_407_pwc.o
pwc_reset                                         build/at32f403a_407_pwc.o
pwc_sleep_mode_enter                              build/at32f403a_407_pwc.o
pwc_standby_mode_enter                            build/at32f403a_407_pwc.o
pwc_voltage_regulate_set                          build/at32f403a_407_pwc.o
pwc_wakeup_pin_enable                             build/at32f403a_407_pwc.o
pxCurrentTCB                                      build/tasks.o
                                                  build/port.o
pxPortInitialiseStack                             build/port.o
                                                  build/tasks.o
scalbn                                            C:/Program Files (x86)/Arm/GNU Toolchain mingw-w64-i686-arm-none-eabi/bin/../lib/gcc/arm-none-eabi/15.2.1/../../../../arm-none-eabi/lib/thumb/v7e-m+fp/hard\libm.a(libm_a-s_scalbn.o)
                                                  C:/Program Files (x86)/Arm/GNU Toolchain mingw-w64-i686-arm-none-eabi/bin/../lib/gcc/arm-none-eabi/15.2.1/../../../../arm-none-eabi/lib/thumb/v7e-m+fp/hard\libm.a(libm_a-k_rem_pio2.o)
sin                                               C:/Program Files (x86)/Arm/GNU Toolchain mingw-w64-i686-arm-none-eabi/bin/../lib/gcc/arm-none-eabi/15.2.1/../../../../arm-none-eabi/lib/thumb/v7e-m+fp/hard\libm.a(libm_a-s_sin.o)
                                                  build/motor_foc.o
software_init_hook                                C:/Program Files (x86)/Arm/GNU Toolchain mingw-w64-i686-arm-none-eabi/bin/../lib/gcc/arm-none-eabi/15.2.1/../../../../arm-none-eabi/lib/thumb/v7e-m+fp/hard/crt0.o
spi_crc_enable                                    build/at32f403a_407_spi.o
spi_crc_next_transmit                             build/at32f403a_407_spi.o
spi_crc_polynomial_get                            build/at32f403a_407_spi.o
spi_crc_polynomial_set                            build/at32f403a_407_spi.o
spi_crc_value_get                                 build/at32f403a_407_spi.o
spi_default_para_init                             build/at32f403a_407_spi.o
                                                  build/wk_spi.o
spi_enable                                        build/at32f403a_407_spi.o
                                                  build/wk_spi.o
spi_frame_bit_num_set                             build/at32f403a_407_spi.o
spi_half_duplex_direction_set                     build/at32f403a_407_spi.o
spi_hardware_cs_output_enable                     build/at32f403a_407_spi.o
                                                  build/wk_spi.o
spi_i2s_data_receive                              build/at32f403a_407_spi.o
spi_i2s_data_transmit                             build/at32f403a_407_spi.o
spi_i2s_dma_receiver_enable                       build/at32f403a_407_spi.o
spi_i2s_dma_transmitter_enable                    build/at32f403a_407_spi.o
spi_i2s_flag_clear                                build/at32f403a_407_spi.o
spi_i2s_flag_get                                  build/at32f403a_407_spi.o
spi_i2s_interrupt_enable                          build/at32f403a_407_spi.o
spi_i2s_interrupt_flag_get                        build/at32f403a_407_spi.o
spi_i2s_reset                                     build/at32f403a_407_spi.o
spi_init                                          build/at32f403a_407_spi.o
                                                  build/wk_spi.o
spi_software_cs_internal_level_set                build/at32f403a_407_spi.o
sqrt                                              C:/Program Files (x86)/Arm/GNU Toolchain mingw-w64-i686-arm-none-eabi/bin/../lib/gcc/arm-none-eabi/15.2.1/../../../../arm-none-eabi/lib/thumb/v7e-m+fp/hard\libm.a(libm_a-w_sqrt.o)
                                                  build/motor_foc.o
system_core_clock                                 build/system_at32f403a_407.o
                                                  build/port.o
system_core_clock_update                          build/system_at32f403a_407.o
                                                  build/at32f403a_407_wk_config.o
systick_clock_source_config                       build/at32f403a_407_misc.o
ticks_count_us                                    build/wk_system.o
tmr_32_bit_function_enable                        build/at32f403a_407_tmr.o
tmr_base_init                                     build/at32f403a_407_tmr.o
                                                  build/wk_tmr.o
                                                  build/wk_system.o
tmr_brkdt_config                                  build/at32f403a_407_tmr.o
                                                  build/wk_tmr.o
tmr_brkdt_default_para_init                       build/at32f403a_407_tmr.o
tmr_channel1_input_select                         build/at32f403a_407_tmr.o
tmr_channel_buffer_enable                         build/at32f403a_407_tmr.o
tmr_channel_dma_select                            build/at32f403a_407_tmr.o
tmr_channel_enable                                build/at32f403a_407_tmr.o
tmr_channel_value_get                             build/at32f403a_407_tmr.o
tmr_channel_value_set                             build/at32f403a_407_tmr.o
                                                  build/motor_foc.o
                                                  build/freertos_app.o
                                                  build/wk_tmr.o
tmr_clock_source_div_set                          build/at32f403a_407_tmr.o
                                                  build/wk_tmr.o
tmr_cnt_dir_set                                   build/at32f403a_407_tmr.o
                                                  build/wk_tmr.o
                                                  build/wk_system.o
tmr_counter_enable                                build/at32f403a_407_tmr.o
                                                  build/wk_tmr.o
                                                  build/wk_system.o
tmr_counter_value_get                             build/at32f403a_407_tmr.o
tmr_counter_value_set                             build/at32f403a_407_tmr.o
tmr_div_value_get                                 build/at32f403a_407_tmr.o
tmr_div_value_set                                 build/at32f403a_407_tmr.o
tmr_dma_control_config                            build/at32f403a_407_tmr.o
tmr_dma_request_enable                            build/at32f403a_407_tmr.o
tmr_encoder_mode_config                           build/at32f403a_407_tmr.o
tmr_event_sw_trigger                              build/at32f403a_407_tmr.o
tmr_external_clock_config                         build/at32f403a_407_tmr.o
tmr_external_clock_mode1_config                   build/at32f403a_407_tmr.o
tmr_external_clock_mode2_config                   build/at32f403a_407_tmr.o
tmr_flag_clear                                    build/at32f403a_407_tmr.o
tmr_flag_get                                      build/at32f403a_407_tmr.o
tmr_force_output_set                              build/at32f403a_407_tmr.o
tmr_hall_select                                   build/at32f403a_407_tmr.o
tmr_input_channel_divider_set                     build/at32f403a_407_tmr.o
tmr_input_channel_filter_set                      build/at32f403a_407_tmr.o
tmr_input_channel_init                            build/at32f403a_407_tmr.o
tmr_input_default_para_init                       build/at32f403a_407_tmr.o
tmr_internal_clock_set                            build/at32f403a_407_tmr.o
tmr_interrupt_enable                              build/at32f403a_407_tmr.o
tmr_interrupt_flag_get                            build/at32f403a_407_tmr.o
tmr_one_cycle_mode_enable                         build/at32f403a_407_tmr.o
tmr_output_channel_buffer_enable                  build/at32f403a_407_tmr.o
                                                  build/wk_tmr.o
tmr_output_channel_config                         build/at32f403a_407_tmr.o
                                                  build/wk_tmr.o
tmr_output_channel_immediately_set                build/at32f403a_407_tmr.o
                                                  build/wk_tmr.o
tmr_output_channel_mode_select                    build/at32f403a_407_tmr.o
tmr_output_channel_polarity_set                   build/at32f403a_407_tmr.o
tmr_output_channel_switch_set                     build/at32f403a_407_tmr.o
tmr_output_default_para_init                      build/at32f403a_407_tmr.o
tmr_output_enable                                 build/at32f403a_407_tmr.o
                                                  build/wk_tmr.o
tmr_overflow_event_disable                        build/at32f403a_407_tmr.o
tmr_overflow_request_source_set                   build/at32f403a_407_tmr.o
tmr_period_buffer_enable                          build/at32f403a_407_tmr.o
                                                  build/wk_tmr.o
tmr_period_value_get                              build/at32f403a_407_tmr.o
tmr_period_value_set                              build/at32f403a_407_tmr.o
tmr_primary_mode_select                           build/at32f403a_407_tmr.o
                                                  build/wk_tmr.o
tmr_pwm_input_config                              build/at32f403a_407_tmr.o
tmr_repetition_counter_set                        build/at32f403a_407_tmr.o
                                                  build/wk_tmr.o
tmr_reset                                         build/at32f403a_407_tmr.o
tmr_sub_mode_select                               build/at32f403a_407_tmr.o
tmr_sub_sync_mode_set                             build/at32f403a_407_tmr.o
                                                  build/wk_tmr.o
tmr_trigger_input_select                          build/at32f403a_407_tmr.o
ucQueueGetQueueType                               build/queue.o
ucStreamBufferGetStreamBufferType                 build/stream_buffer.o
ulTaskGenericNotifyTake                           build/tasks.o
ulTaskGenericNotifyValueClear                     build/tasks.o
usb_buffer_free                                   build/at32f403a_407_usb.o
                                                  build/usbd_int.o
usb_buffer_malloc                                 build/at32f403a_407_usb.o
                                                  build/usbd_core.o
usb_connect                                       build/at32f403a_407_usb.o
                                                  build/usbd_core.o
usb_core_dev                                      build/usb_app.o
                                                  build/modbus_protocol.o
                                                  build/usb_cdc.o
                                                  build/freertos_app.o
usb_delay_ms                                      build/usb_app.o
                                                  build/usbd_core.o
usb_dev_init                                      build/at32f403a_407_usb.o
                                                  build/usbd_core.o
usb_disconnect                                    build/at32f403a_407_usb.o
                                                  build/usbd_core.o
usb_enter_suspend                                 build/at32f403a_407_usb.o
                                                  build/usbd_core.o
usb_ept_close                                     build/at32f403a_407_usb.o
                                                  build/usbd_core.o
usb_ept_open                                      build/at32f403a_407_usb.o
                                                  build/usbd_core.o
usb_ept_stall                                     build/at32f403a_407_usb.o
usb_exit_suspend                                  build/at32f403a_407_usb.o
                                                  build/usbd_int.o
                                                  build/usbd_core.o
usb_flag_clear                                    build/at32f403a_407_usb.o
                                                  build/usbd_int.o
usb_flag_get                                      build/at32f403a_407_usb.o
usb_interrupt_enable                              build/at32f403a_407_usb.o
usb_interrupt_flag_get                            build/at32f403a_407_usb.o
usb_read_packet                                   build/at32f403a_407_usb.o
                                                  build/usbd_int.o
usb_remote_wkup_clear                             build/at32f403a_407_usb.o
                                                  build/usbd_core.o
usb_remote_wkup_set                               build/at32f403a_407_usb.o
                                                  build/usbd_core.o
usb_set_address                                   build/at32f403a_407_usb.o
                                                  build/usbd_int.o
                                                  build/usbd_core.o
usb_usbbufs_enable                                build/at32f403a_407_usb.o
usb_vcp_get_rxdata                                build/cdc_class.o
                                                  build/modbus_protocol.o
                                                  build/usb_app.o
usb_vcp_send_data                                 build/cdc_class.o
                                                  build/modbus_protocol.o
                                                  build/usb_cdc.o
                                                  build/usb_app.o
usb_write_packet                                  build/at32f403a_407_usb.o
                                                  build/usbd_core.o
usbd_app_buffer_fs1                               build/usb_app.o
usbd_clear_stall                                  build/usbd_core.o
                                                  build/usbd_sdr.o
usbd_connect                                      build/usbd_core.o
                                                  build/usb_app.o
usbd_connect_state_get                            build/usbd_core.o
                                                  build/freertos_app.o
usbd_core_in_handler                              build/usbd_core.o
                                                  build/usbd_int.o
usbd_core_init                                    build/usbd_core.o
                                                  build/usb_app.o
usbd_core_out_handler                             build/usbd_core.o
                                                  build/usbd_int.o
usbd_core_setup_handler                           build/usbd_core.o
                                                  build/usbd_int.o
usbd_ctrl_recv                                    build/usbd_core.o
                                                  build/cdc_class.o
usbd_ctrl_recv_status                             build/usbd_core.o
usbd_ctrl_send                                    build/usbd_core.o
                                                  build/usbd_sdr.o
                                                  build/cdc_class.o
usbd_ctrl_send_status                             build/usbd_core.o
                                                  build/usbd_sdr.o
usbd_ctrl_unsupport                               build/usbd_core.o
                                                  build/usbd_sdr.o
                                                  build/cdc_class.o
usbd_device_request                               build/usbd_sdr.o
                                                  build/usbd_core.o
usbd_disconnect                                   build/usbd_core.o
usbd_endpoint_request                             build/usbd_sdr.o
                                                  build/usbd_core.o
usbd_enter_suspend                                build/usbd_core.o
                                                  build/usbd_int.o
usbd_ept_buf_auto_define                          build/usbd_core.o
usbd_ept_buf_custom_define                        build/usbd_core.o
usbd_ept_close                                    build/usbd_core.o
                                                  build/cdc_class.o
usbd_ept_dbuffer_enable                           build/usbd_core.o
usbd_ept_defaut_init                              build/usbd_core.o
                                                  build/usbd_int.o
usbd_ept_loop_handler                             build/usbd_int.o
usbd_ept_open                                     build/usbd_core.o
                                                  build/usbd_int.o
                                                  build/cdc_class.o
usbd_ept_recv                                     build/usbd_core.o
                                                  build/usbd_int.o
                                                  build/cdc_class.o
usbd_ept_send                                     build/usbd_core.o
                                                  build/usbd_int.o
                                                  build/cdc_class.o
usbd_eptn_handler                                 build/usbd_int.o
usbd_get_recv_len                                 build/usbd_core.o
                                                  build/cdc_class.o
usbd_interface_request                            build/usbd_sdr.o
                                                  build/usbd_core.o
usbd_irq_handler                                  build/usbd_int.o
                                                  build/usb_app.o
usbd_remote_wakeup                                build/usbd_core.o
usbd_reset_handler                                build/usbd_int.o
usbd_set_device_addr                              build/usbd_core.o
usbd_set_stall                                    build/usbd_core.o
                                                  build/usbd_sdr.o
usbd_setup_request_parse                          build/usbd_sdr.o
                                                  build/usbd_core.o
usbd_sof_handler                                  build/usbd_int.o
usbd_suspend_handler                              build/usbd_int.o
usbd_wakeup_handler                               build/usbd_int.o
uxEventGroupGetNumber                             build/event_groups.o
uxListRemove                                      build/list.o
                                                  build/timers.o
                                                  build/tasks.o
uxQueueGetQueueNumber                             build/queue.o
uxQueueMessagesWaiting                            build/queue.o
uxQueueMessagesWaitingFromISR                     build/queue.o
uxQueueSpacesAvailable                            build/queue.o
uxStreamBufferGetStreamBufferNumber               build/stream_buffer.o
uxTaskGetNumberOfTasks                            build/tasks.o
uxTaskGetStackHighWaterMark                       build/tasks.o
uxTaskGetSystemState                              build/tasks.o
uxTaskGetTaskNumber                               build/tasks.o
uxTaskPriorityGet                                 build/tasks.o
uxTaskPriorityGetFromISR                          build/tasks.o
uxTaskResetEventItemValue                         build/tasks.o
                                                  build/event_groups.o
uxTimerGetReloadMode                              build/timers.o
uxTimerGetTimerNumber                             build/timers.o
uxTopUsedPriority                                 build/tasks.o
vApplicationGetIdleTaskMemory                     build/freertos_app.o
                                                  build/tasks.o
vApplicationGetTimerTaskMemory                    build/freertos_app.o
                                                  build/timers.o
vEventGroupClearBitsCallback                      build/event_groups.o
vEventGroupDelete                                 build/event_groups.o
vEventGroupSetBitsCallback                        build/event_groups.o
vEventGroupSetNumber                              build/event_groups.o
vListInitialise                                   build/list.o
                                                  build/timers.o
                                                  build/tasks.o
                                                  build/queue.o
                                                  build/event_groups.o
vListInitialiseItem                               build/list.o
                                                  build/timers.o
                                                  build/tasks.o
vListInsert                                       build/list.o
                                                  build/timers.o
                                                  build/tasks.o
vListInsertEnd                                    build/list.o
                                                  build/tasks.o
vPortEndScheduler                                 build/port.o
                                                  build/tasks.o
vPortEnterCritical                                build/port.o
                                                  build/stream_buffer.o
                                                  build/heap_4.o
                                                  build/timers.o
                                                  build/tasks.o
                                                  build/queue.o
                                                  build/event_groups.o
                                                  build/freertos_app.o
vPortExitCritical                                 build/port.o
                                                  build/stream_buffer.o
                                                  build/heap_4.o
                                                  build/timers.o
                                                  build/tasks.o
                                                  build/queue.o
                                                  build/event_groups.o
                                                  build/freertos_app.o
vPortFree                                         build/heap_4.o
                                                  build/stream_buffer.o
                                                  build/timers.o
                                                  build/tasks.o
                                                  build/queue.o
                                                  build/event_groups.o
vPortGetHeapStats                                 build/heap_4.o
vPortInitialiseBlocks                             build/heap_4.o
vPortSetupTimerInterrupt                          build/port.o
vPortValidateInterruptPriority                    build/port.o
                                                  build/tasks.o
                                                  build/queue.o
vQueueAddToRegistry                               build/queue.o
                                                  build/timers.o
vQueueDelete                                      build/queue.o
vQueueSetQueueNumber                              build/queue.o
vQueueUnregisterQueue                             build/queue.o
vQueueWaitForMessageRestricted                    build/queue.o
                                                  build/timers.o
vStreamBufferDelete                               build/stream_buffer.o
vStreamBufferSetStreamBufferNumber                build/stream_buffer.o
vTaskDelay                                        build/tasks.o
                                                  build/freertos_app.o
vTaskDelete                                       build/tasks.o
vTaskEndScheduler                                 build/tasks.o
vTaskGenericNotifyGiveFromISR                     build/tasks.o
vTaskGetInfo                                      build/tasks.o
vTaskInternalSetTimeOutState                      build/tasks.o
                                                  build/queue.o
vTaskMissedYield                                  build/tasks.o
                                                  build/queue.o
vTaskPlaceOnEventList                             build/tasks.o
                                                  build/queue.o
vTaskPlaceOnEventListRestricted                   build/tasks.o
                                                  build/queue.o
vTaskPlaceOnUnorderedEventList                    build/tasks.o
                                                  build/event_groups.o
vTaskPriorityDisinheritAfterTimeout               build/tasks.o
                                                  build/queue.o
vTaskPrioritySet                                  build/tasks.o
vTaskRemoveFromUnorderedEventList                 build/tasks.o
                                                  build/event_groups.o
vTaskResume                                       build/tasks.o
vTaskSetTaskNumber                                build/tasks.o
vTaskSetTimeOutState                              build/tasks.o
                                                  build/stream_buffer.o
vTaskStartScheduler                               build/tasks.o
                                                  build/freertos_app.o
vTaskSuspend                                      build/tasks.o
vTaskSuspendAll                                   build/tasks.o
                                                  build/stream_buffer.o
                                                  build/heap_4.o
                                                  build/timers.o
                                                  build/queue.o
                                                  build/event_groups.o
vTaskSwitchContext                                build/tasks.o
                                                  build/port.o
vTimerSetReloadMode                               build/timers.o
vTimerSetTimerID                                  build/timers.o
vTimerSetTimerNumber                              build/timers.o
vfiprintf                                         C:/Program Files (x86)/Arm/GNU Toolchain mingw-w64-i686-arm-none-eabi/bin/../lib/gcc/arm-none-eabi/15.2.1/../../../../arm-none-eabi/lib/thumb/v7e-m+fp/hard\libc_nano.a(libc_a-nano-vfprintf.o)
vfprintf                                          C:/Program Files (x86)/Arm/GNU Toolchain mingw-w64-i686-arm-none-eabi/bin/../lib/gcc/arm-none-eabi/15.2.1/../../../../arm-none-eabi/lib/thumb/v7e-m+fp/hard\libc_nano.a(libc_a-nano-vfprintf.o)
wk_acc_init                                       build/wk_acc.o
                                                  build/main.o
wk_adc1_init                                      build/wk_adc.o
                                                  build/main.o
wk_can1_init                                      build/wk_can.o
                                                  build/main.o
wk_debug_config                                   build/wk_debug.o
                                                  build/main.o
wk_delay_ms                                       build/wk_system.o
                                                  build/usb_app.o
wk_delay_us                                       build/wk_system.o
wk_dma1_channel1_init                             build/wk_dma.o
                                                  build/main.o
wk_dma_channel_config                             build/wk_dma.o
                                                  build/main.o
wk_freertos_init                                  build/freertos_app.o
                                                  build/main.o
wk_gpio_config                                    build/wk_gpio.o
                                                  build/main.o
wk_nvic_config                                    build/at32f403a_407_wk_config.o
                                                  build/main.o
wk_periph_clock_config                            build/at32f403a_407_wk_config.o
                                                  build/main.o
wk_spi1_init                                      build/wk_spi.o
                                                  build/main.o
wk_system_clock_config                            build/at32f403a_407_wk_config.o
                                                  build/main.o
wk_timebase_init                                  build/wk_system.o
                                                  build/main.o
wk_tmr1_init                                      build/wk_tmr.o
                                                  build/freertos_app.o
                                                  build/main.o
wk_usb_app_init                                   build/usb_app.o
                                                  build/main.o
wk_usb_app_task                                   build/usb_app.o
                                                  build/freertos_app.o
wk_usbfs_init                                     build/wk_usbfs.o
                                                  build/main.o
wk_usbfs_irq_handler                              build/usb_app.o
                                                  build/at32f403a_407_int.o
xEventGroupClearBits                              build/event_groups.o
xEventGroupClearBitsFromISR                       build/event_groups.o
xEventGroupCreate                                 build/event_groups.o
xEventGroupCreateStatic                           build/event_groups.o
xEventGroupGetBitsFromISR                         build/event_groups.o
xEventGroupSetBits                                build/event_groups.o
xEventGroupSetBitsFromISR                         build/event_groups.o
xEventGroupSync                                   build/event_groups.o
xEventGroupWaitBits                               build/event_groups.o
xPortGetFreeHeapSize                              build/heap_4.o
xPortGetMinimumEverFreeHeapSize                   build/heap_4.o
xPortStartScheduler                               build/port.o
                                                  build/tasks.o
xPortSysTickHandler                               build/port.o
                                                  build/at32f403a_407_int.o
xQueueCreateCountingSemaphore                     build/queue.o
xQueueCreateCountingSemaphoreStatic               build/queue.o
xQueueCreateMutex                                 build/queue.o
xQueueCreateMutexStatic                           build/queue.o
xQueueGenericCreate                               build/queue.o
xQueueGenericCreateStatic                         build/queue.o
                                                  build/timers.o
xQueueGenericReset                                build/queue.o
xQueueGenericSend                                 build/queue.o
                                                  build/timers.o
xQueueGenericSendFromISR                          build/queue.o
                                                  build/timers.o
xQueueGetMutexHolder                              build/queue.o
xQueueGetMutexHolderFromISR                       build/queue.o
xQueueGiveFromISR                                 build/queue.o
xQueueGiveMutexRecursive                          build/queue.o
xQueueIsQueueEmptyFromISR                         build/queue.o
xQueueIsQueueFullFromISR                          build/queue.o
xQueuePeek                                        build/queue.o
xQueuePeekFromISR                                 build/queue.o
xQueueReceive                                     build/queue.o
                                                  build/timers.o
xQueueReceiveFromISR                              build/queue.o
xQueueRegistry                                    build/queue.o
xQueueSemaphoreTake                               build/queue.o
xQueueTakeMutexRecursive                          build/queue.o
xStreamBufferBytesAvailable                       build/stream_buffer.o
xStreamBufferGenericCreate                        build/stream_buffer.o
xStreamBufferGenericCreateStatic                  build/stream_buffer.o
xStreamBufferIsEmpty                              build/stream_buffer.o
xStreamBufferIsFull                               build/stream_buffer.o
xStreamBufferNextMessageLengthBytes               build/stream_buffer.o
xStreamBufferReceive                              build/stream_buffer.o
xStreamBufferReceiveCompletedFromISR              build/stream_buffer.o
xStreamBufferReceiveFromISR                       build/stream_buffer.o
xStreamBufferReset                                build/stream_buffer.o
xStreamBufferSend                                 build/stream_buffer.o
xStreamBufferSendCompletedFromISR                 build/stream_buffer.o
xStreamBufferSendFromISR                          build/stream_buffer.o
xStreamBufferSetTriggerLevel                      build/stream_buffer.o
xStreamBufferSpacesAvailable                      build/stream_buffer.o
xTaskCatchUpTicks                                 build/tasks.o
xTaskCheckForTimeOut                              build/tasks.o
                                                  build/stream_buffer.o
                                                  build/queue.o
xTaskCreate                                       build/tasks.o
                                                  build/freertos_app.o
xTaskCreateStatic                                 build/tasks.o
                                                  build/timers.o
xTaskDelayUntil                                   build/tasks.o
xTaskGenericNotify                                build/tasks.o
                                                  build/stream_buffer.o
xTaskGenericNotifyFromISR                         build/tasks.o
                                                  build/stream_buffer.o
xTaskGenericNotifyStateClear                      build/tasks.o
                                                  build/stream_buffer.o
xTaskGenericNotifyWait                            build/tasks.o
                                                  build/stream_buffer.o
xTaskGetCurrentTaskHandle                         build/tasks.o
                                                  build/stream_buffer.o
                                                  build/queue.o
xTaskGetSchedulerState                            build/tasks.o
                                                  build/timers.o
                                                  build/queue.o
                                                  build/event_groups.o
                                                  build/at32f403a_407_int.o
xTaskGetTickCount                                 build/tasks.o
                                                  build/timers.o
                                                  build/freertos_app.o
xTaskGetTickCountFromISR                          build/tasks.o
xTaskIncrementTick                                build/tasks.o
                                                  build/port.o
xTaskPriorityDisinherit                           build/tasks.o
                                                  build/queue.o
xTaskPriorityInherit                              build/tasks.o
                                                  build/queue.o
xTaskRemoveFromEventList                          build/tasks.o
                                                  build/queue.o
xTaskResumeAll                                    build/tasks.o
                                                  build/stream_buffer.o
                                                  build/heap_4.o
                                                  build/timers.o
                                                  build/queue.o
                                                  build/event_groups.o
xTaskResumeFromISR                                build/tasks.o
xTimerCreate                                      build/timers.o
xTimerCreateStatic                                build/timers.o
xTimerCreateTimerTask                             build/timers.o
                                                  build/tasks.o
xTimerGenericCommand                              build/timers.o
xTimerGetExpiryTime                               build/timers.o
xTimerGetPeriod                                   build/timers.o
xTimerGetTimerDaemonTaskHandle                    build/timers.o
xTimerIsTimerActive                               build/timers.o
xTimerPendFunctionCall                            build/timers.o
xTimerPendFunctionCallFromISR                     build/timers.o
                                                  build/event_groups.o
