ARM GAS  C:\Users\10963\AppData\Local\Temp\ccHwb33p.s 			page 1


   1              		.cpu cortex-m4
   2              		.arch armv7e-m
   3              		.fpu fpv4-sp-d16
   4              		.eabi_attribute 27, 1
   5              		.eabi_attribute 28, 1
   6              		.eabi_attribute 20, 1
   7              		.eabi_attribute 21, 1
   8              		.eabi_attribute 23, 3
   9              		.eabi_attribute 24, 1
  10              		.eabi_attribute 25, 1
  11              		.eabi_attribute 26, 1
  12              		.eabi_attribute 30, 1
  13              		.eabi_attribute 34, 1
  14              		.eabi_attribute 18, 4
  15              		.file	"at32f403a_407_adc.c"
  16              		.text
  17              	.Ltext0:
  18              		.cfi_sections	.debug_frame
  19              		.file 1 "libraries/drivers/src/at32f403a_407_adc.c"
  20              		.section	.text.adc_reset,"ax",%progbits
  21              		.align	1
  22              		.global	adc_reset
  23              		.syntax unified
  24              		.thumb
  25              		.thumb_func
  27              	adc_reset:
  28              	.LVL0:
  29              	.LFB134:
   1:libraries/drivers/src/at32f403a_407_adc.c **** /**
   2:libraries/drivers/src/at32f403a_407_adc.c ****   **************************************************************************
   3:libraries/drivers/src/at32f403a_407_adc.c ****   * @file     at32f403a_407_adc.c
   4:libraries/drivers/src/at32f403a_407_adc.c ****   * @brief    contains all the functions for the adc firmware library
   5:libraries/drivers/src/at32f403a_407_adc.c ****   **************************************************************************
   6:libraries/drivers/src/at32f403a_407_adc.c ****   *
   7:libraries/drivers/src/at32f403a_407_adc.c ****   * Copyright (c) 2025, Artery Technology, All rights reserved.
   8:libraries/drivers/src/at32f403a_407_adc.c ****   *
   9:libraries/drivers/src/at32f403a_407_adc.c ****   * The software Board Support Package (BSP) that is made available to
  10:libraries/drivers/src/at32f403a_407_adc.c ****   * download from Artery official website is the copyrighted work of Artery.
  11:libraries/drivers/src/at32f403a_407_adc.c ****   * Artery authorizes customers to use, copy, and distribute the BSP
  12:libraries/drivers/src/at32f403a_407_adc.c ****   * software and its related documentation for the purpose of design and
  13:libraries/drivers/src/at32f403a_407_adc.c ****   * development in conjunction with Artery microcontrollers. Use of the
  14:libraries/drivers/src/at32f403a_407_adc.c ****   * software is governed by this copyright notice and the following disclaimer.
  15:libraries/drivers/src/at32f403a_407_adc.c ****   *
  16:libraries/drivers/src/at32f403a_407_adc.c ****   * THIS SOFTWARE IS PROVIDED ON "AS IS" BASIS WITHOUT WARRANTIES,
  17:libraries/drivers/src/at32f403a_407_adc.c ****   * GUARANTEES OR REPRESENTATIONS OF ANY KIND. ARTERY EXPRESSLY DISCLAIMS,
  18:libraries/drivers/src/at32f403a_407_adc.c ****   * TO THE FULLEST EXTENT PERMITTED BY LAW, ALL EXPRESS, IMPLIED OR
  19:libraries/drivers/src/at32f403a_407_adc.c ****   * STATUTORY OR OTHER WARRANTIES, GUARANTEES OR REPRESENTATIONS,
  20:libraries/drivers/src/at32f403a_407_adc.c ****   * INCLUDING BUT NOT LIMITED TO, THE IMPLIED WARRANTIES OF MERCHANTABILITY,
  21:libraries/drivers/src/at32f403a_407_adc.c ****   * FITNESS FOR A PARTICULAR PURPOSE, OR NON-INFRINGEMENT.
  22:libraries/drivers/src/at32f403a_407_adc.c ****   *
  23:libraries/drivers/src/at32f403a_407_adc.c ****   **************************************************************************
  24:libraries/drivers/src/at32f403a_407_adc.c ****   */
  25:libraries/drivers/src/at32f403a_407_adc.c **** 
  26:libraries/drivers/src/at32f403a_407_adc.c **** #include "at32f403a_407_conf.h"
  27:libraries/drivers/src/at32f403a_407_adc.c **** 
  28:libraries/drivers/src/at32f403a_407_adc.c **** /** @addtogroup AT32F403A_407_periph_driver
  29:libraries/drivers/src/at32f403a_407_adc.c ****   * @{
ARM GAS  C:\Users\10963\AppData\Local\Temp\ccHwb33p.s 			page 2


  30:libraries/drivers/src/at32f403a_407_adc.c ****   */
  31:libraries/drivers/src/at32f403a_407_adc.c **** 
  32:libraries/drivers/src/at32f403a_407_adc.c **** /** @defgroup ADC
  33:libraries/drivers/src/at32f403a_407_adc.c ****   * @brief ADC driver modules
  34:libraries/drivers/src/at32f403a_407_adc.c ****   * @{
  35:libraries/drivers/src/at32f403a_407_adc.c ****   */
  36:libraries/drivers/src/at32f403a_407_adc.c **** 
  37:libraries/drivers/src/at32f403a_407_adc.c **** #ifdef ADC_MODULE_ENABLED
  38:libraries/drivers/src/at32f403a_407_adc.c **** 
  39:libraries/drivers/src/at32f403a_407_adc.c **** /** @defgroup ADC_private_functions
  40:libraries/drivers/src/at32f403a_407_adc.c ****   * @{
  41:libraries/drivers/src/at32f403a_407_adc.c ****   */
  42:libraries/drivers/src/at32f403a_407_adc.c **** 
  43:libraries/drivers/src/at32f403a_407_adc.c **** /**
  44:libraries/drivers/src/at32f403a_407_adc.c ****   * @brief  deinitialize the adc peripheral registers to their default reset values.
  45:libraries/drivers/src/at32f403a_407_adc.c ****   * @param  adc_x: select the adc peripheral.
  46:libraries/drivers/src/at32f403a_407_adc.c ****   *         this parameter can be one of the following values:
  47:libraries/drivers/src/at32f403a_407_adc.c ****   *         ADC1, ADC2, ADC3.
  48:libraries/drivers/src/at32f403a_407_adc.c ****   * @retval none
  49:libraries/drivers/src/at32f403a_407_adc.c ****   */
  50:libraries/drivers/src/at32f403a_407_adc.c **** void adc_reset(adc_type *adc_x)
  51:libraries/drivers/src/at32f403a_407_adc.c **** {
  30              		.loc 1 51 1 view -0
  31              		.cfi_startproc
  32              		@ args = 0, pretend = 0, frame = 0
  33              		@ frame_needed = 0, uses_anonymous_args = 0
  34              		.loc 1 51 1 is_stmt 0 view .LVU1
  35 0000 08B5     		push	{r3, lr}
  36              	.LCFI0:
  37              		.cfi_def_cfa_offset 8
  38              		.cfi_offset 3, -8
  39              		.cfi_offset 14, -4
  52:libraries/drivers/src/at32f403a_407_adc.c ****   if(adc_x == ADC1)
  40              		.loc 1 52 3 is_stmt 1 view .LVU2
  41              		.loc 1 52 5 is_stmt 0 view .LVU3
  42 0002 124B     		ldr	r3, .L9
  43 0004 9842     		cmp	r0, r3
  44 0006 06D0     		beq	.L6
  53:libraries/drivers/src/at32f403a_407_adc.c ****   {
  54:libraries/drivers/src/at32f403a_407_adc.c ****     crm_periph_reset(CRM_ADC1_PERIPH_RESET, TRUE);
  55:libraries/drivers/src/at32f403a_407_adc.c ****     crm_periph_reset(CRM_ADC1_PERIPH_RESET, FALSE);
  56:libraries/drivers/src/at32f403a_407_adc.c ****   }
  57:libraries/drivers/src/at32f403a_407_adc.c ****   else if(adc_x == ADC2)
  45              		.loc 1 57 8 is_stmt 1 view .LVU4
  46              		.loc 1 57 10 is_stmt 0 view .LVU5
  47 0008 114B     		ldr	r3, .L9+4
  48 000a 9842     		cmp	r0, r3
  49 000c 0CD0     		beq	.L7
  58:libraries/drivers/src/at32f403a_407_adc.c ****   {
  59:libraries/drivers/src/at32f403a_407_adc.c ****     crm_periph_reset(CRM_ADC2_PERIPH_RESET, TRUE);
  60:libraries/drivers/src/at32f403a_407_adc.c ****     crm_periph_reset(CRM_ADC2_PERIPH_RESET, FALSE);
  61:libraries/drivers/src/at32f403a_407_adc.c ****   }
  62:libraries/drivers/src/at32f403a_407_adc.c ****   else if(adc_x == ADC3)
  50              		.loc 1 62 8 is_stmt 1 view .LVU6
  51              		.loc 1 62 10 is_stmt 0 view .LVU7
  52 000e 114B     		ldr	r3, .L9+8
  53 0010 9842     		cmp	r0, r3
ARM GAS  C:\Users\10963\AppData\Local\Temp\ccHwb33p.s 			page 3


  54 0012 12D0     		beq	.L8
  55              	.LVL1:
  56              	.L1:
  63:libraries/drivers/src/at32f403a_407_adc.c ****   {
  64:libraries/drivers/src/at32f403a_407_adc.c ****     crm_periph_reset(CRM_ADC3_PERIPH_RESET, TRUE);
  65:libraries/drivers/src/at32f403a_407_adc.c ****     crm_periph_reset(CRM_ADC3_PERIPH_RESET, FALSE);
  66:libraries/drivers/src/at32f403a_407_adc.c ****   }
  67:libraries/drivers/src/at32f403a_407_adc.c **** }
  57              		.loc 1 67 1 view .LVU8
  58 0014 08BD     		pop	{r3, pc}
  59              	.LVL2:
  60              	.L6:
  54:libraries/drivers/src/at32f403a_407_adc.c ****     crm_periph_reset(CRM_ADC1_PERIPH_RESET, FALSE);
  61              		.loc 1 54 5 is_stmt 1 view .LVU9
  62 0016 0121     		movs	r1, #1
  63 0018 0F48     		ldr	r0, .L9+12
  64              	.LVL3:
  54:libraries/drivers/src/at32f403a_407_adc.c ****     crm_periph_reset(CRM_ADC1_PERIPH_RESET, FALSE);
  65              		.loc 1 54 5 is_stmt 0 view .LVU10
  66 001a FFF7FEFF 		bl	crm_periph_reset
  67              	.LVL4:
  55:libraries/drivers/src/at32f403a_407_adc.c ****   }
  68              		.loc 1 55 5 is_stmt 1 view .LVU11
  69 001e 0021     		movs	r1, #0
  70 0020 0D48     		ldr	r0, .L9+12
  71 0022 FFF7FEFF 		bl	crm_periph_reset
  72              	.LVL5:
  73 0026 F5E7     		b	.L1
  74              	.LVL6:
  75              	.L7:
  59:libraries/drivers/src/at32f403a_407_adc.c ****     crm_periph_reset(CRM_ADC2_PERIPH_RESET, FALSE);
  76              		.loc 1 59 5 view .LVU12
  77 0028 0121     		movs	r1, #1
  78 002a 0C48     		ldr	r0, .L9+16
  79              	.LVL7:
  59:libraries/drivers/src/at32f403a_407_adc.c ****     crm_periph_reset(CRM_ADC2_PERIPH_RESET, FALSE);
  80              		.loc 1 59 5 is_stmt 0 view .LVU13
  81 002c FFF7FEFF 		bl	crm_periph_reset
  82              	.LVL8:
  60:libraries/drivers/src/at32f403a_407_adc.c ****   }
  83              		.loc 1 60 5 is_stmt 1 view .LVU14
  84 0030 0021     		movs	r1, #0
  85 0032 0A48     		ldr	r0, .L9+16
  86 0034 FFF7FEFF 		bl	crm_periph_reset
  87              	.LVL9:
  88 0038 ECE7     		b	.L1
  89              	.LVL10:
  90              	.L8:
  64:libraries/drivers/src/at32f403a_407_adc.c ****     crm_periph_reset(CRM_ADC3_PERIPH_RESET, FALSE);
  91              		.loc 1 64 5 view .LVU15
  92 003a 0121     		movs	r1, #1
  93 003c 0848     		ldr	r0, .L9+20
  94              	.LVL11:
  64:libraries/drivers/src/at32f403a_407_adc.c ****     crm_periph_reset(CRM_ADC3_PERIPH_RESET, FALSE);
  95              		.loc 1 64 5 is_stmt 0 view .LVU16
  96 003e FFF7FEFF 		bl	crm_periph_reset
  97              	.LVL12:
ARM GAS  C:\Users\10963\AppData\Local\Temp\ccHwb33p.s 			page 4


  65:libraries/drivers/src/at32f403a_407_adc.c ****   }
  98              		.loc 1 65 5 is_stmt 1 view .LVU17
  99 0042 0021     		movs	r1, #0
 100 0044 0648     		ldr	r0, .L9+20
 101 0046 FFF7FEFF 		bl	crm_periph_reset
 102              	.LVL13:
 103              		.loc 1 67 1 is_stmt 0 view .LVU18
 104 004a E3E7     		b	.L1
 105              	.L10:
 106              		.align	2
 107              	.L9:
 108 004c 00240140 		.word	1073816576
 109 0050 00280140 		.word	1073817600
 110 0054 003C0140 		.word	1073822720
 111 0058 09000C00 		.word	786441
 112 005c 0A000C00 		.word	786442
 113 0060 0F000C00 		.word	786447
 114              		.cfi_endproc
 115              	.LFE134:
 117              		.section	.text.adc_enable,"ax",%progbits
 118              		.align	1
 119              		.global	adc_enable
 120              		.syntax unified
 121              		.thumb
 122              		.thumb_func
 124              	adc_enable:
 125              	.LVL14:
 126              	.LFB135:
  68:libraries/drivers/src/at32f403a_407_adc.c **** 
  69:libraries/drivers/src/at32f403a_407_adc.c **** /**
  70:libraries/drivers/src/at32f403a_407_adc.c ****   * @brief  enable or disable the specified adc peripheral.
  71:libraries/drivers/src/at32f403a_407_adc.c ****   * @param  adc_x: select the adc peripheral.
  72:libraries/drivers/src/at32f403a_407_adc.c ****   *         this parameter can be one of the following values:
  73:libraries/drivers/src/at32f403a_407_adc.c ****   *         ADC1, ADC2, ADC3.
  74:libraries/drivers/src/at32f403a_407_adc.c ****   * @param  new_state: new state of a/d converter.
  75:libraries/drivers/src/at32f403a_407_adc.c ****   *         this parameter can be: TRUE or FALSE.
  76:libraries/drivers/src/at32f403a_407_adc.c ****   *         note:after adc ready,user set adcen bit will cause ordinary conversion
  77:libraries/drivers/src/at32f403a_407_adc.c ****   * @retval none
  78:libraries/drivers/src/at32f403a_407_adc.c ****   */
  79:libraries/drivers/src/at32f403a_407_adc.c **** void adc_enable(adc_type *adc_x, confirm_state new_state)
  80:libraries/drivers/src/at32f403a_407_adc.c **** {
 127              		.loc 1 80 1 is_stmt 1 view -0
 128              		.cfi_startproc
 129              		@ args = 0, pretend = 0, frame = 0
 130              		@ frame_needed = 0, uses_anonymous_args = 0
 131              		@ link register save eliminated.
  81:libraries/drivers/src/at32f403a_407_adc.c ****   adc_x->ctrl2_bit.adcen = new_state;
 132              		.loc 1 81 3 view .LVU20
 133              		.loc 1 81 26 is_stmt 0 view .LVU21
 134 0000 8368     		ldr	r3, [r0, #8]
 135 0002 61F30003 		bfi	r3, r1, #0, #1
 136 0006 8360     		str	r3, [r0, #8]
  82:libraries/drivers/src/at32f403a_407_adc.c **** }
 137              		.loc 1 82 1 view .LVU22
 138 0008 7047     		bx	lr
 139              		.cfi_endproc
 140              	.LFE135:
ARM GAS  C:\Users\10963\AppData\Local\Temp\ccHwb33p.s 			page 5


 142              		.section	.text.adc_combine_mode_select,"ax",%progbits
 143              		.align	1
 144              		.global	adc_combine_mode_select
 145              		.syntax unified
 146              		.thumb
 147              		.thumb_func
 149              	adc_combine_mode_select:
 150              	.LVL15:
 151              	.LFB136:
  83:libraries/drivers/src/at32f403a_407_adc.c **** 
  84:libraries/drivers/src/at32f403a_407_adc.c **** /**
  85:libraries/drivers/src/at32f403a_407_adc.c ****   * @brief  select combine mode of the specified adc peripheral.
  86:libraries/drivers/src/at32f403a_407_adc.c ****   * @param  combine_mode: select the adc combine mode.
  87:libraries/drivers/src/at32f403a_407_adc.c ****   *         this parameter can be one of the following values:
  88:libraries/drivers/src/at32f403a_407_adc.c ****   *         - ADC_INDEPENDENT_MODE
  89:libraries/drivers/src/at32f403a_407_adc.c ****   *         - ADC_ORDINARY_SMLT_PREEMPT_SMLT_MODE
  90:libraries/drivers/src/at32f403a_407_adc.c ****   *         - ADC_ORDINARY_SMLT_PREEMPT_INTERLTRIG_MODE
  91:libraries/drivers/src/at32f403a_407_adc.c ****   *         - ADC_ORDINARY_SHORTSHIFT_PREEMPT_SMLT_MODE
  92:libraries/drivers/src/at32f403a_407_adc.c ****   *         - ADC_ORDINARY_LONGSHIFT_PREEMPT_SMLT_MODE
  93:libraries/drivers/src/at32f403a_407_adc.c ****   *         - ADC_PREEMPT_SMLT_ONLY_MODE
  94:libraries/drivers/src/at32f403a_407_adc.c ****   *         - ADC_ORDINARY_SMLT_ONLY_MODE
  95:libraries/drivers/src/at32f403a_407_adc.c ****   *         - ADC_ORDINARY_SHORTSHIFT_ONLY_MODE
  96:libraries/drivers/src/at32f403a_407_adc.c ****   *         - ADC_ORDINARY_LONGSHIFT_ONLY_MODE
  97:libraries/drivers/src/at32f403a_407_adc.c ****   *         - ADC_PREEMPT_INTERLTRIG_ONLY_MODE
  98:libraries/drivers/src/at32f403a_407_adc.c ****   *         note:these bits are reserved in adc2 and adc3
  99:libraries/drivers/src/at32f403a_407_adc.c ****   * @retval none
 100:libraries/drivers/src/at32f403a_407_adc.c ****   */
 101:libraries/drivers/src/at32f403a_407_adc.c **** void adc_combine_mode_select(adc_combine_mode_type combine_mode)
 102:libraries/drivers/src/at32f403a_407_adc.c **** {
 152              		.loc 1 102 1 is_stmt 1 view -0
 153              		.cfi_startproc
 154              		@ args = 0, pretend = 0, frame = 0
 155              		@ frame_needed = 0, uses_anonymous_args = 0
 156              		@ link register save eliminated.
 103:libraries/drivers/src/at32f403a_407_adc.c ****     ADC1->ctrl1_bit.mssel = combine_mode;
 157              		.loc 1 103 5 view .LVU24
 158              		.loc 1 103 27 is_stmt 0 view .LVU25
 159 0000 024B     		ldr	r3, .L13
 160 0002 5A68     		ldr	r2, [r3, #4]
 161 0004 60F31342 		bfi	r2, r0, #16, #4
 162 0008 5A60     		str	r2, [r3, #4]
 104:libraries/drivers/src/at32f403a_407_adc.c **** }
 163              		.loc 1 104 1 view .LVU26
 164 000a 7047     		bx	lr
 165              	.L14:
 166              		.align	2
 167              	.L13:
 168 000c 00240140 		.word	1073816576
 169              		.cfi_endproc
 170              	.LFE136:
 172              		.section	.text.adc_base_default_para_init,"ax",%progbits
 173              		.align	1
 174              		.global	adc_base_default_para_init
 175              		.syntax unified
 176              		.thumb
 177              		.thumb_func
 179              	adc_base_default_para_init:
ARM GAS  C:\Users\10963\AppData\Local\Temp\ccHwb33p.s 			page 6


 180              	.LVL16:
 181              	.LFB137:
 105:libraries/drivers/src/at32f403a_407_adc.c **** 
 106:libraries/drivers/src/at32f403a_407_adc.c **** /**
 107:libraries/drivers/src/at32f403a_407_adc.c ****   * @brief  adc base default para init.
 108:libraries/drivers/src/at32f403a_407_adc.c ****   * @param  sequence_mode: set the state of adc sequence mode.
 109:libraries/drivers/src/at32f403a_407_adc.c ****   *         this parameter can be:TRUE or FALSE
 110:libraries/drivers/src/at32f403a_407_adc.c ****   * @param  repeat_mode: set the state of adc repeat conversion mode.
 111:libraries/drivers/src/at32f403a_407_adc.c ****   *         this parameter can be:TRUE or FALSE
 112:libraries/drivers/src/at32f403a_407_adc.c ****   * @param  data_align: set the state of adc data alignment.
 113:libraries/drivers/src/at32f403a_407_adc.c ****   *         this parameter can be one of the following values:
 114:libraries/drivers/src/at32f403a_407_adc.c ****   *         - ADC_RIGHT_ALIGNMENT
 115:libraries/drivers/src/at32f403a_407_adc.c ****   *         - ADC_LEFT_ALIGNMENT
 116:libraries/drivers/src/at32f403a_407_adc.c ****   * @param  ordinary_channel_length: configure the adc ordinary channel sequence length.
 117:libraries/drivers/src/at32f403a_407_adc.c ****   *         this parameter can be:
 118:libraries/drivers/src/at32f403a_407_adc.c ****   *         - (0x1~0x10)
 119:libraries/drivers/src/at32f403a_407_adc.c ****   * @retval none
 120:libraries/drivers/src/at32f403a_407_adc.c ****   */
 121:libraries/drivers/src/at32f403a_407_adc.c **** void adc_base_default_para_init(adc_base_config_type *adc_base_struct)
 122:libraries/drivers/src/at32f403a_407_adc.c **** {
 182              		.loc 1 122 1 is_stmt 1 view -0
 183              		.cfi_startproc
 184              		@ args = 0, pretend = 0, frame = 0
 185              		@ frame_needed = 0, uses_anonymous_args = 0
 186              		@ link register save eliminated.
 123:libraries/drivers/src/at32f403a_407_adc.c ****   adc_base_struct->sequence_mode = FALSE;
 187              		.loc 1 123 3 view .LVU28
 188              		.loc 1 123 34 is_stmt 0 view .LVU29
 189 0000 0023     		movs	r3, #0
 190 0002 0370     		strb	r3, [r0]
 124:libraries/drivers/src/at32f403a_407_adc.c ****   adc_base_struct->repeat_mode = FALSE;
 191              		.loc 1 124 3 is_stmt 1 view .LVU30
 192              		.loc 1 124 32 is_stmt 0 view .LVU31
 193 0004 4370     		strb	r3, [r0, #1]
 125:libraries/drivers/src/at32f403a_407_adc.c ****   adc_base_struct->data_align = ADC_RIGHT_ALIGNMENT;
 194              		.loc 1 125 3 is_stmt 1 view .LVU32
 195              		.loc 1 125 31 is_stmt 0 view .LVU33
 196 0006 8370     		strb	r3, [r0, #2]
 126:libraries/drivers/src/at32f403a_407_adc.c ****   adc_base_struct->ordinary_channel_length = 1;
 197              		.loc 1 126 3 is_stmt 1 view .LVU34
 198              		.loc 1 126 44 is_stmt 0 view .LVU35
 199 0008 0123     		movs	r3, #1
 200 000a C370     		strb	r3, [r0, #3]
 127:libraries/drivers/src/at32f403a_407_adc.c **** }
 201              		.loc 1 127 1 view .LVU36
 202 000c 7047     		bx	lr
 203              		.cfi_endproc
 204              	.LFE137:
 206              		.section	.text.adc_base_config,"ax",%progbits
 207              		.align	1
 208              		.global	adc_base_config
 209              		.syntax unified
 210              		.thumb
 211              		.thumb_func
 213              	adc_base_config:
 214              	.LVL17:
 215              	.LFB138:
ARM GAS  C:\Users\10963\AppData\Local\Temp\ccHwb33p.s 			page 7


 128:libraries/drivers/src/at32f403a_407_adc.c **** 
 129:libraries/drivers/src/at32f403a_407_adc.c **** /**
 130:libraries/drivers/src/at32f403a_407_adc.c ****   * @brief  initialize the adc peripheral according to the specified parameters.
 131:libraries/drivers/src/at32f403a_407_adc.c ****   * @param  adc_x: select the adc peripheral.
 132:libraries/drivers/src/at32f403a_407_adc.c ****   *         this parameter can be one of the following values:
 133:libraries/drivers/src/at32f403a_407_adc.c ****   *         ADC1, ADC2, ADC3.
 134:libraries/drivers/src/at32f403a_407_adc.c ****   * @param  sequence_mode: set the state of adc sequence mode.
 135:libraries/drivers/src/at32f403a_407_adc.c ****   *         this parameter can be:TRUE or FALSE
 136:libraries/drivers/src/at32f403a_407_adc.c ****   * @param  repeat_mode: set the state of adc repeat conversion mode.
 137:libraries/drivers/src/at32f403a_407_adc.c ****   *         this parameter can be:TRUE or FALSE
 138:libraries/drivers/src/at32f403a_407_adc.c ****   * @param  data_align: set the state of adc data alignment.
 139:libraries/drivers/src/at32f403a_407_adc.c ****   *         this parameter can be one of the following values:
 140:libraries/drivers/src/at32f403a_407_adc.c ****   *         - ADC_RIGHT_ALIGNMENT
 141:libraries/drivers/src/at32f403a_407_adc.c ****   *         - ADC_LEFT_ALIGNMENT
 142:libraries/drivers/src/at32f403a_407_adc.c ****   * @param  ordinary_channel_length: configure the adc ordinary channel sequence length.
 143:libraries/drivers/src/at32f403a_407_adc.c ****   *         this parameter can be:
 144:libraries/drivers/src/at32f403a_407_adc.c ****   *         - (0x1~0x10)
 145:libraries/drivers/src/at32f403a_407_adc.c ****   * @retval none
 146:libraries/drivers/src/at32f403a_407_adc.c ****   */
 147:libraries/drivers/src/at32f403a_407_adc.c **** void adc_base_config(adc_type *adc_x, adc_base_config_type *adc_base_struct)
 148:libraries/drivers/src/at32f403a_407_adc.c **** {
 216              		.loc 1 148 1 is_stmt 1 view -0
 217              		.cfi_startproc
 218              		@ args = 0, pretend = 0, frame = 0
 219              		@ frame_needed = 0, uses_anonymous_args = 0
 220              		@ link register save eliminated.
 149:libraries/drivers/src/at32f403a_407_adc.c ****   adc_x->ctrl1_bit.sqen = adc_base_struct->sequence_mode;
 221              		.loc 1 149 3 view .LVU38
 222              		.loc 1 149 42 is_stmt 0 view .LVU39
 223 0000 0A78     		ldrb	r2, [r1]	@ zero_extendqisi2
 224              		.loc 1 149 25 view .LVU40
 225 0002 4368     		ldr	r3, [r0, #4]
 226 0004 62F30823 		bfi	r3, r2, #8, #1
 227 0008 4360     		str	r3, [r0, #4]
 150:libraries/drivers/src/at32f403a_407_adc.c ****   adc_x->ctrl2_bit.rpen = adc_base_struct->repeat_mode;
 228              		.loc 1 150 3 is_stmt 1 view .LVU41
 229              		.loc 1 150 42 is_stmt 0 view .LVU42
 230 000a 4A78     		ldrb	r2, [r1, #1]	@ zero_extendqisi2
 231              		.loc 1 150 25 view .LVU43
 232 000c 8368     		ldr	r3, [r0, #8]
 233 000e 62F34103 		bfi	r3, r2, #1, #1
 234 0012 8360     		str	r3, [r0, #8]
 151:libraries/drivers/src/at32f403a_407_adc.c ****   adc_x->ctrl2_bit.dtalign = adc_base_struct->data_align;
 235              		.loc 1 151 3 is_stmt 1 view .LVU44
 236              		.loc 1 151 45 is_stmt 0 view .LVU45
 237 0014 8A78     		ldrb	r2, [r1, #2]	@ zero_extendqisi2
 238              		.loc 1 151 28 view .LVU46
 239 0016 8368     		ldr	r3, [r0, #8]
 240 0018 62F3CB23 		bfi	r3, r2, #11, #1
 241 001c 8360     		str	r3, [r0, #8]
 152:libraries/drivers/src/at32f403a_407_adc.c ****   adc_x->osq1_bit.oclen = adc_base_struct->ordinary_channel_length - 1;
 242              		.loc 1 152 3 is_stmt 1 view .LVU47
 243              		.loc 1 152 42 is_stmt 0 view .LVU48
 244 001e CB78     		ldrb	r3, [r1, #3]	@ zero_extendqisi2
 245              		.loc 1 152 68 view .LVU49
 246 0020 013B     		subs	r3, r3, #1
 247              		.loc 1 152 25 view .LVU50
ARM GAS  C:\Users\10963\AppData\Local\Temp\ccHwb33p.s 			page 8


 248 0022 C26A     		ldr	r2, [r0, #44]
 249 0024 63F31752 		bfi	r2, r3, #20, #4
 250 0028 C262     		str	r2, [r0, #44]
 153:libraries/drivers/src/at32f403a_407_adc.c **** }
 251              		.loc 1 153 1 view .LVU51
 252 002a 7047     		bx	lr
 253              		.cfi_endproc
 254              	.LFE138:
 256              		.section	.text.adc_dma_mode_enable,"ax",%progbits
 257              		.align	1
 258              		.global	adc_dma_mode_enable
 259              		.syntax unified
 260              		.thumb
 261              		.thumb_func
 263              	adc_dma_mode_enable:
 264              	.LVL18:
 265              	.LFB139:
 154:libraries/drivers/src/at32f403a_407_adc.c **** 
 155:libraries/drivers/src/at32f403a_407_adc.c **** /**
 156:libraries/drivers/src/at32f403a_407_adc.c ****   * @brief  enable or disable the adc dma transfer.
 157:libraries/drivers/src/at32f403a_407_adc.c ****   * @param  adc_x: select the adc peripheral.
 158:libraries/drivers/src/at32f403a_407_adc.c ****   *         this parameter can be one of the following values:
 159:libraries/drivers/src/at32f403a_407_adc.c ****   *         ADC1, ADC3.
 160:libraries/drivers/src/at32f403a_407_adc.c ****   *         note:this bit is reserved in adc2
 161:libraries/drivers/src/at32f403a_407_adc.c ****   * @param  new_state: new state of the adc dma transfer.
 162:libraries/drivers/src/at32f403a_407_adc.c ****   *         this parameter can be: TRUE or FALSE.
 163:libraries/drivers/src/at32f403a_407_adc.c ****   * @retval none
 164:libraries/drivers/src/at32f403a_407_adc.c ****   */
 165:libraries/drivers/src/at32f403a_407_adc.c **** void adc_dma_mode_enable(adc_type *adc_x, confirm_state new_state)
 166:libraries/drivers/src/at32f403a_407_adc.c **** {
 266              		.loc 1 166 1 is_stmt 1 view -0
 267              		.cfi_startproc
 268              		@ args = 0, pretend = 0, frame = 0
 269              		@ frame_needed = 0, uses_anonymous_args = 0
 270              		@ link register save eliminated.
 167:libraries/drivers/src/at32f403a_407_adc.c ****   adc_x->ctrl2_bit.ocdmaen = new_state;
 271              		.loc 1 167 3 view .LVU53
 272              		.loc 1 167 28 is_stmt 0 view .LVU54
 273 0000 8368     		ldr	r3, [r0, #8]
 274 0002 61F30823 		bfi	r3, r1, #8, #1
 275 0006 8360     		str	r3, [r0, #8]
 168:libraries/drivers/src/at32f403a_407_adc.c **** }
 276              		.loc 1 168 1 view .LVU55
 277 0008 7047     		bx	lr
 278              		.cfi_endproc
 279              	.LFE139:
 281              		.section	.text.adc_interrupt_enable,"ax",%progbits
 282              		.align	1
 283              		.global	adc_interrupt_enable
 284              		.syntax unified
 285              		.thumb
 286              		.thumb_func
 288              	adc_interrupt_enable:
 289              	.LVL19:
 290              	.LFB140:
 169:libraries/drivers/src/at32f403a_407_adc.c **** 
 170:libraries/drivers/src/at32f403a_407_adc.c **** /**
ARM GAS  C:\Users\10963\AppData\Local\Temp\ccHwb33p.s 			page 9


 171:libraries/drivers/src/at32f403a_407_adc.c ****   * @brief  enable or disable the specified adc interrupts.
 172:libraries/drivers/src/at32f403a_407_adc.c ****   * @param  adc_x: select the adc peripheral.
 173:libraries/drivers/src/at32f403a_407_adc.c ****   *         this parameter can be one of the following values:
 174:libraries/drivers/src/at32f403a_407_adc.c ****   *         ADC1, ADC2, ADC3.
 175:libraries/drivers/src/at32f403a_407_adc.c ****   * @param  adc_int: specifies the adc interrupt sources to be enabled or disabled.
 176:libraries/drivers/src/at32f403a_407_adc.c ****   *         this parameter can be one of the following values:
 177:libraries/drivers/src/at32f403a_407_adc.c ****   *         - ADC_VMOR_INT
 178:libraries/drivers/src/at32f403a_407_adc.c ****   *         - ADC_CCE_INT
 179:libraries/drivers/src/at32f403a_407_adc.c ****   *         - ADC_PCCE_INT
 180:libraries/drivers/src/at32f403a_407_adc.c ****   * @param  new_state: new state of the specified adc interrupts.
 181:libraries/drivers/src/at32f403a_407_adc.c ****   *         this parameter can be: TRUE or FALSE.
 182:libraries/drivers/src/at32f403a_407_adc.c ****   * @retval none
 183:libraries/drivers/src/at32f403a_407_adc.c ****   */
 184:libraries/drivers/src/at32f403a_407_adc.c **** void adc_interrupt_enable(adc_type *adc_x, uint32_t adc_int, confirm_state new_state)
 185:libraries/drivers/src/at32f403a_407_adc.c **** {
 291              		.loc 1 185 1 is_stmt 1 view -0
 292              		.cfi_startproc
 293              		@ args = 0, pretend = 0, frame = 0
 294              		@ frame_needed = 0, uses_anonymous_args = 0
 295              		@ link register save eliminated.
 186:libraries/drivers/src/at32f403a_407_adc.c ****   if(new_state == TRUE)
 296              		.loc 1 186 3 view .LVU57
 297              		.loc 1 186 5 is_stmt 0 view .LVU58
 298 0000 012A     		cmp	r2, #1
 299 0002 05D0     		beq	.L21
 187:libraries/drivers/src/at32f403a_407_adc.c ****   {
 188:libraries/drivers/src/at32f403a_407_adc.c ****     adc_x->ctrl1 |= adc_int;
 189:libraries/drivers/src/at32f403a_407_adc.c ****   }
 190:libraries/drivers/src/at32f403a_407_adc.c ****   else if(new_state == FALSE)
 300              		.loc 1 190 8 is_stmt 1 view .LVU59
 301              		.loc 1 190 10 is_stmt 0 view .LVU60
 302 0004 1AB9     		cbnz	r2, .L18
 191:libraries/drivers/src/at32f403a_407_adc.c ****   {
 192:libraries/drivers/src/at32f403a_407_adc.c ****     adc_x->ctrl1 &= ~adc_int;
 303              		.loc 1 192 5 is_stmt 1 view .LVU61
 304              		.loc 1 192 10 is_stmt 0 view .LVU62
 305 0006 4368     		ldr	r3, [r0, #4]
 306              		.loc 1 192 18 view .LVU63
 307 0008 23EA0103 		bic	r3, r3, r1
 308 000c 4360     		str	r3, [r0, #4]
 309              	.L18:
 193:libraries/drivers/src/at32f403a_407_adc.c ****   }
 194:libraries/drivers/src/at32f403a_407_adc.c **** }
 310              		.loc 1 194 1 view .LVU64
 311 000e 7047     		bx	lr
 312              	.L21:
 188:libraries/drivers/src/at32f403a_407_adc.c ****   }
 313              		.loc 1 188 5 is_stmt 1 view .LVU65
 188:libraries/drivers/src/at32f403a_407_adc.c ****   }
 314              		.loc 1 188 10 is_stmt 0 view .LVU66
 315 0010 4368     		ldr	r3, [r0, #4]
 188:libraries/drivers/src/at32f403a_407_adc.c ****   }
 316              		.loc 1 188 18 view .LVU67
 317 0012 0B43     		orrs	r3, r3, r1
 318 0014 4360     		str	r3, [r0, #4]
 319 0016 7047     		bx	lr
 320              		.cfi_endproc
ARM GAS  C:\Users\10963\AppData\Local\Temp\ccHwb33p.s 			page 10


 321              	.LFE140:
 323              		.section	.text.adc_calibration_init,"ax",%progbits
 324              		.align	1
 325              		.global	adc_calibration_init
 326              		.syntax unified
 327              		.thumb
 328              		.thumb_func
 330              	adc_calibration_init:
 331              	.LVL20:
 332              	.LFB141:
 195:libraries/drivers/src/at32f403a_407_adc.c **** 
 196:libraries/drivers/src/at32f403a_407_adc.c **** /**
 197:libraries/drivers/src/at32f403a_407_adc.c ****   * @brief  initialize calibration register of the specified adc peripheral.
 198:libraries/drivers/src/at32f403a_407_adc.c ****   * @param  adc_x: select the adc peripheral.
 199:libraries/drivers/src/at32f403a_407_adc.c ****   *         this parameter can be one of the following values:
 200:libraries/drivers/src/at32f403a_407_adc.c ****   *         ADC1, ADC2, ADC3.
 201:libraries/drivers/src/at32f403a_407_adc.c ****   * @retval none
 202:libraries/drivers/src/at32f403a_407_adc.c ****   */
 203:libraries/drivers/src/at32f403a_407_adc.c **** void adc_calibration_init(adc_type *adc_x)
 204:libraries/drivers/src/at32f403a_407_adc.c **** {
 333              		.loc 1 204 1 is_stmt 1 view -0
 334              		.cfi_startproc
 335              		@ args = 0, pretend = 0, frame = 0
 336              		@ frame_needed = 0, uses_anonymous_args = 0
 337              		@ link register save eliminated.
 205:libraries/drivers/src/at32f403a_407_adc.c ****   adc_x->ctrl2_bit.adcalinit = TRUE;
 338              		.loc 1 205 3 view .LVU69
 339              		.loc 1 205 30 is_stmt 0 view .LVU70
 340 0000 8368     		ldr	r3, [r0, #8]
 341 0002 43F00803 		orr	r3, r3, #8
 342 0006 8360     		str	r3, [r0, #8]
 206:libraries/drivers/src/at32f403a_407_adc.c **** }
 343              		.loc 1 206 1 view .LVU71
 344 0008 7047     		bx	lr
 345              		.cfi_endproc
 346              	.LFE141:
 348              		.section	.text.adc_calibration_init_status_get,"ax",%progbits
 349              		.align	1
 350              		.global	adc_calibration_init_status_get
 351              		.syntax unified
 352              		.thumb
 353              		.thumb_func
 355              	adc_calibration_init_status_get:
 356              	.LVL21:
 357              	.LFB142:
 207:libraries/drivers/src/at32f403a_407_adc.c **** 
 208:libraries/drivers/src/at32f403a_407_adc.c **** /**
 209:libraries/drivers/src/at32f403a_407_adc.c ****   * @brief  get calibration register's initialize status of the specified adc peripheral.
 210:libraries/drivers/src/at32f403a_407_adc.c ****   * @param  adc_x: select the adc peripheral.
 211:libraries/drivers/src/at32f403a_407_adc.c ****   *         this parameter can be one of the following values:
 212:libraries/drivers/src/at32f403a_407_adc.c ****   *         ADC1, ADC2, ADC3.
 213:libraries/drivers/src/at32f403a_407_adc.c ****   * @retval the new state of reset calibration register status(SET or RESET).
 214:libraries/drivers/src/at32f403a_407_adc.c ****   */
 215:libraries/drivers/src/at32f403a_407_adc.c **** flag_status adc_calibration_init_status_get(adc_type *adc_x)
 216:libraries/drivers/src/at32f403a_407_adc.c **** {
 358              		.loc 1 216 1 is_stmt 1 view -0
 359              		.cfi_startproc
ARM GAS  C:\Users\10963\AppData\Local\Temp\ccHwb33p.s 			page 11


 360              		@ args = 0, pretend = 0, frame = 0
 361              		@ frame_needed = 0, uses_anonymous_args = 0
 362              		@ link register save eliminated.
 217:libraries/drivers/src/at32f403a_407_adc.c ****   if(adc_x->ctrl2_bit.adcalinit)
 363              		.loc 1 217 3 view .LVU73
 364              		.loc 1 217 22 is_stmt 0 view .LVU74
 365 0000 8368     		ldr	r3, [r0, #8]
 366              		.loc 1 217 5 view .LVU75
 367 0002 13F0080F 		tst	r3, #8
 368 0006 01D0     		beq	.L25
 218:libraries/drivers/src/at32f403a_407_adc.c ****   {
 219:libraries/drivers/src/at32f403a_407_adc.c ****     return SET;
 369              		.loc 1 219 12 view .LVU76
 370 0008 0120     		movs	r0, #1
 371              	.LVL22:
 372              		.loc 1 219 12 view .LVU77
 373 000a 7047     		bx	lr
 374              	.LVL23:
 375              	.L25:
 220:libraries/drivers/src/at32f403a_407_adc.c ****   }
 221:libraries/drivers/src/at32f403a_407_adc.c ****   else
 222:libraries/drivers/src/at32f403a_407_adc.c ****   {
 223:libraries/drivers/src/at32f403a_407_adc.c ****     return RESET;
 376              		.loc 1 223 12 view .LVU78
 377 000c 0020     		movs	r0, #0
 378              	.LVL24:
 224:libraries/drivers/src/at32f403a_407_adc.c ****   }
 225:libraries/drivers/src/at32f403a_407_adc.c **** }
 379              		.loc 1 225 1 view .LVU79
 380 000e 7047     		bx	lr
 381              		.cfi_endproc
 382              	.LFE142:
 384              		.section	.text.adc_calibration_start,"ax",%progbits
 385              		.align	1
 386              		.global	adc_calibration_start
 387              		.syntax unified
 388              		.thumb
 389              		.thumb_func
 391              	adc_calibration_start:
 392              	.LVL25:
 393              	.LFB143:
 226:libraries/drivers/src/at32f403a_407_adc.c **** 
 227:libraries/drivers/src/at32f403a_407_adc.c **** /**
 228:libraries/drivers/src/at32f403a_407_adc.c ****   * @brief  start calibration process of the specified adc peripheral.
 229:libraries/drivers/src/at32f403a_407_adc.c ****   * @param  adc_x: select the adc peripheral.
 230:libraries/drivers/src/at32f403a_407_adc.c ****   *         this parameter can be one of the following values:
 231:libraries/drivers/src/at32f403a_407_adc.c ****   *         ADC1, ADC2, ADC3.
 232:libraries/drivers/src/at32f403a_407_adc.c ****   * @retval none
 233:libraries/drivers/src/at32f403a_407_adc.c ****   */
 234:libraries/drivers/src/at32f403a_407_adc.c **** void adc_calibration_start(adc_type *adc_x)
 235:libraries/drivers/src/at32f403a_407_adc.c **** {
 394              		.loc 1 235 1 is_stmt 1 view -0
 395              		.cfi_startproc
 396              		@ args = 0, pretend = 0, frame = 0
 397              		@ frame_needed = 0, uses_anonymous_args = 0
 398              		@ link register save eliminated.
 236:libraries/drivers/src/at32f403a_407_adc.c ****   adc_x->ctrl2_bit.adcal = TRUE;
ARM GAS  C:\Users\10963\AppData\Local\Temp\ccHwb33p.s 			page 12


 399              		.loc 1 236 3 view .LVU81
 400              		.loc 1 236 26 is_stmt 0 view .LVU82
 401 0000 8368     		ldr	r3, [r0, #8]
 402 0002 43F00403 		orr	r3, r3, #4
 403 0006 8360     		str	r3, [r0, #8]
 237:libraries/drivers/src/at32f403a_407_adc.c **** }
 404              		.loc 1 237 1 view .LVU83
 405 0008 7047     		bx	lr
 406              		.cfi_endproc
 407              	.LFE143:
 409              		.section	.text.adc_calibration_status_get,"ax",%progbits
 410              		.align	1
 411              		.global	adc_calibration_status_get
 412              		.syntax unified
 413              		.thumb
 414              		.thumb_func
 416              	adc_calibration_status_get:
 417              	.LVL26:
 418              	.LFB144:
 238:libraries/drivers/src/at32f403a_407_adc.c **** 
 239:libraries/drivers/src/at32f403a_407_adc.c **** /**
 240:libraries/drivers/src/at32f403a_407_adc.c ****   * @brief  get calibration status of the specified adc peripheral.
 241:libraries/drivers/src/at32f403a_407_adc.c ****   * @param  adc_x: select the adc peripheral.
 242:libraries/drivers/src/at32f403a_407_adc.c ****   *         this parameter can be one of the following values:
 243:libraries/drivers/src/at32f403a_407_adc.c ****   *         ADC1, ADC2, ADC3.
 244:libraries/drivers/src/at32f403a_407_adc.c ****   * @retval the new state of calibration status(SET or RESET).
 245:libraries/drivers/src/at32f403a_407_adc.c ****   */
 246:libraries/drivers/src/at32f403a_407_adc.c **** flag_status adc_calibration_status_get(adc_type *adc_x)
 247:libraries/drivers/src/at32f403a_407_adc.c **** {
 419              		.loc 1 247 1 is_stmt 1 view -0
 420              		.cfi_startproc
 421              		@ args = 0, pretend = 0, frame = 0
 422              		@ frame_needed = 0, uses_anonymous_args = 0
 423              		@ link register save eliminated.
 248:libraries/drivers/src/at32f403a_407_adc.c ****   if(adc_x->ctrl2_bit.adcal)
 424              		.loc 1 248 3 view .LVU85
 425              		.loc 1 248 22 is_stmt 0 view .LVU86
 426 0000 8368     		ldr	r3, [r0, #8]
 427              		.loc 1 248 5 view .LVU87
 428 0002 13F0040F 		tst	r3, #4
 429 0006 01D0     		beq	.L29
 249:libraries/drivers/src/at32f403a_407_adc.c ****   {
 250:libraries/drivers/src/at32f403a_407_adc.c ****     return SET;
 430              		.loc 1 250 12 view .LVU88
 431 0008 0120     		movs	r0, #1
 432              	.LVL27:
 433              		.loc 1 250 12 view .LVU89
 434 000a 7047     		bx	lr
 435              	.LVL28:
 436              	.L29:
 251:libraries/drivers/src/at32f403a_407_adc.c ****   }
 252:libraries/drivers/src/at32f403a_407_adc.c ****   else
 253:libraries/drivers/src/at32f403a_407_adc.c ****   {
 254:libraries/drivers/src/at32f403a_407_adc.c ****     return RESET;
 437              		.loc 1 254 12 view .LVU90
 438 000c 0020     		movs	r0, #0
 439              	.LVL29:
ARM GAS  C:\Users\10963\AppData\Local\Temp\ccHwb33p.s 			page 13


 255:libraries/drivers/src/at32f403a_407_adc.c ****   }
 256:libraries/drivers/src/at32f403a_407_adc.c **** }
 440              		.loc 1 256 1 view .LVU91
 441 000e 7047     		bx	lr
 442              		.cfi_endproc
 443              	.LFE144:
 445              		.section	.text.adc_voltage_monitor_enable,"ax",%progbits
 446              		.align	1
 447              		.global	adc_voltage_monitor_enable
 448              		.syntax unified
 449              		.thumb
 450              		.thumb_func
 452              	adc_voltage_monitor_enable:
 453              	.LVL30:
 454              	.LFB145:
 257:libraries/drivers/src/at32f403a_407_adc.c **** 
 258:libraries/drivers/src/at32f403a_407_adc.c **** /**
 259:libraries/drivers/src/at32f403a_407_adc.c ****   * @brief  enable or disable the voltage monitoring on single/all ordinary or preempt channels of 
 260:libraries/drivers/src/at32f403a_407_adc.c ****   * @param  adc_x: select the adc peripheral.
 261:libraries/drivers/src/at32f403a_407_adc.c ****   *         this parameter can be one of the following values:
 262:libraries/drivers/src/at32f403a_407_adc.c ****   *         ADC1, ADC2, ADC3.
 263:libraries/drivers/src/at32f403a_407_adc.c ****   * @param  adc_voltage_monitoring: choose the adc_voltage_monitoring config.
 264:libraries/drivers/src/at32f403a_407_adc.c ****   *         this parameter can be one of the following values:
 265:libraries/drivers/src/at32f403a_407_adc.c ****   *         - ADC_VMONITOR_SINGLE_ORDINARY
 266:libraries/drivers/src/at32f403a_407_adc.c ****   *         - ADC_VMONITOR_SINGLE_PREEMPT
 267:libraries/drivers/src/at32f403a_407_adc.c ****   *         - ADC_VMONITOR_SINGLE_ORDINARY_PREEMPT
 268:libraries/drivers/src/at32f403a_407_adc.c ****   *         - ADC_VMONITOR_ALL_ORDINARY
 269:libraries/drivers/src/at32f403a_407_adc.c ****   *         - ADC_VMONITOR_ALL_PREEMPT
 270:libraries/drivers/src/at32f403a_407_adc.c ****   *         - ADC_VMONITOR_ALL_ORDINARY_PREEMPT
 271:libraries/drivers/src/at32f403a_407_adc.c ****   *         - ADC_VMONITOR_NONE
 272:libraries/drivers/src/at32f403a_407_adc.c ****   * @retval none
 273:libraries/drivers/src/at32f403a_407_adc.c ****   */
 274:libraries/drivers/src/at32f403a_407_adc.c **** void adc_voltage_monitor_enable(adc_type *adc_x, adc_voltage_monitoring_type adc_voltage_monitoring
 275:libraries/drivers/src/at32f403a_407_adc.c **** {
 455              		.loc 1 275 1 is_stmt 1 view -0
 456              		.cfi_startproc
 457              		@ args = 0, pretend = 0, frame = 0
 458              		@ frame_needed = 0, uses_anonymous_args = 0
 459              		@ link register save eliminated.
 276:libraries/drivers/src/at32f403a_407_adc.c ****   adc_x->ctrl1_bit.ocvmen = FALSE;
 460              		.loc 1 276 3 view .LVU93
 461              		.loc 1 276 27 is_stmt 0 view .LVU94
 462 0000 4368     		ldr	r3, [r0, #4]
 463 0002 23F40003 		bic	r3, r3, #8388608
 464 0006 4360     		str	r3, [r0, #4]
 277:libraries/drivers/src/at32f403a_407_adc.c ****   adc_x->ctrl1_bit.pcvmen = FALSE;
 465              		.loc 1 277 3 is_stmt 1 view .LVU95
 466              		.loc 1 277 27 is_stmt 0 view .LVU96
 467 0008 4368     		ldr	r3, [r0, #4]
 468 000a 23F48003 		bic	r3, r3, #4194304
 469 000e 4360     		str	r3, [r0, #4]
 278:libraries/drivers/src/at32f403a_407_adc.c ****   adc_x->ctrl1_bit.vmsgen = FALSE;
 470              		.loc 1 278 3 is_stmt 1 view .LVU97
 471              		.loc 1 278 27 is_stmt 0 view .LVU98
 472 0010 4368     		ldr	r3, [r0, #4]
 473 0012 23F40073 		bic	r3, r3, #512
 474 0016 4360     		str	r3, [r0, #4]
ARM GAS  C:\Users\10963\AppData\Local\Temp\ccHwb33p.s 			page 14


 279:libraries/drivers/src/at32f403a_407_adc.c ****   adc_x->ctrl1 |= adc_voltage_monitoring;
 475              		.loc 1 279 3 is_stmt 1 view .LVU99
 476              		.loc 1 279 8 is_stmt 0 view .LVU100
 477 0018 4368     		ldr	r3, [r0, #4]
 478              		.loc 1 279 16 view .LVU101
 479 001a 0B43     		orrs	r3, r3, r1
 480 001c 4360     		str	r3, [r0, #4]
 280:libraries/drivers/src/at32f403a_407_adc.c **** }
 481              		.loc 1 280 1 view .LVU102
 482 001e 7047     		bx	lr
 483              		.cfi_endproc
 484              	.LFE145:
 486              		.section	.text.adc_voltage_monitor_threshold_value_set,"ax",%progbits
 487              		.align	1
 488              		.global	adc_voltage_monitor_threshold_value_set
 489              		.syntax unified
 490              		.thumb
 491              		.thumb_func
 493              	adc_voltage_monitor_threshold_value_set:
 494              	.LVL31:
 495              	.LFB146:
 281:libraries/drivers/src/at32f403a_407_adc.c **** 
 282:libraries/drivers/src/at32f403a_407_adc.c **** /**
 283:libraries/drivers/src/at32f403a_407_adc.c ****   * @brief  set voltage monitoring's high and low thresholds value of the specified adc peripheral.
 284:libraries/drivers/src/at32f403a_407_adc.c ****   * @param  adc_x: select the adc peripheral.
 285:libraries/drivers/src/at32f403a_407_adc.c ****   *         this parameter can be one of the following values:
 286:libraries/drivers/src/at32f403a_407_adc.c ****   *         ADC1, ADC2, ADC3.
 287:libraries/drivers/src/at32f403a_407_adc.c ****   * @param  adc_high_threshold: voltage monitoring's high thresholds value.
 288:libraries/drivers/src/at32f403a_407_adc.c ****   *         this parameter can be:
 289:libraries/drivers/src/at32f403a_407_adc.c ****   *         - (0x000~0xFFF)
 290:libraries/drivers/src/at32f403a_407_adc.c ****   * @param  adc_low_threshold: voltage monitoring's low thresholds value.
 291:libraries/drivers/src/at32f403a_407_adc.c ****   *         this parameter can be:
 292:libraries/drivers/src/at32f403a_407_adc.c ****   *         - (0x000~0xFFF)
 293:libraries/drivers/src/at32f403a_407_adc.c ****   * @retval none
 294:libraries/drivers/src/at32f403a_407_adc.c ****   */
 295:libraries/drivers/src/at32f403a_407_adc.c **** void adc_voltage_monitor_threshold_value_set(adc_type *adc_x, uint16_t adc_high_threshold, uint16_t
 296:libraries/drivers/src/at32f403a_407_adc.c **** {
 496              		.loc 1 296 1 is_stmt 1 view -0
 497              		.cfi_startproc
 498              		@ args = 0, pretend = 0, frame = 0
 499              		@ frame_needed = 0, uses_anonymous_args = 0
 500              		@ link register save eliminated.
 297:libraries/drivers/src/at32f403a_407_adc.c ****   adc_x->vmhb_bit.vmhb = adc_high_threshold;
 501              		.loc 1 297 3 view .LVU104
 502              		.loc 1 297 24 is_stmt 0 view .LVU105
 503 0000 436A     		ldr	r3, [r0, #36]
 504 0002 61F30B03 		bfi	r3, r1, #0, #12
 505 0006 4362     		str	r3, [r0, #36]
 298:libraries/drivers/src/at32f403a_407_adc.c ****   adc_x->vmlb_bit.vmlb = adc_low_threshold;
 506              		.loc 1 298 3 is_stmt 1 view .LVU106
 507              		.loc 1 298 24 is_stmt 0 view .LVU107
 508 0008 836A     		ldr	r3, [r0, #40]
 509 000a 62F30B03 		bfi	r3, r2, #0, #12
 510 000e 8362     		str	r3, [r0, #40]
 299:libraries/drivers/src/at32f403a_407_adc.c **** }
 511              		.loc 1 299 1 view .LVU108
 512 0010 7047     		bx	lr
ARM GAS  C:\Users\10963\AppData\Local\Temp\ccHwb33p.s 			page 15


 513              		.cfi_endproc
 514              	.LFE146:
 516              		.section	.text.adc_voltage_monitor_single_channel_select,"ax",%progbits
 517              		.align	1
 518              		.global	adc_voltage_monitor_single_channel_select
 519              		.syntax unified
 520              		.thumb
 521              		.thumb_func
 523              	adc_voltage_monitor_single_channel_select:
 524              	.LVL32:
 525              	.LFB147:
 300:libraries/drivers/src/at32f403a_407_adc.c **** 
 301:libraries/drivers/src/at32f403a_407_adc.c **** /**
 302:libraries/drivers/src/at32f403a_407_adc.c ****   * @brief  select the voltage monitoring's channel of the specified adc peripheral.
 303:libraries/drivers/src/at32f403a_407_adc.c ****   * @param  adc_x: select the adc peripheral.
 304:libraries/drivers/src/at32f403a_407_adc.c ****   *         this parameter can be one of the following values:
 305:libraries/drivers/src/at32f403a_407_adc.c ****   *         ADC1, ADC2, ADC3.
 306:libraries/drivers/src/at32f403a_407_adc.c ****   * @param  adc_channel: select the channel.
 307:libraries/drivers/src/at32f403a_407_adc.c ****   *         this parameter can be one of the following values:
 308:libraries/drivers/src/at32f403a_407_adc.c ****   *         - ADC_CHANNEL_0    - ADC_CHANNEL_1    - ADC_CHANNEL_2    - ADC_CHANNEL_3
 309:libraries/drivers/src/at32f403a_407_adc.c ****   *         - ADC_CHANNEL_4    - ADC_CHANNEL_5    - ADC_CHANNEL_6    - ADC_CHANNEL_7
 310:libraries/drivers/src/at32f403a_407_adc.c ****   *         - ADC_CHANNEL_8    - ADC_CHANNEL_9    - ADC_CHANNEL_10   - ADC_CHANNEL_11
 311:libraries/drivers/src/at32f403a_407_adc.c ****   *         - ADC_CHANNEL_12   - ADC_CHANNEL_13   - ADC_CHANNEL_14   - ADC_CHANNEL_15
 312:libraries/drivers/src/at32f403a_407_adc.c ****   *         - ADC_CHANNEL_16   - ADC_CHANNEL_17
 313:libraries/drivers/src/at32f403a_407_adc.c ****   * @retval none
 314:libraries/drivers/src/at32f403a_407_adc.c ****   */
 315:libraries/drivers/src/at32f403a_407_adc.c **** void adc_voltage_monitor_single_channel_select(adc_type *adc_x, adc_channel_select_type adc_channel
 316:libraries/drivers/src/at32f403a_407_adc.c **** {
 526              		.loc 1 316 1 is_stmt 1 view -0
 527              		.cfi_startproc
 528              		@ args = 0, pretend = 0, frame = 0
 529              		@ frame_needed = 0, uses_anonymous_args = 0
 530              		@ link register save eliminated.
 317:libraries/drivers/src/at32f403a_407_adc.c ****   adc_x->ctrl1_bit.vmcsel = adc_channel;
 531              		.loc 1 317 3 view .LVU110
 532              		.loc 1 317 27 is_stmt 0 view .LVU111
 533 0000 4368     		ldr	r3, [r0, #4]
 534 0002 61F30403 		bfi	r3, r1, #0, #5
 535 0006 4360     		str	r3, [r0, #4]
 318:libraries/drivers/src/at32f403a_407_adc.c **** }
 536              		.loc 1 318 1 view .LVU112
 537 0008 7047     		bx	lr
 538              		.cfi_endproc
 539              	.LFE147:
 541              		.section	.text.adc_ordinary_channel_set,"ax",%progbits
 542              		.align	1
 543              		.global	adc_ordinary_channel_set
 544              		.syntax unified
 545              		.thumb
 546              		.thumb_func
 548              	adc_ordinary_channel_set:
 549              	.LVL33:
 550              	.LFB148:
 319:libraries/drivers/src/at32f403a_407_adc.c **** 
 320:libraries/drivers/src/at32f403a_407_adc.c **** /**
 321:libraries/drivers/src/at32f403a_407_adc.c ****   * @brief  set ordinary channel's corresponding rank in the sequencer and sample time of the speci
 322:libraries/drivers/src/at32f403a_407_adc.c ****   * @param  adc_x: select the adc peripheral.
ARM GAS  C:\Users\10963\AppData\Local\Temp\ccHwb33p.s 			page 16


 323:libraries/drivers/src/at32f403a_407_adc.c ****   *         this parameter can be one of the following values:
 324:libraries/drivers/src/at32f403a_407_adc.c ****   *         ADC1, ADC2, ADC3.
 325:libraries/drivers/src/at32f403a_407_adc.c ****   * @param  adc_channel: select the channel.
 326:libraries/drivers/src/at32f403a_407_adc.c ****   *         this parameter can be one of the following values:
 327:libraries/drivers/src/at32f403a_407_adc.c ****   *         - ADC_CHANNEL_0    - ADC_CHANNEL_1    - ADC_CHANNEL_2    - ADC_CHANNEL_3
 328:libraries/drivers/src/at32f403a_407_adc.c ****   *         - ADC_CHANNEL_4    - ADC_CHANNEL_5    - ADC_CHANNEL_6    - ADC_CHANNEL_7
 329:libraries/drivers/src/at32f403a_407_adc.c ****   *         - ADC_CHANNEL_8    - ADC_CHANNEL_9    - ADC_CHANNEL_10   - ADC_CHANNEL_11
 330:libraries/drivers/src/at32f403a_407_adc.c ****   *         - ADC_CHANNEL_12   - ADC_CHANNEL_13   - ADC_CHANNEL_14   - ADC_CHANNEL_15
 331:libraries/drivers/src/at32f403a_407_adc.c ****   *         - ADC_CHANNEL_16   - ADC_CHANNEL_17
 332:libraries/drivers/src/at32f403a_407_adc.c ****   * @param  adc_sequence: set rank in the ordinary group sequencer.
 333:libraries/drivers/src/at32f403a_407_adc.c ****   *         this parameter must be:
 334:libraries/drivers/src/at32f403a_407_adc.c ****   *         - between 1 to 16
 335:libraries/drivers/src/at32f403a_407_adc.c ****   * @param  adc_sampletime: set the sampletime of adc channel.
 336:libraries/drivers/src/at32f403a_407_adc.c ****   *         this parameter can be one of the following values:
 337:libraries/drivers/src/at32f403a_407_adc.c ****   *         - ADC_SAMPLETIME_1_5
 338:libraries/drivers/src/at32f403a_407_adc.c ****   *         - ADC_SAMPLETIME_7_5
 339:libraries/drivers/src/at32f403a_407_adc.c ****   *         - ADC_SAMPLETIME_13_5
 340:libraries/drivers/src/at32f403a_407_adc.c ****   *         - ADC_SAMPLETIME_28_5
 341:libraries/drivers/src/at32f403a_407_adc.c ****   *         - ADC_SAMPLETIME_41_5
 342:libraries/drivers/src/at32f403a_407_adc.c ****   *         - ADC_SAMPLETIME_55_5
 343:libraries/drivers/src/at32f403a_407_adc.c ****   *         - ADC_SAMPLETIME_71_5
 344:libraries/drivers/src/at32f403a_407_adc.c ****   *         - ADC_SAMPLETIME_239_5
 345:libraries/drivers/src/at32f403a_407_adc.c ****   * @retval none
 346:libraries/drivers/src/at32f403a_407_adc.c ****   */
 347:libraries/drivers/src/at32f403a_407_adc.c **** void adc_ordinary_channel_set(adc_type *adc_x, adc_channel_select_type adc_channel, uint8_t adc_seq
 348:libraries/drivers/src/at32f403a_407_adc.c **** {
 551              		.loc 1 348 1 is_stmt 1 view -0
 552              		.cfi_startproc
 553              		@ args = 0, pretend = 0, frame = 0
 554              		@ frame_needed = 0, uses_anonymous_args = 0
 555              		.loc 1 348 1 is_stmt 0 view .LVU114
 556 0000 10B5     		push	{r4, lr}
 557              	.LCFI1:
 558              		.cfi_def_cfa_offset 8
 559              		.cfi_offset 4, -8
 560              		.cfi_offset 14, -4
 349:libraries/drivers/src/at32f403a_407_adc.c ****   uint32_t tmp_reg;
 561              		.loc 1 349 3 is_stmt 1 view .LVU115
 350:libraries/drivers/src/at32f403a_407_adc.c ****   if(adc_channel < ADC_CHANNEL_10)
 562              		.loc 1 350 3 view .LVU116
 563              		.loc 1 350 5 is_stmt 0 view .LVU117
 564 0002 0929     		cmp	r1, #9
 565 0004 1ED8     		bhi	.L34
 351:libraries/drivers/src/at32f403a_407_adc.c ****   {
 352:libraries/drivers/src/at32f403a_407_adc.c ****     tmp_reg = adc_x->spt2;
 566              		.loc 1 352 5 is_stmt 1 view .LVU118
 567              		.loc 1 352 13 is_stmt 0 view .LVU119
 568 0006 0469     		ldr	r4, [r0, #16]
 569              	.LVL34:
 353:libraries/drivers/src/at32f403a_407_adc.c ****     tmp_reg &= ~(0x07 << 3 * adc_channel);
 570              		.loc 1 353 5 is_stmt 1 view .LVU120
 571              		.loc 1 353 28 is_stmt 0 view .LVU121
 572 0008 01EB410C 		add	ip, r1, r1, lsl #1
 573              		.loc 1 353 23 view .LVU122
 574 000c 4FF0070E 		mov	lr, #7
 575 0010 0EFA0CFE 		lsl	lr, lr, ip
 576              		.loc 1 353 13 view .LVU123
ARM GAS  C:\Users\10963\AppData\Local\Temp\ccHwb33p.s 			page 17


 577 0014 24EA0E0E 		bic	lr, r4, lr
 578              	.LVL35:
 354:libraries/drivers/src/at32f403a_407_adc.c ****     tmp_reg |= adc_sampletime << 3 * adc_channel;
 579              		.loc 1 354 5 is_stmt 1 view .LVU124
 580              		.loc 1 354 31 is_stmt 0 view .LVU125
 581 0018 03FA0CFC 		lsl	ip, r3, ip
 582              		.loc 1 354 13 view .LVU126
 583 001c 4CEA0E03 		orr	r3, ip, lr
 584              	.LVL36:
 355:libraries/drivers/src/at32f403a_407_adc.c ****     adc_x->spt2 = tmp_reg;
 585              		.loc 1 355 5 is_stmt 1 view .LVU127
 586              		.loc 1 355 17 is_stmt 0 view .LVU128
 587 0020 0361     		str	r3, [r0, #16]
 588              	.L35:
 356:libraries/drivers/src/at32f403a_407_adc.c ****   }
 357:libraries/drivers/src/at32f403a_407_adc.c ****   else
 358:libraries/drivers/src/at32f403a_407_adc.c ****   {
 359:libraries/drivers/src/at32f403a_407_adc.c ****     tmp_reg = adc_x->spt1;
 360:libraries/drivers/src/at32f403a_407_adc.c ****     tmp_reg &= ~(0x07 << 3 * (adc_channel - ADC_CHANNEL_10));
 361:libraries/drivers/src/at32f403a_407_adc.c ****     tmp_reg |= adc_sampletime << 3 * (adc_channel - ADC_CHANNEL_10);
 362:libraries/drivers/src/at32f403a_407_adc.c ****     adc_x->spt1 = tmp_reg;
 363:libraries/drivers/src/at32f403a_407_adc.c ****   }
 364:libraries/drivers/src/at32f403a_407_adc.c **** 
 365:libraries/drivers/src/at32f403a_407_adc.c ****   if(adc_sequence >= 13)
 589              		.loc 1 365 3 is_stmt 1 view .LVU129
 590              		.loc 1 365 5 is_stmt 0 view .LVU130
 591 0022 0C2A     		cmp	r2, #12
 592 0024 1FD9     		bls	.L36
 366:libraries/drivers/src/at32f403a_407_adc.c ****   {
 367:libraries/drivers/src/at32f403a_407_adc.c ****     tmp_reg = adc_x->osq1;
 593              		.loc 1 367 5 is_stmt 1 view .LVU131
 594              		.loc 1 367 13 is_stmt 0 view .LVU132
 595 0026 C36A     		ldr	r3, [r0, #44]
 596              	.LVL37:
 368:libraries/drivers/src/at32f403a_407_adc.c ****     tmp_reg &= ~(0x01F << 5 * (adc_sequence - 13));
 597              		.loc 1 368 5 is_stmt 1 view .LVU133
 598              		.loc 1 368 45 is_stmt 0 view .LVU134
 599 0028 0D3A     		subs	r2, r2, #13
 600              	.LVL38:
 601              		.loc 1 368 29 view .LVU135
 602 002a 02EB8202 		add	r2, r2, r2, lsl #2
 603              		.loc 1 368 24 view .LVU136
 604 002e 4FF01F0C 		mov	ip, #31
 605 0032 0CFA02FC 		lsl	ip, ip, r2
 606              		.loc 1 368 13 view .LVU137
 607 0036 23EA0C03 		bic	r3, r3, ip
 608              	.LVL39:
 369:libraries/drivers/src/at32f403a_407_adc.c ****     tmp_reg |= adc_channel << 5 * (adc_sequence - 13);
 609              		.loc 1 369 5 is_stmt 1 view .LVU138
 610              		.loc 1 369 28 is_stmt 0 view .LVU139
 611 003a 01FA02F2 		lsl	r2, r1, r2
 612              		.loc 1 369 13 view .LVU140
 613 003e 1A43     		orrs	r2, r2, r3
 614              	.LVL40:
 370:libraries/drivers/src/at32f403a_407_adc.c ****     adc_x->osq1 = tmp_reg;
 615              		.loc 1 370 5 is_stmt 1 view .LVU141
 616              		.loc 1 370 17 is_stmt 0 view .LVU142
ARM GAS  C:\Users\10963\AppData\Local\Temp\ccHwb33p.s 			page 18


 617 0040 C262     		str	r2, [r0, #44]
 618              	.LVL41:
 619              	.L33:
 371:libraries/drivers/src/at32f403a_407_adc.c ****   }
 372:libraries/drivers/src/at32f403a_407_adc.c ****   else if(adc_sequence >= 7)
 373:libraries/drivers/src/at32f403a_407_adc.c ****   {
 374:libraries/drivers/src/at32f403a_407_adc.c ****     tmp_reg = adc_x->osq2;
 375:libraries/drivers/src/at32f403a_407_adc.c ****     tmp_reg &= ~(0x01F << 5 * (adc_sequence - 7));
 376:libraries/drivers/src/at32f403a_407_adc.c ****     tmp_reg |= adc_channel << 5 * (adc_sequence - 7);
 377:libraries/drivers/src/at32f403a_407_adc.c ****     adc_x->osq2 = tmp_reg;
 378:libraries/drivers/src/at32f403a_407_adc.c ****   }
 379:libraries/drivers/src/at32f403a_407_adc.c ****   else
 380:libraries/drivers/src/at32f403a_407_adc.c ****   {
 381:libraries/drivers/src/at32f403a_407_adc.c ****     tmp_reg = adc_x->osq3;
 382:libraries/drivers/src/at32f403a_407_adc.c ****     tmp_reg &= ~(0x01F << 5 * (adc_sequence - 1));
 383:libraries/drivers/src/at32f403a_407_adc.c ****     tmp_reg |= adc_channel << 5 * (adc_sequence - 1);
 384:libraries/drivers/src/at32f403a_407_adc.c ****     adc_x->osq3 = tmp_reg;
 385:libraries/drivers/src/at32f403a_407_adc.c ****   }
 386:libraries/drivers/src/at32f403a_407_adc.c **** }
 620              		.loc 1 386 1 view .LVU143
 621 0042 10BD     		pop	{r4, pc}
 622              	.LVL42:
 623              	.L34:
 359:libraries/drivers/src/at32f403a_407_adc.c ****     tmp_reg &= ~(0x07 << 3 * (adc_channel - ADC_CHANNEL_10));
 624              		.loc 1 359 5 is_stmt 1 view .LVU144
 359:libraries/drivers/src/at32f403a_407_adc.c ****     tmp_reg &= ~(0x07 << 3 * (adc_channel - ADC_CHANNEL_10));
 625              		.loc 1 359 13 is_stmt 0 view .LVU145
 626 0044 C468     		ldr	r4, [r0, #12]
 627              	.LVL43:
 360:libraries/drivers/src/at32f403a_407_adc.c ****     tmp_reg |= adc_sampletime << 3 * (adc_channel - ADC_CHANNEL_10);
 628              		.loc 1 360 5 is_stmt 1 view .LVU146
 360:libraries/drivers/src/at32f403a_407_adc.c ****     tmp_reg |= adc_sampletime << 3 * (adc_channel - ADC_CHANNEL_10);
 629              		.loc 1 360 43 is_stmt 0 view .LVU147
 630 0046 A1F10A0C 		sub	ip, r1, #10
 360:libraries/drivers/src/at32f403a_407_adc.c ****     tmp_reg |= adc_sampletime << 3 * (adc_channel - ADC_CHANNEL_10);
 631              		.loc 1 360 28 view .LVU148
 632 004a 0CEB4C0C 		add	ip, ip, ip, lsl #1
 360:libraries/drivers/src/at32f403a_407_adc.c ****     tmp_reg |= adc_sampletime << 3 * (adc_channel - ADC_CHANNEL_10);
 633              		.loc 1 360 23 view .LVU149
 634 004e 4FF0070E 		mov	lr, #7
 635 0052 0EFA0CFE 		lsl	lr, lr, ip
 360:libraries/drivers/src/at32f403a_407_adc.c ****     tmp_reg |= adc_sampletime << 3 * (adc_channel - ADC_CHANNEL_10);
 636              		.loc 1 360 13 view .LVU150
 637 0056 24EA0E0E 		bic	lr, r4, lr
 638              	.LVL44:
 361:libraries/drivers/src/at32f403a_407_adc.c ****     adc_x->spt1 = tmp_reg;
 639              		.loc 1 361 5 is_stmt 1 view .LVU151
 361:libraries/drivers/src/at32f403a_407_adc.c ****     adc_x->spt1 = tmp_reg;
 640              		.loc 1 361 31 is_stmt 0 view .LVU152
 641 005a 03FA0CF3 		lsl	r3, r3, ip
 642              	.LVL45:
 361:libraries/drivers/src/at32f403a_407_adc.c ****     adc_x->spt1 = tmp_reg;
 643              		.loc 1 361 13 view .LVU153
 644 005e 43EA0E03 		orr	r3, r3, lr
 645              	.LVL46:
 362:libraries/drivers/src/at32f403a_407_adc.c ****   }
 646              		.loc 1 362 5 is_stmt 1 view .LVU154
ARM GAS  C:\Users\10963\AppData\Local\Temp\ccHwb33p.s 			page 19


 362:libraries/drivers/src/at32f403a_407_adc.c ****   }
 647              		.loc 1 362 17 is_stmt 0 view .LVU155
 648 0062 C360     		str	r3, [r0, #12]
 649 0064 DDE7     		b	.L35
 650              	.L36:
 372:libraries/drivers/src/at32f403a_407_adc.c ****   {
 651              		.loc 1 372 8 is_stmt 1 view .LVU156
 372:libraries/drivers/src/at32f403a_407_adc.c ****   {
 652              		.loc 1 372 10 is_stmt 0 view .LVU157
 653 0066 062A     		cmp	r2, #6
 654 0068 0ED9     		bls	.L38
 374:libraries/drivers/src/at32f403a_407_adc.c ****     tmp_reg &= ~(0x01F << 5 * (adc_sequence - 7));
 655              		.loc 1 374 5 is_stmt 1 view .LVU158
 374:libraries/drivers/src/at32f403a_407_adc.c ****     tmp_reg &= ~(0x01F << 5 * (adc_sequence - 7));
 656              		.loc 1 374 13 is_stmt 0 view .LVU159
 657 006a 036B     		ldr	r3, [r0, #48]
 658              	.LVL47:
 375:libraries/drivers/src/at32f403a_407_adc.c ****     tmp_reg |= adc_channel << 5 * (adc_sequence - 7);
 659              		.loc 1 375 5 is_stmt 1 view .LVU160
 375:libraries/drivers/src/at32f403a_407_adc.c ****     tmp_reg |= adc_channel << 5 * (adc_sequence - 7);
 660              		.loc 1 375 45 is_stmt 0 view .LVU161
 661 006c 073A     		subs	r2, r2, #7
 662              	.LVL48:
 375:libraries/drivers/src/at32f403a_407_adc.c ****     tmp_reg |= adc_channel << 5 * (adc_sequence - 7);
 663              		.loc 1 375 29 view .LVU162
 664 006e 02EB8202 		add	r2, r2, r2, lsl #2
 375:libraries/drivers/src/at32f403a_407_adc.c ****     tmp_reg |= adc_channel << 5 * (adc_sequence - 7);
 665              		.loc 1 375 24 view .LVU163
 666 0072 4FF01F0C 		mov	ip, #31
 667 0076 0CFA02FC 		lsl	ip, ip, r2
 375:libraries/drivers/src/at32f403a_407_adc.c ****     tmp_reg |= adc_channel << 5 * (adc_sequence - 7);
 668              		.loc 1 375 13 view .LVU164
 669 007a 23EA0C03 		bic	r3, r3, ip
 670              	.LVL49:
 376:libraries/drivers/src/at32f403a_407_adc.c ****     adc_x->osq2 = tmp_reg;
 671              		.loc 1 376 5 is_stmt 1 view .LVU165
 376:libraries/drivers/src/at32f403a_407_adc.c ****     adc_x->osq2 = tmp_reg;
 672              		.loc 1 376 28 is_stmt 0 view .LVU166
 673 007e 01FA02F2 		lsl	r2, r1, r2
 376:libraries/drivers/src/at32f403a_407_adc.c ****     adc_x->osq2 = tmp_reg;
 674              		.loc 1 376 13 view .LVU167
 675 0082 1A43     		orrs	r2, r2, r3
 676              	.LVL50:
 377:libraries/drivers/src/at32f403a_407_adc.c ****   }
 677              		.loc 1 377 5 is_stmt 1 view .LVU168
 377:libraries/drivers/src/at32f403a_407_adc.c ****   }
 678              		.loc 1 377 17 is_stmt 0 view .LVU169
 679 0084 0263     		str	r2, [r0, #48]
 680 0086 DCE7     		b	.L33
 681              	.LVL51:
 682              	.L38:
 381:libraries/drivers/src/at32f403a_407_adc.c ****     tmp_reg &= ~(0x01F << 5 * (adc_sequence - 1));
 683              		.loc 1 381 5 is_stmt 1 view .LVU170
 381:libraries/drivers/src/at32f403a_407_adc.c ****     tmp_reg &= ~(0x01F << 5 * (adc_sequence - 1));
 684              		.loc 1 381 13 is_stmt 0 view .LVU171
 685 0088 436B     		ldr	r3, [r0, #52]
 686              	.LVL52:
ARM GAS  C:\Users\10963\AppData\Local\Temp\ccHwb33p.s 			page 20


 382:libraries/drivers/src/at32f403a_407_adc.c ****     tmp_reg |= adc_channel << 5 * (adc_sequence - 1);
 687              		.loc 1 382 5 is_stmt 1 view .LVU172
 382:libraries/drivers/src/at32f403a_407_adc.c ****     tmp_reg |= adc_channel << 5 * (adc_sequence - 1);
 688              		.loc 1 382 45 is_stmt 0 view .LVU173
 689 008a 013A     		subs	r2, r2, #1
 690              	.LVL53:
 382:libraries/drivers/src/at32f403a_407_adc.c ****     tmp_reg |= adc_channel << 5 * (adc_sequence - 1);
 691              		.loc 1 382 29 view .LVU174
 692 008c 02EB8202 		add	r2, r2, r2, lsl #2
 382:libraries/drivers/src/at32f403a_407_adc.c ****     tmp_reg |= adc_channel << 5 * (adc_sequence - 1);
 693              		.loc 1 382 24 view .LVU175
 694 0090 4FF01F0C 		mov	ip, #31
 695 0094 0CFA02FC 		lsl	ip, ip, r2
 382:libraries/drivers/src/at32f403a_407_adc.c ****     tmp_reg |= adc_channel << 5 * (adc_sequence - 1);
 696              		.loc 1 382 13 view .LVU176
 697 0098 23EA0C03 		bic	r3, r3, ip
 698              	.LVL54:
 383:libraries/drivers/src/at32f403a_407_adc.c ****     adc_x->osq3 = tmp_reg;
 699              		.loc 1 383 5 is_stmt 1 view .LVU177
 383:libraries/drivers/src/at32f403a_407_adc.c ****     adc_x->osq3 = tmp_reg;
 700              		.loc 1 383 28 is_stmt 0 view .LVU178
 701 009c 9140     		lsls	r1, r1, r2
 702              	.LVL55:
 383:libraries/drivers/src/at32f403a_407_adc.c ****     adc_x->osq3 = tmp_reg;
 703              		.loc 1 383 13 view .LVU179
 704 009e 1943     		orrs	r1, r1, r3
 705              	.LVL56:
 384:libraries/drivers/src/at32f403a_407_adc.c ****   }
 706              		.loc 1 384 5 is_stmt 1 view .LVU180
 384:libraries/drivers/src/at32f403a_407_adc.c ****   }
 707              		.loc 1 384 17 is_stmt 0 view .LVU181
 708 00a0 4163     		str	r1, [r0, #52]
 709              		.loc 1 386 1 view .LVU182
 710 00a2 CEE7     		b	.L33
 711              		.cfi_endproc
 712              	.LFE148:
 714              		.section	.text.adc_preempt_channel_length_set,"ax",%progbits
 715              		.align	1
 716              		.global	adc_preempt_channel_length_set
 717              		.syntax unified
 718              		.thumb
 719              		.thumb_func
 721              	adc_preempt_channel_length_set:
 722              	.LVL57:
 723              	.LFB149:
 387:libraries/drivers/src/at32f403a_407_adc.c **** 
 388:libraries/drivers/src/at32f403a_407_adc.c **** /**
 389:libraries/drivers/src/at32f403a_407_adc.c ****   * @brief  set preempt channel lenghth of the specified adc peripheral.
 390:libraries/drivers/src/at32f403a_407_adc.c ****   * @param  adc_x: select the adc peripheral.
 391:libraries/drivers/src/at32f403a_407_adc.c ****   *         this parameter can be one of the following values:
 392:libraries/drivers/src/at32f403a_407_adc.c ****   *         ADC1, ADC2, ADC3.
 393:libraries/drivers/src/at32f403a_407_adc.c ****   * @param  adc_channel_lenght: set the adc preempt channel lenghth.
 394:libraries/drivers/src/at32f403a_407_adc.c ****   *         this parameter can be:
 395:libraries/drivers/src/at32f403a_407_adc.c ****   *         - (0x1~0x4)
 396:libraries/drivers/src/at32f403a_407_adc.c ****   * @retval none
 397:libraries/drivers/src/at32f403a_407_adc.c ****   */
 398:libraries/drivers/src/at32f403a_407_adc.c **** void adc_preempt_channel_length_set(adc_type *adc_x, uint8_t adc_channel_lenght)
ARM GAS  C:\Users\10963\AppData\Local\Temp\ccHwb33p.s 			page 21


 399:libraries/drivers/src/at32f403a_407_adc.c **** {
 724              		.loc 1 399 1 is_stmt 1 view -0
 725              		.cfi_startproc
 726              		@ args = 0, pretend = 0, frame = 0
 727              		@ frame_needed = 0, uses_anonymous_args = 0
 728              		@ link register save eliminated.
 400:libraries/drivers/src/at32f403a_407_adc.c ****   adc_x->psq_bit.pclen =  adc_channel_lenght - 1;
 729              		.loc 1 400 3 view .LVU184
 730              		.loc 1 400 46 is_stmt 0 view .LVU185
 731 0000 0139     		subs	r1, r1, #1
 732              	.LVL58:
 733              		.loc 1 400 24 view .LVU186
 734 0002 836B     		ldr	r3, [r0, #56]
 735 0004 61F31553 		bfi	r3, r1, #20, #2
 736 0008 8363     		str	r3, [r0, #56]
 401:libraries/drivers/src/at32f403a_407_adc.c **** }
 737              		.loc 1 401 1 view .LVU187
 738 000a 7047     		bx	lr
 739              		.cfi_endproc
 740              	.LFE149:
 742              		.section	.text.adc_preempt_channel_set,"ax",%progbits
 743              		.align	1
 744              		.global	adc_preempt_channel_set
 745              		.syntax unified
 746              		.thumb
 747              		.thumb_func
 749              	adc_preempt_channel_set:
 750              	.LVL59:
 751              	.LFB150:
 402:libraries/drivers/src/at32f403a_407_adc.c **** 
 403:libraries/drivers/src/at32f403a_407_adc.c **** /**
 404:libraries/drivers/src/at32f403a_407_adc.c ****   * @brief  configure preempt channel's corresponding rank in the sequencer and sample time of the 
 405:libraries/drivers/src/at32f403a_407_adc.c ****   * @param  adc_x: select the adc peripheral.
 406:libraries/drivers/src/at32f403a_407_adc.c ****   *         this parameter can be one of the following values:
 407:libraries/drivers/src/at32f403a_407_adc.c ****   *         ADC1, ADC2, ADC3.
 408:libraries/drivers/src/at32f403a_407_adc.c ****   * @param  adc_channel: select the channel.
 409:libraries/drivers/src/at32f403a_407_adc.c ****   *         this parameter can be one of the following values:
 410:libraries/drivers/src/at32f403a_407_adc.c ****   *         - ADC_CHANNEL_0    - ADC_CHANNEL_1    - ADC_CHANNEL_2    - ADC_CHANNEL_3
 411:libraries/drivers/src/at32f403a_407_adc.c ****   *         - ADC_CHANNEL_4    - ADC_CHANNEL_5    - ADC_CHANNEL_6    - ADC_CHANNEL_7
 412:libraries/drivers/src/at32f403a_407_adc.c ****   *         - ADC_CHANNEL_8    - ADC_CHANNEL_9    - ADC_CHANNEL_10   - ADC_CHANNEL_11
 413:libraries/drivers/src/at32f403a_407_adc.c ****   *         - ADC_CHANNEL_12   - ADC_CHANNEL_13   - ADC_CHANNEL_14   - ADC_CHANNEL_15
 414:libraries/drivers/src/at32f403a_407_adc.c ****   *         - ADC_CHANNEL_16   - ADC_CHANNEL_17
 415:libraries/drivers/src/at32f403a_407_adc.c ****   * @param  adc_sequence: set rank in the preempt group sequencer.
 416:libraries/drivers/src/at32f403a_407_adc.c ****   *         this parameter must be:
 417:libraries/drivers/src/at32f403a_407_adc.c ****   *         - between 1 to 4
 418:libraries/drivers/src/at32f403a_407_adc.c ****   * @param  adc_sampletime: config the sampletime of adc channel.
 419:libraries/drivers/src/at32f403a_407_adc.c ****   *         this parameter can be one of the following values:
 420:libraries/drivers/src/at32f403a_407_adc.c ****   *         - ADC_SAMPLETIME_1_5
 421:libraries/drivers/src/at32f403a_407_adc.c ****   *         - ADC_SAMPLETIME_7_5
 422:libraries/drivers/src/at32f403a_407_adc.c ****   *         - ADC_SAMPLETIME_13_5
 423:libraries/drivers/src/at32f403a_407_adc.c ****   *         - ADC_SAMPLETIME_28_5
 424:libraries/drivers/src/at32f403a_407_adc.c ****   *         - ADC_SAMPLETIME_41_5
 425:libraries/drivers/src/at32f403a_407_adc.c ****   *         - ADC_SAMPLETIME_55_5
 426:libraries/drivers/src/at32f403a_407_adc.c ****   *         - ADC_SAMPLETIME_71_5
 427:libraries/drivers/src/at32f403a_407_adc.c ****   *         - ADC_SAMPLETIME_239_5
 428:libraries/drivers/src/at32f403a_407_adc.c ****   * @retval none
 429:libraries/drivers/src/at32f403a_407_adc.c ****   */
ARM GAS  C:\Users\10963\AppData\Local\Temp\ccHwb33p.s 			page 22


 430:libraries/drivers/src/at32f403a_407_adc.c **** void adc_preempt_channel_set(adc_type *adc_x, adc_channel_select_type adc_channel, uint8_t adc_sequ
 431:libraries/drivers/src/at32f403a_407_adc.c **** {
 752              		.loc 1 431 1 is_stmt 1 view -0
 753              		.cfi_startproc
 754              		@ args = 0, pretend = 0, frame = 0
 755              		@ frame_needed = 0, uses_anonymous_args = 0
 756              		.loc 1 431 1 is_stmt 0 view .LVU189
 757 0000 10B5     		push	{r4, lr}
 758              	.LCFI2:
 759              		.cfi_def_cfa_offset 8
 760              		.cfi_offset 4, -8
 761              		.cfi_offset 14, -4
 432:libraries/drivers/src/at32f403a_407_adc.c ****   uint32_t tmp_reg;
 762              		.loc 1 432 3 is_stmt 1 view .LVU190
 433:libraries/drivers/src/at32f403a_407_adc.c ****   uint8_t sequence_index;
 763              		.loc 1 433 3 view .LVU191
 434:libraries/drivers/src/at32f403a_407_adc.c ****   if(adc_channel < ADC_CHANNEL_10)
 764              		.loc 1 434 3 view .LVU192
 765              		.loc 1 434 5 is_stmt 0 view .LVU193
 766 0002 0929     		cmp	r1, #9
 767 0004 20D8     		bhi	.L42
 435:libraries/drivers/src/at32f403a_407_adc.c ****   {
 436:libraries/drivers/src/at32f403a_407_adc.c ****     tmp_reg = adc_x->spt2;
 768              		.loc 1 436 5 is_stmt 1 view .LVU194
 769              		.loc 1 436 13 is_stmt 0 view .LVU195
 770 0006 0469     		ldr	r4, [r0, #16]
 771              	.LVL60:
 437:libraries/drivers/src/at32f403a_407_adc.c ****     tmp_reg &= ~(0x07 << 3 * adc_channel);
 772              		.loc 1 437 5 is_stmt 1 view .LVU196
 773              		.loc 1 437 28 is_stmt 0 view .LVU197
 774 0008 01EB410C 		add	ip, r1, r1, lsl #1
 775              		.loc 1 437 23 view .LVU198
 776 000c 4FF0070E 		mov	lr, #7
 777 0010 0EFA0CFE 		lsl	lr, lr, ip
 778              		.loc 1 437 13 view .LVU199
 779 0014 24EA0E0E 		bic	lr, r4, lr
 780              	.LVL61:
 438:libraries/drivers/src/at32f403a_407_adc.c ****     tmp_reg |= adc_sampletime << 3 * adc_channel;
 781              		.loc 1 438 5 is_stmt 1 view .LVU200
 782              		.loc 1 438 31 is_stmt 0 view .LVU201
 783 0018 03FA0CFC 		lsl	ip, r3, ip
 784              		.loc 1 438 13 view .LVU202
 785 001c 4CEA0E03 		orr	r3, ip, lr
 786              	.LVL62:
 439:libraries/drivers/src/at32f403a_407_adc.c ****     adc_x->spt2 = tmp_reg;
 787              		.loc 1 439 5 is_stmt 1 view .LVU203
 788              		.loc 1 439 17 is_stmt 0 view .LVU204
 789 0020 0361     		str	r3, [r0, #16]
 790              	.L43:
 440:libraries/drivers/src/at32f403a_407_adc.c ****   }
 441:libraries/drivers/src/at32f403a_407_adc.c ****   else
 442:libraries/drivers/src/at32f403a_407_adc.c ****   {
 443:libraries/drivers/src/at32f403a_407_adc.c ****     tmp_reg = adc_x->spt1;
 444:libraries/drivers/src/at32f403a_407_adc.c ****     tmp_reg &= ~(0x07 << 3 * (adc_channel - ADC_CHANNEL_10));
 445:libraries/drivers/src/at32f403a_407_adc.c ****     tmp_reg |= adc_sampletime << 3 * (adc_channel - ADC_CHANNEL_10);
 446:libraries/drivers/src/at32f403a_407_adc.c ****     adc_x->spt1 = tmp_reg;
 447:libraries/drivers/src/at32f403a_407_adc.c ****   }
ARM GAS  C:\Users\10963\AppData\Local\Temp\ccHwb33p.s 			page 23


 448:libraries/drivers/src/at32f403a_407_adc.c **** 
 449:libraries/drivers/src/at32f403a_407_adc.c ****   sequence_index = adc_sequence + 3 - adc_x->psq_bit.pclen;
 791              		.loc 1 449 3 is_stmt 1 view .LVU205
 792              		.loc 1 449 53 is_stmt 0 view .LVU206
 793 0022 836B     		ldr	r3, [r0, #56]
 794              	.LVL63:
 795              		.loc 1 449 53 view .LVU207
 796 0024 C3F30153 		ubfx	r3, r3, #20, #2
 797              		.loc 1 449 37 view .LVU208
 798 0028 D21A     		subs	r2, r2, r3
 799              	.LVL64:
 800              		.loc 1 449 37 view .LVU209
 801 002a D2B2     		uxtb	r2, r2
 802              		.loc 1 449 18 view .LVU210
 803 002c 0332     		adds	r2, r2, #3
 804 002e D2B2     		uxtb	r2, r2
 805              	.LVL65:
 450:libraries/drivers/src/at32f403a_407_adc.c ****   switch(sequence_index)
 806              		.loc 1 450 3 is_stmt 1 view .LVU211
 807 0030 032A     		cmp	r2, #3
 808 0032 26D0     		beq	.L44
 809 0034 19D8     		bhi	.L45
 810 0036 012A     		cmp	r2, #1
 811 0038 1ED0     		beq	.L46
 812 003a 022A     		cmp	r2, #2
 813 003c 20D1     		bne	.L41
 451:libraries/drivers/src/at32f403a_407_adc.c ****   {
 452:libraries/drivers/src/at32f403a_407_adc.c ****     case 1:
 453:libraries/drivers/src/at32f403a_407_adc.c ****       adc_x->psq_bit.psn1 = adc_channel;
 454:libraries/drivers/src/at32f403a_407_adc.c ****       break;
 455:libraries/drivers/src/at32f403a_407_adc.c ****     case 2:
 456:libraries/drivers/src/at32f403a_407_adc.c ****       adc_x->psq_bit.psn2 = adc_channel;
 814              		.loc 1 456 7 view .LVU212
 815              		.loc 1 456 27 is_stmt 0 view .LVU213
 816 003e 836B     		ldr	r3, [r0, #56]
 817 0040 61F34913 		bfi	r3, r1, #5, #5
 818 0044 8363     		str	r3, [r0, #56]
 457:libraries/drivers/src/at32f403a_407_adc.c ****       break;
 819              		.loc 1 457 7 is_stmt 1 view .LVU214
 820 0046 1BE0     		b	.L41
 821              	.LVL66:
 822              	.L42:
 443:libraries/drivers/src/at32f403a_407_adc.c ****     tmp_reg &= ~(0x07 << 3 * (adc_channel - ADC_CHANNEL_10));
 823              		.loc 1 443 5 view .LVU215
 443:libraries/drivers/src/at32f403a_407_adc.c ****     tmp_reg &= ~(0x07 << 3 * (adc_channel - ADC_CHANNEL_10));
 824              		.loc 1 443 13 is_stmt 0 view .LVU216
 825 0048 C468     		ldr	r4, [r0, #12]
 826              	.LVL67:
 444:libraries/drivers/src/at32f403a_407_adc.c ****     tmp_reg |= adc_sampletime << 3 * (adc_channel - ADC_CHANNEL_10);
 827              		.loc 1 444 5 is_stmt 1 view .LVU217
 444:libraries/drivers/src/at32f403a_407_adc.c ****     tmp_reg |= adc_sampletime << 3 * (adc_channel - ADC_CHANNEL_10);
 828              		.loc 1 444 43 is_stmt 0 view .LVU218
 829 004a A1F10A0C 		sub	ip, r1, #10
 444:libraries/drivers/src/at32f403a_407_adc.c ****     tmp_reg |= adc_sampletime << 3 * (adc_channel - ADC_CHANNEL_10);
 830              		.loc 1 444 28 view .LVU219
 831 004e 0CEB4C0C 		add	ip, ip, ip, lsl #1
 444:libraries/drivers/src/at32f403a_407_adc.c ****     tmp_reg |= adc_sampletime << 3 * (adc_channel - ADC_CHANNEL_10);
ARM GAS  C:\Users\10963\AppData\Local\Temp\ccHwb33p.s 			page 24


 832              		.loc 1 444 23 view .LVU220
 833 0052 4FF0070E 		mov	lr, #7
 834 0056 0EFA0CFE 		lsl	lr, lr, ip
 444:libraries/drivers/src/at32f403a_407_adc.c ****     tmp_reg |= adc_sampletime << 3 * (adc_channel - ADC_CHANNEL_10);
 835              		.loc 1 444 13 view .LVU221
 836 005a 24EA0E0E 		bic	lr, r4, lr
 837              	.LVL68:
 445:libraries/drivers/src/at32f403a_407_adc.c ****     adc_x->spt1 = tmp_reg;
 838              		.loc 1 445 5 is_stmt 1 view .LVU222
 445:libraries/drivers/src/at32f403a_407_adc.c ****     adc_x->spt1 = tmp_reg;
 839              		.loc 1 445 31 is_stmt 0 view .LVU223
 840 005e 03FA0CF3 		lsl	r3, r3, ip
 841              	.LVL69:
 445:libraries/drivers/src/at32f403a_407_adc.c ****     adc_x->spt1 = tmp_reg;
 842              		.loc 1 445 13 view .LVU224
 843 0062 43EA0E03 		orr	r3, r3, lr
 844              	.LVL70:
 446:libraries/drivers/src/at32f403a_407_adc.c ****   }
 845              		.loc 1 446 5 is_stmt 1 view .LVU225
 446:libraries/drivers/src/at32f403a_407_adc.c ****   }
 846              		.loc 1 446 17 is_stmt 0 view .LVU226
 847 0066 C360     		str	r3, [r0, #12]
 848 0068 DBE7     		b	.L43
 849              	.LVL71:
 850              	.L45:
 450:libraries/drivers/src/at32f403a_407_adc.c ****   {
 851              		.loc 1 450 3 view .LVU227
 852 006a 042A     		cmp	r2, #4
 853 006c 08D1     		bne	.L41
 458:libraries/drivers/src/at32f403a_407_adc.c ****     case 3:
 459:libraries/drivers/src/at32f403a_407_adc.c ****       adc_x->psq_bit.psn3 = adc_channel;
 460:libraries/drivers/src/at32f403a_407_adc.c ****       break;
 461:libraries/drivers/src/at32f403a_407_adc.c ****     case 4:
 462:libraries/drivers/src/at32f403a_407_adc.c ****       adc_x->psq_bit.psn4 = adc_channel;
 854              		.loc 1 462 7 is_stmt 1 view .LVU228
 855              		.loc 1 462 27 is_stmt 0 view .LVU229
 856 006e 836B     		ldr	r3, [r0, #56]
 857 0070 61F3D333 		bfi	r3, r1, #15, #5
 858 0074 8363     		str	r3, [r0, #56]
 463:libraries/drivers/src/at32f403a_407_adc.c ****       break;
 859              		.loc 1 463 7 is_stmt 1 view .LVU230
 464:libraries/drivers/src/at32f403a_407_adc.c ****     default:
 465:libraries/drivers/src/at32f403a_407_adc.c ****       break;
 466:libraries/drivers/src/at32f403a_407_adc.c ****   }
 467:libraries/drivers/src/at32f403a_407_adc.c **** }
 860              		.loc 1 467 1 is_stmt 0 view .LVU231
 861 0076 03E0     		b	.L41
 862              	.L46:
 453:libraries/drivers/src/at32f403a_407_adc.c ****       break;
 863              		.loc 1 453 7 is_stmt 1 view .LVU232
 453:libraries/drivers/src/at32f403a_407_adc.c ****       break;
 864              		.loc 1 453 27 is_stmt 0 view .LVU233
 865 0078 836B     		ldr	r3, [r0, #56]
 866 007a 61F30403 		bfi	r3, r1, #0, #5
 867 007e 8363     		str	r3, [r0, #56]
 454:libraries/drivers/src/at32f403a_407_adc.c ****     case 2:
 868              		.loc 1 454 7 is_stmt 1 view .LVU234
ARM GAS  C:\Users\10963\AppData\Local\Temp\ccHwb33p.s 			page 25


 869              	.L41:
 870              		.loc 1 467 1 is_stmt 0 view .LVU235
 871 0080 10BD     		pop	{r4, pc}
 872              	.L44:
 459:libraries/drivers/src/at32f403a_407_adc.c ****       break;
 873              		.loc 1 459 7 is_stmt 1 view .LVU236
 459:libraries/drivers/src/at32f403a_407_adc.c ****       break;
 874              		.loc 1 459 27 is_stmt 0 view .LVU237
 875 0082 836B     		ldr	r3, [r0, #56]
 876 0084 61F38E23 		bfi	r3, r1, #10, #5
 877 0088 8363     		str	r3, [r0, #56]
 460:libraries/drivers/src/at32f403a_407_adc.c ****     case 4:
 878              		.loc 1 460 7 is_stmt 1 view .LVU238
 879 008a F9E7     		b	.L41
 880              		.cfi_endproc
 881              	.LFE150:
 883              		.section	.text.adc_ordinary_conversion_trigger_set,"ax",%progbits
 884              		.align	1
 885              		.global	adc_ordinary_conversion_trigger_set
 886              		.syntax unified
 887              		.thumb
 888              		.thumb_func
 890              	adc_ordinary_conversion_trigger_set:
 891              	.LVL72:
 892              	.LFB151:
 468:libraries/drivers/src/at32f403a_407_adc.c **** 
 469:libraries/drivers/src/at32f403a_407_adc.c **** /**
 470:libraries/drivers/src/at32f403a_407_adc.c ****   * @brief  enable or disable the ordinary channel's external trigger and
 471:libraries/drivers/src/at32f403a_407_adc.c ****   *         set external trigger event of the specified adc peripheral.
 472:libraries/drivers/src/at32f403a_407_adc.c ****   * @param  adc_x: select the adc peripheral.
 473:libraries/drivers/src/at32f403a_407_adc.c ****   *         this parameter can be one of the following values:
 474:libraries/drivers/src/at32f403a_407_adc.c ****   *         ADC1, ADC2, ADC3.
 475:libraries/drivers/src/at32f403a_407_adc.c ****   * @param  adc_ordinary_trig: select the external trigger event.
 476:libraries/drivers/src/at32f403a_407_adc.c ****   *         this parameter can be one of the following values:
 477:libraries/drivers/src/at32f403a_407_adc.c ****   *         adc1 & adc2
 478:libraries/drivers/src/at32f403a_407_adc.c ****   *         - ADC12_ORDINARY_TRIG_TMR1CH1     - ADC12_ORDINARY_TRIG_TMR1CH2  - ADC12_ORDINARY_TRIG_
 479:libraries/drivers/src/at32f403a_407_adc.c ****   *         - ADC12_ORDINARY_TRIG_TMR3TRGOUT  - ADC12_ORDINARY_TRIG_TMR4CH4  - ADC12_ORDINARY_TRIG_
 480:libraries/drivers/src/at32f403a_407_adc.c ****   *         - ADC12_ORDINARY_TRIG_TMR1TRGOUT  - ADC12_ORDINARY_TRIG_TMR8CH1  - ADC12_ORDINARY_TRIG_
 481:libraries/drivers/src/at32f403a_407_adc.c ****   *         adc3
 482:libraries/drivers/src/at32f403a_407_adc.c ****   *         - ADC3_ORDINARY_TRIG_TMR3CH1      - ADC3_ORDINARY_TRIG_TMR2CH3   - ADC3_ORDINARY_TRIG_T
 483:libraries/drivers/src/at32f403a_407_adc.c ****   *         - ADC3_ORDINARY_TRIG_TMR8TRGOUT   - ADC3_ORDINARY_TRIG_TMR5CH1   - ADC3_ORDINARY_TRIG_T
 484:libraries/drivers/src/at32f403a_407_adc.c ****   *         - ADC3_ORDINARY_TRIG_TMR1TRGOUT   - ADC3_ORDINARY_TRIG_TMR1CH1   - ADC3_ORDINARY_TRIG_T
 485:libraries/drivers/src/at32f403a_407_adc.c ****   * @param  new_state: new state of ordinary channel's external trigger.
 486:libraries/drivers/src/at32f403a_407_adc.c ****   *         this parameter can be: TRUE or FALSE.
 487:libraries/drivers/src/at32f403a_407_adc.c ****   * @retval none
 488:libraries/drivers/src/at32f403a_407_adc.c ****   */
 489:libraries/drivers/src/at32f403a_407_adc.c **** void adc_ordinary_conversion_trigger_set(adc_type *adc_x, adc_ordinary_trig_select_type adc_ordinar
 490:libraries/drivers/src/at32f403a_407_adc.c **** {
 893              		.loc 1 490 1 view -0
 894              		.cfi_startproc
 895              		@ args = 0, pretend = 0, frame = 0
 896              		@ frame_needed = 0, uses_anonymous_args = 0
 897              		@ link register save eliminated.
 491:libraries/drivers/src/at32f403a_407_adc.c ****   if(adc_ordinary_trig > 7)
 898              		.loc 1 491 3 view .LVU240
 899              		.loc 1 491 5 is_stmt 0 view .LVU241
 900 0000 0729     		cmp	r1, #7
ARM GAS  C:\Users\10963\AppData\Local\Temp\ccHwb33p.s 			page 26


 901 0002 0CD9     		bls	.L52
 492:libraries/drivers/src/at32f403a_407_adc.c ****   {
 493:libraries/drivers/src/at32f403a_407_adc.c ****     adc_x->ctrl2_bit.octesel_h = 1;
 902              		.loc 1 493 5 is_stmt 1 view .LVU242
 903              		.loc 1 493 32 is_stmt 0 view .LVU243
 904 0004 8368     		ldr	r3, [r0, #8]
 905 0006 43F00073 		orr	r3, r3, #33554432
 906 000a 8360     		str	r3, [r0, #8]
 494:libraries/drivers/src/at32f403a_407_adc.c ****     adc_x->ctrl2_bit.octesel_l = adc_ordinary_trig & 0x7;
 907              		.loc 1 494 5 is_stmt 1 view .LVU244
 908              		.loc 1 494 32 is_stmt 0 view .LVU245
 909 000c 8368     		ldr	r3, [r0, #8]
 910 000e 61F35343 		bfi	r3, r1, #17, #3
 911 0012 8360     		str	r3, [r0, #8]
 912              	.L53:
 495:libraries/drivers/src/at32f403a_407_adc.c ****   }
 496:libraries/drivers/src/at32f403a_407_adc.c ****   else
 497:libraries/drivers/src/at32f403a_407_adc.c ****   {
 498:libraries/drivers/src/at32f403a_407_adc.c ****     adc_x->ctrl2_bit.octesel_h = 0;
 499:libraries/drivers/src/at32f403a_407_adc.c ****     adc_x->ctrl2_bit.octesel_l = adc_ordinary_trig & 0x7;
 500:libraries/drivers/src/at32f403a_407_adc.c ****   }
 501:libraries/drivers/src/at32f403a_407_adc.c ****   adc_x->ctrl2_bit.octen = new_state;
 913              		.loc 1 501 3 is_stmt 1 view .LVU246
 914              		.loc 1 501 26 is_stmt 0 view .LVU247
 915 0014 8368     		ldr	r3, [r0, #8]
 916 0016 62F31453 		bfi	r3, r2, #20, #1
 917 001a 8360     		str	r3, [r0, #8]
 502:libraries/drivers/src/at32f403a_407_adc.c **** }
 918              		.loc 1 502 1 view .LVU248
 919 001c 7047     		bx	lr
 920              	.L52:
 498:libraries/drivers/src/at32f403a_407_adc.c ****     adc_x->ctrl2_bit.octesel_l = adc_ordinary_trig & 0x7;
 921              		.loc 1 498 5 is_stmt 1 view .LVU249
 498:libraries/drivers/src/at32f403a_407_adc.c ****     adc_x->ctrl2_bit.octesel_l = adc_ordinary_trig & 0x7;
 922              		.loc 1 498 32 is_stmt 0 view .LVU250
 923 001e 8368     		ldr	r3, [r0, #8]
 924 0020 23F00073 		bic	r3, r3, #33554432
 925 0024 8360     		str	r3, [r0, #8]
 499:libraries/drivers/src/at32f403a_407_adc.c ****   }
 926              		.loc 1 499 5 is_stmt 1 view .LVU251
 499:libraries/drivers/src/at32f403a_407_adc.c ****   }
 927              		.loc 1 499 32 is_stmt 0 view .LVU252
 928 0026 8368     		ldr	r3, [r0, #8]
 929 0028 61F35343 		bfi	r3, r1, #17, #3
 930 002c 8360     		str	r3, [r0, #8]
 931 002e F1E7     		b	.L53
 932              		.cfi_endproc
 933              	.LFE151:
 935              		.section	.text.adc_preempt_conversion_trigger_set,"ax",%progbits
 936              		.align	1
 937              		.global	adc_preempt_conversion_trigger_set
 938              		.syntax unified
 939              		.thumb
 940              		.thumb_func
 942              	adc_preempt_conversion_trigger_set:
 943              	.LVL73:
 944              	.LFB152:
ARM GAS  C:\Users\10963\AppData\Local\Temp\ccHwb33p.s 			page 27


 503:libraries/drivers/src/at32f403a_407_adc.c **** 
 504:libraries/drivers/src/at32f403a_407_adc.c **** /**
 505:libraries/drivers/src/at32f403a_407_adc.c ****   * @brief  enable or disable the preempt channel's external trigger and
 506:libraries/drivers/src/at32f403a_407_adc.c ****   *         set external trigger event of the specified adc peripheral.
 507:libraries/drivers/src/at32f403a_407_adc.c ****   * @param  adc_x: select the adc peripheral.
 508:libraries/drivers/src/at32f403a_407_adc.c ****   *         this parameter can be one of the following values:
 509:libraries/drivers/src/at32f403a_407_adc.c ****   *         ADC1, ADC2, ADC3.
 510:libraries/drivers/src/at32f403a_407_adc.c ****   * @param  adc_preempt_trig: select the external trigger event.
 511:libraries/drivers/src/at32f403a_407_adc.c ****   *         this parameter can be one of the following values:
 512:libraries/drivers/src/at32f403a_407_adc.c ****   *         adc1 & adc2
 513:libraries/drivers/src/at32f403a_407_adc.c ****   *         - ADC12_PREEMPT_TRIG_TMR1TRGOUT  - ADC12_PREEMPT_TRIG_TMR1CH4     - ADC12_PREEMPT_TRIG_
 514:libraries/drivers/src/at32f403a_407_adc.c ****   *         - ADC12_PREEMPT_TRIG_TMR3CH4     - ADC12_PREEMPT_TRIG_TMR4TRGOUT  - ADC12_PREEMPT_TRIG_
 515:libraries/drivers/src/at32f403a_407_adc.c ****   *         - ADC12_PREEMPT_TRIG_TMR1CH1     - ADC12_PREEMPT_TRIG_TMR8CH1     - ADC12_PREEMPT_TRIG_
 516:libraries/drivers/src/at32f403a_407_adc.c ****   *         adc3
 517:libraries/drivers/src/at32f403a_407_adc.c ****   *         - ADC3_PREEMPT_TRIG_TMR1TRGOUT   - ADC3_PREEMPT_TRIG_TMR1CH4      - ADC3_PREEMPT_TRIG_T
 518:libraries/drivers/src/at32f403a_407_adc.c ****   *         - ADC3_PREEMPT_TRIG_TMR8CH4      - ADC3_PREEMPT_TRIG_TMR5TRGOUT   - ADC3_PREEMPT_TRIG_T
 519:libraries/drivers/src/at32f403a_407_adc.c ****   *         - ADC3_PREEMPT_TRIG_TMR1CH1      - ADC3_PREEMPT_TRIG_TMR1CH2      - ADC3_PREEMPT_TRIG_T
 520:libraries/drivers/src/at32f403a_407_adc.c ****   * @param  new_state: new state of preempt channel's external trigger.
 521:libraries/drivers/src/at32f403a_407_adc.c ****   *         this parameter can be: TRUE or FALSE.
 522:libraries/drivers/src/at32f403a_407_adc.c ****   * @retval none
 523:libraries/drivers/src/at32f403a_407_adc.c ****   */
 524:libraries/drivers/src/at32f403a_407_adc.c **** void adc_preempt_conversion_trigger_set(adc_type *adc_x, adc_preempt_trig_select_type adc_preempt_t
 525:libraries/drivers/src/at32f403a_407_adc.c **** {
 945              		.loc 1 525 1 is_stmt 1 view -0
 946              		.cfi_startproc
 947              		@ args = 0, pretend = 0, frame = 0
 948              		@ frame_needed = 0, uses_anonymous_args = 0
 949              		@ link register save eliminated.
 526:libraries/drivers/src/at32f403a_407_adc.c ****   if(adc_preempt_trig > 7)
 950              		.loc 1 526 3 view .LVU254
 951              		.loc 1 526 5 is_stmt 0 view .LVU255
 952 0000 0729     		cmp	r1, #7
 953 0002 0CD9     		bls	.L55
 527:libraries/drivers/src/at32f403a_407_adc.c ****   {
 528:libraries/drivers/src/at32f403a_407_adc.c ****     adc_x->ctrl2_bit.pctesel_h = 1;
 954              		.loc 1 528 5 is_stmt 1 view .LVU256
 955              		.loc 1 528 32 is_stmt 0 view .LVU257
 956 0004 8368     		ldr	r3, [r0, #8]
 957 0006 43F08073 		orr	r3, r3, #16777216
 958 000a 8360     		str	r3, [r0, #8]
 529:libraries/drivers/src/at32f403a_407_adc.c ****     adc_x->ctrl2_bit.pctesel_l = adc_preempt_trig & 0x7;
 959              		.loc 1 529 5 is_stmt 1 view .LVU258
 960              		.loc 1 529 32 is_stmt 0 view .LVU259
 961 000c 8368     		ldr	r3, [r0, #8]
 962 000e 61F30E33 		bfi	r3, r1, #12, #3
 963 0012 8360     		str	r3, [r0, #8]
 964              	.L56:
 530:libraries/drivers/src/at32f403a_407_adc.c ****   }
 531:libraries/drivers/src/at32f403a_407_adc.c ****   else
 532:libraries/drivers/src/at32f403a_407_adc.c ****   {
 533:libraries/drivers/src/at32f403a_407_adc.c ****     adc_x->ctrl2_bit.pctesel_h = 0;
 534:libraries/drivers/src/at32f403a_407_adc.c ****     adc_x->ctrl2_bit.pctesel_l = adc_preempt_trig & 0x7;
 535:libraries/drivers/src/at32f403a_407_adc.c ****   }
 536:libraries/drivers/src/at32f403a_407_adc.c ****   adc_x->ctrl2_bit.pcten = new_state;
 965              		.loc 1 536 3 is_stmt 1 view .LVU260
 966              		.loc 1 536 26 is_stmt 0 view .LVU261
 967 0014 8368     		ldr	r3, [r0, #8]
ARM GAS  C:\Users\10963\AppData\Local\Temp\ccHwb33p.s 			page 28


 968 0016 62F3CF33 		bfi	r3, r2, #15, #1
 969 001a 8360     		str	r3, [r0, #8]
 537:libraries/drivers/src/at32f403a_407_adc.c **** }
 970              		.loc 1 537 1 view .LVU262
 971 001c 7047     		bx	lr
 972              	.L55:
 533:libraries/drivers/src/at32f403a_407_adc.c ****     adc_x->ctrl2_bit.pctesel_l = adc_preempt_trig & 0x7;
 973              		.loc 1 533 5 is_stmt 1 view .LVU263
 533:libraries/drivers/src/at32f403a_407_adc.c ****     adc_x->ctrl2_bit.pctesel_l = adc_preempt_trig & 0x7;
 974              		.loc 1 533 32 is_stmt 0 view .LVU264
 975 001e 8368     		ldr	r3, [r0, #8]
 976 0020 23F08073 		bic	r3, r3, #16777216
 977 0024 8360     		str	r3, [r0, #8]
 534:libraries/drivers/src/at32f403a_407_adc.c ****   }
 978              		.loc 1 534 5 is_stmt 1 view .LVU265
 534:libraries/drivers/src/at32f403a_407_adc.c ****   }
 979              		.loc 1 534 32 is_stmt 0 view .LVU266
 980 0026 8368     		ldr	r3, [r0, #8]
 981 0028 61F30E33 		bfi	r3, r1, #12, #3
 982 002c 8360     		str	r3, [r0, #8]
 983 002e F1E7     		b	.L56
 984              		.cfi_endproc
 985              	.LFE152:
 987              		.section	.text.adc_preempt_offset_value_set,"ax",%progbits
 988              		.align	1
 989              		.global	adc_preempt_offset_value_set
 990              		.syntax unified
 991              		.thumb
 992              		.thumb_func
 994              	adc_preempt_offset_value_set:
 995              	.LVL74:
 996              	.LFB153:
 538:libraries/drivers/src/at32f403a_407_adc.c **** 
 539:libraries/drivers/src/at32f403a_407_adc.c **** 
 540:libraries/drivers/src/at32f403a_407_adc.c **** /**
 541:libraries/drivers/src/at32f403a_407_adc.c ****   * @brief  set preempt channel's conversion value offset of the specified adc peripheral.
 542:libraries/drivers/src/at32f403a_407_adc.c ****   * @param  adc_x: select the adc peripheral.
 543:libraries/drivers/src/at32f403a_407_adc.c ****   *         this parameter can be one of the following values:
 544:libraries/drivers/src/at32f403a_407_adc.c ****   *         ADC1, ADC2, ADC3.
 545:libraries/drivers/src/at32f403a_407_adc.c ****   * @param  adc_preempt_channel: select the preempt channel.
 546:libraries/drivers/src/at32f403a_407_adc.c ****   *         this parameter can be one of the following values:
 547:libraries/drivers/src/at32f403a_407_adc.c ****   *         - ADC_PREEMPT_CHANNEL_1
 548:libraries/drivers/src/at32f403a_407_adc.c ****   *         - ADC_PREEMPT_CHANNEL_2
 549:libraries/drivers/src/at32f403a_407_adc.c ****   *         - ADC_PREEMPT_CHANNEL_3
 550:libraries/drivers/src/at32f403a_407_adc.c ****   *         - ADC_PREEMPT_CHANNEL_4
 551:libraries/drivers/src/at32f403a_407_adc.c ****   * @param  adc_offset_value: set the adc preempt channel's conversion value offset.
 552:libraries/drivers/src/at32f403a_407_adc.c ****   *         this parameter can be:
 553:libraries/drivers/src/at32f403a_407_adc.c ****   *         - (0x000~0xFFF)
 554:libraries/drivers/src/at32f403a_407_adc.c ****   * @retval none
 555:libraries/drivers/src/at32f403a_407_adc.c ****   */
 556:libraries/drivers/src/at32f403a_407_adc.c **** void adc_preempt_offset_value_set(adc_type *adc_x, adc_preempt_channel_type adc_preempt_channel, ui
 557:libraries/drivers/src/at32f403a_407_adc.c **** {
 997              		.loc 1 557 1 is_stmt 1 view -0
 998              		.cfi_startproc
 999              		@ args = 0, pretend = 0, frame = 0
 1000              		@ frame_needed = 0, uses_anonymous_args = 0
 1001              		@ link register save eliminated.
ARM GAS  C:\Users\10963\AppData\Local\Temp\ccHwb33p.s 			page 29


 558:libraries/drivers/src/at32f403a_407_adc.c ****   switch(adc_preempt_channel)
 1002              		.loc 1 558 3 view .LVU268
 1003 0000 0229     		cmp	r1, #2
 1004 0002 16D0     		beq	.L58
 1005 0004 08D8     		bhi	.L59
 1006 0006 79B1     		cbz	r1, .L60
 1007 0008 0129     		cmp	r1, #1
 1008 000a 04D1     		bne	.L64
 559:libraries/drivers/src/at32f403a_407_adc.c ****   {
 560:libraries/drivers/src/at32f403a_407_adc.c ****     case ADC_PREEMPT_CHANNEL_1:
 561:libraries/drivers/src/at32f403a_407_adc.c ****       adc_x->pcdto1_bit.pcdto1 = adc_offset_value;
 562:libraries/drivers/src/at32f403a_407_adc.c ****       break;
 563:libraries/drivers/src/at32f403a_407_adc.c ****     case ADC_PREEMPT_CHANNEL_2:
 564:libraries/drivers/src/at32f403a_407_adc.c ****       adc_x->pcdto2_bit.pcdto2 = adc_offset_value;
 1009              		.loc 1 564 7 view .LVU269
 1010              		.loc 1 564 32 is_stmt 0 view .LVU270
 1011 000c 8369     		ldr	r3, [r0, #24]
 1012 000e 62F30B03 		bfi	r3, r2, #0, #12
 1013 0012 8361     		str	r3, [r0, #24]
 565:libraries/drivers/src/at32f403a_407_adc.c ****       break;
 1014              		.loc 1 565 7 is_stmt 1 view .LVU271
 1015 0014 7047     		bx	lr
 1016              	.L64:
 1017 0016 7047     		bx	lr
 1018              	.L59:
 558:libraries/drivers/src/at32f403a_407_adc.c ****   switch(adc_preempt_channel)
 1019              		.loc 1 558 3 is_stmt 0 view .LVU272
 1020 0018 0329     		cmp	r1, #3
 1021 001a 04D1     		bne	.L65
 566:libraries/drivers/src/at32f403a_407_adc.c ****     case ADC_PREEMPT_CHANNEL_3:
 567:libraries/drivers/src/at32f403a_407_adc.c ****       adc_x->pcdto3_bit.pcdto3 = adc_offset_value;
 568:libraries/drivers/src/at32f403a_407_adc.c ****       break;
 569:libraries/drivers/src/at32f403a_407_adc.c ****     case ADC_PREEMPT_CHANNEL_4:
 570:libraries/drivers/src/at32f403a_407_adc.c ****       adc_x->pcdto4_bit.pcdto4 = adc_offset_value;
 1022              		.loc 1 570 7 is_stmt 1 view .LVU273
 1023              		.loc 1 570 32 is_stmt 0 view .LVU274
 1024 001c 036A     		ldr	r3, [r0, #32]
 1025 001e 62F30B03 		bfi	r3, r2, #0, #12
 1026 0022 0362     		str	r3, [r0, #32]
 571:libraries/drivers/src/at32f403a_407_adc.c ****       break;
 1027              		.loc 1 571 7 is_stmt 1 view .LVU275
 572:libraries/drivers/src/at32f403a_407_adc.c ****     default:
 573:libraries/drivers/src/at32f403a_407_adc.c ****       break;
 574:libraries/drivers/src/at32f403a_407_adc.c ****   }
 575:libraries/drivers/src/at32f403a_407_adc.c **** }
 1028              		.loc 1 575 1 is_stmt 0 view .LVU276
 1029 0024 7047     		bx	lr
 1030              	.L65:
 1031              		.loc 1 575 1 view .LVU277
 1032 0026 7047     		bx	lr
 1033              	.L60:
 561:libraries/drivers/src/at32f403a_407_adc.c ****       break;
 1034              		.loc 1 561 7 is_stmt 1 view .LVU278
 561:libraries/drivers/src/at32f403a_407_adc.c ****       break;
 1035              		.loc 1 561 32 is_stmt 0 view .LVU279
 1036 0028 4369     		ldr	r3, [r0, #20]
 1037 002a 62F30B03 		bfi	r3, r2, #0, #12
ARM GAS  C:\Users\10963\AppData\Local\Temp\ccHwb33p.s 			page 30


 1038 002e 4361     		str	r3, [r0, #20]
 562:libraries/drivers/src/at32f403a_407_adc.c ****     case ADC_PREEMPT_CHANNEL_2:
 1039              		.loc 1 562 7 is_stmt 1 view .LVU280
 1040 0030 7047     		bx	lr
 1041              	.L58:
 567:libraries/drivers/src/at32f403a_407_adc.c ****       break;
 1042              		.loc 1 567 7 view .LVU281
 567:libraries/drivers/src/at32f403a_407_adc.c ****       break;
 1043              		.loc 1 567 32 is_stmt 0 view .LVU282
 1044 0032 C369     		ldr	r3, [r0, #28]
 1045 0034 62F30B03 		bfi	r3, r2, #0, #12
 1046 0038 C361     		str	r3, [r0, #28]
 568:libraries/drivers/src/at32f403a_407_adc.c ****     case ADC_PREEMPT_CHANNEL_4:
 1047              		.loc 1 568 7 is_stmt 1 view .LVU283
 1048 003a 7047     		bx	lr
 1049              		.cfi_endproc
 1050              	.LFE153:
 1052              		.section	.text.adc_ordinary_part_count_set,"ax",%progbits
 1053              		.align	1
 1054              		.global	adc_ordinary_part_count_set
 1055              		.syntax unified
 1056              		.thumb
 1057              		.thumb_func
 1059              	adc_ordinary_part_count_set:
 1060              	.LVL75:
 1061              	.LFB154:
 576:libraries/drivers/src/at32f403a_407_adc.c **** 
 577:libraries/drivers/src/at32f403a_407_adc.c **** /**
 578:libraries/drivers/src/at32f403a_407_adc.c ****   * @brief  set partitioned mode channel count of the specified adc peripheral.
 579:libraries/drivers/src/at32f403a_407_adc.c ****   * @param  adc_x: select the adc peripheral.
 580:libraries/drivers/src/at32f403a_407_adc.c ****   *         this parameter can be one of the following values:
 581:libraries/drivers/src/at32f403a_407_adc.c ****   *         ADC1, ADC2, ADC3.
 582:libraries/drivers/src/at32f403a_407_adc.c ****   * @param  adc_channel_count: configure the adc partitioned mode channel count.
 583:libraries/drivers/src/at32f403a_407_adc.c ****   *         this parameter can be:
 584:libraries/drivers/src/at32f403a_407_adc.c ****   *         - (0x1~0x8)
 585:libraries/drivers/src/at32f403a_407_adc.c ****   * @retval none
 586:libraries/drivers/src/at32f403a_407_adc.c ****   */
 587:libraries/drivers/src/at32f403a_407_adc.c **** void adc_ordinary_part_count_set(adc_type *adc_x, uint8_t adc_channel_count)
 588:libraries/drivers/src/at32f403a_407_adc.c **** {
 1062              		.loc 1 588 1 view -0
 1063              		.cfi_startproc
 1064              		@ args = 0, pretend = 0, frame = 0
 1065              		@ frame_needed = 0, uses_anonymous_args = 0
 1066              		@ link register save eliminated.
 589:libraries/drivers/src/at32f403a_407_adc.c **** 
 590:libraries/drivers/src/at32f403a_407_adc.c ****   adc_x->ctrl1_bit.ocpcnt =  adc_channel_count - 1;
 1067              		.loc 1 590 3 view .LVU285
 1068              		.loc 1 590 48 is_stmt 0 view .LVU286
 1069 0000 0139     		subs	r1, r1, #1
 1070              	.LVL76:
 1071              		.loc 1 590 27 view .LVU287
 1072 0002 4368     		ldr	r3, [r0, #4]
 1073 0004 61F34F33 		bfi	r3, r1, #13, #3
 1074 0008 4360     		str	r3, [r0, #4]
 591:libraries/drivers/src/at32f403a_407_adc.c **** }
 1075              		.loc 1 591 1 view .LVU288
 1076 000a 7047     		bx	lr
ARM GAS  C:\Users\10963\AppData\Local\Temp\ccHwb33p.s 			page 31


 1077              		.cfi_endproc
 1078              	.LFE154:
 1080              		.section	.text.adc_ordinary_part_mode_enable,"ax",%progbits
 1081              		.align	1
 1082              		.global	adc_ordinary_part_mode_enable
 1083              		.syntax unified
 1084              		.thumb
 1085              		.thumb_func
 1087              	adc_ordinary_part_mode_enable:
 1088              	.LVL77:
 1089              	.LFB155:
 592:libraries/drivers/src/at32f403a_407_adc.c **** 
 593:libraries/drivers/src/at32f403a_407_adc.c **** /**
 594:libraries/drivers/src/at32f403a_407_adc.c ****   * @brief  enable or disable the partitioned mode on ordinary channel of the specified adc periphe
 595:libraries/drivers/src/at32f403a_407_adc.c ****   * @param  adc_x: select the adc peripheral.
 596:libraries/drivers/src/at32f403a_407_adc.c ****   *         this parameter can be one of the following values:
 597:libraries/drivers/src/at32f403a_407_adc.c ****   *         ADC1, ADC2, ADC3.
 598:libraries/drivers/src/at32f403a_407_adc.c ****   * @param  new_state: new state of ordinary channel's partitioned mode.
 599:libraries/drivers/src/at32f403a_407_adc.c ****   *         this parameter can be: TRUE or FALSE.
 600:libraries/drivers/src/at32f403a_407_adc.c ****   * @retval none
 601:libraries/drivers/src/at32f403a_407_adc.c ****   */
 602:libraries/drivers/src/at32f403a_407_adc.c **** void adc_ordinary_part_mode_enable(adc_type *adc_x, confirm_state new_state)
 603:libraries/drivers/src/at32f403a_407_adc.c **** {
 1090              		.loc 1 603 1 is_stmt 1 view -0
 1091              		.cfi_startproc
 1092              		@ args = 0, pretend = 0, frame = 0
 1093              		@ frame_needed = 0, uses_anonymous_args = 0
 1094              		@ link register save eliminated.
 604:libraries/drivers/src/at32f403a_407_adc.c ****   adc_x->ctrl1_bit.ocpen = new_state;
 1095              		.loc 1 604 3 view .LVU290
 1096              		.loc 1 604 26 is_stmt 0 view .LVU291
 1097 0000 4368     		ldr	r3, [r0, #4]
 1098 0002 61F3CB23 		bfi	r3, r1, #11, #1
 1099 0006 4360     		str	r3, [r0, #4]
 605:libraries/drivers/src/at32f403a_407_adc.c **** }
 1100              		.loc 1 605 1 view .LVU292
 1101 0008 7047     		bx	lr
 1102              		.cfi_endproc
 1103              	.LFE155:
 1105              		.section	.text.adc_preempt_part_mode_enable,"ax",%progbits
 1106              		.align	1
 1107              		.global	adc_preempt_part_mode_enable
 1108              		.syntax unified
 1109              		.thumb
 1110              		.thumb_func
 1112              	adc_preempt_part_mode_enable:
 1113              	.LVL78:
 1114              	.LFB156:
 606:libraries/drivers/src/at32f403a_407_adc.c **** 
 607:libraries/drivers/src/at32f403a_407_adc.c **** /**
 608:libraries/drivers/src/at32f403a_407_adc.c ****   * @brief  enable or disable the partitioned mode on preempt channel of the specified adc peripher
 609:libraries/drivers/src/at32f403a_407_adc.c ****   * @param  adc_x: select the adc peripheral.
 610:libraries/drivers/src/at32f403a_407_adc.c ****   *         this parameter can be one of the following values:
 611:libraries/drivers/src/at32f403a_407_adc.c ****   *         ADC1, ADC2, ADC3.
 612:libraries/drivers/src/at32f403a_407_adc.c ****   * @param  new_state: new state of preempt channel's partitioned mode.
 613:libraries/drivers/src/at32f403a_407_adc.c ****   *         this parameter can be: TRUE or FALSE.
 614:libraries/drivers/src/at32f403a_407_adc.c ****   * @retval none
ARM GAS  C:\Users\10963\AppData\Local\Temp\ccHwb33p.s 			page 32


 615:libraries/drivers/src/at32f403a_407_adc.c ****   */
 616:libraries/drivers/src/at32f403a_407_adc.c **** void adc_preempt_part_mode_enable(adc_type *adc_x, confirm_state new_state)
 617:libraries/drivers/src/at32f403a_407_adc.c **** {
 1115              		.loc 1 617 1 is_stmt 1 view -0
 1116              		.cfi_startproc
 1117              		@ args = 0, pretend = 0, frame = 0
 1118              		@ frame_needed = 0, uses_anonymous_args = 0
 1119              		@ link register save eliminated.
 618:libraries/drivers/src/at32f403a_407_adc.c ****   adc_x->ctrl1_bit.pcpen = new_state;
 1120              		.loc 1 618 3 view .LVU294
 1121              		.loc 1 618 26 is_stmt 0 view .LVU295
 1122 0000 4368     		ldr	r3, [r0, #4]
 1123 0002 61F30C33 		bfi	r3, r1, #12, #1
 1124 0006 4360     		str	r3, [r0, #4]
 619:libraries/drivers/src/at32f403a_407_adc.c **** }
 1125              		.loc 1 619 1 view .LVU296
 1126 0008 7047     		bx	lr
 1127              		.cfi_endproc
 1128              	.LFE156:
 1130              		.section	.text.adc_preempt_auto_mode_enable,"ax",%progbits
 1131              		.align	1
 1132              		.global	adc_preempt_auto_mode_enable
 1133              		.syntax unified
 1134              		.thumb
 1135              		.thumb_func
 1137              	adc_preempt_auto_mode_enable:
 1138              	.LVL79:
 1139              	.LFB157:
 620:libraries/drivers/src/at32f403a_407_adc.c **** 
 621:libraries/drivers/src/at32f403a_407_adc.c **** /**
 622:libraries/drivers/src/at32f403a_407_adc.c ****   * @brief  enable or disable automatic preempt group conversion of the specified adc peripheral.
 623:libraries/drivers/src/at32f403a_407_adc.c ****   * @param  adc_x: select the adc peripheral.
 624:libraries/drivers/src/at32f403a_407_adc.c ****   *         this parameter can be one of the following values:
 625:libraries/drivers/src/at32f403a_407_adc.c ****   *         ADC1, ADC2, ADC3.
 626:libraries/drivers/src/at32f403a_407_adc.c ****   * @param  new_state: new state of automatic preempt group conversion.
 627:libraries/drivers/src/at32f403a_407_adc.c ****   *         this parameter can be: TRUE or FALSE.
 628:libraries/drivers/src/at32f403a_407_adc.c ****   * @retval none
 629:libraries/drivers/src/at32f403a_407_adc.c ****   */
 630:libraries/drivers/src/at32f403a_407_adc.c **** void adc_preempt_auto_mode_enable(adc_type *adc_x, confirm_state new_state)
 631:libraries/drivers/src/at32f403a_407_adc.c **** {
 1140              		.loc 1 631 1 is_stmt 1 view -0
 1141              		.cfi_startproc
 1142              		@ args = 0, pretend = 0, frame = 0
 1143              		@ frame_needed = 0, uses_anonymous_args = 0
 1144              		@ link register save eliminated.
 632:libraries/drivers/src/at32f403a_407_adc.c ****   adc_x->ctrl1_bit.pcautoen = new_state;
 1145              		.loc 1 632 3 view .LVU298
 1146              		.loc 1 632 29 is_stmt 0 view .LVU299
 1147 0000 4368     		ldr	r3, [r0, #4]
 1148 0002 61F38A23 		bfi	r3, r1, #10, #1
 1149 0006 4360     		str	r3, [r0, #4]
 633:libraries/drivers/src/at32f403a_407_adc.c **** }
 1150              		.loc 1 633 1 view .LVU300
 1151 0008 7047     		bx	lr
 1152              		.cfi_endproc
 1153              	.LFE157:
 1155              		.section	.text.adc_tempersensor_vintrv_enable,"ax",%progbits
ARM GAS  C:\Users\10963\AppData\Local\Temp\ccHwb33p.s 			page 33


 1156              		.align	1
 1157              		.global	adc_tempersensor_vintrv_enable
 1158              		.syntax unified
 1159              		.thumb
 1160              		.thumb_func
 1162              	adc_tempersensor_vintrv_enable:
 1163              	.LVL80:
 1164              	.LFB158:
 634:libraries/drivers/src/at32f403a_407_adc.c **** 
 635:libraries/drivers/src/at32f403a_407_adc.c **** /**
 636:libraries/drivers/src/at32f403a_407_adc.c ****   * @brief  enable or disable the temperature sensor and vintrv channel.
 637:libraries/drivers/src/at32f403a_407_adc.c ****   * @param  new_state: new state of Internal temperature sensor and vintrv.
 638:libraries/drivers/src/at32f403a_407_adc.c ****   *         this parameter can be: TRUE or FALSE.
 639:libraries/drivers/src/at32f403a_407_adc.c ****   *         note:this bit is present only in adc1
 640:libraries/drivers/src/at32f403a_407_adc.c ****   * @retval none
 641:libraries/drivers/src/at32f403a_407_adc.c ****   */
 642:libraries/drivers/src/at32f403a_407_adc.c **** void adc_tempersensor_vintrv_enable(confirm_state new_state)
 643:libraries/drivers/src/at32f403a_407_adc.c **** {
 1165              		.loc 1 643 1 is_stmt 1 view -0
 1166              		.cfi_startproc
 1167              		@ args = 0, pretend = 0, frame = 0
 1168              		@ frame_needed = 0, uses_anonymous_args = 0
 1169              		@ link register save eliminated.
 644:libraries/drivers/src/at32f403a_407_adc.c ****   ADC1->ctrl2_bit.itsrven = new_state;
 1170              		.loc 1 644 3 view .LVU302
 1171              		.loc 1 644 27 is_stmt 0 view .LVU303
 1172 0000 024B     		ldr	r3, .L71
 1173 0002 9A68     		ldr	r2, [r3, #8]
 1174 0004 60F3D752 		bfi	r2, r0, #23, #1
 1175 0008 9A60     		str	r2, [r3, #8]
 645:libraries/drivers/src/at32f403a_407_adc.c **** }
 1176              		.loc 1 645 1 view .LVU304
 1177 000a 7047     		bx	lr
 1178              	.L72:
 1179              		.align	2
 1180              	.L71:
 1181 000c 00240140 		.word	1073816576
 1182              		.cfi_endproc
 1183              	.LFE158:
 1185              		.section	.text.adc_ordinary_software_trigger_enable,"ax",%progbits
 1186              		.align	1
 1187              		.global	adc_ordinary_software_trigger_enable
 1188              		.syntax unified
 1189              		.thumb
 1190              		.thumb_func
 1192              	adc_ordinary_software_trigger_enable:
 1193              	.LVL81:
 1194              	.LFB159:
 646:libraries/drivers/src/at32f403a_407_adc.c **** 
 647:libraries/drivers/src/at32f403a_407_adc.c **** /**
 648:libraries/drivers/src/at32f403a_407_adc.c ****   * @brief  enable or disable ordinary software start conversion of the specified adc peripheral.
 649:libraries/drivers/src/at32f403a_407_adc.c ****   * @param  adc_x: select the adc peripheral.
 650:libraries/drivers/src/at32f403a_407_adc.c ****   *         this parameter can be one of the following values:
 651:libraries/drivers/src/at32f403a_407_adc.c ****   *         ADC1, ADC2, ADC3.
 652:libraries/drivers/src/at32f403a_407_adc.c ****   * @param  new_state: new state of ordinary software start conversion.
 653:libraries/drivers/src/at32f403a_407_adc.c ****   *         this parameter can be: TRUE or FALSE.
 654:libraries/drivers/src/at32f403a_407_adc.c ****   * @retval none
ARM GAS  C:\Users\10963\AppData\Local\Temp\ccHwb33p.s 			page 34


 655:libraries/drivers/src/at32f403a_407_adc.c ****   */
 656:libraries/drivers/src/at32f403a_407_adc.c **** void adc_ordinary_software_trigger_enable(adc_type *adc_x, confirm_state new_state)
 657:libraries/drivers/src/at32f403a_407_adc.c **** {
 1195              		.loc 1 657 1 is_stmt 1 view -0
 1196              		.cfi_startproc
 1197              		@ args = 0, pretend = 0, frame = 0
 1198              		@ frame_needed = 0, uses_anonymous_args = 0
 1199              		@ link register save eliminated.
 658:libraries/drivers/src/at32f403a_407_adc.c ****   adc_x->ctrl2_bit.ocswtrg = new_state;
 1200              		.loc 1 658 3 view .LVU306
 1201              		.loc 1 658 28 is_stmt 0 view .LVU307
 1202 0000 8368     		ldr	r3, [r0, #8]
 1203 0002 61F39653 		bfi	r3, r1, #22, #1
 1204 0006 8360     		str	r3, [r0, #8]
 659:libraries/drivers/src/at32f403a_407_adc.c **** }
 1205              		.loc 1 659 1 view .LVU308
 1206 0008 7047     		bx	lr
 1207              		.cfi_endproc
 1208              	.LFE159:
 1210              		.section	.text.adc_ordinary_software_trigger_status_get,"ax",%progbits
 1211              		.align	1
 1212              		.global	adc_ordinary_software_trigger_status_get
 1213              		.syntax unified
 1214              		.thumb
 1215              		.thumb_func
 1217              	adc_ordinary_software_trigger_status_get:
 1218              	.LVL82:
 1219              	.LFB160:
 660:libraries/drivers/src/at32f403a_407_adc.c **** 
 661:libraries/drivers/src/at32f403a_407_adc.c **** /**
 662:libraries/drivers/src/at32f403a_407_adc.c ****   * @brief  get ordinary software start conversion status of the specified adc peripheral.
 663:libraries/drivers/src/at32f403a_407_adc.c ****   * @param  adc_x: select the adc peripheral.
 664:libraries/drivers/src/at32f403a_407_adc.c ****   *         this parameter can be one of the following values:
 665:libraries/drivers/src/at32f403a_407_adc.c ****   *         ADC1, ADC2, ADC3.
 666:libraries/drivers/src/at32f403a_407_adc.c ****   * @retval the new state of ordinary software start conversion status(SET or RESET).
 667:libraries/drivers/src/at32f403a_407_adc.c ****   */
 668:libraries/drivers/src/at32f403a_407_adc.c **** flag_status adc_ordinary_software_trigger_status_get(adc_type *adc_x)
 669:libraries/drivers/src/at32f403a_407_adc.c **** {
 1220              		.loc 1 669 1 is_stmt 1 view -0
 1221              		.cfi_startproc
 1222              		@ args = 0, pretend = 0, frame = 0
 1223              		@ frame_needed = 0, uses_anonymous_args = 0
 1224              		@ link register save eliminated.
 670:libraries/drivers/src/at32f403a_407_adc.c ****   if(adc_x->ctrl2_bit.ocswtrg)
 1225              		.loc 1 670 3 view .LVU310
 1226              		.loc 1 670 22 is_stmt 0 view .LVU311
 1227 0000 8368     		ldr	r3, [r0, #8]
 1228              		.loc 1 670 5 view .LVU312
 1229 0002 13F4800F 		tst	r3, #4194304
 1230 0006 01D0     		beq	.L76
 671:libraries/drivers/src/at32f403a_407_adc.c ****   {
 672:libraries/drivers/src/at32f403a_407_adc.c ****     return SET;
 1231              		.loc 1 672 12 view .LVU313
 1232 0008 0120     		movs	r0, #1
 1233              	.LVL83:
 1234              		.loc 1 672 12 view .LVU314
 1235 000a 7047     		bx	lr
ARM GAS  C:\Users\10963\AppData\Local\Temp\ccHwb33p.s 			page 35


 1236              	.LVL84:
 1237              	.L76:
 673:libraries/drivers/src/at32f403a_407_adc.c ****   }
 674:libraries/drivers/src/at32f403a_407_adc.c ****   else
 675:libraries/drivers/src/at32f403a_407_adc.c ****   {
 676:libraries/drivers/src/at32f403a_407_adc.c ****     return RESET;
 1238              		.loc 1 676 12 view .LVU315
 1239 000c 0020     		movs	r0, #0
 1240              	.LVL85:
 677:libraries/drivers/src/at32f403a_407_adc.c ****   }
 678:libraries/drivers/src/at32f403a_407_adc.c **** }
 1241              		.loc 1 678 1 view .LVU316
 1242 000e 7047     		bx	lr
 1243              		.cfi_endproc
 1244              	.LFE160:
 1246              		.section	.text.adc_preempt_software_trigger_enable,"ax",%progbits
 1247              		.align	1
 1248              		.global	adc_preempt_software_trigger_enable
 1249              		.syntax unified
 1250              		.thumb
 1251              		.thumb_func
 1253              	adc_preempt_software_trigger_enable:
 1254              	.LVL86:
 1255              	.LFB161:
 679:libraries/drivers/src/at32f403a_407_adc.c **** 
 680:libraries/drivers/src/at32f403a_407_adc.c **** /**
 681:libraries/drivers/src/at32f403a_407_adc.c ****   * @brief  enable or disable preempt software start conversion of the specified adc peripheral.
 682:libraries/drivers/src/at32f403a_407_adc.c ****   * @param  adc_x: select the adc peripheral.
 683:libraries/drivers/src/at32f403a_407_adc.c ****   *         this parameter can be one of the following values:
 684:libraries/drivers/src/at32f403a_407_adc.c ****   *         ADC1, ADC2, ADC3.
 685:libraries/drivers/src/at32f403a_407_adc.c ****   * @param  new_state: new state of preempt software start conversion.
 686:libraries/drivers/src/at32f403a_407_adc.c ****   *         this parameter can be: TRUE or FALSE.
 687:libraries/drivers/src/at32f403a_407_adc.c ****   * @retval none
 688:libraries/drivers/src/at32f403a_407_adc.c ****   */
 689:libraries/drivers/src/at32f403a_407_adc.c **** void adc_preempt_software_trigger_enable(adc_type *adc_x, confirm_state new_state)
 690:libraries/drivers/src/at32f403a_407_adc.c **** {
 1256              		.loc 1 690 1 is_stmt 1 view -0
 1257              		.cfi_startproc
 1258              		@ args = 0, pretend = 0, frame = 0
 1259              		@ frame_needed = 0, uses_anonymous_args = 0
 1260              		@ link register save eliminated.
 691:libraries/drivers/src/at32f403a_407_adc.c ****   adc_x->ctrl2_bit.pcswtrg = new_state;
 1261              		.loc 1 691 3 view .LVU318
 1262              		.loc 1 691 28 is_stmt 0 view .LVU319
 1263 0000 8368     		ldr	r3, [r0, #8]
 1264 0002 61F35553 		bfi	r3, r1, #21, #1
 1265 0006 8360     		str	r3, [r0, #8]
 692:libraries/drivers/src/at32f403a_407_adc.c **** }
 1266              		.loc 1 692 1 view .LVU320
 1267 0008 7047     		bx	lr
 1268              		.cfi_endproc
 1269              	.LFE161:
 1271              		.section	.text.adc_preempt_software_trigger_status_get,"ax",%progbits
 1272              		.align	1
 1273              		.global	adc_preempt_software_trigger_status_get
 1274              		.syntax unified
 1275              		.thumb
ARM GAS  C:\Users\10963\AppData\Local\Temp\ccHwb33p.s 			page 36


 1276              		.thumb_func
 1278              	adc_preempt_software_trigger_status_get:
 1279              	.LVL87:
 1280              	.LFB162:
 693:libraries/drivers/src/at32f403a_407_adc.c **** 
 694:libraries/drivers/src/at32f403a_407_adc.c **** /**
 695:libraries/drivers/src/at32f403a_407_adc.c ****   * @brief  get preempt software start conversion status of the specified adc peripheral.
 696:libraries/drivers/src/at32f403a_407_adc.c ****   * @param  adc_x: select the adc peripheral.
 697:libraries/drivers/src/at32f403a_407_adc.c ****   *         this parameter can be one of the following values:
 698:libraries/drivers/src/at32f403a_407_adc.c ****   *         ADC1, ADC2, ADC3.
 699:libraries/drivers/src/at32f403a_407_adc.c ****   * @retval the new state of preempt software start conversion status(SET or RESET).
 700:libraries/drivers/src/at32f403a_407_adc.c ****   */
 701:libraries/drivers/src/at32f403a_407_adc.c **** flag_status adc_preempt_software_trigger_status_get(adc_type *adc_x)
 702:libraries/drivers/src/at32f403a_407_adc.c **** {
 1281              		.loc 1 702 1 is_stmt 1 view -0
 1282              		.cfi_startproc
 1283              		@ args = 0, pretend = 0, frame = 0
 1284              		@ frame_needed = 0, uses_anonymous_args = 0
 1285              		@ link register save eliminated.
 703:libraries/drivers/src/at32f403a_407_adc.c ****   if(adc_x->ctrl2_bit.pcswtrg)
 1286              		.loc 1 703 3 view .LVU322
 1287              		.loc 1 703 22 is_stmt 0 view .LVU323
 1288 0000 8368     		ldr	r3, [r0, #8]
 1289              		.loc 1 703 5 view .LVU324
 1290 0002 13F4001F 		tst	r3, #2097152
 1291 0006 01D0     		beq	.L80
 704:libraries/drivers/src/at32f403a_407_adc.c ****   {
 705:libraries/drivers/src/at32f403a_407_adc.c ****     return SET;
 1292              		.loc 1 705 12 view .LVU325
 1293 0008 0120     		movs	r0, #1
 1294              	.LVL88:
 1295              		.loc 1 705 12 view .LVU326
 1296 000a 7047     		bx	lr
 1297              	.LVL89:
 1298              	.L80:
 706:libraries/drivers/src/at32f403a_407_adc.c ****   }
 707:libraries/drivers/src/at32f403a_407_adc.c ****   else
 708:libraries/drivers/src/at32f403a_407_adc.c ****   {
 709:libraries/drivers/src/at32f403a_407_adc.c ****     return RESET;
 1299              		.loc 1 709 12 view .LVU327
 1300 000c 0020     		movs	r0, #0
 1301              	.LVL90:
 710:libraries/drivers/src/at32f403a_407_adc.c ****   }
 711:libraries/drivers/src/at32f403a_407_adc.c **** }
 1302              		.loc 1 711 1 view .LVU328
 1303 000e 7047     		bx	lr
 1304              		.cfi_endproc
 1305              	.LFE162:
 1307              		.section	.text.adc_ordinary_conversion_data_get,"ax",%progbits
 1308              		.align	1
 1309              		.global	adc_ordinary_conversion_data_get
 1310              		.syntax unified
 1311              		.thumb
 1312              		.thumb_func
 1314              	adc_ordinary_conversion_data_get:
 1315              	.LVL91:
 1316              	.LFB163:
ARM GAS  C:\Users\10963\AppData\Local\Temp\ccHwb33p.s 			page 37


 712:libraries/drivers/src/at32f403a_407_adc.c **** 
 713:libraries/drivers/src/at32f403a_407_adc.c **** /**
 714:libraries/drivers/src/at32f403a_407_adc.c ****   * @brief  return the last conversion data for ordinary channel of the specified adc peripheral.
 715:libraries/drivers/src/at32f403a_407_adc.c ****   * @param  adc_x: select the adc peripheral.
 716:libraries/drivers/src/at32f403a_407_adc.c ****   *         this parameter can be one of the following values:
 717:libraries/drivers/src/at32f403a_407_adc.c ****   *         ADC1, ADC2, ADC3.
 718:libraries/drivers/src/at32f403a_407_adc.c ****   * @retval the last conversion data for ordinary channel.
 719:libraries/drivers/src/at32f403a_407_adc.c ****   */
 720:libraries/drivers/src/at32f403a_407_adc.c **** uint16_t adc_ordinary_conversion_data_get(adc_type *adc_x)
 721:libraries/drivers/src/at32f403a_407_adc.c **** {
 1317              		.loc 1 721 1 is_stmt 1 view -0
 1318              		.cfi_startproc
 1319              		@ args = 0, pretend = 0, frame = 0
 1320              		@ frame_needed = 0, uses_anonymous_args = 0
 1321              		@ link register save eliminated.
 722:libraries/drivers/src/at32f403a_407_adc.c ****   return (uint16_t)(adc_x->odt_bit.odt);
 1322              		.loc 1 722 3 view .LVU330
 1323              		.loc 1 722 10 is_stmt 0 view .LVU331
 1324 0000 C06C     		ldr	r0, [r0, #76]
 1325              	.LVL92:
 723:libraries/drivers/src/at32f403a_407_adc.c **** }
 1326              		.loc 1 723 1 view .LVU332
 1327 0002 80B2     		uxth	r0, r0
 1328 0004 7047     		bx	lr
 1329              		.cfi_endproc
 1330              	.LFE163:
 1332              		.section	.text.adc_combine_ordinary_conversion_data_get,"ax",%progbits
 1333              		.align	1
 1334              		.global	adc_combine_ordinary_conversion_data_get
 1335              		.syntax unified
 1336              		.thumb
 1337              		.thumb_func
 1339              	adc_combine_ordinary_conversion_data_get:
 1340              	.LFB164:
 724:libraries/drivers/src/at32f403a_407_adc.c **** 
 725:libraries/drivers/src/at32f403a_407_adc.c **** /**
 726:libraries/drivers/src/at32f403a_407_adc.c ****   * @brief  return the last conversion data for ordinary channel of combine adc(adc1 and adc2).
 727:libraries/drivers/src/at32f403a_407_adc.c ****   * @retval the last conversion data for ordinary channel.
 728:libraries/drivers/src/at32f403a_407_adc.c ****   */
 729:libraries/drivers/src/at32f403a_407_adc.c **** uint32_t adc_combine_ordinary_conversion_data_get(void)
 730:libraries/drivers/src/at32f403a_407_adc.c **** {
 1341              		.loc 1 730 1 is_stmt 1 view -0
 1342              		.cfi_startproc
 1343              		@ args = 0, pretend = 0, frame = 0
 1344              		@ frame_needed = 0, uses_anonymous_args = 0
 1345              		@ link register save eliminated.
 731:libraries/drivers/src/at32f403a_407_adc.c ****   return (uint32_t)(ADC1->odt);
 1346              		.loc 1 731 3 view .LVU334
 1347              		.loc 1 731 10 is_stmt 0 view .LVU335
 1348 0000 014B     		ldr	r3, .L83
 1349 0002 D86C     		ldr	r0, [r3, #76]
 732:libraries/drivers/src/at32f403a_407_adc.c **** }
 1350              		.loc 1 732 1 view .LVU336
 1351 0004 7047     		bx	lr
 1352              	.L84:
 1353 0006 00BF     		.align	2
 1354              	.L83:
ARM GAS  C:\Users\10963\AppData\Local\Temp\ccHwb33p.s 			page 38


 1355 0008 00240140 		.word	1073816576
 1356              		.cfi_endproc
 1357              	.LFE164:
 1359              		.section	.text.adc_preempt_conversion_data_get,"ax",%progbits
 1360              		.align	1
 1361              		.global	adc_preempt_conversion_data_get
 1362              		.syntax unified
 1363              		.thumb
 1364              		.thumb_func
 1366              	adc_preempt_conversion_data_get:
 1367              	.LVL93:
 1368              	.LFB165:
 733:libraries/drivers/src/at32f403a_407_adc.c **** 
 734:libraries/drivers/src/at32f403a_407_adc.c **** /**
 735:libraries/drivers/src/at32f403a_407_adc.c ****   * @brief  return the conversion data for selection preempt channel of the specified adc periphera
 736:libraries/drivers/src/at32f403a_407_adc.c ****   * @param  adc_x: select the adc peripheral.
 737:libraries/drivers/src/at32f403a_407_adc.c ****   *         this parameter can be one of the following values:
 738:libraries/drivers/src/at32f403a_407_adc.c ****   *         ADC1, ADC2, ADC3.
 739:libraries/drivers/src/at32f403a_407_adc.c ****   * @param  adc_preempt_channel: select the preempt channel.
 740:libraries/drivers/src/at32f403a_407_adc.c ****   *         this parameter can be one of the following values:
 741:libraries/drivers/src/at32f403a_407_adc.c ****   *         - ADC_PREEMPT_CHANNEL_1
 742:libraries/drivers/src/at32f403a_407_adc.c ****   *         - ADC_PREEMPT_CHANNEL_2
 743:libraries/drivers/src/at32f403a_407_adc.c ****   *         - ADC_PREEMPT_CHANNEL_3
 744:libraries/drivers/src/at32f403a_407_adc.c ****   *         - ADC_PREEMPT_CHANNEL_4
 745:libraries/drivers/src/at32f403a_407_adc.c ****   * @retval the conversion data for selection preempt channel.
 746:libraries/drivers/src/at32f403a_407_adc.c ****   */
 747:libraries/drivers/src/at32f403a_407_adc.c **** uint16_t adc_preempt_conversion_data_get(adc_type *adc_x, adc_preempt_channel_type adc_preempt_chan
 748:libraries/drivers/src/at32f403a_407_adc.c **** {
 1369              		.loc 1 748 1 is_stmt 1 view -0
 1370              		.cfi_startproc
 1371              		@ args = 0, pretend = 0, frame = 0
 1372              		@ frame_needed = 0, uses_anonymous_args = 0
 1373              		@ link register save eliminated.
 749:libraries/drivers/src/at32f403a_407_adc.c ****   uint16_t preempt_conv_data_index = 0;
 1374              		.loc 1 749 3 view .LVU338
 750:libraries/drivers/src/at32f403a_407_adc.c ****   switch(adc_preempt_channel)
 1375              		.loc 1 750 3 view .LVU339
 1376 0000 0229     		cmp	r1, #2
 1377 0002 12D0     		beq	.L86
 1378 0004 07D8     		bhi	.L87
 1379 0006 69B1     		cbz	r1, .L88
 1380 0008 0129     		cmp	r1, #1
 1381 000a 02D1     		bne	.L92
 751:libraries/drivers/src/at32f403a_407_adc.c ****   {
 752:libraries/drivers/src/at32f403a_407_adc.c ****     case ADC_PREEMPT_CHANNEL_1:
 753:libraries/drivers/src/at32f403a_407_adc.c ****       preempt_conv_data_index = (uint16_t)(adc_x->pdt1_bit.pdt1);
 754:libraries/drivers/src/at32f403a_407_adc.c ****       break;
 755:libraries/drivers/src/at32f403a_407_adc.c ****     case ADC_PREEMPT_CHANNEL_2:
 756:libraries/drivers/src/at32f403a_407_adc.c ****       preempt_conv_data_index = (uint16_t)(adc_x->pdt2_bit.pdt2);
 1382              		.loc 1 756 7 view .LVU340
 1383              		.loc 1 756 31 is_stmt 0 view .LVU341
 1384 000c 006C     		ldr	r0, [r0, #64]
 1385              	.LVL94:
 1386              		.loc 1 756 31 view .LVU342
 1387 000e 80B2     		uxth	r0, r0
 1388              	.LVL95:
 757:libraries/drivers/src/at32f403a_407_adc.c ****       break;
ARM GAS  C:\Users\10963\AppData\Local\Temp\ccHwb33p.s 			page 39


 1389              		.loc 1 757 7 is_stmt 1 view .LVU343
 1390 0010 7047     		bx	lr
 1391              	.LVL96:
 1392              	.L92:
 750:libraries/drivers/src/at32f403a_407_adc.c ****   switch(adc_preempt_channel)
 1393              		.loc 1 750 3 is_stmt 0 view .LVU344
 1394 0012 0020     		movs	r0, #0
 1395              	.LVL97:
 750:libraries/drivers/src/at32f403a_407_adc.c ****   switch(adc_preempt_channel)
 1396              		.loc 1 750 3 view .LVU345
 1397 0014 7047     		bx	lr
 1398              	.LVL98:
 1399              	.L87:
 750:libraries/drivers/src/at32f403a_407_adc.c ****   switch(adc_preempt_channel)
 1400              		.loc 1 750 3 view .LVU346
 1401 0016 0329     		cmp	r1, #3
 1402 0018 02D1     		bne	.L93
 758:libraries/drivers/src/at32f403a_407_adc.c ****     case ADC_PREEMPT_CHANNEL_3:
 759:libraries/drivers/src/at32f403a_407_adc.c ****       preempt_conv_data_index = (uint16_t)(adc_x->pdt3_bit.pdt3);
 760:libraries/drivers/src/at32f403a_407_adc.c ****       break;
 761:libraries/drivers/src/at32f403a_407_adc.c ****     case ADC_PREEMPT_CHANNEL_4:
 762:libraries/drivers/src/at32f403a_407_adc.c ****       preempt_conv_data_index = (uint16_t)(adc_x->pdt4_bit.pdt4);
 1403              		.loc 1 762 7 is_stmt 1 view .LVU347
 1404              		.loc 1 762 31 is_stmt 0 view .LVU348
 1405 001a 806C     		ldr	r0, [r0, #72]
 1406              	.LVL99:
 1407              		.loc 1 762 31 view .LVU349
 1408 001c 80B2     		uxth	r0, r0
 1409              	.LVL100:
 763:libraries/drivers/src/at32f403a_407_adc.c ****       break;
 1410              		.loc 1 763 7 is_stmt 1 view .LVU350
 764:libraries/drivers/src/at32f403a_407_adc.c ****     default:
 765:libraries/drivers/src/at32f403a_407_adc.c ****       break;
 766:libraries/drivers/src/at32f403a_407_adc.c ****   }
 767:libraries/drivers/src/at32f403a_407_adc.c ****   return preempt_conv_data_index;
 1411              		.loc 1 767 3 view .LVU351
 768:libraries/drivers/src/at32f403a_407_adc.c **** }
 1412              		.loc 1 768 1 is_stmt 0 view .LVU352
 1413 001e 7047     		bx	lr
 1414              	.LVL101:
 1415              	.L93:
 750:libraries/drivers/src/at32f403a_407_adc.c ****   {
 1416              		.loc 1 750 3 view .LVU353
 1417 0020 0020     		movs	r0, #0
 1418              	.LVL102:
 750:libraries/drivers/src/at32f403a_407_adc.c ****   {
 1419              		.loc 1 750 3 view .LVU354
 1420 0022 7047     		bx	lr
 1421              	.LVL103:
 1422              	.L88:
 753:libraries/drivers/src/at32f403a_407_adc.c ****       break;
 1423              		.loc 1 753 7 is_stmt 1 view .LVU355
 753:libraries/drivers/src/at32f403a_407_adc.c ****       break;
 1424              		.loc 1 753 31 is_stmt 0 view .LVU356
 1425 0024 C06B     		ldr	r0, [r0, #60]
 1426              	.LVL104:
 753:libraries/drivers/src/at32f403a_407_adc.c ****       break;
ARM GAS  C:\Users\10963\AppData\Local\Temp\ccHwb33p.s 			page 40


 1427              		.loc 1 753 31 view .LVU357
 1428 0026 80B2     		uxth	r0, r0
 1429              	.LVL105:
 754:libraries/drivers/src/at32f403a_407_adc.c ****     case ADC_PREEMPT_CHANNEL_2:
 1430              		.loc 1 754 7 is_stmt 1 view .LVU358
 1431 0028 7047     		bx	lr
 1432              	.LVL106:
 1433              	.L86:
 759:libraries/drivers/src/at32f403a_407_adc.c ****       break;
 1434              		.loc 1 759 7 view .LVU359
 759:libraries/drivers/src/at32f403a_407_adc.c ****       break;
 1435              		.loc 1 759 31 is_stmt 0 view .LVU360
 1436 002a 406C     		ldr	r0, [r0, #68]
 1437              	.LVL107:
 759:libraries/drivers/src/at32f403a_407_adc.c ****       break;
 1438              		.loc 1 759 31 view .LVU361
 1439 002c 80B2     		uxth	r0, r0
 1440              	.LVL108:
 760:libraries/drivers/src/at32f403a_407_adc.c ****     case ADC_PREEMPT_CHANNEL_4:
 1441              		.loc 1 760 7 is_stmt 1 view .LVU362
 1442 002e 7047     		bx	lr
 1443              		.cfi_endproc
 1444              	.LFE165:
 1446              		.section	.text.adc_flag_get,"ax",%progbits
 1447              		.align	1
 1448              		.global	adc_flag_get
 1449              		.syntax unified
 1450              		.thumb
 1451              		.thumb_func
 1453              	adc_flag_get:
 1454              	.LVL109:
 1455              	.LFB166:
 769:libraries/drivers/src/at32f403a_407_adc.c **** 
 770:libraries/drivers/src/at32f403a_407_adc.c **** /**
 771:libraries/drivers/src/at32f403a_407_adc.c ****   * @brief  get flag of the specified adc peripheral.
 772:libraries/drivers/src/at32f403a_407_adc.c ****   * @param  adc_x: select the adc peripheral.
 773:libraries/drivers/src/at32f403a_407_adc.c ****   *         this parameter can be one of the following values:
 774:libraries/drivers/src/at32f403a_407_adc.c ****   *         ADC1, ADC2, ADC3.
 775:libraries/drivers/src/at32f403a_407_adc.c ****   * @param  adc_flag: select the adc flag.
 776:libraries/drivers/src/at32f403a_407_adc.c ****   *         this parameter can be one of the following values:
 777:libraries/drivers/src/at32f403a_407_adc.c ****   *         - ADC_VMOR_FLAG
 778:libraries/drivers/src/at32f403a_407_adc.c ****   *         - ADC_CCE_FLAG
 779:libraries/drivers/src/at32f403a_407_adc.c ****   *         - ADC_PCCE_FLAG
 780:libraries/drivers/src/at32f403a_407_adc.c ****   *         - ADC_PCCS_FLAG(no interrupt associated)
 781:libraries/drivers/src/at32f403a_407_adc.c ****   *         - ADC_OCCS_FLAG(no interrupt associated)
 782:libraries/drivers/src/at32f403a_407_adc.c ****   * @retval the new state of adc flag status(SET or RESET).
 783:libraries/drivers/src/at32f403a_407_adc.c ****   */
 784:libraries/drivers/src/at32f403a_407_adc.c **** flag_status adc_flag_get(adc_type *adc_x, uint8_t adc_flag)
 785:libraries/drivers/src/at32f403a_407_adc.c **** {
 1456              		.loc 1 785 1 view -0
 1457              		.cfi_startproc
 1458              		@ args = 0, pretend = 0, frame = 0
 1459              		@ frame_needed = 0, uses_anonymous_args = 0
 1460              		@ link register save eliminated.
 786:libraries/drivers/src/at32f403a_407_adc.c ****   flag_status status = RESET;
 1461              		.loc 1 786 3 view .LVU364
 787:libraries/drivers/src/at32f403a_407_adc.c **** 
ARM GAS  C:\Users\10963\AppData\Local\Temp\ccHwb33p.s 			page 41


 788:libraries/drivers/src/at32f403a_407_adc.c ****   if((adc_x->sts & adc_flag) == RESET)
 1462              		.loc 1 788 3 view .LVU365
 1463              		.loc 1 788 12 is_stmt 0 view .LVU366
 1464 0000 0368     		ldr	r3, [r0]
 1465              		.loc 1 788 5 view .LVU367
 1466 0002 1942     		tst	r1, r3
 1467 0004 01D1     		bne	.L96
 789:libraries/drivers/src/at32f403a_407_adc.c ****   {
 790:libraries/drivers/src/at32f403a_407_adc.c ****     status = RESET;
 1468              		.loc 1 790 12 view .LVU368
 1469 0006 0020     		movs	r0, #0
 1470              	.LVL110:
 1471              		.loc 1 790 12 view .LVU369
 1472 0008 7047     		bx	lr
 1473              	.LVL111:
 1474              	.L96:
 791:libraries/drivers/src/at32f403a_407_adc.c ****   }
 792:libraries/drivers/src/at32f403a_407_adc.c ****   else
 793:libraries/drivers/src/at32f403a_407_adc.c ****   {
 794:libraries/drivers/src/at32f403a_407_adc.c ****     status = SET;
 1475              		.loc 1 794 12 view .LVU370
 1476 000a 0120     		movs	r0, #1
 1477              	.LVL112:
 795:libraries/drivers/src/at32f403a_407_adc.c ****   }
 796:libraries/drivers/src/at32f403a_407_adc.c ****   return status;
 1478              		.loc 1 796 3 is_stmt 1 view .LVU371
 797:libraries/drivers/src/at32f403a_407_adc.c **** }
 1479              		.loc 1 797 1 is_stmt 0 view .LVU372
 1480 000c 7047     		bx	lr
 1481              		.cfi_endproc
 1482              	.LFE166:
 1484              		.section	.text.adc_interrupt_flag_get,"ax",%progbits
 1485              		.align	1
 1486              		.global	adc_interrupt_flag_get
 1487              		.syntax unified
 1488              		.thumb
 1489              		.thumb_func
 1491              	adc_interrupt_flag_get:
 1492              	.LVL113:
 1493              	.LFB167:
 798:libraries/drivers/src/at32f403a_407_adc.c **** 
 799:libraries/drivers/src/at32f403a_407_adc.c **** /**
 800:libraries/drivers/src/at32f403a_407_adc.c ****   * @brief  get interrupt flag of the specified adc peripheral.
 801:libraries/drivers/src/at32f403a_407_adc.c ****   * @param  adc_x: select the adc peripheral.
 802:libraries/drivers/src/at32f403a_407_adc.c ****   *         this parameter can be one of the following values:
 803:libraries/drivers/src/at32f403a_407_adc.c ****   *         ADC1, ADC2, ADC3.
 804:libraries/drivers/src/at32f403a_407_adc.c ****   * @param  adc_flag: select the adc flag.
 805:libraries/drivers/src/at32f403a_407_adc.c ****   *         this parameter can be one of the following values:
 806:libraries/drivers/src/at32f403a_407_adc.c ****   *         - ADC_VMOR_FLAG
 807:libraries/drivers/src/at32f403a_407_adc.c ****   *         - ADC_CCE_FLAG
 808:libraries/drivers/src/at32f403a_407_adc.c ****   *         - ADC_PCCE_FLAG
 809:libraries/drivers/src/at32f403a_407_adc.c ****   * @retval the new state of adc flag status(SET or RESET).
 810:libraries/drivers/src/at32f403a_407_adc.c ****   */
 811:libraries/drivers/src/at32f403a_407_adc.c **** flag_status adc_interrupt_flag_get(adc_type *adc_x, uint8_t adc_flag)
 812:libraries/drivers/src/at32f403a_407_adc.c **** {
 1494              		.loc 1 812 1 is_stmt 1 view -0
 1495              		.cfi_startproc
ARM GAS  C:\Users\10963\AppData\Local\Temp\ccHwb33p.s 			page 42


 1496              		@ args = 0, pretend = 0, frame = 0
 1497              		@ frame_needed = 0, uses_anonymous_args = 0
 1498              		@ link register save eliminated.
 813:libraries/drivers/src/at32f403a_407_adc.c ****   flag_status status = RESET;
 1499              		.loc 1 813 3 view .LVU374
 814:libraries/drivers/src/at32f403a_407_adc.c ****   switch(adc_flag)
 1500              		.loc 1 814 3 view .LVU375
 1501 0000 0229     		cmp	r1, #2
 1502 0002 0DD0     		beq	.L98
 1503 0004 0429     		cmp	r1, #4
 1504 0006 15D0     		beq	.L99
 1505 0008 0129     		cmp	r1, #1
 1506 000a 1DD1     		bne	.L101
 815:libraries/drivers/src/at32f403a_407_adc.c ****   {
 816:libraries/drivers/src/at32f403a_407_adc.c ****     case ADC_VMOR_FLAG:
 817:libraries/drivers/src/at32f403a_407_adc.c ****       if(adc_x->sts_bit.vmor && adc_x->ctrl1_bit.vmorien)
 1507              		.loc 1 817 7 view .LVU376
 1508              		.loc 1 817 24 is_stmt 0 view .LVU377
 1509 000c 0368     		ldr	r3, [r0]
 1510              		.loc 1 817 9 view .LVU378
 1511 000e 13F0010F 		tst	r3, #1
 1512 0012 1BD0     		beq	.L102
 1513              		.loc 1 817 49 discriminator 1 view .LVU379
 1514 0014 4368     		ldr	r3, [r0, #4]
 1515              		.loc 1 817 30 discriminator 1 view .LVU380
 1516 0016 13F0400F 		tst	r3, #64
 1517 001a 19D1     		bne	.L103
 813:libraries/drivers/src/at32f403a_407_adc.c ****   switch(adc_flag)
 1518              		.loc 1 813 15 view .LVU381
 1519 001c 0020     		movs	r0, #0
 1520              	.LVL114:
 813:libraries/drivers/src/at32f403a_407_adc.c ****   switch(adc_flag)
 1521              		.loc 1 813 15 view .LVU382
 1522 001e 7047     		bx	lr
 1523              	.LVL115:
 1524              	.L98:
 818:libraries/drivers/src/at32f403a_407_adc.c ****       {
 819:libraries/drivers/src/at32f403a_407_adc.c ****         status = SET;
 820:libraries/drivers/src/at32f403a_407_adc.c ****       }
 821:libraries/drivers/src/at32f403a_407_adc.c ****       break;
 822:libraries/drivers/src/at32f403a_407_adc.c ****     case ADC_CCE_FLAG:
 823:libraries/drivers/src/at32f403a_407_adc.c ****       if(adc_x->sts_bit.cce && adc_x->ctrl1_bit.cceien)
 1525              		.loc 1 823 7 is_stmt 1 view .LVU383
 1526              		.loc 1 823 24 is_stmt 0 view .LVU384
 1527 0020 0368     		ldr	r3, [r0]
 1528              		.loc 1 823 9 view .LVU385
 1529 0022 13F0020F 		tst	r3, #2
 1530 0026 15D0     		beq	.L104
 1531              		.loc 1 823 48 discriminator 1 view .LVU386
 1532 0028 4368     		ldr	r3, [r0, #4]
 1533              		.loc 1 823 29 discriminator 1 view .LVU387
 1534 002a 13F0200F 		tst	r3, #32
 1535 002e 13D1     		bne	.L105
 813:libraries/drivers/src/at32f403a_407_adc.c ****   switch(adc_flag)
 1536              		.loc 1 813 15 view .LVU388
 1537 0030 0020     		movs	r0, #0
 1538              	.LVL116:
ARM GAS  C:\Users\10963\AppData\Local\Temp\ccHwb33p.s 			page 43


 813:libraries/drivers/src/at32f403a_407_adc.c ****   switch(adc_flag)
 1539              		.loc 1 813 15 view .LVU389
 1540 0032 7047     		bx	lr
 1541              	.LVL117:
 1542              	.L99:
 824:libraries/drivers/src/at32f403a_407_adc.c ****       {
 825:libraries/drivers/src/at32f403a_407_adc.c ****         status = SET;
 826:libraries/drivers/src/at32f403a_407_adc.c ****       }
 827:libraries/drivers/src/at32f403a_407_adc.c ****       break;
 828:libraries/drivers/src/at32f403a_407_adc.c ****     case ADC_PCCE_FLAG:
 829:libraries/drivers/src/at32f403a_407_adc.c ****       if(adc_x->sts_bit.pcce && adc_x->ctrl1_bit.pcceien)
 1543              		.loc 1 829 7 is_stmt 1 view .LVU390
 1544              		.loc 1 829 24 is_stmt 0 view .LVU391
 1545 0034 0368     		ldr	r3, [r0]
 1546              		.loc 1 829 9 view .LVU392
 1547 0036 13F0040F 		tst	r3, #4
 1548 003a 0FD0     		beq	.L106
 1549              		.loc 1 829 49 discriminator 1 view .LVU393
 1550 003c 4368     		ldr	r3, [r0, #4]
 1551              		.loc 1 829 30 discriminator 1 view .LVU394
 1552 003e 13F0800F 		tst	r3, #128
 1553 0042 0DD1     		bne	.L107
 813:libraries/drivers/src/at32f403a_407_adc.c ****   switch(adc_flag)
 1554              		.loc 1 813 15 view .LVU395
 1555 0044 0020     		movs	r0, #0
 1556              	.LVL118:
 813:libraries/drivers/src/at32f403a_407_adc.c ****   switch(adc_flag)
 1557              		.loc 1 813 15 view .LVU396
 1558 0046 7047     		bx	lr
 1559              	.LVL119:
 1560              	.L101:
 814:libraries/drivers/src/at32f403a_407_adc.c ****   {
 1561              		.loc 1 814 3 view .LVU397
 1562 0048 0020     		movs	r0, #0
 1563              	.LVL120:
 814:libraries/drivers/src/at32f403a_407_adc.c ****   {
 1564              		.loc 1 814 3 view .LVU398
 1565 004a 7047     		bx	lr
 1566              	.LVL121:
 1567              	.L102:
 813:libraries/drivers/src/at32f403a_407_adc.c ****   switch(adc_flag)
 1568              		.loc 1 813 15 view .LVU399
 1569 004c 0020     		movs	r0, #0
 1570              	.LVL122:
 813:libraries/drivers/src/at32f403a_407_adc.c ****   switch(adc_flag)
 1571              		.loc 1 813 15 view .LVU400
 1572 004e 7047     		bx	lr
 1573              	.LVL123:
 1574              	.L103:
 819:libraries/drivers/src/at32f403a_407_adc.c ****       }
 1575              		.loc 1 819 16 view .LVU401
 1576 0050 0846     		mov	r0, r1
 1577              	.LVL124:
 819:libraries/drivers/src/at32f403a_407_adc.c ****       }
 1578              		.loc 1 819 16 view .LVU402
 1579 0052 7047     		bx	lr
 1580              	.LVL125:
ARM GAS  C:\Users\10963\AppData\Local\Temp\ccHwb33p.s 			page 44


 1581              	.L104:
 813:libraries/drivers/src/at32f403a_407_adc.c ****   switch(adc_flag)
 1582              		.loc 1 813 15 view .LVU403
 1583 0054 0020     		movs	r0, #0
 1584              	.LVL126:
 813:libraries/drivers/src/at32f403a_407_adc.c ****   switch(adc_flag)
 1585              		.loc 1 813 15 view .LVU404
 1586 0056 7047     		bx	lr
 1587              	.LVL127:
 1588              	.L105:
 825:libraries/drivers/src/at32f403a_407_adc.c ****       }
 1589              		.loc 1 825 16 view .LVU405
 1590 0058 0120     		movs	r0, #1
 1591              	.LVL128:
 825:libraries/drivers/src/at32f403a_407_adc.c ****       }
 1592              		.loc 1 825 16 view .LVU406
 1593 005a 7047     		bx	lr
 1594              	.LVL129:
 1595              	.L106:
 813:libraries/drivers/src/at32f403a_407_adc.c ****   switch(adc_flag)
 1596              		.loc 1 813 15 view .LVU407
 1597 005c 0020     		movs	r0, #0
 1598              	.LVL130:
 813:libraries/drivers/src/at32f403a_407_adc.c ****   switch(adc_flag)
 1599              		.loc 1 813 15 view .LVU408
 1600 005e 7047     		bx	lr
 1601              	.LVL131:
 1602              	.L107:
 830:libraries/drivers/src/at32f403a_407_adc.c ****       {
 831:libraries/drivers/src/at32f403a_407_adc.c ****         status = SET;
 1603              		.loc 1 831 16 view .LVU409
 1604 0060 0120     		movs	r0, #1
 1605              	.LVL132:
 832:libraries/drivers/src/at32f403a_407_adc.c ****       }
 833:libraries/drivers/src/at32f403a_407_adc.c ****       break;
 834:libraries/drivers/src/at32f403a_407_adc.c ****     default:
 835:libraries/drivers/src/at32f403a_407_adc.c ****       break;
 836:libraries/drivers/src/at32f403a_407_adc.c ****   }
 837:libraries/drivers/src/at32f403a_407_adc.c ****   return status;
 1606              		.loc 1 837 3 is_stmt 1 view .LVU410
 838:libraries/drivers/src/at32f403a_407_adc.c **** }
 1607              		.loc 1 838 1 is_stmt 0 view .LVU411
 1608 0062 7047     		bx	lr
 1609              		.cfi_endproc
 1610              	.LFE167:
 1612              		.section	.text.adc_flag_clear,"ax",%progbits
 1613              		.align	1
 1614              		.global	adc_flag_clear
 1615              		.syntax unified
 1616              		.thumb
 1617              		.thumb_func
 1619              	adc_flag_clear:
 1620              	.LVL133:
 1621              	.LFB168:
 839:libraries/drivers/src/at32f403a_407_adc.c **** 
 840:libraries/drivers/src/at32f403a_407_adc.c **** /**
 841:libraries/drivers/src/at32f403a_407_adc.c ****   * @brief  clear flag of the specified adc peripheral.
ARM GAS  C:\Users\10963\AppData\Local\Temp\ccHwb33p.s 			page 45


 842:libraries/drivers/src/at32f403a_407_adc.c ****   * @param  adc_x: select the adc peripheral.
 843:libraries/drivers/src/at32f403a_407_adc.c ****   *         this parameter can be one of the following values:
 844:libraries/drivers/src/at32f403a_407_adc.c ****   *         ADC1, ADC2, ADC3.
 845:libraries/drivers/src/at32f403a_407_adc.c ****   * @param  adc_flag: select the adc flag.
 846:libraries/drivers/src/at32f403a_407_adc.c ****   *         this parameter can be any combination of the following values:
 847:libraries/drivers/src/at32f403a_407_adc.c ****   *         - ADC_VMOR_FLAG
 848:libraries/drivers/src/at32f403a_407_adc.c ****   *         - ADC_CCE_FLAG(also can clear by reading the adc_x->odt)
 849:libraries/drivers/src/at32f403a_407_adc.c ****   *         - ADC_PCCE_FLAG
 850:libraries/drivers/src/at32f403a_407_adc.c ****   *         - ADC_PCCS_FLAG
 851:libraries/drivers/src/at32f403a_407_adc.c ****   *         - ADC_OCCS_FLAG
 852:libraries/drivers/src/at32f403a_407_adc.c ****   * @retval none
 853:libraries/drivers/src/at32f403a_407_adc.c ****   */
 854:libraries/drivers/src/at32f403a_407_adc.c **** void adc_flag_clear(adc_type *adc_x, uint32_t adc_flag)
 855:libraries/drivers/src/at32f403a_407_adc.c **** {
 1622              		.loc 1 855 1 is_stmt 1 view -0
 1623              		.cfi_startproc
 1624              		@ args = 0, pretend = 0, frame = 0
 1625              		@ frame_needed = 0, uses_anonymous_args = 0
 1626              		@ link register save eliminated.
 856:libraries/drivers/src/at32f403a_407_adc.c ****   adc_x->sts = ~adc_flag;
 1627              		.loc 1 856 3 view .LVU413
 1628              		.loc 1 856 16 is_stmt 0 view .LVU414
 1629 0000 C943     		mvns	r1, r1
 1630              	.LVL134:
 1631              		.loc 1 856 14 view .LVU415
 1632 0002 0160     		str	r1, [r0]
 857:libraries/drivers/src/at32f403a_407_adc.c **** }
 1633              		.loc 1 857 1 view .LVU416
 1634 0004 7047     		bx	lr
 1635              		.cfi_endproc
 1636              	.LFE168:
 1638              		.text
 1639              	.Letext0:
 1640              		.file 2 "C:/Program Files (x86)/Arm/GNU Toolchain mingw-w64-i686-arm-none-eabi/arm-none-eabi/inclu
 1641              		.file 3 "C:/Program Files (x86)/Arm/GNU Toolchain mingw-w64-i686-arm-none-eabi/arm-none-eabi/inclu
 1642              		.file 4 "libraries/cmsis/cm4/device_support/at32f403a_407.h"
 1643              		.file 5 "libraries/drivers/inc/at32f403a_407_adc.h"
 1644              		.file 6 "libraries/drivers/inc/at32f403a_407_crm.h"
ARM GAS  C:\Users\10963\AppData\Local\Temp\ccHwb33p.s 			page 46

