ARM GAS  C:\Users\10963\AppData\Local\Temp\cc21GtAm.s 			page 1


   1              		.cpu cortex-m4
   2              		.arch armv7e-m
   3              		.fpu fpv4-sp-d16
   4              		.eabi_attribute 27, 1
   5              		.eabi_attribute 28, 1
   6              		.eabi_attribute 20, 1
   7              		.eabi_attribute 21, 1
   8              		.eabi_attribute 23, 3
   9              		.eabi_attribute 24, 1
  10              		.eabi_attribute 25, 1
  11              		.eabi_attribute 26, 1
  12              		.eabi_attribute 30, 1
  13              		.eabi_attribute 34, 1
  14              		.eabi_attribute 18, 4
  15              		.file	"at32f403a_407_crc.c"
  16              		.text
  17              	.Ltext0:
  18              		.cfi_sections	.debug_frame
  19              		.file 1 "libraries/drivers/src/at32f403a_407_crc.c"
  20              		.section	.text.crc_data_reset,"ax",%progbits
  21              		.align	1
  22              		.global	crc_data_reset
  23              		.syntax unified
  24              		.thumb
  25              		.thumb_func
  27              	crc_data_reset:
  28              	.LFB134:
   1:libraries/drivers/src/at32f403a_407_crc.c **** /**
   2:libraries/drivers/src/at32f403a_407_crc.c ****   **************************************************************************
   3:libraries/drivers/src/at32f403a_407_crc.c ****   * @file     at32f403a_407_crc.c
   4:libraries/drivers/src/at32f403a_407_crc.c ****   * @brief    contains all the functions for the crc firmware library
   5:libraries/drivers/src/at32f403a_407_crc.c ****   **************************************************************************
   6:libraries/drivers/src/at32f403a_407_crc.c ****   *
   7:libraries/drivers/src/at32f403a_407_crc.c ****   * Copyright (c) 2025, Artery Technology, All rights reserved.
   8:libraries/drivers/src/at32f403a_407_crc.c ****   *
   9:libraries/drivers/src/at32f403a_407_crc.c ****   * The software Board Support Package (BSP) that is made available to
  10:libraries/drivers/src/at32f403a_407_crc.c ****   * download from Artery official website is the copyrighted work of Artery.
  11:libraries/drivers/src/at32f403a_407_crc.c ****   * Artery authorizes customers to use, copy, and distribute the BSP
  12:libraries/drivers/src/at32f403a_407_crc.c ****   * software and its related documentation for the purpose of design and
  13:libraries/drivers/src/at32f403a_407_crc.c ****   * development in conjunction with Artery microcontrollers. Use of the
  14:libraries/drivers/src/at32f403a_407_crc.c ****   * software is governed by this copyright notice and the following disclaimer.
  15:libraries/drivers/src/at32f403a_407_crc.c ****   *
  16:libraries/drivers/src/at32f403a_407_crc.c ****   * THIS SOFTWARE IS PROVIDED ON "AS IS" BASIS WITHOUT WARRANTIES,
  17:libraries/drivers/src/at32f403a_407_crc.c ****   * GUARANTEES OR REPRESENTATIONS OF ANY KIND. ARTERY EXPRESSLY DISCLAIMS,
  18:libraries/drivers/src/at32f403a_407_crc.c ****   * TO THE FULLEST EXTENT PERMITTED BY LAW, ALL EXPRESS, IMPLIED OR
  19:libraries/drivers/src/at32f403a_407_crc.c ****   * STATUTORY OR OTHER WARRANTIES, GUARANTEES OR REPRESENTATIONS,
  20:libraries/drivers/src/at32f403a_407_crc.c ****   * INCLUDING BUT NOT LIMITED TO, THE IMPLIED WARRANTIES OF MERCHANTABILITY,
  21:libraries/drivers/src/at32f403a_407_crc.c ****   * FITNESS FOR A PARTICULAR PURPOSE, OR NON-INFRINGEMENT.
  22:libraries/drivers/src/at32f403a_407_crc.c ****   *
  23:libraries/drivers/src/at32f403a_407_crc.c ****   **************************************************************************
  24:libraries/drivers/src/at32f403a_407_crc.c ****   */
  25:libraries/drivers/src/at32f403a_407_crc.c **** 
  26:libraries/drivers/src/at32f403a_407_crc.c **** #include "at32f403a_407_conf.h"
  27:libraries/drivers/src/at32f403a_407_crc.c **** 
  28:libraries/drivers/src/at32f403a_407_crc.c **** /** @addtogroup AT32F403A_407_periph_driver
  29:libraries/drivers/src/at32f403a_407_crc.c ****   * @{
  30:libraries/drivers/src/at32f403a_407_crc.c ****   */
ARM GAS  C:\Users\10963\AppData\Local\Temp\cc21GtAm.s 			page 2


  31:libraries/drivers/src/at32f403a_407_crc.c **** 
  32:libraries/drivers/src/at32f403a_407_crc.c **** /** @defgroup CRC
  33:libraries/drivers/src/at32f403a_407_crc.c ****   * @brief CRC driver modules
  34:libraries/drivers/src/at32f403a_407_crc.c ****   * @{
  35:libraries/drivers/src/at32f403a_407_crc.c ****   */
  36:libraries/drivers/src/at32f403a_407_crc.c **** 
  37:libraries/drivers/src/at32f403a_407_crc.c **** #ifdef CRC_MODULE_ENABLED
  38:libraries/drivers/src/at32f403a_407_crc.c **** 
  39:libraries/drivers/src/at32f403a_407_crc.c **** /** @defgroup CRC_private_functions
  40:libraries/drivers/src/at32f403a_407_crc.c ****   * @{
  41:libraries/drivers/src/at32f403a_407_crc.c ****   */
  42:libraries/drivers/src/at32f403a_407_crc.c **** 
  43:libraries/drivers/src/at32f403a_407_crc.c **** /**
  44:libraries/drivers/src/at32f403a_407_crc.c ****   * @brief  reset the crc data register.
  45:libraries/drivers/src/at32f403a_407_crc.c ****   * @param  none
  46:libraries/drivers/src/at32f403a_407_crc.c ****   * @retval none
  47:libraries/drivers/src/at32f403a_407_crc.c ****   */
  48:libraries/drivers/src/at32f403a_407_crc.c **** void crc_data_reset(void)
  49:libraries/drivers/src/at32f403a_407_crc.c **** {
  29              		.loc 1 49 1 view -0
  30              		.cfi_startproc
  31              		@ args = 0, pretend = 0, frame = 0
  32              		@ frame_needed = 0, uses_anonymous_args = 0
  33              		@ link register save eliminated.
  50:libraries/drivers/src/at32f403a_407_crc.c ****   /* reset crc generator */
  51:libraries/drivers/src/at32f403a_407_crc.c ****   CRC->ctrl_bit.rst = 0x1;
  34              		.loc 1 51 3 view .LVU1
  35              		.loc 1 51 21 is_stmt 0 view .LVU2
  36 0000 024A     		ldr	r2, .L2
  37 0002 9368     		ldr	r3, [r2, #8]
  38 0004 43F00103 		orr	r3, r3, #1
  39 0008 9360     		str	r3, [r2, #8]
  52:libraries/drivers/src/at32f403a_407_crc.c **** }
  40              		.loc 1 52 1 view .LVU3
  41 000a 7047     		bx	lr
  42              	.L3:
  43              		.align	2
  44              	.L2:
  45 000c 00300240 		.word	1073885184
  46              		.cfi_endproc
  47              	.LFE134:
  49              		.section	.text.crc_one_word_calculate,"ax",%progbits
  50              		.align	1
  51              		.global	crc_one_word_calculate
  52              		.syntax unified
  53              		.thumb
  54              		.thumb_func
  56              	crc_one_word_calculate:
  57              	.LVL0:
  58              	.LFB135:
  53:libraries/drivers/src/at32f403a_407_crc.c **** 
  54:libraries/drivers/src/at32f403a_407_crc.c **** /**
  55:libraries/drivers/src/at32f403a_407_crc.c ****   * @brief  compute the 32-bit crc of a given data word(32-bit).
  56:libraries/drivers/src/at32f403a_407_crc.c ****   * @param  data: data word(32-bit) to compute its crc
  57:libraries/drivers/src/at32f403a_407_crc.c ****   * @retval 32-bit crc
  58:libraries/drivers/src/at32f403a_407_crc.c ****   */
  59:libraries/drivers/src/at32f403a_407_crc.c **** uint32_t crc_one_word_calculate(uint32_t data)
ARM GAS  C:\Users\10963\AppData\Local\Temp\cc21GtAm.s 			page 3


  60:libraries/drivers/src/at32f403a_407_crc.c **** {
  59              		.loc 1 60 1 is_stmt 1 view -0
  60              		.cfi_startproc
  61              		@ args = 0, pretend = 0, frame = 0
  62              		@ frame_needed = 0, uses_anonymous_args = 0
  63              		@ link register save eliminated.
  61:libraries/drivers/src/at32f403a_407_crc.c ****   CRC->dt = data;
  64              		.loc 1 61 3 view .LVU5
  65              		.loc 1 61 11 is_stmt 0 view .LVU6
  66 0000 014B     		ldr	r3, .L5
  67 0002 1860     		str	r0, [r3]
  62:libraries/drivers/src/at32f403a_407_crc.c ****   return (CRC->dt);
  68              		.loc 1 62 3 is_stmt 1 view .LVU7
  69              		.loc 1 62 14 is_stmt 0 view .LVU8
  70 0004 1868     		ldr	r0, [r3]
  71              	.LVL1:
  63:libraries/drivers/src/at32f403a_407_crc.c **** }
  72              		.loc 1 63 1 view .LVU9
  73 0006 7047     		bx	lr
  74              	.L6:
  75              		.align	2
  76              	.L5:
  77 0008 00300240 		.word	1073885184
  78              		.cfi_endproc
  79              	.LFE135:
  81              		.section	.text.crc_block_calculate,"ax",%progbits
  82              		.align	1
  83              		.global	crc_block_calculate
  84              		.syntax unified
  85              		.thumb
  86              		.thumb_func
  88              	crc_block_calculate:
  89              	.LVL2:
  90              	.LFB136:
  64:libraries/drivers/src/at32f403a_407_crc.c **** 
  65:libraries/drivers/src/at32f403a_407_crc.c **** /**
  66:libraries/drivers/src/at32f403a_407_crc.c ****   * @brief  compute the 32-bit crc of a given buffer of data word(32-bit).
  67:libraries/drivers/src/at32f403a_407_crc.c ****   * @param  pbuffer: pointer to the buffer containing the data to be computed
  68:libraries/drivers/src/at32f403a_407_crc.c ****   * @param  length: length of the buffer to be computed
  69:libraries/drivers/src/at32f403a_407_crc.c ****   * @retval 32-bit crc
  70:libraries/drivers/src/at32f403a_407_crc.c ****   */
  71:libraries/drivers/src/at32f403a_407_crc.c **** uint32_t crc_block_calculate(uint32_t *pbuffer, uint32_t length)
  72:libraries/drivers/src/at32f403a_407_crc.c **** {
  91              		.loc 1 72 1 is_stmt 1 view -0
  92              		.cfi_startproc
  93              		@ args = 0, pretend = 0, frame = 0
  94              		@ frame_needed = 0, uses_anonymous_args = 0
  95              		@ link register save eliminated.
  73:libraries/drivers/src/at32f403a_407_crc.c ****   uint32_t index = 0;
  96              		.loc 1 73 3 view .LVU11
  74:libraries/drivers/src/at32f403a_407_crc.c **** 
  75:libraries/drivers/src/at32f403a_407_crc.c ****   for(index = 0; index < length; index++)
  97              		.loc 1 75 3 view .LVU12
  98              		.loc 1 75 13 is_stmt 0 view .LVU13
  99 0000 0023     		movs	r3, #0
 100              	.LVL3:
 101              		.loc 1 75 24 is_stmt 1 discriminator 1 view .LVU14
ARM GAS  C:\Users\10963\AppData\Local\Temp\cc21GtAm.s 			page 4


 102 0002 8B42     		cmp	r3, r1
 103 0004 0BD2     		bcs	.L14
  72:libraries/drivers/src/at32f403a_407_crc.c ****   uint32_t index = 0;
 104              		.loc 1 72 1 is_stmt 0 view .LVU15
 105 0006 10B4     		push	{r4}
 106              	.LCFI0:
 107              		.cfi_def_cfa_offset 4
 108              		.cfi_offset 4, -4
 109              	.L9:
  76:libraries/drivers/src/at32f403a_407_crc.c ****   {
  77:libraries/drivers/src/at32f403a_407_crc.c ****     CRC->dt = pbuffer[index];
 110              		.loc 1 77 5 is_stmt 1 view .LVU16
 111              		.loc 1 77 13 is_stmt 0 view .LVU17
 112 0008 064A     		ldr	r2, .L15
 113 000a 50F82340 		ldr	r4, [r0, r3, lsl #2]
 114 000e 1460     		str	r4, [r2]
  75:libraries/drivers/src/at32f403a_407_crc.c ****   {
 115              		.loc 1 75 39 is_stmt 1 discriminator 3 view .LVU18
 116 0010 0133     		adds	r3, r3, #1
 117              	.LVL4:
  75:libraries/drivers/src/at32f403a_407_crc.c ****   {
 118              		.loc 1 75 24 discriminator 1 view .LVU19
 119 0012 8B42     		cmp	r3, r1
 120 0014 F8D3     		bcc	.L9
  78:libraries/drivers/src/at32f403a_407_crc.c ****   }
  79:libraries/drivers/src/at32f403a_407_crc.c **** 
  80:libraries/drivers/src/at32f403a_407_crc.c ****   return (CRC->dt);
 121              		.loc 1 80 3 view .LVU20
 122              		.loc 1 80 14 is_stmt 0 view .LVU21
 123 0016 034B     		ldr	r3, .L15
 124              	.LVL5:
 125              		.loc 1 80 14 view .LVU22
 126 0018 1868     		ldr	r0, [r3]
 127              	.LVL6:
  81:libraries/drivers/src/at32f403a_407_crc.c **** }
 128              		.loc 1 81 1 view .LVU23
 129 001a 10BC     		pop	{r4}
 130              	.LCFI1:
 131              		.cfi_restore 4
 132              		.cfi_def_cfa_offset 0
 133 001c 7047     		bx	lr
 134              	.LVL7:
 135              	.L14:
  80:libraries/drivers/src/at32f403a_407_crc.c **** }
 136              		.loc 1 80 3 is_stmt 1 view .LVU24
  80:libraries/drivers/src/at32f403a_407_crc.c **** }
 137              		.loc 1 80 14 is_stmt 0 view .LVU25
 138 001e 014B     		ldr	r3, .L15
 139              	.LVL8:
  80:libraries/drivers/src/at32f403a_407_crc.c **** }
 140              		.loc 1 80 14 view .LVU26
 141 0020 1868     		ldr	r0, [r3]
 142              	.LVL9:
 143              		.loc 1 81 1 view .LVU27
 144 0022 7047     		bx	lr
 145              	.L16:
 146              		.align	2
ARM GAS  C:\Users\10963\AppData\Local\Temp\cc21GtAm.s 			page 5


 147              	.L15:
 148 0024 00300240 		.word	1073885184
 149              		.cfi_endproc
 150              	.LFE136:
 152              		.section	.text.crc_data_get,"ax",%progbits
 153              		.align	1
 154              		.global	crc_data_get
 155              		.syntax unified
 156              		.thumb
 157              		.thumb_func
 159              	crc_data_get:
 160              	.LFB137:
  82:libraries/drivers/src/at32f403a_407_crc.c **** 
  83:libraries/drivers/src/at32f403a_407_crc.c **** /**
  84:libraries/drivers/src/at32f403a_407_crc.c ****   * @brief  return the current crc value.
  85:libraries/drivers/src/at32f403a_407_crc.c ****   * @param  none
  86:libraries/drivers/src/at32f403a_407_crc.c ****   * @retval 32-bit crc
  87:libraries/drivers/src/at32f403a_407_crc.c ****   */
  88:libraries/drivers/src/at32f403a_407_crc.c **** uint32_t crc_data_get(void)
  89:libraries/drivers/src/at32f403a_407_crc.c **** {
 161              		.loc 1 89 1 is_stmt 1 view -0
 162              		.cfi_startproc
 163              		@ args = 0, pretend = 0, frame = 0
 164              		@ frame_needed = 0, uses_anonymous_args = 0
 165              		@ link register save eliminated.
  90:libraries/drivers/src/at32f403a_407_crc.c ****   return (CRC->dt);
 166              		.loc 1 90 3 view .LVU29
 167              		.loc 1 90 14 is_stmt 0 view .LVU30
 168 0000 014B     		ldr	r3, .L18
 169 0002 1868     		ldr	r0, [r3]
  91:libraries/drivers/src/at32f403a_407_crc.c **** }
 170              		.loc 1 91 1 view .LVU31
 171 0004 7047     		bx	lr
 172              	.L19:
 173 0006 00BF     		.align	2
 174              	.L18:
 175 0008 00300240 		.word	1073885184
 176              		.cfi_endproc
 177              	.LFE137:
 179              		.section	.text.crc_common_data_set,"ax",%progbits
 180              		.align	1
 181              		.global	crc_common_data_set
 182              		.syntax unified
 183              		.thumb
 184              		.thumb_func
 186              	crc_common_data_set:
 187              	.LVL10:
 188              	.LFB138:
  92:libraries/drivers/src/at32f403a_407_crc.c **** 
  93:libraries/drivers/src/at32f403a_407_crc.c **** /**
  94:libraries/drivers/src/at32f403a_407_crc.c ****   * @brief  store a 8-bit data in the common data register.
  95:libraries/drivers/src/at32f403a_407_crc.c ****   * @param  cdt_value: 8-bit value to be stored in the common data register
  96:libraries/drivers/src/at32f403a_407_crc.c ****   * @retval none
  97:libraries/drivers/src/at32f403a_407_crc.c ****   */
  98:libraries/drivers/src/at32f403a_407_crc.c **** void crc_common_data_set(uint8_t cdt_value)
  99:libraries/drivers/src/at32f403a_407_crc.c **** {
 189              		.loc 1 99 1 is_stmt 1 view -0
ARM GAS  C:\Users\10963\AppData\Local\Temp\cc21GtAm.s 			page 6


 190              		.cfi_startproc
 191              		@ args = 0, pretend = 0, frame = 0
 192              		@ frame_needed = 0, uses_anonymous_args = 0
 193              		@ link register save eliminated.
 100:libraries/drivers/src/at32f403a_407_crc.c ****   CRC->cdt_bit.cdt = cdt_value;
 194              		.loc 1 100 3 view .LVU33
 195              		.loc 1 100 20 is_stmt 0 view .LVU34
 196 0000 024B     		ldr	r3, .L21
 197 0002 5A68     		ldr	r2, [r3, #4]
 198              	.LVL11:
 199              		.loc 1 100 20 view .LVU35
 200 0004 60F30702 		bfi	r2, r0, #0, #8
 201 0008 5A60     		str	r2, [r3, #4]
 101:libraries/drivers/src/at32f403a_407_crc.c **** }
 202              		.loc 1 101 1 view .LVU36
 203 000a 7047     		bx	lr
 204              	.L22:
 205              		.align	2
 206              	.L21:
 207 000c 00300240 		.word	1073885184
 208              		.cfi_endproc
 209              	.LFE138:
 211              		.section	.text.crc_common_data_get,"ax",%progbits
 212              		.align	1
 213              		.global	crc_common_data_get
 214              		.syntax unified
 215              		.thumb
 216              		.thumb_func
 218              	crc_common_data_get:
 219              	.LFB139:
 102:libraries/drivers/src/at32f403a_407_crc.c **** 
 103:libraries/drivers/src/at32f403a_407_crc.c **** /**
 104:libraries/drivers/src/at32f403a_407_crc.c ****   * @brief  return the 8-bit data stored in the common data register
 105:libraries/drivers/src/at32f403a_407_crc.c ****   * @param  none
 106:libraries/drivers/src/at32f403a_407_crc.c ****   * @retval 8-bit value of the common data register
 107:libraries/drivers/src/at32f403a_407_crc.c ****   */
 108:libraries/drivers/src/at32f403a_407_crc.c **** uint8_t crc_common_data_get(void)
 109:libraries/drivers/src/at32f403a_407_crc.c **** {
 220              		.loc 1 109 1 is_stmt 1 view -0
 221              		.cfi_startproc
 222              		@ args = 0, pretend = 0, frame = 0
 223              		@ frame_needed = 0, uses_anonymous_args = 0
 224              		@ link register save eliminated.
 110:libraries/drivers/src/at32f403a_407_crc.c ****   return (CRC->cdt_bit.cdt);
 225              		.loc 1 110 3 view .LVU38
 226              		.loc 1 110 23 is_stmt 0 view .LVU39
 227 0000 014B     		ldr	r3, .L24
 228 0002 5868     		ldr	r0, [r3, #4]
 111:libraries/drivers/src/at32f403a_407_crc.c **** }
 229              		.loc 1 111 1 view .LVU40
 230 0004 C0B2     		uxtb	r0, r0
 231 0006 7047     		bx	lr
 232              	.L25:
 233              		.align	2
 234              	.L24:
 235 0008 00300240 		.word	1073885184
 236              		.cfi_endproc
ARM GAS  C:\Users\10963\AppData\Local\Temp\cc21GtAm.s 			page 7


 237              	.LFE139:
 239              		.section	.text.crc_init_data_set,"ax",%progbits
 240              		.align	1
 241              		.global	crc_init_data_set
 242              		.syntax unified
 243              		.thumb
 244              		.thumb_func
 246              	crc_init_data_set:
 247              	.LVL12:
 248              	.LFB140:
 112:libraries/drivers/src/at32f403a_407_crc.c **** 
 113:libraries/drivers/src/at32f403a_407_crc.c **** /**
 114:libraries/drivers/src/at32f403a_407_crc.c ****   * @brief  set the 32-bit initial data of crc
 115:libraries/drivers/src/at32f403a_407_crc.c ****   * @param  value: initial data
 116:libraries/drivers/src/at32f403a_407_crc.c ****   * @retval none
 117:libraries/drivers/src/at32f403a_407_crc.c ****   */
 118:libraries/drivers/src/at32f403a_407_crc.c **** void crc_init_data_set(uint32_t value)
 119:libraries/drivers/src/at32f403a_407_crc.c **** {
 249              		.loc 1 119 1 is_stmt 1 view -0
 250              		.cfi_startproc
 251              		@ args = 0, pretend = 0, frame = 0
 252              		@ frame_needed = 0, uses_anonymous_args = 0
 253              		@ link register save eliminated.
 120:libraries/drivers/src/at32f403a_407_crc.c ****   CRC->idt = value;
 254              		.loc 1 120 3 view .LVU42
 255              		.loc 1 120 12 is_stmt 0 view .LVU43
 256 0000 014B     		ldr	r3, .L27
 257 0002 1861     		str	r0, [r3, #16]
 121:libraries/drivers/src/at32f403a_407_crc.c **** }
 258              		.loc 1 121 1 view .LVU44
 259 0004 7047     		bx	lr
 260              	.L28:
 261 0006 00BF     		.align	2
 262              	.L27:
 263 0008 00300240 		.word	1073885184
 264              		.cfi_endproc
 265              	.LFE140:
 267              		.section	.text.crc_reverse_input_data_set,"ax",%progbits
 268              		.align	1
 269              		.global	crc_reverse_input_data_set
 270              		.syntax unified
 271              		.thumb
 272              		.thumb_func
 274              	crc_reverse_input_data_set:
 275              	.LVL13:
 276              	.LFB141:
 122:libraries/drivers/src/at32f403a_407_crc.c **** 
 123:libraries/drivers/src/at32f403a_407_crc.c **** /**
 124:libraries/drivers/src/at32f403a_407_crc.c ****   * @brief  control the reversal of the bit order in the input data
 125:libraries/drivers/src/at32f403a_407_crc.c ****   * @param  value
 126:libraries/drivers/src/at32f403a_407_crc.c ****   *         this parameter can be one of the following values:
 127:libraries/drivers/src/at32f403a_407_crc.c ****   *         - CRC_REVERSE_INPUT_NO_AFFECTE
 128:libraries/drivers/src/at32f403a_407_crc.c ****   *         - CRC_REVERSE_INPUT_BY_BYTE
 129:libraries/drivers/src/at32f403a_407_crc.c ****   *         - CRC_REVERSE_INPUT_BY_HALFWORD
 130:libraries/drivers/src/at32f403a_407_crc.c ****   *         - CRC_REVERSE_INPUT_BY_WORD
 131:libraries/drivers/src/at32f403a_407_crc.c ****   * @retval none.
 132:libraries/drivers/src/at32f403a_407_crc.c ****   */
ARM GAS  C:\Users\10963\AppData\Local\Temp\cc21GtAm.s 			page 8


 133:libraries/drivers/src/at32f403a_407_crc.c **** void crc_reverse_input_data_set(crc_reverse_input_type value)
 134:libraries/drivers/src/at32f403a_407_crc.c **** {
 277              		.loc 1 134 1 is_stmt 1 view -0
 278              		.cfi_startproc
 279              		@ args = 0, pretend = 0, frame = 0
 280              		@ frame_needed = 0, uses_anonymous_args = 0
 281              		@ link register save eliminated.
 135:libraries/drivers/src/at32f403a_407_crc.c ****   CRC->ctrl_bit.revid = value;
 282              		.loc 1 135 3 view .LVU46
 283              		.loc 1 135 23 is_stmt 0 view .LVU47
 284 0000 024B     		ldr	r3, .L30
 285 0002 9A68     		ldr	r2, [r3, #8]
 286 0004 60F34612 		bfi	r2, r0, #5, #2
 287 0008 9A60     		str	r2, [r3, #8]
 136:libraries/drivers/src/at32f403a_407_crc.c **** }
 288              		.loc 1 136 1 view .LVU48
 289 000a 7047     		bx	lr
 290              	.L31:
 291              		.align	2
 292              	.L30:
 293 000c 00300240 		.word	1073885184
 294              		.cfi_endproc
 295              	.LFE141:
 297              		.section	.text.crc_reverse_output_data_set,"ax",%progbits
 298              		.align	1
 299              		.global	crc_reverse_output_data_set
 300              		.syntax unified
 301              		.thumb
 302              		.thumb_func
 304              	crc_reverse_output_data_set:
 305              	.LVL14:
 306              	.LFB142:
 137:libraries/drivers/src/at32f403a_407_crc.c **** 
 138:libraries/drivers/src/at32f403a_407_crc.c **** /**
 139:libraries/drivers/src/at32f403a_407_crc.c ****   * @brief  control the reversal of the bit order in the output data
 140:libraries/drivers/src/at32f403a_407_crc.c ****   * @param  value
 141:libraries/drivers/src/at32f403a_407_crc.c ****   *         this parameter can be one of the following values:
 142:libraries/drivers/src/at32f403a_407_crc.c ****   *         - CRC_REVERSE_OUTPUT_NO_AFFECTE
 143:libraries/drivers/src/at32f403a_407_crc.c ****   *         - CRC_REVERSE_OUTPUT_DATA
 144:libraries/drivers/src/at32f403a_407_crc.c ****   * @retval none.
 145:libraries/drivers/src/at32f403a_407_crc.c ****   */
 146:libraries/drivers/src/at32f403a_407_crc.c **** void crc_reverse_output_data_set(crc_reverse_output_type value)
 147:libraries/drivers/src/at32f403a_407_crc.c **** {
 307              		.loc 1 147 1 is_stmt 1 view -0
 308              		.cfi_startproc
 309              		@ args = 0, pretend = 0, frame = 0
 310              		@ frame_needed = 0, uses_anonymous_args = 0
 311              		@ link register save eliminated.
 148:libraries/drivers/src/at32f403a_407_crc.c ****   CRC->ctrl_bit.revod = value;
 312              		.loc 1 148 3 view .LVU50
 313              		.loc 1 148 23 is_stmt 0 view .LVU51
 314 0000 024B     		ldr	r3, .L33
 315 0002 9A68     		ldr	r2, [r3, #8]
 316 0004 60F3C712 		bfi	r2, r0, #7, #1
 317 0008 9A60     		str	r2, [r3, #8]
 149:libraries/drivers/src/at32f403a_407_crc.c **** }
 318              		.loc 1 149 1 view .LVU52
ARM GAS  C:\Users\10963\AppData\Local\Temp\cc21GtAm.s 			page 9


 319 000a 7047     		bx	lr
 320              	.L34:
 321              		.align	2
 322              	.L33:
 323 000c 00300240 		.word	1073885184
 324              		.cfi_endproc
 325              	.LFE142:
 327              		.section	.text.crc_poly_value_set,"ax",%progbits
 328              		.align	1
 329              		.global	crc_poly_value_set
 330              		.syntax unified
 331              		.thumb
 332              		.thumb_func
 334              	crc_poly_value_set:
 335              	.LVL15:
 336              	.LFB143:
 150:libraries/drivers/src/at32f403a_407_crc.c **** 
 151:libraries/drivers/src/at32f403a_407_crc.c **** /**
 152:libraries/drivers/src/at32f403a_407_crc.c ****   * @brief  config crc polynomial value
 153:libraries/drivers/src/at32f403a_407_crc.c ****   * @param  value
 154:libraries/drivers/src/at32f403a_407_crc.c ****   *         32-bit new data of crc poly value
 155:libraries/drivers/src/at32f403a_407_crc.c ****   * @retval none.
 156:libraries/drivers/src/at32f403a_407_crc.c ****   */
 157:libraries/drivers/src/at32f403a_407_crc.c **** void crc_poly_value_set(uint32_t value)
 158:libraries/drivers/src/at32f403a_407_crc.c **** {
 337              		.loc 1 158 1 is_stmt 1 view -0
 338              		.cfi_startproc
 339              		@ args = 0, pretend = 0, frame = 0
 340              		@ frame_needed = 0, uses_anonymous_args = 0
 341              		@ link register save eliminated.
 159:libraries/drivers/src/at32f403a_407_crc.c ****   CRC->poly = value;
 342              		.loc 1 159 3 view .LVU54
 343              		.loc 1 159 13 is_stmt 0 view .LVU55
 344 0000 014B     		ldr	r3, .L36
 345 0002 5861     		str	r0, [r3, #20]
 160:libraries/drivers/src/at32f403a_407_crc.c **** }
 346              		.loc 1 160 1 view .LVU56
 347 0004 7047     		bx	lr
 348              	.L37:
 349 0006 00BF     		.align	2
 350              	.L36:
 351 0008 00300240 		.word	1073885184
 352              		.cfi_endproc
 353              	.LFE143:
 355              		.section	.text.crc_poly_value_get,"ax",%progbits
 356              		.align	1
 357              		.global	crc_poly_value_get
 358              		.syntax unified
 359              		.thumb
 360              		.thumb_func
 362              	crc_poly_value_get:
 363              	.LFB144:
 161:libraries/drivers/src/at32f403a_407_crc.c **** 
 162:libraries/drivers/src/at32f403a_407_crc.c **** /**
 163:libraries/drivers/src/at32f403a_407_crc.c ****   * @brief  return crc polynomial value
 164:libraries/drivers/src/at32f403a_407_crc.c ****   * @param  none
 165:libraries/drivers/src/at32f403a_407_crc.c ****   * @retval 32-bit value of the polynomial value.
ARM GAS  C:\Users\10963\AppData\Local\Temp\cc21GtAm.s 			page 10


 166:libraries/drivers/src/at32f403a_407_crc.c ****   */
 167:libraries/drivers/src/at32f403a_407_crc.c **** uint32_t crc_poly_value_get(void)
 168:libraries/drivers/src/at32f403a_407_crc.c **** {
 364              		.loc 1 168 1 is_stmt 1 view -0
 365              		.cfi_startproc
 366              		@ args = 0, pretend = 0, frame = 0
 367              		@ frame_needed = 0, uses_anonymous_args = 0
 368              		@ link register save eliminated.
 169:libraries/drivers/src/at32f403a_407_crc.c ****   return (CRC->poly);
 369              		.loc 1 169 3 view .LVU58
 370              		.loc 1 169 14 is_stmt 0 view .LVU59
 371 0000 014B     		ldr	r3, .L39
 372 0002 5869     		ldr	r0, [r3, #20]
 170:libraries/drivers/src/at32f403a_407_crc.c **** }
 373              		.loc 1 170 1 view .LVU60
 374 0004 7047     		bx	lr
 375              	.L40:
 376 0006 00BF     		.align	2
 377              	.L39:
 378 0008 00300240 		.word	1073885184
 379              		.cfi_endproc
 380              	.LFE144:
 382              		.section	.text.crc_poly_size_set,"ax",%progbits
 383              		.align	1
 384              		.global	crc_poly_size_set
 385              		.syntax unified
 386              		.thumb
 387              		.thumb_func
 389              	crc_poly_size_set:
 390              	.LVL16:
 391              	.LFB145:
 171:libraries/drivers/src/at32f403a_407_crc.c **** 
 172:libraries/drivers/src/at32f403a_407_crc.c **** /**
 173:libraries/drivers/src/at32f403a_407_crc.c ****   * @brief  config crc polynomial data size
 174:libraries/drivers/src/at32f403a_407_crc.c ****   * @param  size
 175:libraries/drivers/src/at32f403a_407_crc.c ****   *         this parameter can be one of the following values:
 176:libraries/drivers/src/at32f403a_407_crc.c ****   *         - CRC_POLY_SIZE_32B
 177:libraries/drivers/src/at32f403a_407_crc.c ****   *         - CRC_POLY_SIZE_16B
 178:libraries/drivers/src/at32f403a_407_crc.c ****   *         - CRC_POLY_SIZE_8B
 179:libraries/drivers/src/at32f403a_407_crc.c ****   *         - CRC_POLY_SIZE_7B
 180:libraries/drivers/src/at32f403a_407_crc.c ****   * @retval none.
 181:libraries/drivers/src/at32f403a_407_crc.c ****   */
 182:libraries/drivers/src/at32f403a_407_crc.c **** void crc_poly_size_set(crc_poly_size_type size)
 183:libraries/drivers/src/at32f403a_407_crc.c **** {
 392              		.loc 1 183 1 is_stmt 1 view -0
 393              		.cfi_startproc
 394              		@ args = 0, pretend = 0, frame = 0
 395              		@ frame_needed = 0, uses_anonymous_args = 0
 396              		@ link register save eliminated.
 184:libraries/drivers/src/at32f403a_407_crc.c ****   CRC->ctrl_bit.poly_size = size;
 397              		.loc 1 184 3 view .LVU62
 398              		.loc 1 184 27 is_stmt 0 view .LVU63
 399 0000 024B     		ldr	r3, .L42
 400 0002 9A68     		ldr	r2, [r3, #8]
 401 0004 60F3C402 		bfi	r2, r0, #3, #2
 402 0008 9A60     		str	r2, [r3, #8]
 185:libraries/drivers/src/at32f403a_407_crc.c **** }
ARM GAS  C:\Users\10963\AppData\Local\Temp\cc21GtAm.s 			page 11


 403              		.loc 1 185 1 view .LVU64
 404 000a 7047     		bx	lr
 405              	.L43:
 406              		.align	2
 407              	.L42:
 408 000c 00300240 		.word	1073885184
 409              		.cfi_endproc
 410              	.LFE145:
 412              		.section	.text.crc_poly_size_get,"ax",%progbits
 413              		.align	1
 414              		.global	crc_poly_size_get
 415              		.syntax unified
 416              		.thumb
 417              		.thumb_func
 419              	crc_poly_size_get:
 420              	.LFB146:
 186:libraries/drivers/src/at32f403a_407_crc.c **** 
 187:libraries/drivers/src/at32f403a_407_crc.c **** /**
 188:libraries/drivers/src/at32f403a_407_crc.c ****   * @brief  return crc polynomial data size
 189:libraries/drivers/src/at32f403a_407_crc.c ****   * @param  none
 190:libraries/drivers/src/at32f403a_407_crc.c ****   * @retval polynomial data size.
 191:libraries/drivers/src/at32f403a_407_crc.c ****   */
 192:libraries/drivers/src/at32f403a_407_crc.c **** crc_poly_size_type crc_poly_size_get(void)
 193:libraries/drivers/src/at32f403a_407_crc.c **** {
 421              		.loc 1 193 1 is_stmt 1 view -0
 422              		.cfi_startproc
 423              		@ args = 0, pretend = 0, frame = 0
 424              		@ frame_needed = 0, uses_anonymous_args = 0
 425              		@ link register save eliminated.
 194:libraries/drivers/src/at32f403a_407_crc.c ****   return (crc_poly_size_type)(CRC->ctrl_bit.poly_size);
 426              		.loc 1 194 3 view .LVU66
 427              		.loc 1 194 44 is_stmt 0 view .LVU67
 428 0000 024B     		ldr	r3, .L45
 429 0002 9868     		ldr	r0, [r3, #8]
 195:libraries/drivers/src/at32f403a_407_crc.c **** }
 430              		.loc 1 195 1 view .LVU68
 431 0004 C0F3C100 		ubfx	r0, r0, #3, #2
 432 0008 7047     		bx	lr
 433              	.L46:
 434 000a 00BF     		.align	2
 435              	.L45:
 436 000c 00300240 		.word	1073885184
 437              		.cfi_endproc
 438              	.LFE146:
 440              		.text
 441              	.Letext0:
 442              		.file 2 "C:/Program Files (x86)/Arm/GNU Toolchain mingw-w64-i686-arm-none-eabi/arm-none-eabi/inclu
 443              		.file 3 "C:/Program Files (x86)/Arm/GNU Toolchain mingw-w64-i686-arm-none-eabi/arm-none-eabi/inclu
 444              		.file 4 "libraries/drivers/inc/at32f403a_407_crc.h"
ARM GAS  C:\Users\10963\AppData\Local\Temp\cc21GtAm.s 			page 12

