ARM GAS  C:\Users\10963\AppData\Local\Temp\ccdKz5BY.s 			page 1


   1              		.cpu cortex-m4
   2              		.arch armv7e-m
   3              		.fpu fpv4-sp-d16
   4              		.eabi_attribute 27, 1
   5              		.eabi_attribute 28, 1
   6              		.eabi_attribute 20, 1
   7              		.eabi_attribute 21, 1
   8              		.eabi_attribute 23, 3
   9              		.eabi_attribute 24, 1
  10              		.eabi_attribute 25, 1
  11              		.eabi_attribute 26, 1
  12              		.eabi_attribute 30, 1
  13              		.eabi_attribute 34, 1
  14              		.eabi_attribute 18, 4
  15              		.file	"at32f403a_407_acc.c"
  16              		.text
  17              	.Ltext0:
  18              		.cfi_sections	.debug_frame
  19              		.file 1 "libraries/drivers/src/at32f403a_407_acc.c"
  20              		.section	.text.acc_calibration_mode_enable,"ax",%progbits
  21              		.align	1
  22              		.global	acc_calibration_mode_enable
  23              		.syntax unified
  24              		.thumb
  25              		.thumb_func
  27              	acc_calibration_mode_enable:
  28              	.LVL0:
  29              	.LFB134:
   1:libraries/drivers/src/at32f403a_407_acc.c **** /**
   2:libraries/drivers/src/at32f403a_407_acc.c ****   **************************************************************************
   3:libraries/drivers/src/at32f403a_407_acc.c ****   * @file     at32f403a_407_acc.c
   4:libraries/drivers/src/at32f403a_407_acc.c ****   * @brief    contains all the functions for the acc firmware library
   5:libraries/drivers/src/at32f403a_407_acc.c ****   **************************************************************************
   6:libraries/drivers/src/at32f403a_407_acc.c ****   *
   7:libraries/drivers/src/at32f403a_407_acc.c ****   * Copyright (c) 2025, Artery Technology, All rights reserved.
   8:libraries/drivers/src/at32f403a_407_acc.c ****   *
   9:libraries/drivers/src/at32f403a_407_acc.c ****   * The software Board Support Package (BSP) that is made available to
  10:libraries/drivers/src/at32f403a_407_acc.c ****   * download from Artery official website is the copyrighted work of Artery.
  11:libraries/drivers/src/at32f403a_407_acc.c ****   * Artery authorizes customers to use, copy, and distribute the BSP
  12:libraries/drivers/src/at32f403a_407_acc.c ****   * software and its related documentation for the purpose of design and
  13:libraries/drivers/src/at32f403a_407_acc.c ****   * development in conjunction with Artery microcontrollers. Use of the
  14:libraries/drivers/src/at32f403a_407_acc.c ****   * software is governed by this copyright notice and the following disclaimer.
  15:libraries/drivers/src/at32f403a_407_acc.c ****   *
  16:libraries/drivers/src/at32f403a_407_acc.c ****   * THIS SOFTWARE IS PROVIDED ON "AS IS" BASIS WITHOUT WARRANTIES,
  17:libraries/drivers/src/at32f403a_407_acc.c ****   * GUARANTEES OR REPRESENTATIONS OF ANY KIND. ARTERY EXPRESSLY DISCLAIMS,
  18:libraries/drivers/src/at32f403a_407_acc.c ****   * TO THE FULLEST EXTENT PERMITTED BY LAW, ALL EXPRESS, IMPLIED OR
  19:libraries/drivers/src/at32f403a_407_acc.c ****   * STATUTORY OR OTHER WARRANTIES, GUARANTEES OR REPRESENTATIONS,
  20:libraries/drivers/src/at32f403a_407_acc.c ****   * INCLUDING BUT NOT LIMITED TO, THE IMPLIED WARRANTIES OF MERCHANTABILITY,
  21:libraries/drivers/src/at32f403a_407_acc.c ****   * FITNESS FOR A PARTICULAR PURPOSE, OR NON-INFRINGEMENT.
  22:libraries/drivers/src/at32f403a_407_acc.c ****   *
  23:libraries/drivers/src/at32f403a_407_acc.c ****   **************************************************************************
  24:libraries/drivers/src/at32f403a_407_acc.c ****   */
  25:libraries/drivers/src/at32f403a_407_acc.c **** 
  26:libraries/drivers/src/at32f403a_407_acc.c **** #include "at32f403a_407_conf.h"
  27:libraries/drivers/src/at32f403a_407_acc.c **** 
  28:libraries/drivers/src/at32f403a_407_acc.c **** /** @addtogroup AT32F403A_407_periph_driver
  29:libraries/drivers/src/at32f403a_407_acc.c ****   * @{
ARM GAS  C:\Users\10963\AppData\Local\Temp\ccdKz5BY.s 			page 2


  30:libraries/drivers/src/at32f403a_407_acc.c ****   */
  31:libraries/drivers/src/at32f403a_407_acc.c **** 
  32:libraries/drivers/src/at32f403a_407_acc.c **** /** @defgroup ACC
  33:libraries/drivers/src/at32f403a_407_acc.c ****   * @brief ACC driver modules
  34:libraries/drivers/src/at32f403a_407_acc.c ****   * @{
  35:libraries/drivers/src/at32f403a_407_acc.c ****   */
  36:libraries/drivers/src/at32f403a_407_acc.c **** 
  37:libraries/drivers/src/at32f403a_407_acc.c **** #ifdef ACC_MODULE_ENABLED
  38:libraries/drivers/src/at32f403a_407_acc.c **** 
  39:libraries/drivers/src/at32f403a_407_acc.c **** /** @defgroup ACC_private_functions
  40:libraries/drivers/src/at32f403a_407_acc.c ****   * @{
  41:libraries/drivers/src/at32f403a_407_acc.c ****   */
  42:libraries/drivers/src/at32f403a_407_acc.c **** 
  43:libraries/drivers/src/at32f403a_407_acc.c **** /**
  44:libraries/drivers/src/at32f403a_407_acc.c ****   * @brief  enable or disable the acc calibration mode.
  45:libraries/drivers/src/at32f403a_407_acc.c ****   * @param  acc_trim: specifies the acc calibration type.
  46:libraries/drivers/src/at32f403a_407_acc.c ****   *         this parameter can be one of the following values:
  47:libraries/drivers/src/at32f403a_407_acc.c ****   *         - ACC_CAL_HICKCAL
  48:libraries/drivers/src/at32f403a_407_acc.c ****   *         - ACC_CAL_HICKTRIM
  49:libraries/drivers/src/at32f403a_407_acc.c ****   * @param  new_state: specifies the acc calibration to be enabled or disabled.(TRUE or FALSE)
  50:libraries/drivers/src/at32f403a_407_acc.c ****   * @retval none
  51:libraries/drivers/src/at32f403a_407_acc.c ****   */
  52:libraries/drivers/src/at32f403a_407_acc.c **** void acc_calibration_mode_enable(uint16_t acc_trim, confirm_state new_state)
  53:libraries/drivers/src/at32f403a_407_acc.c **** {
  30              		.loc 1 53 1 view -0
  31              		.cfi_startproc
  32              		@ args = 0, pretend = 0, frame = 0
  33              		@ frame_needed = 0, uses_anonymous_args = 0
  34              		@ link register save eliminated.
  54:libraries/drivers/src/at32f403a_407_acc.c ****   if(acc_trim == ACC_CAL_HICKCAL)
  35              		.loc 1 54 3 view .LVU1
  36              		.loc 1 54 5 is_stmt 0 view .LVU2
  37 0000 50B9     		cbnz	r0, .L2
  55:libraries/drivers/src/at32f403a_407_acc.c ****   {
  56:libraries/drivers/src/at32f403a_407_acc.c ****     ACC->ctrl1_bit.entrim = FALSE;
  38              		.loc 1 56 5 is_stmt 1 view .LVU3
  39              		.loc 1 56 27 is_stmt 0 view .LVU4
  40 0002 084A     		ldr	r2, .L4
  41 0004 5368     		ldr	r3, [r2, #4]
  42 0006 23F00203 		bic	r3, r3, #2
  43 000a 5360     		str	r3, [r2, #4]
  44              	.L3:
  57:libraries/drivers/src/at32f403a_407_acc.c ****   }
  58:libraries/drivers/src/at32f403a_407_acc.c ****   else
  59:libraries/drivers/src/at32f403a_407_acc.c ****   {
  60:libraries/drivers/src/at32f403a_407_acc.c ****     ACC->ctrl1_bit.entrim = TRUE;
  61:libraries/drivers/src/at32f403a_407_acc.c ****   }
  62:libraries/drivers/src/at32f403a_407_acc.c ****   ACC->ctrl1_bit.calon = new_state;
  45              		.loc 1 62 3 is_stmt 1 view .LVU5
  46              		.loc 1 62 24 is_stmt 0 view .LVU6
  47 000c 054B     		ldr	r3, .L4
  48 000e 5A68     		ldr	r2, [r3, #4]
  49 0010 61F30002 		bfi	r2, r1, #0, #1
  50 0014 5A60     		str	r2, [r3, #4]
  63:libraries/drivers/src/at32f403a_407_acc.c **** }
  51              		.loc 1 63 1 view .LVU7
  52 0016 7047     		bx	lr
ARM GAS  C:\Users\10963\AppData\Local\Temp\ccdKz5BY.s 			page 3


  53              	.L2:
  60:libraries/drivers/src/at32f403a_407_acc.c ****   }
  54              		.loc 1 60 5 is_stmt 1 view .LVU8
  60:libraries/drivers/src/at32f403a_407_acc.c ****   }
  55              		.loc 1 60 27 is_stmt 0 view .LVU9
  56 0018 024A     		ldr	r2, .L4
  57 001a 5368     		ldr	r3, [r2, #4]
  58 001c 43F00203 		orr	r3, r3, #2
  59 0020 5360     		str	r3, [r2, #4]
  60 0022 F3E7     		b	.L3
  61              	.L5:
  62              		.align	2
  63              	.L4:
  64 0024 00580140 		.word	1073829888
  65              		.cfi_endproc
  66              	.LFE134:
  68              		.section	.text.acc_step_set,"ax",%progbits
  69              		.align	1
  70              		.global	acc_step_set
  71              		.syntax unified
  72              		.thumb
  73              		.thumb_func
  75              	acc_step_set:
  76              	.LVL1:
  77              	.LFB135:
  64:libraries/drivers/src/at32f403a_407_acc.c **** 
  65:libraries/drivers/src/at32f403a_407_acc.c **** /**
  66:libraries/drivers/src/at32f403a_407_acc.c ****   * @brief  store calibration step data in acc's ctrl1 register.
  67:libraries/drivers/src/at32f403a_407_acc.c ****   * @param  step_value:  value to be stored in the acc's ctrl1 register
  68:libraries/drivers/src/at32f403a_407_acc.c ****   * @retval none
  69:libraries/drivers/src/at32f403a_407_acc.c ****   */
  70:libraries/drivers/src/at32f403a_407_acc.c **** void acc_step_set(uint8_t step_value)
  71:libraries/drivers/src/at32f403a_407_acc.c **** {
  78              		.loc 1 71 1 is_stmt 1 view -0
  79              		.cfi_startproc
  80              		@ args = 0, pretend = 0, frame = 0
  81              		@ frame_needed = 0, uses_anonymous_args = 0
  82              		@ link register save eliminated.
  72:libraries/drivers/src/at32f403a_407_acc.c ****   ACC->ctrl1_bit.step = step_value;
  83              		.loc 1 72 3 view .LVU11
  84              		.loc 1 72 23 is_stmt 0 view .LVU12
  85 0000 024B     		ldr	r3, .L7
  86 0002 5A68     		ldr	r2, [r3, #4]
  87 0004 60F30B22 		bfi	r2, r0, #8, #4
  88 0008 5A60     		str	r2, [r3, #4]
  73:libraries/drivers/src/at32f403a_407_acc.c **** }
  89              		.loc 1 73 1 view .LVU13
  90 000a 7047     		bx	lr
  91              	.L8:
  92              		.align	2
  93              	.L7:
  94 000c 00580140 		.word	1073829888
  95              		.cfi_endproc
  96              	.LFE135:
  98              		.section	.text.acc_interrupt_enable,"ax",%progbits
  99              		.align	1
 100              		.global	acc_interrupt_enable
ARM GAS  C:\Users\10963\AppData\Local\Temp\ccdKz5BY.s 			page 4


 101              		.syntax unified
 102              		.thumb
 103              		.thumb_func
 105              	acc_interrupt_enable:
 106              	.LVL2:
 107              	.LFB136:
  74:libraries/drivers/src/at32f403a_407_acc.c **** 
  75:libraries/drivers/src/at32f403a_407_acc.c **** /**
  76:libraries/drivers/src/at32f403a_407_acc.c ****   * @brief  enable or disable the specified acc interrupts.
  77:libraries/drivers/src/at32f403a_407_acc.c ****   * @param  acc_int: specifies the acc interrupt sources to be enabled or disabled.
  78:libraries/drivers/src/at32f403a_407_acc.c ****   *         this parameter can be one of the following values:
  79:libraries/drivers/src/at32f403a_407_acc.c ****   *         - ACC_CALRDYIEN_INT
  80:libraries/drivers/src/at32f403a_407_acc.c ****   *         - ACC_EIEN_INT
  81:libraries/drivers/src/at32f403a_407_acc.c ****   * @param  new_state (TRUE or FALSE)
  82:libraries/drivers/src/at32f403a_407_acc.c ****   * @retval none
  83:libraries/drivers/src/at32f403a_407_acc.c ****   */
  84:libraries/drivers/src/at32f403a_407_acc.c **** void acc_interrupt_enable(uint16_t acc_int, confirm_state new_state)
  85:libraries/drivers/src/at32f403a_407_acc.c **** {
 108              		.loc 1 85 1 is_stmt 1 view -0
 109              		.cfi_startproc
 110              		@ args = 0, pretend = 0, frame = 0
 111              		@ frame_needed = 0, uses_anonymous_args = 0
 112              		@ link register save eliminated.
  86:libraries/drivers/src/at32f403a_407_acc.c ****   if(acc_int == ACC_CALRDYIEN_INT)
 113              		.loc 1 86 3 view .LVU15
 114              		.loc 1 86 5 is_stmt 0 view .LVU16
 115 0000 2028     		cmp	r0, #32
 116 0002 05D0     		beq	.L12
  87:libraries/drivers/src/at32f403a_407_acc.c ****   {
  88:libraries/drivers/src/at32f403a_407_acc.c ****     ACC->ctrl1_bit.calrdyien = new_state;
  89:libraries/drivers/src/at32f403a_407_acc.c ****   }
  90:libraries/drivers/src/at32f403a_407_acc.c ****   else
  91:libraries/drivers/src/at32f403a_407_acc.c ****   {
  92:libraries/drivers/src/at32f403a_407_acc.c ****     ACC->ctrl1_bit.eien = new_state;
 117              		.loc 1 92 5 is_stmt 1 view .LVU17
 118              		.loc 1 92 25 is_stmt 0 view .LVU18
 119 0004 054B     		ldr	r3, .L13
 120 0006 5A68     		ldr	r2, [r3, #4]
 121 0008 61F30412 		bfi	r2, r1, #4, #1
 122 000c 5A60     		str	r2, [r3, #4]
  93:libraries/drivers/src/at32f403a_407_acc.c ****   }
  94:libraries/drivers/src/at32f403a_407_acc.c **** }
 123              		.loc 1 94 1 view .LVU19
 124 000e 7047     		bx	lr
 125              	.L12:
  88:libraries/drivers/src/at32f403a_407_acc.c ****   }
 126              		.loc 1 88 5 is_stmt 1 view .LVU20
  88:libraries/drivers/src/at32f403a_407_acc.c ****   }
 127              		.loc 1 88 30 is_stmt 0 view .LVU21
 128 0010 024B     		ldr	r3, .L13
 129 0012 5A68     		ldr	r2, [r3, #4]
 130 0014 61F34512 		bfi	r2, r1, #5, #1
 131 0018 5A60     		str	r2, [r3, #4]
 132 001a 7047     		bx	lr
 133              	.L14:
 134              		.align	2
 135              	.L13:
ARM GAS  C:\Users\10963\AppData\Local\Temp\ccdKz5BY.s 			page 5


 136 001c 00580140 		.word	1073829888
 137              		.cfi_endproc
 138              	.LFE136:
 140              		.section	.text.acc_hicktrim_get,"ax",%progbits
 141              		.align	1
 142              		.global	acc_hicktrim_get
 143              		.syntax unified
 144              		.thumb
 145              		.thumb_func
 147              	acc_hicktrim_get:
 148              	.LFB137:
  95:libraries/drivers/src/at32f403a_407_acc.c **** 
  96:libraries/drivers/src/at32f403a_407_acc.c **** /**
  97:libraries/drivers/src/at32f403a_407_acc.c ****   * @brief  return the current acc hicktrim value.
  98:libraries/drivers/src/at32f403a_407_acc.c ****   * @param  none
  99:libraries/drivers/src/at32f403a_407_acc.c ****   * @retval 8-bit hicktrim value.
 100:libraries/drivers/src/at32f403a_407_acc.c ****   */
 101:libraries/drivers/src/at32f403a_407_acc.c **** uint8_t acc_hicktrim_get(void)
 102:libraries/drivers/src/at32f403a_407_acc.c **** {
 149              		.loc 1 102 1 is_stmt 1 view -0
 150              		.cfi_startproc
 151              		@ args = 0, pretend = 0, frame = 0
 152              		@ frame_needed = 0, uses_anonymous_args = 0
 153              		@ link register save eliminated.
 103:libraries/drivers/src/at32f403a_407_acc.c ****   return ((uint8_t)(ACC->ctrl2_bit.hicktrim));
 154              		.loc 1 103 3 view .LVU23
 155              		.loc 1 103 35 is_stmt 0 view .LVU24
 156 0000 024B     		ldr	r3, .L16
 157 0002 9868     		ldr	r0, [r3, #8]
 104:libraries/drivers/src/at32f403a_407_acc.c **** }
 158              		.loc 1 104 1 view .LVU25
 159 0004 C0F30520 		ubfx	r0, r0, #8, #6
 160 0008 7047     		bx	lr
 161              	.L17:
 162 000a 00BF     		.align	2
 163              	.L16:
 164 000c 00580140 		.word	1073829888
 165              		.cfi_endproc
 166              	.LFE137:
 168              		.section	.text.acc_hickcal_get,"ax",%progbits
 169              		.align	1
 170              		.global	acc_hickcal_get
 171              		.syntax unified
 172              		.thumb
 173              		.thumb_func
 175              	acc_hickcal_get:
 176              	.LFB138:
 105:libraries/drivers/src/at32f403a_407_acc.c **** 
 106:libraries/drivers/src/at32f403a_407_acc.c **** /**
 107:libraries/drivers/src/at32f403a_407_acc.c ****   * @brief  return the current acc hickcal value.
 108:libraries/drivers/src/at32f403a_407_acc.c ****   * @param  none
 109:libraries/drivers/src/at32f403a_407_acc.c ****   * @retval 8-bit hicktrim value.
 110:libraries/drivers/src/at32f403a_407_acc.c ****   */
 111:libraries/drivers/src/at32f403a_407_acc.c **** uint8_t acc_hickcal_get(void)
 112:libraries/drivers/src/at32f403a_407_acc.c **** {
 177              		.loc 1 112 1 is_stmt 1 view -0
 178              		.cfi_startproc
ARM GAS  C:\Users\10963\AppData\Local\Temp\ccdKz5BY.s 			page 6


 179              		@ args = 0, pretend = 0, frame = 0
 180              		@ frame_needed = 0, uses_anonymous_args = 0
 181              		@ link register save eliminated.
 113:libraries/drivers/src/at32f403a_407_acc.c ****   return ((uint8_t)(ACC->ctrl2_bit.hickcal));
 182              		.loc 1 113 3 view .LVU27
 183              		.loc 1 113 11 is_stmt 0 view .LVU28
 184 0000 014B     		ldr	r3, .L19
 185 0002 9868     		ldr	r0, [r3, #8]
 114:libraries/drivers/src/at32f403a_407_acc.c **** }
 186              		.loc 1 114 1 view .LVU29
 187 0004 C0B2     		uxtb	r0, r0
 188 0006 7047     		bx	lr
 189              	.L20:
 190              		.align	2
 191              	.L19:
 192 0008 00580140 		.word	1073829888
 193              		.cfi_endproc
 194              	.LFE138:
 196              		.section	.text.acc_write_c1,"ax",%progbits
 197              		.align	1
 198              		.global	acc_write_c1
 199              		.syntax unified
 200              		.thumb
 201              		.thumb_func
 203              	acc_write_c1:
 204              	.LVL3:
 205              	.LFB139:
 115:libraries/drivers/src/at32f403a_407_acc.c **** 
 116:libraries/drivers/src/at32f403a_407_acc.c **** /**
 117:libraries/drivers/src/at32f403a_407_acc.c ****   * @brief  wtire the value to  acc c1 register.
 118:libraries/drivers/src/at32f403a_407_acc.c ****   * @param  acc_c1_value
 119:libraries/drivers/src/at32f403a_407_acc.c ****   * @retval none.
 120:libraries/drivers/src/at32f403a_407_acc.c ****   */
 121:libraries/drivers/src/at32f403a_407_acc.c **** void acc_write_c1(uint16_t acc_c1_value)
 122:libraries/drivers/src/at32f403a_407_acc.c **** {
 206              		.loc 1 122 1 is_stmt 1 view -0
 207              		.cfi_startproc
 208              		@ args = 0, pretend = 0, frame = 0
 209              		@ frame_needed = 0, uses_anonymous_args = 0
 210              		@ link register save eliminated.
 123:libraries/drivers/src/at32f403a_407_acc.c ****   ACC->c1 = acc_c1_value;
 211              		.loc 1 123 3 view .LVU31
 212              		.loc 1 123 11 is_stmt 0 view .LVU32
 213 0000 014B     		ldr	r3, .L22
 214 0002 D860     		str	r0, [r3, #12]
 124:libraries/drivers/src/at32f403a_407_acc.c **** }
 215              		.loc 1 124 1 view .LVU33
 216 0004 7047     		bx	lr
 217              	.L23:
 218 0006 00BF     		.align	2
 219              	.L22:
 220 0008 00580140 		.word	1073829888
 221              		.cfi_endproc
 222              	.LFE139:
 224              		.section	.text.acc_write_c2,"ax",%progbits
 225              		.align	1
 226              		.global	acc_write_c2
ARM GAS  C:\Users\10963\AppData\Local\Temp\ccdKz5BY.s 			page 7


 227              		.syntax unified
 228              		.thumb
 229              		.thumb_func
 231              	acc_write_c2:
 232              	.LVL4:
 233              	.LFB140:
 125:libraries/drivers/src/at32f403a_407_acc.c **** 
 126:libraries/drivers/src/at32f403a_407_acc.c **** /**
 127:libraries/drivers/src/at32f403a_407_acc.c ****   * @brief  wtire the value to  acc c2 register.
 128:libraries/drivers/src/at32f403a_407_acc.c ****   * @param  acc_c2_value
 129:libraries/drivers/src/at32f403a_407_acc.c ****   * @retval none.
 130:libraries/drivers/src/at32f403a_407_acc.c ****   */
 131:libraries/drivers/src/at32f403a_407_acc.c **** void acc_write_c2(uint16_t acc_c2_value)
 132:libraries/drivers/src/at32f403a_407_acc.c **** {
 234              		.loc 1 132 1 is_stmt 1 view -0
 235              		.cfi_startproc
 236              		@ args = 0, pretend = 0, frame = 0
 237              		@ frame_needed = 0, uses_anonymous_args = 0
 238              		@ link register save eliminated.
 133:libraries/drivers/src/at32f403a_407_acc.c ****   ACC->c2 = acc_c2_value;
 239              		.loc 1 133 3 view .LVU35
 240              		.loc 1 133 11 is_stmt 0 view .LVU36
 241 0000 014B     		ldr	r3, .L25
 242 0002 1861     		str	r0, [r3, #16]
 134:libraries/drivers/src/at32f403a_407_acc.c **** }
 243              		.loc 1 134 1 view .LVU37
 244 0004 7047     		bx	lr
 245              	.L26:
 246 0006 00BF     		.align	2
 247              	.L25:
 248 0008 00580140 		.word	1073829888
 249              		.cfi_endproc
 250              	.LFE140:
 252              		.section	.text.acc_write_c3,"ax",%progbits
 253              		.align	1
 254              		.global	acc_write_c3
 255              		.syntax unified
 256              		.thumb
 257              		.thumb_func
 259              	acc_write_c3:
 260              	.LVL5:
 261              	.LFB141:
 135:libraries/drivers/src/at32f403a_407_acc.c **** 
 136:libraries/drivers/src/at32f403a_407_acc.c **** /**
 137:libraries/drivers/src/at32f403a_407_acc.c ****   * @brief  wtire the value to  acc c3 register.
 138:libraries/drivers/src/at32f403a_407_acc.c ****   * @param  acc_c3_value
 139:libraries/drivers/src/at32f403a_407_acc.c ****   * @retval none.
 140:libraries/drivers/src/at32f403a_407_acc.c ****   */
 141:libraries/drivers/src/at32f403a_407_acc.c **** void acc_write_c3(uint16_t acc_c3_value)
 142:libraries/drivers/src/at32f403a_407_acc.c **** {
 262              		.loc 1 142 1 is_stmt 1 view -0
 263              		.cfi_startproc
 264              		@ args = 0, pretend = 0, frame = 0
 265              		@ frame_needed = 0, uses_anonymous_args = 0
 266              		@ link register save eliminated.
 143:libraries/drivers/src/at32f403a_407_acc.c ****   ACC->c3 = acc_c3_value;
 267              		.loc 1 143 3 view .LVU39
ARM GAS  C:\Users\10963\AppData\Local\Temp\ccdKz5BY.s 			page 8


 268              		.loc 1 143 11 is_stmt 0 view .LVU40
 269 0000 014B     		ldr	r3, .L28
 270 0002 5861     		str	r0, [r3, #20]
 144:libraries/drivers/src/at32f403a_407_acc.c **** }
 271              		.loc 1 144 1 view .LVU41
 272 0004 7047     		bx	lr
 273              	.L29:
 274 0006 00BF     		.align	2
 275              	.L28:
 276 0008 00580140 		.word	1073829888
 277              		.cfi_endproc
 278              	.LFE141:
 280              		.section	.text.acc_read_c1,"ax",%progbits
 281              		.align	1
 282              		.global	acc_read_c1
 283              		.syntax unified
 284              		.thumb
 285              		.thumb_func
 287              	acc_read_c1:
 288              	.LFB142:
 145:libraries/drivers/src/at32f403a_407_acc.c **** 
 146:libraries/drivers/src/at32f403a_407_acc.c **** /**
 147:libraries/drivers/src/at32f403a_407_acc.c ****   * @brief  return the current acc c1 value.
 148:libraries/drivers/src/at32f403a_407_acc.c ****   * @param  none
 149:libraries/drivers/src/at32f403a_407_acc.c ****   * @retval 16-bit c1 value.
 150:libraries/drivers/src/at32f403a_407_acc.c ****   */
 151:libraries/drivers/src/at32f403a_407_acc.c **** uint16_t acc_read_c1(void)
 152:libraries/drivers/src/at32f403a_407_acc.c **** {
 289              		.loc 1 152 1 is_stmt 1 view -0
 290              		.cfi_startproc
 291              		@ args = 0, pretend = 0, frame = 0
 292              		@ frame_needed = 0, uses_anonymous_args = 0
 293              		@ link register save eliminated.
 153:libraries/drivers/src/at32f403a_407_acc.c ****   return ((uint16_t)(ACC->c1));
 294              		.loc 1 153 3 view .LVU43
 295              		.loc 1 153 25 is_stmt 0 view .LVU44
 296 0000 014B     		ldr	r3, .L31
 297 0002 D868     		ldr	r0, [r3, #12]
 154:libraries/drivers/src/at32f403a_407_acc.c **** }
 298              		.loc 1 154 1 view .LVU45
 299 0004 80B2     		uxth	r0, r0
 300 0006 7047     		bx	lr
 301              	.L32:
 302              		.align	2
 303              	.L31:
 304 0008 00580140 		.word	1073829888
 305              		.cfi_endproc
 306              	.LFE142:
 308              		.section	.text.acc_read_c2,"ax",%progbits
 309              		.align	1
 310              		.global	acc_read_c2
 311              		.syntax unified
 312              		.thumb
 313              		.thumb_func
 315              	acc_read_c2:
 316              	.LFB143:
 155:libraries/drivers/src/at32f403a_407_acc.c **** 
ARM GAS  C:\Users\10963\AppData\Local\Temp\ccdKz5BY.s 			page 9


 156:libraries/drivers/src/at32f403a_407_acc.c **** /**
 157:libraries/drivers/src/at32f403a_407_acc.c ****   * @brief  return the current acc c2 value.
 158:libraries/drivers/src/at32f403a_407_acc.c ****   * @param  none
 159:libraries/drivers/src/at32f403a_407_acc.c ****   * @retval 16-bit c2 value.
 160:libraries/drivers/src/at32f403a_407_acc.c ****   */
 161:libraries/drivers/src/at32f403a_407_acc.c **** uint16_t acc_read_c2(void)
 162:libraries/drivers/src/at32f403a_407_acc.c **** {
 317              		.loc 1 162 1 is_stmt 1 view -0
 318              		.cfi_startproc
 319              		@ args = 0, pretend = 0, frame = 0
 320              		@ frame_needed = 0, uses_anonymous_args = 0
 321              		@ link register save eliminated.
 163:libraries/drivers/src/at32f403a_407_acc.c ****   return ((uint16_t)(ACC->c2));
 322              		.loc 1 163 3 view .LVU47
 323              		.loc 1 163 25 is_stmt 0 view .LVU48
 324 0000 014B     		ldr	r3, .L34
 325 0002 1869     		ldr	r0, [r3, #16]
 164:libraries/drivers/src/at32f403a_407_acc.c **** }
 326              		.loc 1 164 1 view .LVU49
 327 0004 80B2     		uxth	r0, r0
 328 0006 7047     		bx	lr
 329              	.L35:
 330              		.align	2
 331              	.L34:
 332 0008 00580140 		.word	1073829888
 333              		.cfi_endproc
 334              	.LFE143:
 336              		.section	.text.acc_read_c3,"ax",%progbits
 337              		.align	1
 338              		.global	acc_read_c3
 339              		.syntax unified
 340              		.thumb
 341              		.thumb_func
 343              	acc_read_c3:
 344              	.LFB144:
 165:libraries/drivers/src/at32f403a_407_acc.c **** 
 166:libraries/drivers/src/at32f403a_407_acc.c **** /**
 167:libraries/drivers/src/at32f403a_407_acc.c ****   * @brief  return the current acc c3 value.
 168:libraries/drivers/src/at32f403a_407_acc.c ****   * @param  none
 169:libraries/drivers/src/at32f403a_407_acc.c ****   * @retval 16-bit c3 value.
 170:libraries/drivers/src/at32f403a_407_acc.c ****   */
 171:libraries/drivers/src/at32f403a_407_acc.c **** uint16_t acc_read_c3(void)
 172:libraries/drivers/src/at32f403a_407_acc.c **** {
 345              		.loc 1 172 1 is_stmt 1 view -0
 346              		.cfi_startproc
 347              		@ args = 0, pretend = 0, frame = 0
 348              		@ frame_needed = 0, uses_anonymous_args = 0
 349              		@ link register save eliminated.
 173:libraries/drivers/src/at32f403a_407_acc.c ****   return ((uint16_t)(ACC->c3));
 350              		.loc 1 173 3 view .LVU51
 351              		.loc 1 173 25 is_stmt 0 view .LVU52
 352 0000 014B     		ldr	r3, .L37
 353 0002 5869     		ldr	r0, [r3, #20]
 174:libraries/drivers/src/at32f403a_407_acc.c **** }
 354              		.loc 1 174 1 view .LVU53
 355 0004 80B2     		uxth	r0, r0
 356 0006 7047     		bx	lr
ARM GAS  C:\Users\10963\AppData\Local\Temp\ccdKz5BY.s 			page 10


 357              	.L38:
 358              		.align	2
 359              	.L37:
 360 0008 00580140 		.word	1073829888
 361              		.cfi_endproc
 362              	.LFE144:
 364              		.section	.text.acc_flag_get,"ax",%progbits
 365              		.align	1
 366              		.global	acc_flag_get
 367              		.syntax unified
 368              		.thumb
 369              		.thumb_func
 371              	acc_flag_get:
 372              	.LVL6:
 373              	.LFB145:
 175:libraries/drivers/src/at32f403a_407_acc.c **** 
 176:libraries/drivers/src/at32f403a_407_acc.c **** /**
 177:libraries/drivers/src/at32f403a_407_acc.c ****   * @brief  check whether the specified acc flag is set or not.
 178:libraries/drivers/src/at32f403a_407_acc.c ****   * @param  acc_flag: specifies the flag to check.
 179:libraries/drivers/src/at32f403a_407_acc.c ****   *         this parameter can be one of the following values:
 180:libraries/drivers/src/at32f403a_407_acc.c ****   *         - ACC_RSLOST_FLAG
 181:libraries/drivers/src/at32f403a_407_acc.c ****   *         - ACC_CALRDY_FLAG
 182:libraries/drivers/src/at32f403a_407_acc.c ****   * @retval  flag_status (SET or RESET)
 183:libraries/drivers/src/at32f403a_407_acc.c ****   */
 184:libraries/drivers/src/at32f403a_407_acc.c **** flag_status acc_flag_get(uint16_t acc_flag)
 185:libraries/drivers/src/at32f403a_407_acc.c **** {
 374              		.loc 1 185 1 is_stmt 1 view -0
 375              		.cfi_startproc
 376              		@ args = 0, pretend = 0, frame = 0
 377              		@ frame_needed = 0, uses_anonymous_args = 0
 378              		@ link register save eliminated.
 186:libraries/drivers/src/at32f403a_407_acc.c ****   if(acc_flag == ACC_CALRDY_FLAG)
 379              		.loc 1 186 3 view .LVU55
 380              		.loc 1 186 5 is_stmt 0 view .LVU56
 381 0000 0128     		cmp	r0, #1
 382 0002 04D0     		beq	.L42
 187:libraries/drivers/src/at32f403a_407_acc.c ****     return (flag_status)(ACC->sts_bit.calrdy);
 188:libraries/drivers/src/at32f403a_407_acc.c ****   else
 189:libraries/drivers/src/at32f403a_407_acc.c ****     return (flag_status)(ACC->sts_bit.rslost);
 383              		.loc 1 189 5 is_stmt 1 view .LVU57
 384              		.loc 1 189 38 is_stmt 0 view .LVU58
 385 0004 044B     		ldr	r3, .L43
 386 0006 1868     		ldr	r0, [r3]
 387              	.LVL7:
 388              		.loc 1 189 38 view .LVU59
 389 0008 C0F34000 		ubfx	r0, r0, #1, #1
 190:libraries/drivers/src/at32f403a_407_acc.c **** }
 390              		.loc 1 190 1 view .LVU60
 391 000c 7047     		bx	lr
 392              	.LVL8:
 393              	.L42:
 187:libraries/drivers/src/at32f403a_407_acc.c ****     return (flag_status)(ACC->sts_bit.calrdy);
 394              		.loc 1 187 5 is_stmt 1 view .LVU61
 187:libraries/drivers/src/at32f403a_407_acc.c ****     return (flag_status)(ACC->sts_bit.calrdy);
 395              		.loc 1 187 38 is_stmt 0 view .LVU62
 396 000e 024B     		ldr	r3, .L43
 397 0010 1868     		ldr	r0, [r3]
ARM GAS  C:\Users\10963\AppData\Local\Temp\ccdKz5BY.s 			page 11


 398              	.LVL9:
 187:libraries/drivers/src/at32f403a_407_acc.c ****     return (flag_status)(ACC->sts_bit.calrdy);
 399              		.loc 1 187 38 view .LVU63
 400 0012 00F00100 		and	r0, r0, #1
 187:libraries/drivers/src/at32f403a_407_acc.c ****     return (flag_status)(ACC->sts_bit.calrdy);
 401              		.loc 1 187 12 view .LVU64
 402 0016 7047     		bx	lr
 403              	.L44:
 404              		.align	2
 405              	.L43:
 406 0018 00580140 		.word	1073829888
 407              		.cfi_endproc
 408              	.LFE145:
 410              		.section	.text.acc_interrupt_flag_get,"ax",%progbits
 411              		.align	1
 412              		.global	acc_interrupt_flag_get
 413              		.syntax unified
 414              		.thumb
 415              		.thumb_func
 417              	acc_interrupt_flag_get:
 418              	.LVL10:
 419              	.LFB146:
 191:libraries/drivers/src/at32f403a_407_acc.c **** 
 192:libraries/drivers/src/at32f403a_407_acc.c **** /**
 193:libraries/drivers/src/at32f403a_407_acc.c ****   * @brief  check whether the specified acc interrupt flag is set or not.
 194:libraries/drivers/src/at32f403a_407_acc.c ****   * @param  acc_flag: specifies the flag to check.
 195:libraries/drivers/src/at32f403a_407_acc.c ****   *         this parameter can be one of the following values:
 196:libraries/drivers/src/at32f403a_407_acc.c ****   *         - ACC_RSLOST_FLAG
 197:libraries/drivers/src/at32f403a_407_acc.c ****   *         - ACC_CALRDY_FLAG
 198:libraries/drivers/src/at32f403a_407_acc.c ****   * @retval  flag_status (SET or RESET)
 199:libraries/drivers/src/at32f403a_407_acc.c ****   */
 200:libraries/drivers/src/at32f403a_407_acc.c **** flag_status acc_interrupt_flag_get(uint16_t acc_flag)
 201:libraries/drivers/src/at32f403a_407_acc.c **** {
 420              		.loc 1 201 1 is_stmt 1 view -0
 421              		.cfi_startproc
 422              		@ args = 0, pretend = 0, frame = 0
 423              		@ frame_needed = 0, uses_anonymous_args = 0
 424              		@ link register save eliminated.
 202:libraries/drivers/src/at32f403a_407_acc.c ****   if(acc_flag == ACC_CALRDY_FLAG)
 425              		.loc 1 202 3 view .LVU66
 426              		.loc 1 202 5 is_stmt 0 view .LVU67
 427 0000 0128     		cmp	r0, #1
 428 0002 0BD0     		beq	.L54
 203:libraries/drivers/src/at32f403a_407_acc.c ****     return (flag_status)(ACC->sts_bit.calrdy && ACC->ctrl1_bit.calrdyien);
 204:libraries/drivers/src/at32f403a_407_acc.c ****   else
 205:libraries/drivers/src/at32f403a_407_acc.c ****     return (flag_status)(ACC->sts_bit.rslost && ACC->ctrl1_bit.eien);
 429              		.loc 1 205 5 is_stmt 1 view .LVU68
 430              		.loc 1 205 38 is_stmt 0 view .LVU69
 431 0004 104B     		ldr	r3, .L55
 432 0006 1B68     		ldr	r3, [r3]
 433              		.loc 1 205 46 view .LVU70
 434 0008 13F0020F 		tst	r3, #2
 435 000c 17D0     		beq	.L52
 436              		.loc 1 205 63 discriminator 1 view .LVU71
 437 000e 0E4B     		ldr	r3, .L55
 438 0010 5B68     		ldr	r3, [r3, #4]
 439              		.loc 1 205 46 discriminator 1 view .LVU72
ARM GAS  C:\Users\10963\AppData\Local\Temp\ccdKz5BY.s 			page 12


 440 0012 13F0100F 		tst	r3, #16
 441 0016 15D1     		bne	.L53
 442              		.loc 1 205 46 discriminator 4 view .LVU73
 443 0018 0020     		movs	r0, #0
 444              	.LVL11:
 445              		.loc 1 205 46 discriminator 4 view .LVU74
 446 001a 11E0     		b	.L49
 447              	.LVL12:
 448              	.L54:
 203:libraries/drivers/src/at32f403a_407_acc.c ****     return (flag_status)(ACC->sts_bit.calrdy && ACC->ctrl1_bit.calrdyien);
 449              		.loc 1 203 5 is_stmt 1 view .LVU75
 203:libraries/drivers/src/at32f403a_407_acc.c ****     return (flag_status)(ACC->sts_bit.calrdy && ACC->ctrl1_bit.calrdyien);
 450              		.loc 1 203 38 is_stmt 0 view .LVU76
 451 001c 0A4B     		ldr	r3, .L55
 452 001e 1B68     		ldr	r3, [r3]
 203:libraries/drivers/src/at32f403a_407_acc.c ****     return (flag_status)(ACC->sts_bit.calrdy && ACC->ctrl1_bit.calrdyien);
 453              		.loc 1 203 46 view .LVU77
 454 0020 13F0010F 		tst	r3, #1
 455 0024 06D0     		beq	.L50
 203:libraries/drivers/src/at32f403a_407_acc.c ****     return (flag_status)(ACC->sts_bit.calrdy && ACC->ctrl1_bit.calrdyien);
 456              		.loc 1 203 63 discriminator 1 view .LVU78
 457 0026 084B     		ldr	r3, .L55
 458 0028 5B68     		ldr	r3, [r3, #4]
 203:libraries/drivers/src/at32f403a_407_acc.c ****     return (flag_status)(ACC->sts_bit.calrdy && ACC->ctrl1_bit.calrdyien);
 459              		.loc 1 203 46 discriminator 1 view .LVU79
 460 002a 13F0200F 		tst	r3, #32
 461 002e 04D1     		bne	.L51
 203:libraries/drivers/src/at32f403a_407_acc.c ****     return (flag_status)(ACC->sts_bit.calrdy && ACC->ctrl1_bit.calrdyien);
 462              		.loc 1 203 46 discriminator 4 view .LVU80
 463 0030 0020     		movs	r0, #0
 464              	.LVL13:
 203:libraries/drivers/src/at32f403a_407_acc.c ****     return (flag_status)(ACC->sts_bit.calrdy && ACC->ctrl1_bit.calrdyien);
 465              		.loc 1 203 46 discriminator 4 view .LVU81
 466 0032 00E0     		b	.L47
 467              	.LVL14:
 468              	.L50:
 203:libraries/drivers/src/at32f403a_407_acc.c ****     return (flag_status)(ACC->sts_bit.calrdy && ACC->ctrl1_bit.calrdyien);
 469              		.loc 1 203 46 discriminator 4 view .LVU82
 470 0034 0020     		movs	r0, #0
 471              	.LVL15:
 472              	.L47:
 203:libraries/drivers/src/at32f403a_407_acc.c ****     return (flag_status)(ACC->sts_bit.calrdy && ACC->ctrl1_bit.calrdyien);
 473              		.loc 1 203 12 discriminator 6 view .LVU83
 474 0036 C0B2     		uxtb	r0, r0
 203:libraries/drivers/src/at32f403a_407_acc.c ****     return (flag_status)(ACC->sts_bit.calrdy && ACC->ctrl1_bit.calrdyien);
 475              		.loc 1 203 12 view .LVU84
 476 0038 7047     		bx	lr
 477              	.LVL16:
 478              	.L51:
 203:libraries/drivers/src/at32f403a_407_acc.c ****     return (flag_status)(ACC->sts_bit.calrdy && ACC->ctrl1_bit.calrdyien);
 479              		.loc 1 203 46 discriminator 3 view .LVU85
 480 003a 0120     		movs	r0, #1
 481              	.LVL17:
 203:libraries/drivers/src/at32f403a_407_acc.c ****     return (flag_status)(ACC->sts_bit.calrdy && ACC->ctrl1_bit.calrdyien);
 482              		.loc 1 203 46 discriminator 3 view .LVU86
 483 003c FBE7     		b	.L47
 484              	.LVL18:
ARM GAS  C:\Users\10963\AppData\Local\Temp\ccdKz5BY.s 			page 13


 485              	.L52:
 486              		.loc 1 205 46 discriminator 4 view .LVU87
 487 003e 0020     		movs	r0, #0
 488              	.LVL19:
 489              	.L49:
 490              		.loc 1 205 12 discriminator 6 view .LVU88
 491 0040 C0B2     		uxtb	r0, r0
 206:libraries/drivers/src/at32f403a_407_acc.c **** }
 492              		.loc 1 206 1 view .LVU89
 493 0042 7047     		bx	lr
 494              	.LVL20:
 495              	.L53:
 205:libraries/drivers/src/at32f403a_407_acc.c **** }
 496              		.loc 1 205 46 discriminator 3 view .LVU90
 497 0044 0120     		movs	r0, #1
 498              	.LVL21:
 205:libraries/drivers/src/at32f403a_407_acc.c **** }
 499              		.loc 1 205 46 discriminator 3 view .LVU91
 500 0046 FBE7     		b	.L49
 501              	.L56:
 502              		.align	2
 503              	.L55:
 504 0048 00580140 		.word	1073829888
 505              		.cfi_endproc
 506              	.LFE146:
 508              		.section	.text.acc_flag_clear,"ax",%progbits
 509              		.align	1
 510              		.global	acc_flag_clear
 511              		.syntax unified
 512              		.thumb
 513              		.thumb_func
 515              	acc_flag_clear:
 516              	.LVL22:
 517              	.LFB147:
 207:libraries/drivers/src/at32f403a_407_acc.c **** 
 208:libraries/drivers/src/at32f403a_407_acc.c **** /**
 209:libraries/drivers/src/at32f403a_407_acc.c ****   * @brief  clear the specified acc flag is set or not.
 210:libraries/drivers/src/at32f403a_407_acc.c ****   * @param  acc_flag: specifies the flag to check.
 211:libraries/drivers/src/at32f403a_407_acc.c ****   *         this parameter can be any combination of the following values:
 212:libraries/drivers/src/at32f403a_407_acc.c ****   *         - ACC_RSLOST_FLAG
 213:libraries/drivers/src/at32f403a_407_acc.c ****   *         - ACC_CALRDY_FLAG
 214:libraries/drivers/src/at32f403a_407_acc.c ****   * @retval  none
 215:libraries/drivers/src/at32f403a_407_acc.c ****   */
 216:libraries/drivers/src/at32f403a_407_acc.c **** void acc_flag_clear(uint16_t acc_flag)
 217:libraries/drivers/src/at32f403a_407_acc.c **** {
 518              		.loc 1 217 1 is_stmt 1 view -0
 519              		.cfi_startproc
 520              		@ args = 0, pretend = 0, frame = 0
 521              		@ frame_needed = 0, uses_anonymous_args = 0
 522              		@ link register save eliminated.
 218:libraries/drivers/src/at32f403a_407_acc.c ****   ACC->sts = ~acc_flag;
 523              		.loc 1 218 3 view .LVU93
 524              		.loc 1 218 14 is_stmt 0 view .LVU94
 525 0000 C043     		mvns	r0, r0
 526              	.LVL23:
 527              		.loc 1 218 12 view .LVU95
 528 0002 014B     		ldr	r3, .L58
ARM GAS  C:\Users\10963\AppData\Local\Temp\ccdKz5BY.s 			page 14


 529 0004 1860     		str	r0, [r3]
 219:libraries/drivers/src/at32f403a_407_acc.c **** }
 530              		.loc 1 219 1 view .LVU96
 531 0006 7047     		bx	lr
 532              	.L59:
 533              		.align	2
 534              	.L58:
 535 0008 00580140 		.word	1073829888
 536              		.cfi_endproc
 537              	.LFE147:
 539              		.text
 540              	.Letext0:
 541              		.file 2 "C:/Program Files (x86)/Arm/GNU Toolchain mingw-w64-i686-arm-none-eabi/arm-none-eabi/inclu
 542              		.file 3 "C:/Program Files (x86)/Arm/GNU Toolchain mingw-w64-i686-arm-none-eabi/arm-none-eabi/inclu
 543              		.file 4 "libraries/cmsis/cm4/device_support/at32f403a_407.h"
 544              		.file 5 "libraries/drivers/inc/at32f403a_407_acc.h"
ARM GAS  C:\Users\10963\AppData\Local\Temp\ccdKz5BY.s 			page 15

