ARM GAS  C:\Users\10963\AppData\Local\Temp\ccYX4PGk.s 			page 1


   1              		.cpu cortex-m4
   2              		.arch armv7e-m
   3              		.fpu fpv4-sp-d16
   4              		.eabi_attribute 27, 1
   5              		.eabi_attribute 28, 1
   6              		.eabi_attribute 20, 1
   7              		.eabi_attribute 21, 1
   8              		.eabi_attribute 23, 3
   9              		.eabi_attribute 24, 1
  10              		.eabi_attribute 25, 1
  11              		.eabi_attribute 26, 1
  12              		.eabi_attribute 30, 1
  13              		.eabi_attribute 34, 1
  14              		.eabi_attribute 18, 4
  15              		.file	"at32f403a_407_wwdt.c"
  16              		.text
  17              	.Ltext0:
  18              		.cfi_sections	.debug_frame
  19              		.file 1 "libraries/drivers/src/at32f403a_407_wwdt.c"
  20              		.section	.text.wwdt_reset,"ax",%progbits
  21              		.align	1
  22              		.global	wwdt_reset
  23              		.syntax unified
  24              		.thumb
  25              		.thumb_func
  27              	wwdt_reset:
  28              	.LFB134:
   1:libraries/drivers/src/at32f403a_407_wwdt.c **** /**
   2:libraries/drivers/src/at32f403a_407_wwdt.c ****   **************************************************************************
   3:libraries/drivers/src/at32f403a_407_wwdt.c ****   * @file     at32f403a_407_wwdt.c
   4:libraries/drivers/src/at32f403a_407_wwdt.c ****   * @brief    contains all the functions for the wwdt firmware library
   5:libraries/drivers/src/at32f403a_407_wwdt.c ****   **************************************************************************
   6:libraries/drivers/src/at32f403a_407_wwdt.c ****   *
   7:libraries/drivers/src/at32f403a_407_wwdt.c ****   * Copyright (c) 2025, Artery Technology, All rights reserved.
   8:libraries/drivers/src/at32f403a_407_wwdt.c ****   *
   9:libraries/drivers/src/at32f403a_407_wwdt.c ****   * The software Board Support Package (BSP) that is made available to
  10:libraries/drivers/src/at32f403a_407_wwdt.c ****   * download from Artery official website is the copyrighted work of Artery.
  11:libraries/drivers/src/at32f403a_407_wwdt.c ****   * Artery authorizes customers to use, copy, and distribute the BSP
  12:libraries/drivers/src/at32f403a_407_wwdt.c ****   * software and its related documentation for the purpose of design and
  13:libraries/drivers/src/at32f403a_407_wwdt.c ****   * development in conjunction with Artery microcontrollers. Use of the
  14:libraries/drivers/src/at32f403a_407_wwdt.c ****   * software is governed by this copyright notice and the following disclaimer.
  15:libraries/drivers/src/at32f403a_407_wwdt.c ****   *
  16:libraries/drivers/src/at32f403a_407_wwdt.c ****   * THIS SOFTWARE IS PROVIDED ON "AS IS" BASIS WITHOUT WARRANTIES,
  17:libraries/drivers/src/at32f403a_407_wwdt.c ****   * GUARANTEES OR REPRESENTATIONS OF ANY KIND. ARTERY EXPRESSLY DISCLAIMS,
  18:libraries/drivers/src/at32f403a_407_wwdt.c ****   * TO THE FULLEST EXTENT PERMITTED BY LAW, ALL EXPRESS, IMPLIED OR
  19:libraries/drivers/src/at32f403a_407_wwdt.c ****   * STATUTORY OR OTHER WARRANTIES, GUARANTEES OR REPRESENTATIONS,
  20:libraries/drivers/src/at32f403a_407_wwdt.c ****   * INCLUDING BUT NOT LIMITED TO, THE IMPLIED WARRANTIES OF MERCHANTABILITY,
  21:libraries/drivers/src/at32f403a_407_wwdt.c ****   * FITNESS FOR A PARTICULAR PURPOSE, OR NON-INFRINGEMENT.
  22:libraries/drivers/src/at32f403a_407_wwdt.c ****   *
  23:libraries/drivers/src/at32f403a_407_wwdt.c ****   **************************************************************************
  24:libraries/drivers/src/at32f403a_407_wwdt.c ****   */
  25:libraries/drivers/src/at32f403a_407_wwdt.c **** 
  26:libraries/drivers/src/at32f403a_407_wwdt.c **** #include "at32f403a_407_conf.h"
  27:libraries/drivers/src/at32f403a_407_wwdt.c **** 
  28:libraries/drivers/src/at32f403a_407_wwdt.c **** /** @addtogroup AT32F403A_407_periph_driver
  29:libraries/drivers/src/at32f403a_407_wwdt.c ****   * @{
  30:libraries/drivers/src/at32f403a_407_wwdt.c ****   */
ARM GAS  C:\Users\10963\AppData\Local\Temp\ccYX4PGk.s 			page 2


  31:libraries/drivers/src/at32f403a_407_wwdt.c **** 
  32:libraries/drivers/src/at32f403a_407_wwdt.c **** /** @defgroup WWDT
  33:libraries/drivers/src/at32f403a_407_wwdt.c ****   * @brief WWDT driver modules
  34:libraries/drivers/src/at32f403a_407_wwdt.c ****   * @{
  35:libraries/drivers/src/at32f403a_407_wwdt.c ****   */
  36:libraries/drivers/src/at32f403a_407_wwdt.c **** 
  37:libraries/drivers/src/at32f403a_407_wwdt.c **** #ifdef WWDT_MODULE_ENABLED
  38:libraries/drivers/src/at32f403a_407_wwdt.c **** 
  39:libraries/drivers/src/at32f403a_407_wwdt.c **** /** @defgroup WWDT_private_functions
  40:libraries/drivers/src/at32f403a_407_wwdt.c ****   * @{
  41:libraries/drivers/src/at32f403a_407_wwdt.c ****   */
  42:libraries/drivers/src/at32f403a_407_wwdt.c **** 
  43:libraries/drivers/src/at32f403a_407_wwdt.c **** /**
  44:libraries/drivers/src/at32f403a_407_wwdt.c ****   * @brief  wwdt reset by crm reset register
  45:libraries/drivers/src/at32f403a_407_wwdt.c ****   * @retval none
  46:libraries/drivers/src/at32f403a_407_wwdt.c ****   */
  47:libraries/drivers/src/at32f403a_407_wwdt.c **** void wwdt_reset(void)
  48:libraries/drivers/src/at32f403a_407_wwdt.c **** {
  29              		.loc 1 48 1 view -0
  30              		.cfi_startproc
  31              		@ args = 0, pretend = 0, frame = 0
  32              		@ frame_needed = 0, uses_anonymous_args = 0
  33 0000 10B5     		push	{r4, lr}
  34              	.LCFI0:
  35              		.cfi_def_cfa_offset 8
  36              		.cfi_offset 4, -8
  37              		.cfi_offset 14, -4
  49:libraries/drivers/src/at32f403a_407_wwdt.c ****   crm_periph_reset(CRM_WWDT_PERIPH_RESET, TRUE);
  38              		.loc 1 49 3 view .LVU1
  39 0002 054C     		ldr	r4, .L3
  40 0004 0121     		movs	r1, #1
  41 0006 2046     		mov	r0, r4
  42 0008 FFF7FEFF 		bl	crm_periph_reset
  43              	.LVL0:
  50:libraries/drivers/src/at32f403a_407_wwdt.c ****   crm_periph_reset(CRM_WWDT_PERIPH_RESET, FALSE);
  44              		.loc 1 50 3 view .LVU2
  45 000c 0021     		movs	r1, #0
  46 000e 2046     		mov	r0, r4
  47 0010 FFF7FEFF 		bl	crm_periph_reset
  48              	.LVL1:
  51:libraries/drivers/src/at32f403a_407_wwdt.c **** }
  49              		.loc 1 51 1 is_stmt 0 view .LVU3
  50 0014 10BD     		pop	{r4, pc}
  51              	.L4:
  52 0016 00BF     		.align	2
  53              	.L3:
  54 0018 0B001000 		.word	1048587
  55              		.cfi_endproc
  56              	.LFE134:
  58              		.section	.text.wwdt_divider_set,"ax",%progbits
  59              		.align	1
  60              		.global	wwdt_divider_set
  61              		.syntax unified
  62              		.thumb
  63              		.thumb_func
  65              	wwdt_divider_set:
  66              	.LVL2:
ARM GAS  C:\Users\10963\AppData\Local\Temp\ccYX4PGk.s 			page 3


  67              	.LFB135:
  52:libraries/drivers/src/at32f403a_407_wwdt.c **** 
  53:libraries/drivers/src/at32f403a_407_wwdt.c **** /**
  54:libraries/drivers/src/at32f403a_407_wwdt.c ****   * @brief  wwdt division set
  55:libraries/drivers/src/at32f403a_407_wwdt.c ****   * @param  division
  56:libraries/drivers/src/at32f403a_407_wwdt.c ****   *         this parameter can be one of the following values:
  57:libraries/drivers/src/at32f403a_407_wwdt.c ****   *         - WWDT_PCLK1_DIV_4096        (wwdt counter clock = (pclk1/4096)/1)
  58:libraries/drivers/src/at32f403a_407_wwdt.c ****   *         - WWDT_PCLK1_DIV_8192        (wwdt counter clock = (pclk1/4096)/2)
  59:libraries/drivers/src/at32f403a_407_wwdt.c ****   *         - WWDT_PCLK1_DIV_16384       (wwdt counter clock = (pclk1/4096)/4)
  60:libraries/drivers/src/at32f403a_407_wwdt.c ****   *         - WWDT_PCLK1_DIV_32768       (wwdt counter clock = (pclk1/4096)/8)
  61:libraries/drivers/src/at32f403a_407_wwdt.c ****   * @retval none
  62:libraries/drivers/src/at32f403a_407_wwdt.c ****   */
  63:libraries/drivers/src/at32f403a_407_wwdt.c **** void wwdt_divider_set(wwdt_division_type division)
  64:libraries/drivers/src/at32f403a_407_wwdt.c **** {
  68              		.loc 1 64 1 is_stmt 1 view -0
  69              		.cfi_startproc
  70              		@ args = 0, pretend = 0, frame = 0
  71              		@ frame_needed = 0, uses_anonymous_args = 0
  72              		@ link register save eliminated.
  65:libraries/drivers/src/at32f403a_407_wwdt.c ****   WWDT->cfg_bit.div = division;
  73              		.loc 1 65 3 view .LVU5
  74              		.loc 1 65 21 is_stmt 0 view .LVU6
  75 0000 024B     		ldr	r3, .L6
  76 0002 5A68     		ldr	r2, [r3, #4]
  77 0004 60F3C812 		bfi	r2, r0, #7, #2
  78 0008 5A60     		str	r2, [r3, #4]
  66:libraries/drivers/src/at32f403a_407_wwdt.c **** }
  79              		.loc 1 66 1 view .LVU7
  80 000a 7047     		bx	lr
  81              	.L7:
  82              		.align	2
  83              	.L6:
  84 000c 002C0040 		.word	1073753088
  85              		.cfi_endproc
  86              	.LFE135:
  88              		.section	.text.wwdt_flag_clear,"ax",%progbits
  89              		.align	1
  90              		.global	wwdt_flag_clear
  91              		.syntax unified
  92              		.thumb
  93              		.thumb_func
  95              	wwdt_flag_clear:
  96              	.LFB136:
  67:libraries/drivers/src/at32f403a_407_wwdt.c **** 
  68:libraries/drivers/src/at32f403a_407_wwdt.c **** /**
  69:libraries/drivers/src/at32f403a_407_wwdt.c ****   * @brief  wwdt reload counter interrupt flag clear
  70:libraries/drivers/src/at32f403a_407_wwdt.c ****   * @param  none
  71:libraries/drivers/src/at32f403a_407_wwdt.c ****   * @retval none
  72:libraries/drivers/src/at32f403a_407_wwdt.c ****   */
  73:libraries/drivers/src/at32f403a_407_wwdt.c **** void wwdt_flag_clear(void)
  74:libraries/drivers/src/at32f403a_407_wwdt.c **** {
  97              		.loc 1 74 1 is_stmt 1 view -0
  98              		.cfi_startproc
  99              		@ args = 0, pretend = 0, frame = 0
 100              		@ frame_needed = 0, uses_anonymous_args = 0
 101              		@ link register save eliminated.
  75:libraries/drivers/src/at32f403a_407_wwdt.c ****   WWDT->sts = 0;
ARM GAS  C:\Users\10963\AppData\Local\Temp\ccYX4PGk.s 			page 4


 102              		.loc 1 75 3 view .LVU9
 103              		.loc 1 75 13 is_stmt 0 view .LVU10
 104 0000 014B     		ldr	r3, .L9
 105 0002 0022     		movs	r2, #0
 106 0004 9A60     		str	r2, [r3, #8]
  76:libraries/drivers/src/at32f403a_407_wwdt.c **** }
 107              		.loc 1 76 1 view .LVU11
 108 0006 7047     		bx	lr
 109              	.L10:
 110              		.align	2
 111              	.L9:
 112 0008 002C0040 		.word	1073753088
 113              		.cfi_endproc
 114              	.LFE136:
 116              		.section	.text.wwdt_enable,"ax",%progbits
 117              		.align	1
 118              		.global	wwdt_enable
 119              		.syntax unified
 120              		.thumb
 121              		.thumb_func
 123              	wwdt_enable:
 124              	.LVL3:
 125              	.LFB137:
  77:libraries/drivers/src/at32f403a_407_wwdt.c **** 
  78:libraries/drivers/src/at32f403a_407_wwdt.c **** /**
  79:libraries/drivers/src/at32f403a_407_wwdt.c ****   * @brief  wwdt enable and the counter value load
  80:libraries/drivers/src/at32f403a_407_wwdt.c ****   * @param  wwdt_cnt (0x40~0x7f)
  81:libraries/drivers/src/at32f403a_407_wwdt.c ****   * @retval none
  82:libraries/drivers/src/at32f403a_407_wwdt.c ****   */
  83:libraries/drivers/src/at32f403a_407_wwdt.c **** void wwdt_enable(uint8_t wwdt_cnt)
  84:libraries/drivers/src/at32f403a_407_wwdt.c **** {
 126              		.loc 1 84 1 is_stmt 1 view -0
 127              		.cfi_startproc
 128              		@ args = 0, pretend = 0, frame = 0
 129              		@ frame_needed = 0, uses_anonymous_args = 0
 130              		@ link register save eliminated.
  85:libraries/drivers/src/at32f403a_407_wwdt.c ****   WWDT->ctrl = wwdt_cnt | WWDT_EN_BIT;
 131              		.loc 1 85 3 view .LVU13
 132              		.loc 1 85 25 is_stmt 0 view .LVU14
 133 0000 40F08000 		orr	r0, r0, #128
 134              	.LVL4:
 135              		.loc 1 85 14 view .LVU15
 136 0004 014B     		ldr	r3, .L12
 137 0006 1860     		str	r0, [r3]
  86:libraries/drivers/src/at32f403a_407_wwdt.c **** }
 138              		.loc 1 86 1 view .LVU16
 139 0008 7047     		bx	lr
 140              	.L13:
 141 000a 00BF     		.align	2
 142              	.L12:
 143 000c 002C0040 		.word	1073753088
 144              		.cfi_endproc
 145              	.LFE137:
 147              		.section	.text.wwdt_interrupt_enable,"ax",%progbits
 148              		.align	1
 149              		.global	wwdt_interrupt_enable
 150              		.syntax unified
ARM GAS  C:\Users\10963\AppData\Local\Temp\ccYX4PGk.s 			page 5


 151              		.thumb
 152              		.thumb_func
 154              	wwdt_interrupt_enable:
 155              	.LFB138:
  87:libraries/drivers/src/at32f403a_407_wwdt.c **** 
  88:libraries/drivers/src/at32f403a_407_wwdt.c **** /**
  89:libraries/drivers/src/at32f403a_407_wwdt.c ****   * @brief  wwdt reload counter interrupt enable
  90:libraries/drivers/src/at32f403a_407_wwdt.c ****   * @param  none
  91:libraries/drivers/src/at32f403a_407_wwdt.c ****   * @retval none
  92:libraries/drivers/src/at32f403a_407_wwdt.c ****   */
  93:libraries/drivers/src/at32f403a_407_wwdt.c **** void wwdt_interrupt_enable(void)
  94:libraries/drivers/src/at32f403a_407_wwdt.c **** {
 156              		.loc 1 94 1 is_stmt 1 view -0
 157              		.cfi_startproc
 158              		@ args = 0, pretend = 0, frame = 0
 159              		@ frame_needed = 0, uses_anonymous_args = 0
 160              		@ link register save eliminated.
  95:libraries/drivers/src/at32f403a_407_wwdt.c ****   WWDT->cfg_bit.rldien = TRUE;
 161              		.loc 1 95 3 view .LVU18
 162              		.loc 1 95 24 is_stmt 0 view .LVU19
 163 0000 024A     		ldr	r2, .L15
 164 0002 5368     		ldr	r3, [r2, #4]
 165 0004 43F40073 		orr	r3, r3, #512
 166 0008 5360     		str	r3, [r2, #4]
  96:libraries/drivers/src/at32f403a_407_wwdt.c **** }
 167              		.loc 1 96 1 view .LVU20
 168 000a 7047     		bx	lr
 169              	.L16:
 170              		.align	2
 171              	.L15:
 172 000c 002C0040 		.word	1073753088
 173              		.cfi_endproc
 174              	.LFE138:
 176              		.section	.text.wwdt_flag_get,"ax",%progbits
 177              		.align	1
 178              		.global	wwdt_flag_get
 179              		.syntax unified
 180              		.thumb
 181              		.thumb_func
 183              	wwdt_flag_get:
 184              	.LFB139:
  97:libraries/drivers/src/at32f403a_407_wwdt.c **** 
  98:libraries/drivers/src/at32f403a_407_wwdt.c **** /**
  99:libraries/drivers/src/at32f403a_407_wwdt.c ****   * @brief  wwdt reload counter interrupt flag get
 100:libraries/drivers/src/at32f403a_407_wwdt.c ****   * @param  none
 101:libraries/drivers/src/at32f403a_407_wwdt.c ****   * @retval state of reload counter interrupt flag
 102:libraries/drivers/src/at32f403a_407_wwdt.c ****   */
 103:libraries/drivers/src/at32f403a_407_wwdt.c **** flag_status wwdt_flag_get(void)
 104:libraries/drivers/src/at32f403a_407_wwdt.c **** {
 185              		.loc 1 104 1 is_stmt 1 view -0
 186              		.cfi_startproc
 187              		@ args = 0, pretend = 0, frame = 0
 188              		@ frame_needed = 0, uses_anonymous_args = 0
 189              		@ link register save eliminated.
 105:libraries/drivers/src/at32f403a_407_wwdt.c ****   return (flag_status)WWDT->sts_bit.rldf;
 190              		.loc 1 105 3 view .LVU22
 191              		.loc 1 105 36 is_stmt 0 view .LVU23
ARM GAS  C:\Users\10963\AppData\Local\Temp\ccYX4PGk.s 			page 6


 192 0000 024B     		ldr	r3, .L18
 193 0002 9868     		ldr	r0, [r3, #8]
 106:libraries/drivers/src/at32f403a_407_wwdt.c **** }
 194              		.loc 1 106 1 view .LVU24
 195 0004 00F00100 		and	r0, r0, #1
 196 0008 7047     		bx	lr
 197              	.L19:
 198 000a 00BF     		.align	2
 199              	.L18:
 200 000c 002C0040 		.word	1073753088
 201              		.cfi_endproc
 202              	.LFE139:
 204              		.section	.text.wwdt_interrupt_flag_get,"ax",%progbits
 205              		.align	1
 206              		.global	wwdt_interrupt_flag_get
 207              		.syntax unified
 208              		.thumb
 209              		.thumb_func
 211              	wwdt_interrupt_flag_get:
 212              	.LFB140:
 107:libraries/drivers/src/at32f403a_407_wwdt.c **** 
 108:libraries/drivers/src/at32f403a_407_wwdt.c **** /**
 109:libraries/drivers/src/at32f403a_407_wwdt.c ****   * @brief  wwdt reload counter interrupt flag get
 110:libraries/drivers/src/at32f403a_407_wwdt.c ****   * @param  none
 111:libraries/drivers/src/at32f403a_407_wwdt.c ****   * @retval state of reload counter interrupt flag
 112:libraries/drivers/src/at32f403a_407_wwdt.c ****   */
 113:libraries/drivers/src/at32f403a_407_wwdt.c **** flag_status wwdt_interrupt_flag_get(void)
 114:libraries/drivers/src/at32f403a_407_wwdt.c **** {
 213              		.loc 1 114 1 is_stmt 1 view -0
 214              		.cfi_startproc
 215              		@ args = 0, pretend = 0, frame = 0
 216              		@ frame_needed = 0, uses_anonymous_args = 0
 217              		@ link register save eliminated.
 115:libraries/drivers/src/at32f403a_407_wwdt.c ****   return (flag_status)(WWDT->sts_bit.rldf && WWDT->cfg_bit.rldien);
 218              		.loc 1 115 3 view .LVU26
 219              		.loc 1 115 37 is_stmt 0 view .LVU27
 220 0000 074B     		ldr	r3, .L24
 221 0002 9B68     		ldr	r3, [r3, #8]
 222              		.loc 1 115 43 view .LVU28
 223 0004 13F0010F 		tst	r3, #1
 224 0008 06D0     		beq	.L22
 225              		.loc 1 115 59 discriminator 1 view .LVU29
 226 000a 054B     		ldr	r3, .L24
 227 000c 5B68     		ldr	r3, [r3, #4]
 228              		.loc 1 115 43 discriminator 1 view .LVU30
 229 000e 13F4007F 		tst	r3, #512
 230 0012 03D1     		bne	.L23
 231              		.loc 1 115 43 discriminator 4 view .LVU31
 232 0014 0020     		movs	r0, #0
 233 0016 7047     		bx	lr
 234              	.L22:
 235 0018 0020     		movs	r0, #0
 236 001a 7047     		bx	lr
 237              	.L23:
 238              		.loc 1 115 43 discriminator 3 view .LVU32
 239 001c 0120     		movs	r0, #1
 116:libraries/drivers/src/at32f403a_407_wwdt.c **** }
ARM GAS  C:\Users\10963\AppData\Local\Temp\ccYX4PGk.s 			page 7


 240              		.loc 1 116 1 view .LVU33
 241 001e 7047     		bx	lr
 242              	.L25:
 243              		.align	2
 244              	.L24:
 245 0020 002C0040 		.word	1073753088
 246              		.cfi_endproc
 247              	.LFE140:
 249              		.section	.text.wwdt_counter_set,"ax",%progbits
 250              		.align	1
 251              		.global	wwdt_counter_set
 252              		.syntax unified
 253              		.thumb
 254              		.thumb_func
 256              	wwdt_counter_set:
 257              	.LVL5:
 258              	.LFB141:
 117:libraries/drivers/src/at32f403a_407_wwdt.c **** 
 118:libraries/drivers/src/at32f403a_407_wwdt.c **** /**
 119:libraries/drivers/src/at32f403a_407_wwdt.c ****   * @brief  wwdt counter value set
 120:libraries/drivers/src/at32f403a_407_wwdt.c ****   * @param  wwdt_cnt (0x40~0x7f)
 121:libraries/drivers/src/at32f403a_407_wwdt.c ****   * @retval none
 122:libraries/drivers/src/at32f403a_407_wwdt.c ****   */
 123:libraries/drivers/src/at32f403a_407_wwdt.c **** void wwdt_counter_set(uint8_t wwdt_cnt)
 124:libraries/drivers/src/at32f403a_407_wwdt.c **** {
 259              		.loc 1 124 1 is_stmt 1 view -0
 260              		.cfi_startproc
 261              		@ args = 0, pretend = 0, frame = 0
 262              		@ frame_needed = 0, uses_anonymous_args = 0
 263              		@ link register save eliminated.
 125:libraries/drivers/src/at32f403a_407_wwdt.c ****   WWDT->ctrl_bit.cnt = wwdt_cnt;
 264              		.loc 1 125 3 view .LVU35
 265              		.loc 1 125 22 is_stmt 0 view .LVU36
 266 0000 024B     		ldr	r3, .L27
 267 0002 1A68     		ldr	r2, [r3]
 268 0004 60F30602 		bfi	r2, r0, #0, #7
 269 0008 1A60     		str	r2, [r3]
 126:libraries/drivers/src/at32f403a_407_wwdt.c **** }
 270              		.loc 1 126 1 view .LVU37
 271 000a 7047     		bx	lr
 272              	.L28:
 273              		.align	2
 274              	.L27:
 275 000c 002C0040 		.word	1073753088
 276              		.cfi_endproc
 277              	.LFE141:
 279              		.section	.text.wwdt_window_counter_set,"ax",%progbits
 280              		.align	1
 281              		.global	wwdt_window_counter_set
 282              		.syntax unified
 283              		.thumb
 284              		.thumb_func
 286              	wwdt_window_counter_set:
 287              	.LVL6:
 288              	.LFB142:
 127:libraries/drivers/src/at32f403a_407_wwdt.c **** 
 128:libraries/drivers/src/at32f403a_407_wwdt.c **** /**
ARM GAS  C:\Users\10963\AppData\Local\Temp\ccYX4PGk.s 			page 8


 129:libraries/drivers/src/at32f403a_407_wwdt.c ****   * @brief  wwdt window counter value set
 130:libraries/drivers/src/at32f403a_407_wwdt.c ****   * @param  window_cnt (0x40~0x7f)
 131:libraries/drivers/src/at32f403a_407_wwdt.c ****   * @retval none
 132:libraries/drivers/src/at32f403a_407_wwdt.c ****   */
 133:libraries/drivers/src/at32f403a_407_wwdt.c **** void wwdt_window_counter_set(uint8_t window_cnt)
 134:libraries/drivers/src/at32f403a_407_wwdt.c **** {
 289              		.loc 1 134 1 is_stmt 1 view -0
 290              		.cfi_startproc
 291              		@ args = 0, pretend = 0, frame = 0
 292              		@ frame_needed = 0, uses_anonymous_args = 0
 293              		@ link register save eliminated.
 135:libraries/drivers/src/at32f403a_407_wwdt.c ****   WWDT->cfg_bit.win = window_cnt;
 294              		.loc 1 135 3 view .LVU39
 295              		.loc 1 135 21 is_stmt 0 view .LVU40
 296 0000 024B     		ldr	r3, .L30
 297 0002 5A68     		ldr	r2, [r3, #4]
 298 0004 60F30602 		bfi	r2, r0, #0, #7
 299 0008 5A60     		str	r2, [r3, #4]
 136:libraries/drivers/src/at32f403a_407_wwdt.c **** }
 300              		.loc 1 136 1 view .LVU41
 301 000a 7047     		bx	lr
 302              	.L31:
 303              		.align	2
 304              	.L30:
 305 000c 002C0040 		.word	1073753088
 306              		.cfi_endproc
 307              	.LFE142:
 309              		.text
 310              	.Letext0:
 311              		.file 2 "C:/Program Files (x86)/Arm/GNU Toolchain mingw-w64-i686-arm-none-eabi/arm-none-eabi/inclu
 312              		.file 3 "C:/Program Files (x86)/Arm/GNU Toolchain mingw-w64-i686-arm-none-eabi/arm-none-eabi/inclu
 313              		.file 4 "libraries/cmsis/cm4/device_support/at32f403a_407.h"
 314              		.file 5 "libraries/drivers/inc/at32f403a_407_crm.h"
 315              		.file 6 "libraries/drivers/inc/at32f403a_407_wwdt.h"
ARM GAS  C:\Users\10963\AppData\Local\Temp\ccYX4PGk.s 			page 9

