ARM GAS  C:\Users\10963\AppData\Local\Temp\cc61e3iJ.s 			page 1


   1              		.cpu cortex-m4
   2              		.arch armv7e-m
   3              		.fpu fpv4-sp-d16
   4              		.eabi_attribute 27, 1
   5              		.eabi_attribute 28, 1
   6              		.eabi_attribute 20, 1
   7              		.eabi_attribute 21, 1
   8              		.eabi_attribute 23, 3
   9              		.eabi_attribute 24, 1
  10              		.eabi_attribute 25, 1
  11              		.eabi_attribute 26, 1
  12              		.eabi_attribute 30, 1
  13              		.eabi_attribute 34, 1
  14              		.eabi_attribute 18, 4
  15              		.file	"at32f403a_407_rtc.c"
  16              		.text
  17              	.Ltext0:
  18              		.cfi_sections	.debug_frame
  19              		.file 1 "libraries/drivers/src/at32f403a_407_rtc.c"
  20              		.section	.text.rtc_counter_set,"ax",%progbits
  21              		.align	1
  22              		.global	rtc_counter_set
  23              		.syntax unified
  24              		.thumb
  25              		.thumb_func
  27              	rtc_counter_set:
  28              	.LVL0:
  29              	.LFB134:
   1:libraries/drivers/src/at32f403a_407_rtc.c **** /**
   2:libraries/drivers/src/at32f403a_407_rtc.c ****   **************************************************************************
   3:libraries/drivers/src/at32f403a_407_rtc.c ****   * @file     at32f403a_407_rtc.c
   4:libraries/drivers/src/at32f403a_407_rtc.c ****   * @brief    contains all the functions for the rtc firmware library
   5:libraries/drivers/src/at32f403a_407_rtc.c ****   **************************************************************************
   6:libraries/drivers/src/at32f403a_407_rtc.c ****   *
   7:libraries/drivers/src/at32f403a_407_rtc.c ****   * Copyright (c) 2025, Artery Technology, All rights reserved.
   8:libraries/drivers/src/at32f403a_407_rtc.c ****   *
   9:libraries/drivers/src/at32f403a_407_rtc.c ****   * The software Board Support Package (BSP) that is made available to
  10:libraries/drivers/src/at32f403a_407_rtc.c ****   * download from Artery official website is the copyrighted work of Artery.
  11:libraries/drivers/src/at32f403a_407_rtc.c ****   * Artery authorizes customers to use, copy, and distribute the BSP
  12:libraries/drivers/src/at32f403a_407_rtc.c ****   * software and its related documentation for the purpose of design and
  13:libraries/drivers/src/at32f403a_407_rtc.c ****   * development in conjunction with Artery microcontrollers. Use of the
  14:libraries/drivers/src/at32f403a_407_rtc.c ****   * software is governed by this copyright notice and the following disclaimer.
  15:libraries/drivers/src/at32f403a_407_rtc.c ****   *
  16:libraries/drivers/src/at32f403a_407_rtc.c ****   * THIS SOFTWARE IS PROVIDED ON "AS IS" BASIS WITHOUT WARRANTIES,
  17:libraries/drivers/src/at32f403a_407_rtc.c ****   * GUARANTEES OR REPRESENTATIONS OF ANY KIND. ARTERY EXPRESSLY DISCLAIMS,
  18:libraries/drivers/src/at32f403a_407_rtc.c ****   * TO THE FULLEST EXTENT PERMITTED BY LAW, ALL EXPRESS, IMPLIED OR
  19:libraries/drivers/src/at32f403a_407_rtc.c ****   * STATUTORY OR OTHER WARRANTIES, GUARANTEES OR REPRESENTATIONS,
  20:libraries/drivers/src/at32f403a_407_rtc.c ****   * INCLUDING BUT NOT LIMITED TO, THE IMPLIED WARRANTIES OF MERCHANTABILITY,
  21:libraries/drivers/src/at32f403a_407_rtc.c ****   * FITNESS FOR A PARTICULAR PURPOSE, OR NON-INFRINGEMENT.
  22:libraries/drivers/src/at32f403a_407_rtc.c ****   *
  23:libraries/drivers/src/at32f403a_407_rtc.c ****   **************************************************************************
  24:libraries/drivers/src/at32f403a_407_rtc.c ****   */
  25:libraries/drivers/src/at32f403a_407_rtc.c **** 
  26:libraries/drivers/src/at32f403a_407_rtc.c **** #include "at32f403a_407_conf.h"
  27:libraries/drivers/src/at32f403a_407_rtc.c **** 
  28:libraries/drivers/src/at32f403a_407_rtc.c **** /** @addtogroup AT32F403A_407_periph_driver
  29:libraries/drivers/src/at32f403a_407_rtc.c ****   * @{
ARM GAS  C:\Users\10963\AppData\Local\Temp\cc61e3iJ.s 			page 2


  30:libraries/drivers/src/at32f403a_407_rtc.c ****   */
  31:libraries/drivers/src/at32f403a_407_rtc.c **** 
  32:libraries/drivers/src/at32f403a_407_rtc.c **** /** @defgroup RTC
  33:libraries/drivers/src/at32f403a_407_rtc.c ****   * @brief RTC driver modules
  34:libraries/drivers/src/at32f403a_407_rtc.c ****   * @{
  35:libraries/drivers/src/at32f403a_407_rtc.c ****   */
  36:libraries/drivers/src/at32f403a_407_rtc.c **** 
  37:libraries/drivers/src/at32f403a_407_rtc.c **** #ifdef RTC_MODULE_ENABLED
  38:libraries/drivers/src/at32f403a_407_rtc.c **** 
  39:libraries/drivers/src/at32f403a_407_rtc.c **** /** @defgroup RTC_private_functions
  40:libraries/drivers/src/at32f403a_407_rtc.c ****   * @{
  41:libraries/drivers/src/at32f403a_407_rtc.c ****   */
  42:libraries/drivers/src/at32f403a_407_rtc.c **** 
  43:libraries/drivers/src/at32f403a_407_rtc.c **** /**
  44:libraries/drivers/src/at32f403a_407_rtc.c ****   * @brief  rtc counter set
  45:libraries/drivers/src/at32f403a_407_rtc.c ****   * @param  counter_value (0x0000_0000 ~ 0xFFFF_FFFF)
  46:libraries/drivers/src/at32f403a_407_rtc.c ****   * @retval none
  47:libraries/drivers/src/at32f403a_407_rtc.c ****   */
  48:libraries/drivers/src/at32f403a_407_rtc.c **** void rtc_counter_set(uint32_t counter_value)
  49:libraries/drivers/src/at32f403a_407_rtc.c **** {
  30              		.loc 1 49 1 view -0
  31              		.cfi_startproc
  32              		@ args = 0, pretend = 0, frame = 0
  33              		@ frame_needed = 0, uses_anonymous_args = 0
  34              		@ link register save eliminated.
  50:libraries/drivers/src/at32f403a_407_rtc.c ****   /* enter rtc config mode */
  51:libraries/drivers/src/at32f403a_407_rtc.c ****   RTC->ctrll = 0x003F;
  35              		.loc 1 51 3 view .LVU1
  36              		.loc 1 51 14 is_stmt 0 view .LVU2
  37 0000 074B     		ldr	r3, .L2
  38 0002 3F22     		movs	r2, #63
  39 0004 5A60     		str	r2, [r3, #4]
  52:libraries/drivers/src/at32f403a_407_rtc.c **** 
  53:libraries/drivers/src/at32f403a_407_rtc.c ****   /* set rtc counter */
  54:libraries/drivers/src/at32f403a_407_rtc.c ****   RTC->cnth_bit.cnt = (uint16_t)(counter_value >> 16);
  40              		.loc 1 54 3 is_stmt 1 view .LVU3
  41              		.loc 1 54 23 is_stmt 0 view .LVU4
  42 0006 010C     		lsrs	r1, r0, #16
  43              		.loc 1 54 21 view .LVU5
  44 0008 9A69     		ldr	r2, [r3, #24]
  45 000a 61F30F02 		bfi	r2, r1, #0, #16
  46 000e 9A61     		str	r2, [r3, #24]
  55:libraries/drivers/src/at32f403a_407_rtc.c ****   RTC->cntl_bit.cnt = (uint16_t)(counter_value & 0x0000FFFF);
  47              		.loc 1 55 3 is_stmt 1 view .LVU6
  48              		.loc 1 55 23 is_stmt 0 view .LVU7
  49 0010 80B2     		uxth	r0, r0
  50              	.LVL1:
  51              		.loc 1 55 21 view .LVU8
  52 0012 DA69     		ldr	r2, [r3, #28]
  53 0014 60F30F02 		bfi	r2, r0, #0, #16
  54 0018 DA61     		str	r2, [r3, #28]
  56:libraries/drivers/src/at32f403a_407_rtc.c **** 
  57:libraries/drivers/src/at32f403a_407_rtc.c ****   /* exit rtc config mode */
  58:libraries/drivers/src/at32f403a_407_rtc.c ****   RTC->ctrll = 0x000F;
  55              		.loc 1 58 3 is_stmt 1 view .LVU9
  56              		.loc 1 58 14 is_stmt 0 view .LVU10
  57 001a 0F22     		movs	r2, #15
ARM GAS  C:\Users\10963\AppData\Local\Temp\cc61e3iJ.s 			page 3


  58 001c 5A60     		str	r2, [r3, #4]
  59:libraries/drivers/src/at32f403a_407_rtc.c **** }
  59              		.loc 1 59 1 view .LVU11
  60 001e 7047     		bx	lr
  61              	.L3:
  62              		.align	2
  63              	.L2:
  64 0020 00280040 		.word	1073752064
  65              		.cfi_endproc
  66              	.LFE134:
  68              		.section	.text.rtc_lowlevel_counter_get,"ax",%progbits
  69              		.align	1
  70              		.global	rtc_lowlevel_counter_get
  71              		.syntax unified
  72              		.thumb
  73              		.thumb_func
  75              	rtc_lowlevel_counter_get:
  76              	.LFB135:
  60:libraries/drivers/src/at32f403a_407_rtc.c **** 
  61:libraries/drivers/src/at32f403a_407_rtc.c **** /**
  62:libraries/drivers/src/at32f403a_407_rtc.c ****   * @brief  rtc lowlevel counter get
  63:libraries/drivers/src/at32f403a_407_rtc.c ****   * @param  none
  64:libraries/drivers/src/at32f403a_407_rtc.c ****   * @retval rtc counter
  65:libraries/drivers/src/at32f403a_407_rtc.c ****   */
  66:libraries/drivers/src/at32f403a_407_rtc.c **** uint32_t rtc_lowlevel_counter_get(void)
  67:libraries/drivers/src/at32f403a_407_rtc.c **** {
  77              		.loc 1 67 1 is_stmt 1 view -0
  78              		.cfi_startproc
  79              		@ args = 0, pretend = 0, frame = 0
  80              		@ frame_needed = 0, uses_anonymous_args = 0
  81              		@ link register save eliminated.
  68:libraries/drivers/src/at32f403a_407_rtc.c ****   uint32_t cnt = 0;
  82              		.loc 1 68 3 view .LVU13
  83              	.LVL2:
  69:libraries/drivers/src/at32f403a_407_rtc.c **** 
  70:libraries/drivers/src/at32f403a_407_rtc.c ****   cnt = RTC->cnth;
  84              		.loc 1 70 3 view .LVU14
  85              		.loc 1 70 7 is_stmt 0 view .LVU15
  86 0000 024B     		ldr	r3, .L5
  87 0002 9869     		ldr	r0, [r3, #24]
  88              	.LVL3:
  71:libraries/drivers/src/at32f403a_407_rtc.c ****   cnt = (cnt << 16) | RTC->cntl;
  89              		.loc 1 71 3 is_stmt 1 view .LVU16
  90              		.loc 1 71 26 is_stmt 0 view .LVU17
  91 0004 DB69     		ldr	r3, [r3, #28]
  92              	.LVL4:
  72:libraries/drivers/src/at32f403a_407_rtc.c **** 
  73:libraries/drivers/src/at32f403a_407_rtc.c ****   return cnt;
  93              		.loc 1 73 3 is_stmt 1 view .LVU18
  74:libraries/drivers/src/at32f403a_407_rtc.c **** }
  94              		.loc 1 74 1 is_stmt 0 view .LVU19
  95 0006 43EA0040 		orr	r0, r3, r0, lsl #16
  96              	.LVL5:
  97              		.loc 1 74 1 view .LVU20
  98 000a 7047     		bx	lr
  99              	.L6:
 100              		.align	2
ARM GAS  C:\Users\10963\AppData\Local\Temp\cc61e3iJ.s 			page 4


 101              	.L5:
 102 000c 00280040 		.word	1073752064
 103              		.cfi_endproc
 104              	.LFE135:
 106              		.section	.text.rtc_counter_get,"ax",%progbits
 107              		.align	1
 108              		.global	rtc_counter_get
 109              		.syntax unified
 110              		.thumb
 111              		.thumb_func
 113              	rtc_counter_get:
 114              	.LFB136:
  75:libraries/drivers/src/at32f403a_407_rtc.c **** 
  76:libraries/drivers/src/at32f403a_407_rtc.c **** /**
  77:libraries/drivers/src/at32f403a_407_rtc.c ****   * @brief  rtc counter get
  78:libraries/drivers/src/at32f403a_407_rtc.c ****   * @param  none
  79:libraries/drivers/src/at32f403a_407_rtc.c ****   * @retval rtc counter
  80:libraries/drivers/src/at32f403a_407_rtc.c ****   */
  81:libraries/drivers/src/at32f403a_407_rtc.c **** uint32_t rtc_counter_get(void)
  82:libraries/drivers/src/at32f403a_407_rtc.c **** {
 115              		.loc 1 82 1 is_stmt 1 view -0
 116              		.cfi_startproc
 117              		@ args = 0, pretend = 0, frame = 0
 118              		@ frame_needed = 0, uses_anonymous_args = 0
 119 0000 10B5     		push	{r4, lr}
 120              	.LCFI0:
 121              		.cfi_def_cfa_offset 8
 122              		.cfi_offset 4, -8
 123              		.cfi_offset 14, -4
 124              	.L8:
  83:libraries/drivers/src/at32f403a_407_rtc.c ****   uint32_t cnt1 = 0;
  84:libraries/drivers/src/at32f403a_407_rtc.c ****   uint32_t cnt2 = 0;
  85:libraries/drivers/src/at32f403a_407_rtc.c **** 
  86:libraries/drivers/src/at32f403a_407_rtc.c ****   while(1)
 125              		.loc 1 86 3 view .LVU22
  87:libraries/drivers/src/at32f403a_407_rtc.c ****   {
  88:libraries/drivers/src/at32f403a_407_rtc.c ****     cnt1 = rtc_lowlevel_counter_get();
 126              		.loc 1 88 5 view .LVU23
 127              		.loc 1 88 12 is_stmt 0 view .LVU24
 128 0002 FFF7FEFF 		bl	rtc_lowlevel_counter_get
 129              	.LVL6:
 130 0006 0446     		mov	r4, r0
 131              	.LVL7:
  89:libraries/drivers/src/at32f403a_407_rtc.c ****     cnt2 = rtc_lowlevel_counter_get();
 132              		.loc 1 89 5 is_stmt 1 view .LVU25
 133              		.loc 1 89 12 is_stmt 0 view .LVU26
 134 0008 FFF7FEFF 		bl	rtc_lowlevel_counter_get
 135              	.LVL8:
  90:libraries/drivers/src/at32f403a_407_rtc.c **** 
  91:libraries/drivers/src/at32f403a_407_rtc.c ****     if(cnt1 == cnt2)
 136              		.loc 1 91 5 is_stmt 1 view .LVU27
 137              		.loc 1 91 7 is_stmt 0 view .LVU28
 138 000c 8442     		cmp	r4, r0
 139 000e F8D1     		bne	.L8
  92:libraries/drivers/src/at32f403a_407_rtc.c ****     {
  93:libraries/drivers/src/at32f403a_407_rtc.c ****       return cnt1;
 140              		.loc 1 93 7 is_stmt 1 view .LVU29
ARM GAS  C:\Users\10963\AppData\Local\Temp\cc61e3iJ.s 			page 5


  94:libraries/drivers/src/at32f403a_407_rtc.c ****     }
  95:libraries/drivers/src/at32f403a_407_rtc.c ****   }
  96:libraries/drivers/src/at32f403a_407_rtc.c **** }
 141              		.loc 1 96 1 is_stmt 0 view .LVU30
 142 0010 2046     		mov	r0, r4
 143              	.LVL9:
 144              		.loc 1 96 1 view .LVU31
 145 0012 10BD     		pop	{r4, pc}
 146              		.loc 1 96 1 view .LVU32
 147              		.cfi_endproc
 148              	.LFE136:
 150              		.section	.text.rtc_divider_set,"ax",%progbits
 151              		.align	1
 152              		.global	rtc_divider_set
 153              		.syntax unified
 154              		.thumb
 155              		.thumb_func
 157              	rtc_divider_set:
 158              	.LVL10:
 159              	.LFB137:
  97:libraries/drivers/src/at32f403a_407_rtc.c **** 
  98:libraries/drivers/src/at32f403a_407_rtc.c **** /**
  99:libraries/drivers/src/at32f403a_407_rtc.c ****   * @brief  rtc divider set
 100:libraries/drivers/src/at32f403a_407_rtc.c ****   * @param  div_value (0x0000_0000 ~ 0x000F_FFFF)
 101:libraries/drivers/src/at32f403a_407_rtc.c ****   * @retval none
 102:libraries/drivers/src/at32f403a_407_rtc.c ****   */
 103:libraries/drivers/src/at32f403a_407_rtc.c **** void rtc_divider_set(uint32_t div_value)
 104:libraries/drivers/src/at32f403a_407_rtc.c **** {
 160              		.loc 1 104 1 is_stmt 1 view -0
 161              		.cfi_startproc
 162              		@ args = 0, pretend = 0, frame = 0
 163              		@ frame_needed = 0, uses_anonymous_args = 0
 164              		@ link register save eliminated.
 105:libraries/drivers/src/at32f403a_407_rtc.c ****   /* enter rtc config mode */
 106:libraries/drivers/src/at32f403a_407_rtc.c ****   RTC->ctrll = 0x003F;
 165              		.loc 1 106 3 view .LVU34
 166              		.loc 1 106 14 is_stmt 0 view .LVU35
 167 0000 084B     		ldr	r3, .L11
 168 0002 3F22     		movs	r2, #63
 169 0004 5A60     		str	r2, [r3, #4]
 107:libraries/drivers/src/at32f403a_407_rtc.c **** 
 108:libraries/drivers/src/at32f403a_407_rtc.c ****   /* set rtc divider */
 109:libraries/drivers/src/at32f403a_407_rtc.c ****   RTC->divh_bit.div = (uint16_t)(div_value >> 16);
 170              		.loc 1 109 3 is_stmt 1 view .LVU36
 171              		.loc 1 109 23 is_stmt 0 view .LVU37
 172 0006 C0F30341 		ubfx	r1, r0, #16, #4
 173              		.loc 1 109 21 view .LVU38
 174 000a 9A68     		ldr	r2, [r3, #8]
 175 000c 61F30302 		bfi	r2, r1, #0, #4
 176 0010 9A60     		str	r2, [r3, #8]
 110:libraries/drivers/src/at32f403a_407_rtc.c ****   RTC->divl_bit.div = (uint16_t)(div_value & 0x0000FFFF);
 177              		.loc 1 110 3 is_stmt 1 view .LVU39
 178              		.loc 1 110 23 is_stmt 0 view .LVU40
 179 0012 80B2     		uxth	r0, r0
 180              	.LVL11:
 181              		.loc 1 110 21 view .LVU41
 182 0014 DA68     		ldr	r2, [r3, #12]
ARM GAS  C:\Users\10963\AppData\Local\Temp\cc61e3iJ.s 			page 6


 183 0016 60F30F02 		bfi	r2, r0, #0, #16
 184 001a DA60     		str	r2, [r3, #12]
 111:libraries/drivers/src/at32f403a_407_rtc.c **** 
 112:libraries/drivers/src/at32f403a_407_rtc.c ****   /* exit rtc config mode */
 113:libraries/drivers/src/at32f403a_407_rtc.c ****   RTC->ctrll = 0x000F;
 185              		.loc 1 113 3 is_stmt 1 view .LVU42
 186              		.loc 1 113 14 is_stmt 0 view .LVU43
 187 001c 0F22     		movs	r2, #15
 188 001e 5A60     		str	r2, [r3, #4]
 114:libraries/drivers/src/at32f403a_407_rtc.c **** }
 189              		.loc 1 114 1 view .LVU44
 190 0020 7047     		bx	lr
 191              	.L12:
 192 0022 00BF     		.align	2
 193              	.L11:
 194 0024 00280040 		.word	1073752064
 195              		.cfi_endproc
 196              	.LFE137:
 198              		.section	.text.rtc_divider_get,"ax",%progbits
 199              		.align	1
 200              		.global	rtc_divider_get
 201              		.syntax unified
 202              		.thumb
 203              		.thumb_func
 205              	rtc_divider_get:
 206              	.LFB138:
 115:libraries/drivers/src/at32f403a_407_rtc.c **** 
 116:libraries/drivers/src/at32f403a_407_rtc.c **** /**
 117:libraries/drivers/src/at32f403a_407_rtc.c ****   * @brief  rtc divider get
 118:libraries/drivers/src/at32f403a_407_rtc.c ****   * @param  none
 119:libraries/drivers/src/at32f403a_407_rtc.c ****   * @retval rtc counter
 120:libraries/drivers/src/at32f403a_407_rtc.c ****   */
 121:libraries/drivers/src/at32f403a_407_rtc.c **** uint32_t rtc_divider_get(void)
 122:libraries/drivers/src/at32f403a_407_rtc.c **** {
 207              		.loc 1 122 1 is_stmt 1 view -0
 208              		.cfi_startproc
 209              		@ args = 0, pretend = 0, frame = 0
 210              		@ frame_needed = 0, uses_anonymous_args = 0
 211              		@ link register save eliminated.
 123:libraries/drivers/src/at32f403a_407_rtc.c ****   uint32_t div = 0;
 212              		.loc 1 123 3 view .LVU46
 213              	.LVL12:
 124:libraries/drivers/src/at32f403a_407_rtc.c **** 
 125:libraries/drivers/src/at32f403a_407_rtc.c ****   div = RTC->divcnth;
 214              		.loc 1 125 3 view .LVU47
 215              		.loc 1 125 7 is_stmt 0 view .LVU48
 216 0000 024B     		ldr	r3, .L14
 217 0002 1869     		ldr	r0, [r3, #16]
 218              	.LVL13:
 126:libraries/drivers/src/at32f403a_407_rtc.c ****   div = (div << 16) | RTC->divcntl;
 219              		.loc 1 126 3 is_stmt 1 view .LVU49
 220              		.loc 1 126 26 is_stmt 0 view .LVU50
 221 0004 5B69     		ldr	r3, [r3, #20]
 222              	.LVL14:
 127:libraries/drivers/src/at32f403a_407_rtc.c **** 
 128:libraries/drivers/src/at32f403a_407_rtc.c ****   return div;
 223              		.loc 1 128 3 is_stmt 1 view .LVU51
ARM GAS  C:\Users\10963\AppData\Local\Temp\cc61e3iJ.s 			page 7


 129:libraries/drivers/src/at32f403a_407_rtc.c **** }
 224              		.loc 1 129 1 is_stmt 0 view .LVU52
 225 0006 43EA0040 		orr	r0, r3, r0, lsl #16
 226              	.LVL15:
 227              		.loc 1 129 1 view .LVU53
 228 000a 7047     		bx	lr
 229              	.L15:
 230              		.align	2
 231              	.L14:
 232 000c 00280040 		.word	1073752064
 233              		.cfi_endproc
 234              	.LFE138:
 236              		.section	.text.rtc_alarm_set,"ax",%progbits
 237              		.align	1
 238              		.global	rtc_alarm_set
 239              		.syntax unified
 240              		.thumb
 241              		.thumb_func
 243              	rtc_alarm_set:
 244              	.LVL16:
 245              	.LFB139:
 130:libraries/drivers/src/at32f403a_407_rtc.c **** 
 131:libraries/drivers/src/at32f403a_407_rtc.c **** /**
 132:libraries/drivers/src/at32f403a_407_rtc.c ****   * @brief  rtc alarm value set
 133:libraries/drivers/src/at32f403a_407_rtc.c ****   * @param  alarm_value (0x0000_0000 ~ 0xFFFF_FFFF)
 134:libraries/drivers/src/at32f403a_407_rtc.c ****   * @retval none
 135:libraries/drivers/src/at32f403a_407_rtc.c ****   */
 136:libraries/drivers/src/at32f403a_407_rtc.c **** void rtc_alarm_set(uint32_t alarm_value)
 137:libraries/drivers/src/at32f403a_407_rtc.c **** {
 246              		.loc 1 137 1 is_stmt 1 view -0
 247              		.cfi_startproc
 248              		@ args = 0, pretend = 0, frame = 0
 249              		@ frame_needed = 0, uses_anonymous_args = 0
 250              		@ link register save eliminated.
 138:libraries/drivers/src/at32f403a_407_rtc.c ****   /* enter rtc config mode */
 139:libraries/drivers/src/at32f403a_407_rtc.c ****   RTC->ctrll = 0x003F;
 251              		.loc 1 139 3 view .LVU55
 252              		.loc 1 139 14 is_stmt 0 view .LVU56
 253 0000 074B     		ldr	r3, .L17
 254 0002 3F22     		movs	r2, #63
 255 0004 5A60     		str	r2, [r3, #4]
 140:libraries/drivers/src/at32f403a_407_rtc.c **** 
 141:libraries/drivers/src/at32f403a_407_rtc.c ****   /* set rtc alarm value */
 142:libraries/drivers/src/at32f403a_407_rtc.c ****   RTC->tah_bit.ta = (uint16_t)(alarm_value >> 16);
 256              		.loc 1 142 3 is_stmt 1 view .LVU57
 257              		.loc 1 142 21 is_stmt 0 view .LVU58
 258 0006 010C     		lsrs	r1, r0, #16
 259              		.loc 1 142 19 view .LVU59
 260 0008 1A6A     		ldr	r2, [r3, #32]
 261 000a 61F30F02 		bfi	r2, r1, #0, #16
 262 000e 1A62     		str	r2, [r3, #32]
 143:libraries/drivers/src/at32f403a_407_rtc.c ****   RTC->tal_bit.ta = (uint16_t)(alarm_value & 0x0000FFFF);
 263              		.loc 1 143 3 is_stmt 1 view .LVU60
 264              		.loc 1 143 21 is_stmt 0 view .LVU61
 265 0010 80B2     		uxth	r0, r0
 266              	.LVL17:
 267              		.loc 1 143 19 view .LVU62
ARM GAS  C:\Users\10963\AppData\Local\Temp\cc61e3iJ.s 			page 8


 268 0012 5A6A     		ldr	r2, [r3, #36]
 269 0014 60F30F02 		bfi	r2, r0, #0, #16
 270 0018 5A62     		str	r2, [r3, #36]
 144:libraries/drivers/src/at32f403a_407_rtc.c **** 
 145:libraries/drivers/src/at32f403a_407_rtc.c ****   /* exit rtc config mode */
 146:libraries/drivers/src/at32f403a_407_rtc.c ****   RTC->ctrll = 0x000F;
 271              		.loc 1 146 3 is_stmt 1 view .LVU63
 272              		.loc 1 146 14 is_stmt 0 view .LVU64
 273 001a 0F22     		movs	r2, #15
 274 001c 5A60     		str	r2, [r3, #4]
 147:libraries/drivers/src/at32f403a_407_rtc.c **** }
 275              		.loc 1 147 1 view .LVU65
 276 001e 7047     		bx	lr
 277              	.L18:
 278              		.align	2
 279              	.L17:
 280 0020 00280040 		.word	1073752064
 281              		.cfi_endproc
 282              	.LFE139:
 284              		.section	.text.rtc_interrupt_enable,"ax",%progbits
 285              		.align	1
 286              		.global	rtc_interrupt_enable
 287              		.syntax unified
 288              		.thumb
 289              		.thumb_func
 291              	rtc_interrupt_enable:
 292              	.LVL18:
 293              	.LFB140:
 148:libraries/drivers/src/at32f403a_407_rtc.c **** 
 149:libraries/drivers/src/at32f403a_407_rtc.c **** /**
 150:libraries/drivers/src/at32f403a_407_rtc.c ****   * @brief  rtc interrupt enable
 151:libraries/drivers/src/at32f403a_407_rtc.c ****   * @param  source
 152:libraries/drivers/src/at32f403a_407_rtc.c ****   *         this parameter can be any combination of the following values:
 153:libraries/drivers/src/at32f403a_407_rtc.c ****   *         - RTC_TS_INT: time second interrupt.
 154:libraries/drivers/src/at32f403a_407_rtc.c ****   *         - RTC_TA_INT: time alarm interrupt.
 155:libraries/drivers/src/at32f403a_407_rtc.c ****   *         - RTC_OVF_INT: overflow interrupt.
 156:libraries/drivers/src/at32f403a_407_rtc.c ****   * @param  new_state (TRUE or FALSE)
 157:libraries/drivers/src/at32f403a_407_rtc.c ****   * @retval none
 158:libraries/drivers/src/at32f403a_407_rtc.c ****   */
 159:libraries/drivers/src/at32f403a_407_rtc.c **** void rtc_interrupt_enable(uint16_t source, confirm_state new_state)
 160:libraries/drivers/src/at32f403a_407_rtc.c **** {
 294              		.loc 1 160 1 is_stmt 1 view -0
 295              		.cfi_startproc
 296              		@ args = 0, pretend = 0, frame = 0
 297              		@ frame_needed = 0, uses_anonymous_args = 0
 298              		@ link register save eliminated.
 161:libraries/drivers/src/at32f403a_407_rtc.c ****   if(new_state == FALSE)
 299              		.loc 1 161 3 view .LVU67
 300              		.loc 1 161 5 is_stmt 0 view .LVU68
 301 0000 29B9     		cbnz	r1, .L20
 162:libraries/drivers/src/at32f403a_407_rtc.c ****   {
 163:libraries/drivers/src/at32f403a_407_rtc.c ****     RTC->ctrlh &= ~source;
 302              		.loc 1 163 5 is_stmt 1 view .LVU69
 303              		.loc 1 163 8 is_stmt 0 view .LVU70
 304 0002 054A     		ldr	r2, .L22
 305 0004 1368     		ldr	r3, [r2]
 306              		.loc 1 163 16 view .LVU71
ARM GAS  C:\Users\10963\AppData\Local\Temp\cc61e3iJ.s 			page 9


 307 0006 23EA0003 		bic	r3, r3, r0
 308 000a 1360     		str	r3, [r2]
 309 000c 7047     		bx	lr
 310              	.L20:
 164:libraries/drivers/src/at32f403a_407_rtc.c ****   }
 165:libraries/drivers/src/at32f403a_407_rtc.c ****   else
 166:libraries/drivers/src/at32f403a_407_rtc.c ****   {
 167:libraries/drivers/src/at32f403a_407_rtc.c ****     RTC->ctrlh |= source;
 311              		.loc 1 167 5 is_stmt 1 view .LVU72
 312              		.loc 1 167 8 is_stmt 0 view .LVU73
 313 000e 024B     		ldr	r3, .L22
 314 0010 1A68     		ldr	r2, [r3]
 315              		.loc 1 167 16 view .LVU74
 316 0012 1043     		orrs	r0, r0, r2
 317              	.LVL19:
 318              		.loc 1 167 16 view .LVU75
 319 0014 1860     		str	r0, [r3]
 168:libraries/drivers/src/at32f403a_407_rtc.c ****   }
 169:libraries/drivers/src/at32f403a_407_rtc.c **** }
 320              		.loc 1 169 1 view .LVU76
 321 0016 7047     		bx	lr
 322              	.L23:
 323              		.align	2
 324              	.L22:
 325 0018 00280040 		.word	1073752064
 326              		.cfi_endproc
 327              	.LFE140:
 329              		.section	.text.rtc_flag_get,"ax",%progbits
 330              		.align	1
 331              		.global	rtc_flag_get
 332              		.syntax unified
 333              		.thumb
 334              		.thumb_func
 336              	rtc_flag_get:
 337              	.LVL20:
 338              	.LFB141:
 170:libraries/drivers/src/at32f403a_407_rtc.c **** 
 171:libraries/drivers/src/at32f403a_407_rtc.c **** /**
 172:libraries/drivers/src/at32f403a_407_rtc.c ****   * @brief  rtc flag get
 173:libraries/drivers/src/at32f403a_407_rtc.c ****   * @param  flag
 174:libraries/drivers/src/at32f403a_407_rtc.c ****   *         this parameter can be one of the following values:
 175:libraries/drivers/src/at32f403a_407_rtc.c ****   *         - RTC_TS_FLAG: time second flag.
 176:libraries/drivers/src/at32f403a_407_rtc.c ****   *         - RTC_TA_FLAG: time alarm flag.
 177:libraries/drivers/src/at32f403a_407_rtc.c ****   *         - RTC_OVF_FLAG: overflow flag.
 178:libraries/drivers/src/at32f403a_407_rtc.c ****   *         - RTC_UPDF_FLAG: rtc update finish flag.
 179:libraries/drivers/src/at32f403a_407_rtc.c ****   *         - RTC_CFGF_FLAG: rtc configuration finish flag.
 180:libraries/drivers/src/at32f403a_407_rtc.c ****   * @retval state of rtc flag
 181:libraries/drivers/src/at32f403a_407_rtc.c ****   */
 182:libraries/drivers/src/at32f403a_407_rtc.c **** flag_status rtc_flag_get(uint16_t flag)
 183:libraries/drivers/src/at32f403a_407_rtc.c **** {
 339              		.loc 1 183 1 is_stmt 1 view -0
 340              		.cfi_startproc
 341              		@ args = 0, pretend = 0, frame = 0
 342              		@ frame_needed = 0, uses_anonymous_args = 0
 343              		@ link register save eliminated.
 184:libraries/drivers/src/at32f403a_407_rtc.c ****   flag_status status = RESET;
 344              		.loc 1 184 3 view .LVU78
ARM GAS  C:\Users\10963\AppData\Local\Temp\cc61e3iJ.s 			page 10


 185:libraries/drivers/src/at32f403a_407_rtc.c **** 
 186:libraries/drivers/src/at32f403a_407_rtc.c ****   if ((RTC->ctrll & flag) != (uint16_t)RESET)
 345              		.loc 1 186 3 view .LVU79
 346              		.loc 1 186 11 is_stmt 0 view .LVU80
 347 0000 034B     		ldr	r3, .L27
 348 0002 5B68     		ldr	r3, [r3, #4]
 349              		.loc 1 186 6 view .LVU81
 350 0004 1842     		tst	r0, r3
 351 0006 01D0     		beq	.L26
 187:libraries/drivers/src/at32f403a_407_rtc.c ****   {
 188:libraries/drivers/src/at32f403a_407_rtc.c ****     status = SET;
 352              		.loc 1 188 12 view .LVU82
 353 0008 0120     		movs	r0, #1
 354              	.LVL21:
 355              		.loc 1 188 12 view .LVU83
 356 000a 7047     		bx	lr
 357              	.LVL22:
 358              	.L26:
 189:libraries/drivers/src/at32f403a_407_rtc.c ****   }
 190:libraries/drivers/src/at32f403a_407_rtc.c ****   else
 191:libraries/drivers/src/at32f403a_407_rtc.c ****   {
 192:libraries/drivers/src/at32f403a_407_rtc.c ****     status = RESET;
 359              		.loc 1 192 12 view .LVU84
 360 000c 0020     		movs	r0, #0
 361              	.LVL23:
 193:libraries/drivers/src/at32f403a_407_rtc.c ****   }
 194:libraries/drivers/src/at32f403a_407_rtc.c **** 
 195:libraries/drivers/src/at32f403a_407_rtc.c ****   return status;
 362              		.loc 1 195 3 is_stmt 1 view .LVU85
 196:libraries/drivers/src/at32f403a_407_rtc.c **** }
 363              		.loc 1 196 1 is_stmt 0 view .LVU86
 364 000e 7047     		bx	lr
 365              	.L28:
 366              		.align	2
 367              	.L27:
 368 0010 00280040 		.word	1073752064
 369              		.cfi_endproc
 370              	.LFE141:
 372              		.section	.text.rtc_interrupt_flag_get,"ax",%progbits
 373              		.align	1
 374              		.global	rtc_interrupt_flag_get
 375              		.syntax unified
 376              		.thumb
 377              		.thumb_func
 379              	rtc_interrupt_flag_get:
 380              	.LVL24:
 381              	.LFB142:
 197:libraries/drivers/src/at32f403a_407_rtc.c **** 
 198:libraries/drivers/src/at32f403a_407_rtc.c **** /**
 199:libraries/drivers/src/at32f403a_407_rtc.c ****   * @brief  rtc interrupt flag get
 200:libraries/drivers/src/at32f403a_407_rtc.c ****   * @param  flag
 201:libraries/drivers/src/at32f403a_407_rtc.c ****   *         this parameter can be one of the following values:
 202:libraries/drivers/src/at32f403a_407_rtc.c ****   *         - RTC_TS_FLAG: time second flag.
 203:libraries/drivers/src/at32f403a_407_rtc.c ****   *         - RTC_TA_FLAG: time alarm flag.
 204:libraries/drivers/src/at32f403a_407_rtc.c ****   *         - RTC_OVF_FLAG: overflow flag.
 205:libraries/drivers/src/at32f403a_407_rtc.c ****   * @retval state of rtc flag
 206:libraries/drivers/src/at32f403a_407_rtc.c ****   */
ARM GAS  C:\Users\10963\AppData\Local\Temp\cc61e3iJ.s 			page 11


 207:libraries/drivers/src/at32f403a_407_rtc.c **** flag_status rtc_interrupt_flag_get(uint16_t flag)
 208:libraries/drivers/src/at32f403a_407_rtc.c **** {
 382              		.loc 1 208 1 is_stmt 1 view -0
 383              		.cfi_startproc
 384              		@ args = 0, pretend = 0, frame = 0
 385              		@ frame_needed = 0, uses_anonymous_args = 0
 386              		@ link register save eliminated.
 209:libraries/drivers/src/at32f403a_407_rtc.c ****   flag_status status = RESET;
 387              		.loc 1 209 3 view .LVU88
 210:libraries/drivers/src/at32f403a_407_rtc.c **** 
 211:libraries/drivers/src/at32f403a_407_rtc.c ****   if (((RTC->ctrll & flag) != (uint16_t)RESET) && ((RTC->ctrlh & flag) != (uint16_t)RESET))
 388              		.loc 1 211 3 view .LVU89
 389              		.loc 1 211 12 is_stmt 0 view .LVU90
 390 0000 064B     		ldr	r3, .L33
 391 0002 5B68     		ldr	r3, [r3, #4]
 392              		.loc 1 211 6 view .LVU91
 393 0004 0342     		tst	r3, r0
 394 0006 05D0     		beq	.L31
 395              		.loc 1 211 56 discriminator 1 view .LVU92
 396 0008 044B     		ldr	r3, .L33
 397 000a 1B68     		ldr	r3, [r3]
 398              		.loc 1 211 48 discriminator 1 view .LVU93
 399 000c 1842     		tst	r0, r3
 400 000e 03D1     		bne	.L32
 212:libraries/drivers/src/at32f403a_407_rtc.c ****   {
 213:libraries/drivers/src/at32f403a_407_rtc.c ****     status = SET;
 214:libraries/drivers/src/at32f403a_407_rtc.c ****   }
 215:libraries/drivers/src/at32f403a_407_rtc.c ****   else
 216:libraries/drivers/src/at32f403a_407_rtc.c ****   {
 217:libraries/drivers/src/at32f403a_407_rtc.c ****     status = RESET;
 401              		.loc 1 217 12 view .LVU94
 402 0010 0020     		movs	r0, #0
 403              	.LVL25:
 404              		.loc 1 217 12 view .LVU95
 405 0012 7047     		bx	lr
 406              	.LVL26:
 407              	.L31:
 408              		.loc 1 217 12 view .LVU96
 409 0014 0020     		movs	r0, #0
 410              	.LVL27:
 411              		.loc 1 217 12 view .LVU97
 412 0016 7047     		bx	lr
 413              	.LVL28:
 414              	.L32:
 213:libraries/drivers/src/at32f403a_407_rtc.c ****   }
 415              		.loc 1 213 12 view .LVU98
 416 0018 0120     		movs	r0, #1
 417              	.LVL29:
 218:libraries/drivers/src/at32f403a_407_rtc.c ****   }
 219:libraries/drivers/src/at32f403a_407_rtc.c **** 
 220:libraries/drivers/src/at32f403a_407_rtc.c ****   return status;
 418              		.loc 1 220 3 is_stmt 1 view .LVU99
 221:libraries/drivers/src/at32f403a_407_rtc.c **** }
 419              		.loc 1 221 1 is_stmt 0 view .LVU100
 420 001a 7047     		bx	lr
 421              	.L34:
 422              		.align	2
ARM GAS  C:\Users\10963\AppData\Local\Temp\cc61e3iJ.s 			page 12


 423              	.L33:
 424 001c 00280040 		.word	1073752064
 425              		.cfi_endproc
 426              	.LFE142:
 428              		.section	.text.rtc_flag_clear,"ax",%progbits
 429              		.align	1
 430              		.global	rtc_flag_clear
 431              		.syntax unified
 432              		.thumb
 433              		.thumb_func
 435              	rtc_flag_clear:
 436              	.LVL30:
 437              	.LFB143:
 222:libraries/drivers/src/at32f403a_407_rtc.c **** 
 223:libraries/drivers/src/at32f403a_407_rtc.c **** /**
 224:libraries/drivers/src/at32f403a_407_rtc.c ****   * @brief  rtc flag clear
 225:libraries/drivers/src/at32f403a_407_rtc.c ****   * @param  interrupt_flag
 226:libraries/drivers/src/at32f403a_407_rtc.c ****   *         this parameter can be any combination of the following values:
 227:libraries/drivers/src/at32f403a_407_rtc.c ****   *         - RTC_TS_FLAG: time second flag.
 228:libraries/drivers/src/at32f403a_407_rtc.c ****   *         - RTC_TA_FLAG: time alarm flag.
 229:libraries/drivers/src/at32f403a_407_rtc.c ****   *         - RTC_OVF_FLAG: overflow flag.
 230:libraries/drivers/src/at32f403a_407_rtc.c ****   *         - RTC_UPDF_FLAG: rtc update finish flag.
 231:libraries/drivers/src/at32f403a_407_rtc.c ****   * @retval none
 232:libraries/drivers/src/at32f403a_407_rtc.c ****   */
 233:libraries/drivers/src/at32f403a_407_rtc.c **** void rtc_flag_clear(uint16_t flag)
 234:libraries/drivers/src/at32f403a_407_rtc.c **** {
 438              		.loc 1 234 1 is_stmt 1 view -0
 439              		.cfi_startproc
 440              		@ args = 0, pretend = 0, frame = 0
 441              		@ frame_needed = 0, uses_anonymous_args = 0
 442              		@ link register save eliminated.
 235:libraries/drivers/src/at32f403a_407_rtc.c ****   RTC->ctrll = ~(flag | 0x10) | (RTC->ctrll_bit.cfgen << 4);
 443              		.loc 1 235 3 view .LVU102
 444              		.loc 1 235 23 is_stmt 0 view .LVU103
 445 0000 40F01000 		orr	r0, r0, #16
 446              	.LVL31:
 447              		.loc 1 235 48 view .LVU104
 448 0004 034A     		ldr	r2, .L36
 449 0006 5368     		ldr	r3, [r2, #4]
 450              		.loc 1 235 55 view .LVU105
 451 0008 03F01003 		and	r3, r3, #16
 452              		.loc 1 235 31 view .LVU106
 453 000c 63EA0003 		orn	r3, r3, r0
 454              		.loc 1 235 14 view .LVU107
 455 0010 5360     		str	r3, [r2, #4]
 236:libraries/drivers/src/at32f403a_407_rtc.c **** }
 456              		.loc 1 236 1 view .LVU108
 457 0012 7047     		bx	lr
 458              	.L37:
 459              		.align	2
 460              	.L36:
 461 0014 00280040 		.word	1073752064
 462              		.cfi_endproc
 463              	.LFE143:
 465              		.section	.text.rtc_wait_config_finish,"ax",%progbits
 466              		.align	1
 467              		.global	rtc_wait_config_finish
ARM GAS  C:\Users\10963\AppData\Local\Temp\cc61e3iJ.s 			page 13


 468              		.syntax unified
 469              		.thumb
 470              		.thumb_func
 472              	rtc_wait_config_finish:
 473              	.LFB144:
 237:libraries/drivers/src/at32f403a_407_rtc.c **** 
 238:libraries/drivers/src/at32f403a_407_rtc.c **** /**
 239:libraries/drivers/src/at32f403a_407_rtc.c ****   * @brief  rtc wait configuration finish
 240:libraries/drivers/src/at32f403a_407_rtc.c ****   * @param  none
 241:libraries/drivers/src/at32f403a_407_rtc.c ****   * @retval none
 242:libraries/drivers/src/at32f403a_407_rtc.c ****   */
 243:libraries/drivers/src/at32f403a_407_rtc.c **** void rtc_wait_config_finish(void)
 244:libraries/drivers/src/at32f403a_407_rtc.c **** {
 474              		.loc 1 244 1 is_stmt 1 view -0
 475              		.cfi_startproc
 476              		@ args = 0, pretend = 0, frame = 0
 477              		@ frame_needed = 0, uses_anonymous_args = 0
 478              		@ link register save eliminated.
 479              	.L39:
 245:libraries/drivers/src/at32f403a_407_rtc.c ****   while (RTC->ctrll_bit.cfgf == 0);
 480              		.loc 1 245 30 discriminator 1 view .LVU110
 481              		.loc 1 245 24 is_stmt 0 discriminator 1 view .LVU111
 482 0000 024B     		ldr	r3, .L40
 483 0002 5B68     		ldr	r3, [r3, #4]
 484              		.loc 1 245 30 discriminator 1 view .LVU112
 485 0004 13F0200F 		tst	r3, #32
 486 0008 FAD0     		beq	.L39
 246:libraries/drivers/src/at32f403a_407_rtc.c **** }
 487              		.loc 1 246 1 view .LVU113
 488 000a 7047     		bx	lr
 489              	.L41:
 490              		.align	2
 491              	.L40:
 492 000c 00280040 		.word	1073752064
 493              		.cfi_endproc
 494              	.LFE144:
 496              		.section	.text.rtc_wait_update_finish,"ax",%progbits
 497              		.align	1
 498              		.global	rtc_wait_update_finish
 499              		.syntax unified
 500              		.thumb
 501              		.thumb_func
 503              	rtc_wait_update_finish:
 504              	.LFB145:
 247:libraries/drivers/src/at32f403a_407_rtc.c **** 
 248:libraries/drivers/src/at32f403a_407_rtc.c **** /**
 249:libraries/drivers/src/at32f403a_407_rtc.c ****   * @brief  rtc wait update finish
 250:libraries/drivers/src/at32f403a_407_rtc.c ****   * @param  none
 251:libraries/drivers/src/at32f403a_407_rtc.c ****   * @retval none
 252:libraries/drivers/src/at32f403a_407_rtc.c ****   */
 253:libraries/drivers/src/at32f403a_407_rtc.c **** void rtc_wait_update_finish(void)
 254:libraries/drivers/src/at32f403a_407_rtc.c **** {
 505              		.loc 1 254 1 is_stmt 1 view -0
 506              		.cfi_startproc
 507              		@ args = 0, pretend = 0, frame = 0
 508              		@ frame_needed = 0, uses_anonymous_args = 0
 509              		@ link register save eliminated.
ARM GAS  C:\Users\10963\AppData\Local\Temp\cc61e3iJ.s 			page 14


 510              	.L43:
 255:libraries/drivers/src/at32f403a_407_rtc.c ****   while (RTC->ctrll_bit.updf == 0);
 511              		.loc 1 255 30 discriminator 1 view .LVU115
 512              		.loc 1 255 24 is_stmt 0 discriminator 1 view .LVU116
 513 0000 024B     		ldr	r3, .L44
 514 0002 5B68     		ldr	r3, [r3, #4]
 515              		.loc 1 255 30 discriminator 1 view .LVU117
 516 0004 13F0080F 		tst	r3, #8
 517 0008 FAD0     		beq	.L43
 256:libraries/drivers/src/at32f403a_407_rtc.c **** }
 518              		.loc 1 256 1 view .LVU118
 519 000a 7047     		bx	lr
 520              	.L45:
 521              		.align	2
 522              	.L44:
 523 000c 00280040 		.word	1073752064
 524              		.cfi_endproc
 525              	.LFE145:
 527              		.text
 528              	.Letext0:
 529              		.file 2 "C:/Program Files (x86)/Arm/GNU Toolchain mingw-w64-i686-arm-none-eabi/arm-none-eabi/inclu
 530              		.file 3 "C:/Program Files (x86)/Arm/GNU Toolchain mingw-w64-i686-arm-none-eabi/arm-none-eabi/inclu
 531              		.file 4 "libraries/cmsis/cm4/device_support/at32f403a_407.h"
 532              		.file 5 "libraries/drivers/inc/at32f403a_407_rtc.h"
ARM GAS  C:\Users\10963\AppData\Local\Temp\cc61e3iJ.s 			page 15

