ARM GAS  C:\Users\10963\AppData\Local\Temp\ccANCQUd.s 			page 1


   1              		.cpu cortex-m4
   2              		.arch armv7e-m
   3              		.fpu fpv4-sp-d16
   4              		.eabi_attribute 27, 1
   5              		.eabi_attribute 28, 1
   6              		.eabi_attribute 20, 1
   7              		.eabi_attribute 21, 1
   8              		.eabi_attribute 23, 3
   9              		.eabi_attribute 24, 1
  10              		.eabi_attribute 25, 1
  11              		.eabi_attribute 26, 1
  12              		.eabi_attribute 30, 1
  13              		.eabi_attribute 34, 1
  14              		.eabi_attribute 18, 4
  15              		.file	"at32f403a_407_int.c"
  16              		.text
  17              	.Ltext0:
  18              		.cfi_sections	.debug_frame
  19              		.file 1 "project/src/at32f403a_407_int.c"
  20              		.section	.text.NMI_Handler,"ax",%progbits
  21              		.align	1
  22              		.global	NMI_Handler
  23              		.syntax unified
  24              		.thumb
  25              		.thumb_func
  27              	NMI_Handler:
  28              	.LFB138:
   1:project/src/at32f403a_407_int.c **** /* add user code begin Header */
   2:project/src/at32f403a_407_int.c **** /**
   3:project/src/at32f403a_407_int.c ****   **************************************************************************
   4:project/src/at32f403a_407_int.c ****   * @file     at32f403a_407_int.c
   5:project/src/at32f403a_407_int.c ****   * @brief    main interrupt service routines.
   6:project/src/at32f403a_407_int.c ****   **************************************************************************
   7:project/src/at32f403a_407_int.c ****   * Copyright (c) 2025, Artery Technology, All rights reserved.
   8:project/src/at32f403a_407_int.c ****   *
   9:project/src/at32f403a_407_int.c ****   * The software Board Support Package (BSP) that is made available to
  10:project/src/at32f403a_407_int.c ****   * download from Artery official website is the copyrighted work of Artery.
  11:project/src/at32f403a_407_int.c ****   * Artery authorizes customers to use, copy, and distribute the BSP
  12:project/src/at32f403a_407_int.c ****   * software and its related documentation for the purpose of design and
  13:project/src/at32f403a_407_int.c ****   * development in conjunction with Artery microcontrollers. Use of the
  14:project/src/at32f403a_407_int.c ****   * software is governed by this copyright notice and the following disclaimer.
  15:project/src/at32f403a_407_int.c ****   *
  16:project/src/at32f403a_407_int.c ****   * THIS SOFTWARE IS PROVIDED ON "AS IS" BASIS WITHOUT WARRANTIES,
  17:project/src/at32f403a_407_int.c ****   * GUARANTEES OR REPRESENTATIONS OF ANY KIND. ARTERY EXPRESSLY DISCLAIMS,
  18:project/src/at32f403a_407_int.c ****   * TO THE FULLEST EXTENT PERMITTED BY LAW, ALL EXPRESS, IMPLIED OR
  19:project/src/at32f403a_407_int.c ****   * STATUTORY OR OTHER WARRANTIES, GUARANTEES OR REPRESENTATIONS,
  20:project/src/at32f403a_407_int.c ****   * INCLUDING BUT NOT LIMITED TO, THE IMPLIED WARRANTIES OF MERCHANTABILITY,
  21:project/src/at32f403a_407_int.c ****   * FITNESS FOR A PARTICULAR PURPOSE, OR NON-INFRINGEMENT.
  22:project/src/at32f403a_407_int.c ****   *
  23:project/src/at32f403a_407_int.c ****   **************************************************************************
  24:project/src/at32f403a_407_int.c ****   */
  25:project/src/at32f403a_407_int.c **** /* add user code end Header */
  26:project/src/at32f403a_407_int.c **** 
  27:project/src/at32f403a_407_int.c **** /* includes ------------------------------------------------------------------*/
  28:project/src/at32f403a_407_int.c **** #include "at32f403a_407_int.h"
  29:project/src/at32f403a_407_int.c **** #include "usb_app.h"
  30:project/src/at32f403a_407_int.c **** #include "freertos_app.h"
ARM GAS  C:\Users\10963\AppData\Local\Temp\ccANCQUd.s 			page 2


  31:project/src/at32f403a_407_int.c **** 
  32:project/src/at32f403a_407_int.c **** 
  33:project/src/at32f403a_407_int.c **** /* private includes ----------------------------------------------------------*/
  34:project/src/at32f403a_407_int.c **** /* add user code begin private includes */
  35:project/src/at32f403a_407_int.c **** 
  36:project/src/at32f403a_407_int.c **** /* add user code end private includes */
  37:project/src/at32f403a_407_int.c **** 
  38:project/src/at32f403a_407_int.c **** /* private typedef -----------------------------------------------------------*/
  39:project/src/at32f403a_407_int.c **** /* add user code begin private typedef */
  40:project/src/at32f403a_407_int.c **** 
  41:project/src/at32f403a_407_int.c **** /* add user code end private typedef */
  42:project/src/at32f403a_407_int.c **** 
  43:project/src/at32f403a_407_int.c **** /* private define ------------------------------------------------------------*/
  44:project/src/at32f403a_407_int.c **** /* add user code begin private define */
  45:project/src/at32f403a_407_int.c **** 
  46:project/src/at32f403a_407_int.c **** /* add user code end private define */
  47:project/src/at32f403a_407_int.c **** 
  48:project/src/at32f403a_407_int.c **** /* private macro -------------------------------------------------------------*/
  49:project/src/at32f403a_407_int.c **** /* add user code begin private macro */
  50:project/src/at32f403a_407_int.c **** 
  51:project/src/at32f403a_407_int.c **** /* add user code end private macro */
  52:project/src/at32f403a_407_int.c **** 
  53:project/src/at32f403a_407_int.c **** /* private variables ---------------------------------------------------------*/
  54:project/src/at32f403a_407_int.c **** /* add user code begin private variables */
  55:project/src/at32f403a_407_int.c **** 
  56:project/src/at32f403a_407_int.c **** /* add user code end private variables */
  57:project/src/at32f403a_407_int.c **** 
  58:project/src/at32f403a_407_int.c **** /* private function prototypes --------------------------------------------*/
  59:project/src/at32f403a_407_int.c **** /* add user code begin function prototypes */
  60:project/src/at32f403a_407_int.c **** 
  61:project/src/at32f403a_407_int.c **** /* add user code end function prototypes */
  62:project/src/at32f403a_407_int.c **** 
  63:project/src/at32f403a_407_int.c **** /* private user code ---------------------------------------------------------*/
  64:project/src/at32f403a_407_int.c **** /* add user code begin 0 */
  65:project/src/at32f403a_407_int.c **** 
  66:project/src/at32f403a_407_int.c **** /* add user code end 0 */
  67:project/src/at32f403a_407_int.c **** 
  68:project/src/at32f403a_407_int.c **** /* external variables ---------------------------------------------------------*/
  69:project/src/at32f403a_407_int.c **** /* add user code begin external variables */
  70:project/src/at32f403a_407_int.c **** 
  71:project/src/at32f403a_407_int.c **** /* add user code end external variables */
  72:project/src/at32f403a_407_int.c **** 
  73:project/src/at32f403a_407_int.c **** /**
  74:project/src/at32f403a_407_int.c ****   * @brief  this function handles nmi exception.
  75:project/src/at32f403a_407_int.c ****   * @param  none
  76:project/src/at32f403a_407_int.c ****   * @retval none
  77:project/src/at32f403a_407_int.c ****   */
  78:project/src/at32f403a_407_int.c **** void NMI_Handler(void)
  79:project/src/at32f403a_407_int.c **** {
  29              		.loc 1 79 1 view -0
  30              		.cfi_startproc
  31              		@ args = 0, pretend = 0, frame = 0
  32              		@ frame_needed = 0, uses_anonymous_args = 0
  33              		@ link register save eliminated.
  80:project/src/at32f403a_407_int.c ****   /* add user code begin NonMaskableInt_IRQ 0 */
  81:project/src/at32f403a_407_int.c **** 
  82:project/src/at32f403a_407_int.c ****   /* add user code end NonMaskableInt_IRQ 0 */
ARM GAS  C:\Users\10963\AppData\Local\Temp\ccANCQUd.s 			page 3


  83:project/src/at32f403a_407_int.c **** 
  84:project/src/at32f403a_407_int.c ****   /* add user code begin NonMaskableInt_IRQ 1 */
  85:project/src/at32f403a_407_int.c **** 
  86:project/src/at32f403a_407_int.c ****   /* add user code end NonMaskableInt_IRQ 1 */
  87:project/src/at32f403a_407_int.c **** }
  34              		.loc 1 87 1 view .LVU1
  35 0000 7047     		bx	lr
  36              		.cfi_endproc
  37              	.LFE138:
  39              		.section	.text.HardFault_Handler,"ax",%progbits
  40              		.align	1
  41              		.global	HardFault_Handler
  42              		.syntax unified
  43              		.thumb
  44              		.thumb_func
  46              	HardFault_Handler:
  47              	.LFB139:
  88:project/src/at32f403a_407_int.c **** 
  89:project/src/at32f403a_407_int.c **** /**
  90:project/src/at32f403a_407_int.c ****   * @brief  this function handles hard fault exception.
  91:project/src/at32f403a_407_int.c ****   * @param  none
  92:project/src/at32f403a_407_int.c ****   * @retval none
  93:project/src/at32f403a_407_int.c ****   */
  94:project/src/at32f403a_407_int.c **** void HardFault_Handler(void)
  95:project/src/at32f403a_407_int.c **** {
  48              		.loc 1 95 1 view -0
  49              		.cfi_startproc
  50              		@ Volatile: function does not return.
  51              		@ args = 0, pretend = 0, frame = 0
  52              		@ frame_needed = 0, uses_anonymous_args = 0
  53              		@ link register save eliminated.
  54              	.L3:
  96:project/src/at32f403a_407_int.c ****   /* add user code begin HardFault_IRQ 0 */
  97:project/src/at32f403a_407_int.c **** 
  98:project/src/at32f403a_407_int.c ****   /* add user code end HardFault_IRQ 0 */
  99:project/src/at32f403a_407_int.c ****   /* go to infinite loop when hard fault exception occurs */
 100:project/src/at32f403a_407_int.c ****   while (1)
  55              		.loc 1 100 3 view .LVU3
 101:project/src/at32f403a_407_int.c ****   {
 102:project/src/at32f403a_407_int.c ****     /* add user code begin W1_HardFault_IRQ 0 */
 103:project/src/at32f403a_407_int.c **** 
 104:project/src/at32f403a_407_int.c ****     /* add user code end W1_HardFault_IRQ 0 */
 105:project/src/at32f403a_407_int.c ****   }
  56              		.loc 1 105 3 view .LVU4
 100:project/src/at32f403a_407_int.c ****   {
  57              		.loc 1 100 9 view .LVU5
  58 0000 FEE7     		b	.L3
  59              		.cfi_endproc
  60              	.LFE139:
  62              		.section	.text.MemManage_Handler,"ax",%progbits
  63              		.align	1
  64              		.global	MemManage_Handler
  65              		.syntax unified
  66              		.thumb
  67              		.thumb_func
  69              	MemManage_Handler:
  70              	.LFB140:
ARM GAS  C:\Users\10963\AppData\Local\Temp\ccANCQUd.s 			page 4


 106:project/src/at32f403a_407_int.c **** }
 107:project/src/at32f403a_407_int.c **** 
 108:project/src/at32f403a_407_int.c **** /**
 109:project/src/at32f403a_407_int.c ****   * @brief  this function handles memory manage exception.
 110:project/src/at32f403a_407_int.c ****   * @param  none
 111:project/src/at32f403a_407_int.c ****   * @retval none
 112:project/src/at32f403a_407_int.c ****   */
 113:project/src/at32f403a_407_int.c **** void MemManage_Handler(void)
 114:project/src/at32f403a_407_int.c **** {
  71              		.loc 1 114 1 view -0
  72              		.cfi_startproc
  73              		@ Volatile: function does not return.
  74              		@ args = 0, pretend = 0, frame = 0
  75              		@ frame_needed = 0, uses_anonymous_args = 0
  76              		@ link register save eliminated.
  77              	.L5:
 115:project/src/at32f403a_407_int.c ****   /* add user code begin MemoryManagement_IRQ 0 */
 116:project/src/at32f403a_407_int.c **** 
 117:project/src/at32f403a_407_int.c ****   /* add user code end MemoryManagement_IRQ 0 */
 118:project/src/at32f403a_407_int.c ****   /* go to infinite loop when memory manage exception occurs */
 119:project/src/at32f403a_407_int.c ****   while (1)
  78              		.loc 1 119 3 view .LVU7
 120:project/src/at32f403a_407_int.c ****   {
 121:project/src/at32f403a_407_int.c ****     /* add user code begin W1_MemoryManagement_IRQ 0 */
 122:project/src/at32f403a_407_int.c **** 
 123:project/src/at32f403a_407_int.c ****     /* add user code end W1_MemoryManagement_IRQ 0 */
 124:project/src/at32f403a_407_int.c ****   }
  79              		.loc 1 124 3 view .LVU8
 119:project/src/at32f403a_407_int.c ****   {
  80              		.loc 1 119 9 view .LVU9
  81 0000 FEE7     		b	.L5
  82              		.cfi_endproc
  83              	.LFE140:
  85              		.section	.text.BusFault_Handler,"ax",%progbits
  86              		.align	1
  87              		.global	BusFault_Handler
  88              		.syntax unified
  89              		.thumb
  90              		.thumb_func
  92              	BusFault_Handler:
  93              	.LFB141:
 125:project/src/at32f403a_407_int.c **** }
 126:project/src/at32f403a_407_int.c **** 
 127:project/src/at32f403a_407_int.c **** /**
 128:project/src/at32f403a_407_int.c ****   * @brief  this function handles bus fault exception.
 129:project/src/at32f403a_407_int.c ****   * @param  none
 130:project/src/at32f403a_407_int.c ****   * @retval none
 131:project/src/at32f403a_407_int.c ****   */
 132:project/src/at32f403a_407_int.c **** void BusFault_Handler(void)
 133:project/src/at32f403a_407_int.c **** {
  94              		.loc 1 133 1 view -0
  95              		.cfi_startproc
  96              		@ Volatile: function does not return.
  97              		@ args = 0, pretend = 0, frame = 0
  98              		@ frame_needed = 0, uses_anonymous_args = 0
  99              		@ link register save eliminated.
 100              	.L7:
ARM GAS  C:\Users\10963\AppData\Local\Temp\ccANCQUd.s 			page 5


 134:project/src/at32f403a_407_int.c ****   /* add user code begin BusFault_IRQ 0 */
 135:project/src/at32f403a_407_int.c **** 
 136:project/src/at32f403a_407_int.c ****   /* add user code end BusFault_IRQ 0 */
 137:project/src/at32f403a_407_int.c ****   /* go to infinite loop when bus fault exception occurs */
 138:project/src/at32f403a_407_int.c ****   while (1)
 101              		.loc 1 138 3 view .LVU11
 139:project/src/at32f403a_407_int.c ****   {
 140:project/src/at32f403a_407_int.c ****     /* add user code begin W1_BusFault_IRQ 0 */
 141:project/src/at32f403a_407_int.c **** 
 142:project/src/at32f403a_407_int.c ****     /* add user code end W1_BusFault_IRQ 0 */
 143:project/src/at32f403a_407_int.c ****   }
 102              		.loc 1 143 3 view .LVU12
 138:project/src/at32f403a_407_int.c ****   {
 103              		.loc 1 138 9 view .LVU13
 104 0000 FEE7     		b	.L7
 105              		.cfi_endproc
 106              	.LFE141:
 108              		.section	.text.UsageFault_Handler,"ax",%progbits
 109              		.align	1
 110              		.global	UsageFault_Handler
 111              		.syntax unified
 112              		.thumb
 113              		.thumb_func
 115              	UsageFault_Handler:
 116              	.LFB142:
 144:project/src/at32f403a_407_int.c **** }
 145:project/src/at32f403a_407_int.c **** 
 146:project/src/at32f403a_407_int.c **** /**
 147:project/src/at32f403a_407_int.c ****   * @brief  this function handles usage fault exception.
 148:project/src/at32f403a_407_int.c ****   * @param  none
 149:project/src/at32f403a_407_int.c ****   * @retval none
 150:project/src/at32f403a_407_int.c ****   */
 151:project/src/at32f403a_407_int.c **** void UsageFault_Handler(void)
 152:project/src/at32f403a_407_int.c **** {
 117              		.loc 1 152 1 view -0
 118              		.cfi_startproc
 119              		@ Volatile: function does not return.
 120              		@ args = 0, pretend = 0, frame = 0
 121              		@ frame_needed = 0, uses_anonymous_args = 0
 122              		@ link register save eliminated.
 123              	.L9:
 153:project/src/at32f403a_407_int.c ****   /* add user code begin UsageFault_IRQ 0 */
 154:project/src/at32f403a_407_int.c **** 
 155:project/src/at32f403a_407_int.c ****   /* add user code end UsageFault_IRQ 0 */
 156:project/src/at32f403a_407_int.c ****   /* go to infinite loop when usage fault exception occurs */
 157:project/src/at32f403a_407_int.c ****   while (1)
 124              		.loc 1 157 3 view .LVU15
 158:project/src/at32f403a_407_int.c ****   {
 159:project/src/at32f403a_407_int.c ****     /* add user code begin W1_UsageFault_IRQ 0 */
 160:project/src/at32f403a_407_int.c **** 
 161:project/src/at32f403a_407_int.c ****     /* add user code end W1_UsageFault_IRQ 0 */
 162:project/src/at32f403a_407_int.c ****   }
 125              		.loc 1 162 3 view .LVU16
 157:project/src/at32f403a_407_int.c ****   {
 126              		.loc 1 157 9 view .LVU17
 127 0000 FEE7     		b	.L9
 128              		.cfi_endproc
ARM GAS  C:\Users\10963\AppData\Local\Temp\ccANCQUd.s 			page 6


 129              	.LFE142:
 131              		.section	.text.DebugMon_Handler,"ax",%progbits
 132              		.align	1
 133              		.global	DebugMon_Handler
 134              		.syntax unified
 135              		.thumb
 136              		.thumb_func
 138              	DebugMon_Handler:
 139              	.LFB143:
 163:project/src/at32f403a_407_int.c **** }
 164:project/src/at32f403a_407_int.c **** 
 165:project/src/at32f403a_407_int.c **** 
 166:project/src/at32f403a_407_int.c **** /**
 167:project/src/at32f403a_407_int.c ****   * @brief  this function handles debug monitor exception.
 168:project/src/at32f403a_407_int.c ****   * @param  none
 169:project/src/at32f403a_407_int.c ****   * @retval none
 170:project/src/at32f403a_407_int.c ****   */
 171:project/src/at32f403a_407_int.c **** void DebugMon_Handler(void)
 172:project/src/at32f403a_407_int.c **** {
 140              		.loc 1 172 1 view -0
 141              		.cfi_startproc
 142              		@ args = 0, pretend = 0, frame = 0
 143              		@ frame_needed = 0, uses_anonymous_args = 0
 144              		@ link register save eliminated.
 173:project/src/at32f403a_407_int.c ****   /* add user code begin DebugMonitor_IRQ 0 */
 174:project/src/at32f403a_407_int.c **** 
 175:project/src/at32f403a_407_int.c ****   /* add user code end DebugMonitor_IRQ 0 */
 176:project/src/at32f403a_407_int.c ****   /* add user code begin DebugMonitor_IRQ 1 */
 177:project/src/at32f403a_407_int.c **** 
 178:project/src/at32f403a_407_int.c ****   /* add user code end DebugMonitor_IRQ 1 */
 179:project/src/at32f403a_407_int.c **** }
 145              		.loc 1 179 1 view .LVU19
 146 0000 7047     		bx	lr
 147              		.cfi_endproc
 148              	.LFE143:
 150              		.section	.text.SysTick_Handler,"ax",%progbits
 151              		.align	1
 152              		.global	SysTick_Handler
 153              		.syntax unified
 154              		.thumb
 155              		.thumb_func
 157              	SysTick_Handler:
 158              	.LFB144:
 180:project/src/at32f403a_407_int.c **** 
 181:project/src/at32f403a_407_int.c **** extern void xPortSysTickHandler(void);
 182:project/src/at32f403a_407_int.c **** 
 183:project/src/at32f403a_407_int.c **** /**
 184:project/src/at32f403a_407_int.c ****   * @brief  this function handles systick handler.
 185:project/src/at32f403a_407_int.c ****   * @param  none
 186:project/src/at32f403a_407_int.c ****   * @retval none
 187:project/src/at32f403a_407_int.c ****   */
 188:project/src/at32f403a_407_int.c **** void SysTick_Handler(void)
 189:project/src/at32f403a_407_int.c **** {
 159              		.loc 1 189 1 view -0
 160              		.cfi_startproc
 161              		@ args = 0, pretend = 0, frame = 0
 162              		@ frame_needed = 0, uses_anonymous_args = 0
ARM GAS  C:\Users\10963\AppData\Local\Temp\ccANCQUd.s 			page 7


 163 0000 08B5     		push	{r3, lr}
 164              	.LCFI0:
 165              		.cfi_def_cfa_offset 8
 166              		.cfi_offset 3, -8
 167              		.cfi_offset 14, -4
 190:project/src/at32f403a_407_int.c ****   /* add user code begin SysTick_IRQ 0 */
 191:project/src/at32f403a_407_int.c **** 
 192:project/src/at32f403a_407_int.c ****   /* add user code end SysTick_IRQ 0 */
 193:project/src/at32f403a_407_int.c **** 
 194:project/src/at32f403a_407_int.c **** #if (INCLUDE_xTaskGetSchedulerState == 1 )
 195:project/src/at32f403a_407_int.c ****   if (xTaskGetSchedulerState() != taskSCHEDULER_NOT_STARTED)
 168              		.loc 1 195 3 view .LVU21
 169              		.loc 1 195 7 is_stmt 0 view .LVU22
 170 0002 FFF7FEFF 		bl	xTaskGetSchedulerState
 171              	.LVL0:
 172              		.loc 1 195 6 discriminator 1 view .LVU23
 173 0006 0128     		cmp	r0, #1
 174 0008 02D1     		bne	.L14
 175              	.L12:
 196:project/src/at32f403a_407_int.c ****   {
 197:project/src/at32f403a_407_int.c **** #endif /* INCLUDE_xTaskGetSchedulerState */
 198:project/src/at32f403a_407_int.c ****   xPortSysTickHandler();
 199:project/src/at32f403a_407_int.c **** #if (INCLUDE_xTaskGetSchedulerState == 1 )
 200:project/src/at32f403a_407_int.c ****   }
 201:project/src/at32f403a_407_int.c **** #endif /* INCLUDE_xTaskGetSchedulerState */
 202:project/src/at32f403a_407_int.c **** 
 203:project/src/at32f403a_407_int.c ****   /* add user code begin SysTick_IRQ 1 */
 204:project/src/at32f403a_407_int.c ****   /* call timebase handler */
 205:project/src/at32f403a_407_int.c ****   extern void wk_timebase_handler(void);
 176              		.loc 1 205 3 is_stmt 1 view .LVU24
 206:project/src/at32f403a_407_int.c ****   wk_timebase_handler();
 177              		.loc 1 206 3 view .LVU25
 178 000a FFF7FEFF 		bl	wk_timebase_handler
 179              	.LVL1:
 207:project/src/at32f403a_407_int.c ****   /* add user code end SysTick_IRQ 1 */
 208:project/src/at32f403a_407_int.c **** }
 180              		.loc 1 208 1 is_stmt 0 view .LVU26
 181 000e 08BD     		pop	{r3, pc}
 182              	.L14:
 198:project/src/at32f403a_407_int.c **** #if (INCLUDE_xTaskGetSchedulerState == 1 )
 183              		.loc 1 198 3 is_stmt 1 view .LVU27
 184 0010 FFF7FEFF 		bl	xPortSysTickHandler
 185              	.LVL2:
 186 0014 F9E7     		b	.L12
 187              		.cfi_endproc
 188              	.LFE144:
 190              		.section	.text.DMA1_Channel1_IRQHandler,"ax",%progbits
 191              		.align	1
 192              		.global	DMA1_Channel1_IRQHandler
 193              		.syntax unified
 194              		.thumb
 195              		.thumb_func
 197              	DMA1_Channel1_IRQHandler:
 198              	.LFB145:
 209:project/src/at32f403a_407_int.c **** 
 210:project/src/at32f403a_407_int.c **** /**
 211:project/src/at32f403a_407_int.c ****   * @brief  this function handles DMA1 Channel 1 handler.
ARM GAS  C:\Users\10963\AppData\Local\Temp\ccANCQUd.s 			page 8


 212:project/src/at32f403a_407_int.c ****   * @param  none
 213:project/src/at32f403a_407_int.c ****   * @retval none
 214:project/src/at32f403a_407_int.c ****   */
 215:project/src/at32f403a_407_int.c **** void DMA1_Channel1_IRQHandler(void)
 216:project/src/at32f403a_407_int.c **** {
 199              		.loc 1 216 1 view -0
 200              		.cfi_startproc
 201              		@ args = 0, pretend = 0, frame = 0
 202              		@ frame_needed = 0, uses_anonymous_args = 0
 203 0000 08B5     		push	{r3, lr}
 204              	.LCFI1:
 205              		.cfi_def_cfa_offset 8
 206              		.cfi_offset 3, -8
 207              		.cfi_offset 14, -4
 217:project/src/at32f403a_407_int.c ****   /* add user code begin DMA1_Channel1_IRQ 0 */
 218:project/src/at32f403a_407_int.c **** 
 219:project/src/at32f403a_407_int.c ****   /* add user code end DMA1_Channel1_IRQ 0 */
 220:project/src/at32f403a_407_int.c **** 
 221:project/src/at32f403a_407_int.c ****   if(dma_interrupt_flag_get(DMA1_FDT1_FLAG) != RESET)
 208              		.loc 1 221 3 view .LVU29
 209              		.loc 1 221 6 is_stmt 0 view .LVU30
 210 0002 0220     		movs	r0, #2
 211 0004 FFF7FEFF 		bl	dma_interrupt_flag_get
 212              	.LVL3:
 213              		.loc 1 221 5 discriminator 1 view .LVU31
 214 0008 00B9     		cbnz	r0, .L18
 215              	.L15:
 222:project/src/at32f403a_407_int.c ****   {   
 223:project/src/at32f403a_407_int.c ****     /* add user code begin DMA1_FDT1_FLAG */
 224:project/src/at32f403a_407_int.c ****     /* handle full data transfer and clear flag */
 225:project/src/at32f403a_407_int.c ****     dma_flag_clear(DMA1_FDT1_FLAG);
 226:project/src/at32f403a_407_int.c ****     /* add user code end DMA1_FDT1_FLAG */ 
 227:project/src/at32f403a_407_int.c ****   }
 228:project/src/at32f403a_407_int.c **** 
 229:project/src/at32f403a_407_int.c ****   /* add user code begin DMA1_Channel1_IRQ 1 */
 230:project/src/at32f403a_407_int.c **** 
 231:project/src/at32f403a_407_int.c ****   /* add user code end DMA1_Channel1_IRQ 1 */
 232:project/src/at32f403a_407_int.c **** }
 216              		.loc 1 232 1 view .LVU32
 217 000a 08BD     		pop	{r3, pc}
 218              	.L18:
 225:project/src/at32f403a_407_int.c ****     /* add user code end DMA1_FDT1_FLAG */ 
 219              		.loc 1 225 5 is_stmt 1 view .LVU33
 220 000c 0220     		movs	r0, #2
 221 000e FFF7FEFF 		bl	dma_flag_clear
 222              	.LVL4:
 223              		.loc 1 232 1 is_stmt 0 view .LVU34
 224 0012 FAE7     		b	.L15
 225              		.cfi_endproc
 226              	.LFE145:
 228              		.section	.text.SPI1_IRQHandler,"ax",%progbits
 229              		.align	1
 230              		.global	SPI1_IRQHandler
 231              		.syntax unified
 232              		.thumb
 233              		.thumb_func
 235              	SPI1_IRQHandler:
ARM GAS  C:\Users\10963\AppData\Local\Temp\ccANCQUd.s 			page 9


 236              	.LFB146:
 233:project/src/at32f403a_407_int.c **** 
 234:project/src/at32f403a_407_int.c **** /**
 235:project/src/at32f403a_407_int.c ****   * @brief  this function handles SPI1 handler.
 236:project/src/at32f403a_407_int.c ****   * @param  none
 237:project/src/at32f403a_407_int.c ****   * @retval none
 238:project/src/at32f403a_407_int.c ****   */
 239:project/src/at32f403a_407_int.c **** void SPI1_IRQHandler(void)
 240:project/src/at32f403a_407_int.c **** {
 237              		.loc 1 240 1 is_stmt 1 view -0
 238              		.cfi_startproc
 239              		@ args = 0, pretend = 0, frame = 0
 240              		@ frame_needed = 0, uses_anonymous_args = 0
 241              		@ link register save eliminated.
 241:project/src/at32f403a_407_int.c ****   /* add user code begin SPI1_IRQ 0 */
 242:project/src/at32f403a_407_int.c **** 
 243:project/src/at32f403a_407_int.c ****   /* add user code end SPI1_IRQ 0 */
 244:project/src/at32f403a_407_int.c **** 
 245:project/src/at32f403a_407_int.c ****   /* add user code begin SPI1_IRQ 1 */
 246:project/src/at32f403a_407_int.c **** 
 247:project/src/at32f403a_407_int.c ****   /* add user code end SPI1_IRQ 1 */
 248:project/src/at32f403a_407_int.c **** }
 242              		.loc 1 248 1 view .LVU36
 243 0000 7047     		bx	lr
 244              		.cfi_endproc
 245              	.LFE146:
 247              		.section	.text.TMR5_GLOBAL_IRQHandler,"ax",%progbits
 248              		.align	1
 249              		.global	TMR5_GLOBAL_IRQHandler
 250              		.syntax unified
 251              		.thumb
 252              		.thumb_func
 254              	TMR5_GLOBAL_IRQHandler:
 255              	.LFB147:
 249:project/src/at32f403a_407_int.c **** 
 250:project/src/at32f403a_407_int.c **** /**
 251:project/src/at32f403a_407_int.c ****   * @brief  this function handles TMR5 handler.
 252:project/src/at32f403a_407_int.c ****   * @param  none
 253:project/src/at32f403a_407_int.c ****   * @retval none
 254:project/src/at32f403a_407_int.c ****   */
 255:project/src/at32f403a_407_int.c **** void TMR5_GLOBAL_IRQHandler(void)
 256:project/src/at32f403a_407_int.c **** {
 256              		.loc 1 256 1 view -0
 257              		.cfi_startproc
 258              		@ args = 0, pretend = 0, frame = 0
 259              		@ frame_needed = 0, uses_anonymous_args = 0
 260 0000 08B5     		push	{r3, lr}
 261              	.LCFI2:
 262              		.cfi_def_cfa_offset 8
 263              		.cfi_offset 3, -8
 264              		.cfi_offset 14, -4
 257:project/src/at32f403a_407_int.c ****   /* add user code begin TMR5_GLOBAL_IRQ 0 */
 258:project/src/at32f403a_407_int.c **** 
 259:project/src/at32f403a_407_int.c ****   /* add user code end TMR5_GLOBAL_IRQ 0 */
 260:project/src/at32f403a_407_int.c **** 
 261:project/src/at32f403a_407_int.c ****   /* overflow interrupt management */
 262:project/src/at32f403a_407_int.c ****   if(tmr_interrupt_flag_get(TMR5, TMR_OVF_FLAG) != RESET)
ARM GAS  C:\Users\10963\AppData\Local\Temp\ccANCQUd.s 			page 10


 265              		.loc 1 262 3 view .LVU38
 266              		.loc 1 262 6 is_stmt 0 view .LVU39
 267 0002 0121     		movs	r1, #1
 268 0004 0448     		ldr	r0, .L24
 269 0006 FFF7FEFF 		bl	tmr_interrupt_flag_get
 270              	.LVL5:
 271              		.loc 1 262 5 discriminator 1 view .LVU40
 272 000a 00B9     		cbnz	r0, .L23
 273              	.L20:
 263:project/src/at32f403a_407_int.c ****   {
 264:project/src/at32f403a_407_int.c ****     /* add user code begin TMR5_TMR_OVF_FLAG */
 265:project/src/at32f403a_407_int.c ****     /* clear flag */
 266:project/src/at32f403a_407_int.c ****     tmr_flag_clear(TMR5, TMR_OVF_FLAG);
 267:project/src/at32f403a_407_int.c ****     /* add user code end TMR5_TMR_OVF_FLAG */
 268:project/src/at32f403a_407_int.c ****   }
 269:project/src/at32f403a_407_int.c **** 
 270:project/src/at32f403a_407_int.c ****   /* add user code begin TMR5_GLOBAL_IRQ 1 */
 271:project/src/at32f403a_407_int.c **** 
 272:project/src/at32f403a_407_int.c ****   /* add user code end TMR5_GLOBAL_IRQ 1 */
 273:project/src/at32f403a_407_int.c **** }
 274              		.loc 1 273 1 view .LVU41
 275 000c 08BD     		pop	{r3, pc}
 276              	.L23:
 266:project/src/at32f403a_407_int.c ****     /* add user code end TMR5_TMR_OVF_FLAG */
 277              		.loc 1 266 5 is_stmt 1 view .LVU42
 278 000e 0121     		movs	r1, #1
 279 0010 0148     		ldr	r0, .L24
 280 0012 FFF7FEFF 		bl	tmr_flag_clear
 281              	.LVL6:
 282              		.loc 1 273 1 is_stmt 0 view .LVU43
 283 0016 F9E7     		b	.L20
 284              	.L25:
 285              		.align	2
 286              	.L24:
 287 0018 000C0040 		.word	1073744896
 288              		.cfi_endproc
 289              	.LFE147:
 291              		.section	.text.USBFS_MAPL_IRQHandler,"ax",%progbits
 292              		.align	1
 293              		.global	USBFS_MAPL_IRQHandler
 294              		.syntax unified
 295              		.thumb
 296              		.thumb_func
 298              	USBFS_MAPL_IRQHandler:
 299              	.LFB148:
 274:project/src/at32f403a_407_int.c **** 
 275:project/src/at32f403a_407_int.c **** /**
 276:project/src/at32f403a_407_int.c ****   * @brief  this function handles USB Map Low handler.
 277:project/src/at32f403a_407_int.c ****   * @param  none
 278:project/src/at32f403a_407_int.c ****   * @retval none
 279:project/src/at32f403a_407_int.c ****   */
 280:project/src/at32f403a_407_int.c **** void USBFS_MAPL_IRQHandler(void)
 281:project/src/at32f403a_407_int.c **** {
 300              		.loc 1 281 1 is_stmt 1 view -0
 301              		.cfi_startproc
 302              		@ args = 0, pretend = 0, frame = 0
 303              		@ frame_needed = 0, uses_anonymous_args = 0
ARM GAS  C:\Users\10963\AppData\Local\Temp\ccANCQUd.s 			page 11


 304 0000 08B5     		push	{r3, lr}
 305              	.LCFI3:
 306              		.cfi_def_cfa_offset 8
 307              		.cfi_offset 3, -8
 308              		.cfi_offset 14, -4
 282:project/src/at32f403a_407_int.c ****   /* add user code begin USBFS_MAPL_IRQ 0 */
 283:project/src/at32f403a_407_int.c **** 
 284:project/src/at32f403a_407_int.c ****   /* add user code end USBFS_MAPL_IRQ 0 */
 285:project/src/at32f403a_407_int.c **** 
 286:project/src/at32f403a_407_int.c ****   wk_usbfs_irq_handler();
 309              		.loc 1 286 3 view .LVU45
 310 0002 FFF7FEFF 		bl	wk_usbfs_irq_handler
 311              	.LVL7:
 287:project/src/at32f403a_407_int.c **** 
 288:project/src/at32f403a_407_int.c ****   /* add user code begin USBFS_MAPL_IRQ 1 */
 289:project/src/at32f403a_407_int.c **** 
 290:project/src/at32f403a_407_int.c ****   /* add user code end USBFS_MAPL_IRQ 1 */
 291:project/src/at32f403a_407_int.c **** }
 312              		.loc 1 291 1 is_stmt 0 view .LVU46
 313 0006 08BD     		pop	{r3, pc}
 314              		.cfi_endproc
 315              	.LFE148:
 317              		.text
 318              	.Letext0:
 319              		.file 2 "C:/Program Files (x86)/Arm/GNU Toolchain mingw-w64-i686-arm-none-eabi/arm-none-eabi/inclu
 320              		.file 3 "C:/Program Files (x86)/Arm/GNU Toolchain mingw-w64-i686-arm-none-eabi/arm-none-eabi/inclu
 321              		.file 4 "libraries/cmsis/cm4/device_support/at32f403a_407.h"
 322              		.file 5 "libraries/drivers/inc/at32f403a_407_tmr.h"
 323              		.file 6 "middlewares/freertos/source/portable/GCC/ARM_CM4F/portmacro.h"
 324              		.file 7 "libraries/drivers/inc/at32f403a_407_dma.h"
 325              		.file 8 "project/inc/usb_app.h"
 326              		.file 9 "middlewares/freertos/source/include/task.h"
ARM GAS  C:\Users\10963\AppData\Local\Temp\ccANCQUd.s 			page 12

