ARM GAS  C:\Users\10963\AppData\Local\Temp\ccYSkP21.s 			page 1


   1              		.cpu cortex-m4
   2              		.arch armv7e-m
   3              		.fpu fpv4-sp-d16
   4              		.eabi_attribute 27, 1
   5              		.eabi_attribute 28, 1
   6              		.eabi_attribute 20, 1
   7              		.eabi_attribute 21, 1
   8              		.eabi_attribute 23, 3
   9              		.eabi_attribute 24, 1
  10              		.eabi_attribute 25, 1
  11              		.eabi_attribute 26, 1
  12              		.eabi_attribute 30, 1
  13              		.eabi_attribute 34, 1
  14              		.eabi_attribute 18, 4
  15              		.file	"at32f403a_407_usart.c"
  16              		.text
  17              	.Ltext0:
  18              		.cfi_sections	.debug_frame
  19              		.file 1 "libraries/drivers/src/at32f403a_407_usart.c"
  20              		.section	.text.usart_reset,"ax",%progbits
  21              		.align	1
  22              		.global	usart_reset
  23              		.syntax unified
  24              		.thumb
  25              		.thumb_func
  27              	usart_reset:
  28              	.LVL0:
  29              	.LFB134:
   1:libraries/drivers/src/at32f403a_407_usart.c **** /**
   2:libraries/drivers/src/at32f403a_407_usart.c ****   **************************************************************************
   3:libraries/drivers/src/at32f403a_407_usart.c ****   * @file     at32f403a_407_usart.c
   4:libraries/drivers/src/at32f403a_407_usart.c ****   * @brief    contains all the functions for the usart firmware library
   5:libraries/drivers/src/at32f403a_407_usart.c ****   **************************************************************************
   6:libraries/drivers/src/at32f403a_407_usart.c ****   *
   7:libraries/drivers/src/at32f403a_407_usart.c ****   * Copyright (c) 2025, Artery Technology, All rights reserved.
   8:libraries/drivers/src/at32f403a_407_usart.c ****   *
   9:libraries/drivers/src/at32f403a_407_usart.c ****   * The software Board Support Package (BSP) that is made available to
  10:libraries/drivers/src/at32f403a_407_usart.c ****   * download from Artery official website is the copyrighted work of Artery.
  11:libraries/drivers/src/at32f403a_407_usart.c ****   * Artery authorizes customers to use, copy, and distribute the BSP
  12:libraries/drivers/src/at32f403a_407_usart.c ****   * software and its related documentation for the purpose of design and
  13:libraries/drivers/src/at32f403a_407_usart.c ****   * development in conjunction with Artery microcontrollers. Use of the
  14:libraries/drivers/src/at32f403a_407_usart.c ****   * software is governed by this copyright notice and the following disclaimer.
  15:libraries/drivers/src/at32f403a_407_usart.c ****   *
  16:libraries/drivers/src/at32f403a_407_usart.c ****   * THIS SOFTWARE IS PROVIDED ON "AS IS" BASIS WITHOUT WARRANTIES,
  17:libraries/drivers/src/at32f403a_407_usart.c ****   * GUARANTEES OR REPRESENTATIONS OF ANY KIND. ARTERY EXPRESSLY DISCLAIMS,
  18:libraries/drivers/src/at32f403a_407_usart.c ****   * TO THE FULLEST EXTENT PERMITTED BY LAW, ALL EXPRESS, IMPLIED OR
  19:libraries/drivers/src/at32f403a_407_usart.c ****   * STATUTORY OR OTHER WARRANTIES, GUARANTEES OR REPRESENTATIONS,
  20:libraries/drivers/src/at32f403a_407_usart.c ****   * INCLUDING BUT NOT LIMITED TO, THE IMPLIED WARRANTIES OF MERCHANTABILITY,
  21:libraries/drivers/src/at32f403a_407_usart.c ****   * FITNESS FOR A PARTICULAR PURPOSE, OR NON-INFRINGEMENT.
  22:libraries/drivers/src/at32f403a_407_usart.c ****   *
  23:libraries/drivers/src/at32f403a_407_usart.c ****   **************************************************************************
  24:libraries/drivers/src/at32f403a_407_usart.c ****   */
  25:libraries/drivers/src/at32f403a_407_usart.c **** 
  26:libraries/drivers/src/at32f403a_407_usart.c **** /* includes ------------------------------------------------------------------*/
  27:libraries/drivers/src/at32f403a_407_usart.c **** #include "at32f403a_407_conf.h"
  28:libraries/drivers/src/at32f403a_407_usart.c **** 
  29:libraries/drivers/src/at32f403a_407_usart.c **** /** @addtogroup AT32F403A_407_periph_driver
ARM GAS  C:\Users\10963\AppData\Local\Temp\ccYSkP21.s 			page 2


  30:libraries/drivers/src/at32f403a_407_usart.c ****   * @{
  31:libraries/drivers/src/at32f403a_407_usart.c ****   */
  32:libraries/drivers/src/at32f403a_407_usart.c **** 
  33:libraries/drivers/src/at32f403a_407_usart.c **** /** @defgroup USART
  34:libraries/drivers/src/at32f403a_407_usart.c ****   * @brief USART driver modules
  35:libraries/drivers/src/at32f403a_407_usart.c ****   * @{
  36:libraries/drivers/src/at32f403a_407_usart.c ****   */
  37:libraries/drivers/src/at32f403a_407_usart.c **** 
  38:libraries/drivers/src/at32f403a_407_usart.c **** #ifdef USART_MODULE_ENABLED
  39:libraries/drivers/src/at32f403a_407_usart.c **** 
  40:libraries/drivers/src/at32f403a_407_usart.c **** /** @defgroup USART_private_functions
  41:libraries/drivers/src/at32f403a_407_usart.c ****   * @{
  42:libraries/drivers/src/at32f403a_407_usart.c ****   */
  43:libraries/drivers/src/at32f403a_407_usart.c **** 
  44:libraries/drivers/src/at32f403a_407_usart.c **** /**
  45:libraries/drivers/src/at32f403a_407_usart.c ****   * @brief  deinitialize the usart peripheral registers to their default reset values.
  46:libraries/drivers/src/at32f403a_407_usart.c ****   * @param  usart_x: select the usart or the uart peripheral.
  47:libraries/drivers/src/at32f403a_407_usart.c ****   *         this parameter can be one of the following values:
  48:libraries/drivers/src/at32f403a_407_usart.c ****   *         USART1, USART2, USART3, UART4, UART5, USART6, UART7,or UART8.
  49:libraries/drivers/src/at32f403a_407_usart.c ****   * @retval none
  50:libraries/drivers/src/at32f403a_407_usart.c ****   */
  51:libraries/drivers/src/at32f403a_407_usart.c **** void usart_reset(usart_type* usart_x)
  52:libraries/drivers/src/at32f403a_407_usart.c **** {
  30              		.loc 1 52 1 view -0
  31              		.cfi_startproc
  32              		@ args = 0, pretend = 0, frame = 0
  33              		@ frame_needed = 0, uses_anonymous_args = 0
  34              		.loc 1 52 1 is_stmt 0 view .LVU1
  35 0000 08B5     		push	{r3, lr}
  36              	.LCFI0:
  37              		.cfi_def_cfa_offset 8
  38              		.cfi_offset 3, -8
  39              		.cfi_offset 14, -4
  53:libraries/drivers/src/at32f403a_407_usart.c ****   if(usart_x == USART1)
  40              		.loc 1 53 3 is_stmt 1 view .LVU2
  41              		.loc 1 53 5 is_stmt 0 view .LVU3
  42 0002 2A4B     		ldr	r3, .L17
  43 0004 9842     		cmp	r0, r3
  44 0006 12D0     		beq	.L10
  54:libraries/drivers/src/at32f403a_407_usart.c ****   {
  55:libraries/drivers/src/at32f403a_407_usart.c ****     crm_periph_reset(CRM_USART1_PERIPH_RESET, TRUE);
  56:libraries/drivers/src/at32f403a_407_usart.c ****     crm_periph_reset(CRM_USART1_PERIPH_RESET, FALSE);
  57:libraries/drivers/src/at32f403a_407_usart.c ****   }
  58:libraries/drivers/src/at32f403a_407_usart.c ****   else if(usart_x == USART2)
  45              		.loc 1 58 8 is_stmt 1 view .LVU4
  46              		.loc 1 58 10 is_stmt 0 view .LVU5
  47 0008 294B     		ldr	r3, .L17+4
  48 000a 9842     		cmp	r0, r3
  49 000c 18D0     		beq	.L11
  59:libraries/drivers/src/at32f403a_407_usart.c ****   {
  60:libraries/drivers/src/at32f403a_407_usart.c ****     crm_periph_reset(CRM_USART2_PERIPH_RESET, TRUE);
  61:libraries/drivers/src/at32f403a_407_usart.c ****     crm_periph_reset(CRM_USART2_PERIPH_RESET, FALSE);
  62:libraries/drivers/src/at32f403a_407_usart.c ****   }
  63:libraries/drivers/src/at32f403a_407_usart.c ****   else if(usart_x == USART3)
  50              		.loc 1 63 8 is_stmt 1 view .LVU6
  51              		.loc 1 63 10 is_stmt 0 view .LVU7
  52 000e 294B     		ldr	r3, .L17+8
ARM GAS  C:\Users\10963\AppData\Local\Temp\ccYSkP21.s 			page 3


  53 0010 9842     		cmp	r0, r3
  54 0012 1ED0     		beq	.L12
  64:libraries/drivers/src/at32f403a_407_usart.c ****   {
  65:libraries/drivers/src/at32f403a_407_usart.c ****     crm_periph_reset(CRM_USART3_PERIPH_RESET, TRUE);
  66:libraries/drivers/src/at32f403a_407_usart.c ****     crm_periph_reset(CRM_USART3_PERIPH_RESET, FALSE);
  67:libraries/drivers/src/at32f403a_407_usart.c ****   }
  68:libraries/drivers/src/at32f403a_407_usart.c ****   else if(usart_x == UART4)
  55              		.loc 1 68 8 is_stmt 1 view .LVU8
  56              		.loc 1 68 10 is_stmt 0 view .LVU9
  57 0014 284B     		ldr	r3, .L17+12
  58 0016 9842     		cmp	r0, r3
  59 0018 24D0     		beq	.L13
  69:libraries/drivers/src/at32f403a_407_usart.c ****   {
  70:libraries/drivers/src/at32f403a_407_usart.c ****     crm_periph_reset(CRM_UART4_PERIPH_RESET, TRUE);
  71:libraries/drivers/src/at32f403a_407_usart.c ****     crm_periph_reset(CRM_UART4_PERIPH_RESET, FALSE);
  72:libraries/drivers/src/at32f403a_407_usart.c ****   }
  73:libraries/drivers/src/at32f403a_407_usart.c ****   else if(usart_x == UART5)
  60              		.loc 1 73 8 is_stmt 1 view .LVU10
  61              		.loc 1 73 10 is_stmt 0 view .LVU11
  62 001a 284B     		ldr	r3, .L17+16
  63 001c 9842     		cmp	r0, r3
  64 001e 2AD0     		beq	.L14
  74:libraries/drivers/src/at32f403a_407_usart.c ****   {
  75:libraries/drivers/src/at32f403a_407_usart.c ****     crm_periph_reset(CRM_UART5_PERIPH_RESET, TRUE);
  76:libraries/drivers/src/at32f403a_407_usart.c ****     crm_periph_reset(CRM_UART5_PERIPH_RESET, FALSE);
  77:libraries/drivers/src/at32f403a_407_usart.c ****   }
  78:libraries/drivers/src/at32f403a_407_usart.c ****   else if(usart_x == USART6)
  65              		.loc 1 78 8 is_stmt 1 view .LVU12
  66              		.loc 1 78 10 is_stmt 0 view .LVU13
  67 0020 274B     		ldr	r3, .L17+20
  68 0022 9842     		cmp	r0, r3
  69 0024 30D0     		beq	.L15
  79:libraries/drivers/src/at32f403a_407_usart.c ****   {
  80:libraries/drivers/src/at32f403a_407_usart.c ****     crm_periph_reset(CRM_USART6_PERIPH_RESET, TRUE);
  81:libraries/drivers/src/at32f403a_407_usart.c ****     crm_periph_reset(CRM_USART6_PERIPH_RESET, FALSE);
  82:libraries/drivers/src/at32f403a_407_usart.c ****   }
  83:libraries/drivers/src/at32f403a_407_usart.c ****   else if(usart_x == UART7)
  70              		.loc 1 83 8 is_stmt 1 view .LVU14
  71              		.loc 1 83 10 is_stmt 0 view .LVU15
  72 0026 274B     		ldr	r3, .L17+24
  73 0028 9842     		cmp	r0, r3
  74 002a 36D0     		beq	.L16
  75              	.LVL1:
  76              	.L1:
  84:libraries/drivers/src/at32f403a_407_usart.c ****   {
  85:libraries/drivers/src/at32f403a_407_usart.c ****     crm_periph_reset(CRM_UART7_PERIPH_RESET, TRUE);
  86:libraries/drivers/src/at32f403a_407_usart.c ****     crm_periph_reset(CRM_UART7_PERIPH_RESET, FALSE);
  87:libraries/drivers/src/at32f403a_407_usart.c ****   }
  88:libraries/drivers/src/at32f403a_407_usart.c **** #if defined (AT32F403ARx) || defined (AT32F403AVx) || defined (AT32F407Rx) || \
  89:libraries/drivers/src/at32f403a_407_usart.c ****     defined (AT32F407Vx)
  90:libraries/drivers/src/at32f403a_407_usart.c ****   else if(usart_x == UART8)
  91:libraries/drivers/src/at32f403a_407_usart.c ****   {
  92:libraries/drivers/src/at32f403a_407_usart.c ****     crm_periph_reset(CRM_UART8_PERIPH_RESET, TRUE);
  93:libraries/drivers/src/at32f403a_407_usart.c ****     crm_periph_reset(CRM_UART8_PERIPH_RESET, FALSE);
  94:libraries/drivers/src/at32f403a_407_usart.c ****   }
  95:libraries/drivers/src/at32f403a_407_usart.c **** #endif
  96:libraries/drivers/src/at32f403a_407_usart.c **** }
ARM GAS  C:\Users\10963\AppData\Local\Temp\ccYSkP21.s 			page 4


  77              		.loc 1 96 1 view .LVU16
  78 002c 08BD     		pop	{r3, pc}
  79              	.LVL2:
  80              	.L10:
  55:libraries/drivers/src/at32f403a_407_usart.c ****     crm_periph_reset(CRM_USART1_PERIPH_RESET, FALSE);
  81              		.loc 1 55 5 is_stmt 1 view .LVU17
  82 002e 0121     		movs	r1, #1
  83 0030 2548     		ldr	r0, .L17+28
  84              	.LVL3:
  55:libraries/drivers/src/at32f403a_407_usart.c ****     crm_periph_reset(CRM_USART1_PERIPH_RESET, FALSE);
  85              		.loc 1 55 5 is_stmt 0 view .LVU18
  86 0032 FFF7FEFF 		bl	crm_periph_reset
  87              	.LVL4:
  56:libraries/drivers/src/at32f403a_407_usart.c ****   }
  88              		.loc 1 56 5 is_stmt 1 view .LVU19
  89 0036 0021     		movs	r1, #0
  90 0038 2348     		ldr	r0, .L17+28
  91 003a FFF7FEFF 		bl	crm_periph_reset
  92              	.LVL5:
  93 003e F5E7     		b	.L1
  94              	.LVL6:
  95              	.L11:
  60:libraries/drivers/src/at32f403a_407_usart.c ****     crm_periph_reset(CRM_USART2_PERIPH_RESET, FALSE);
  96              		.loc 1 60 5 view .LVU20
  97 0040 0121     		movs	r1, #1
  98 0042 2248     		ldr	r0, .L17+32
  99              	.LVL7:
  60:libraries/drivers/src/at32f403a_407_usart.c ****     crm_periph_reset(CRM_USART2_PERIPH_RESET, FALSE);
 100              		.loc 1 60 5 is_stmt 0 view .LVU21
 101 0044 FFF7FEFF 		bl	crm_periph_reset
 102              	.LVL8:
  61:libraries/drivers/src/at32f403a_407_usart.c ****   }
 103              		.loc 1 61 5 is_stmt 1 view .LVU22
 104 0048 0021     		movs	r1, #0
 105 004a 2048     		ldr	r0, .L17+32
 106 004c FFF7FEFF 		bl	crm_periph_reset
 107              	.LVL9:
 108 0050 ECE7     		b	.L1
 109              	.LVL10:
 110              	.L12:
  65:libraries/drivers/src/at32f403a_407_usart.c ****     crm_periph_reset(CRM_USART3_PERIPH_RESET, FALSE);
 111              		.loc 1 65 5 view .LVU23
 112 0052 0121     		movs	r1, #1
 113 0054 1E48     		ldr	r0, .L17+36
 114              	.LVL11:
  65:libraries/drivers/src/at32f403a_407_usart.c ****     crm_periph_reset(CRM_USART3_PERIPH_RESET, FALSE);
 115              		.loc 1 65 5 is_stmt 0 view .LVU24
 116 0056 FFF7FEFF 		bl	crm_periph_reset
 117              	.LVL12:
  66:libraries/drivers/src/at32f403a_407_usart.c ****   }
 118              		.loc 1 66 5 is_stmt 1 view .LVU25
 119 005a 0021     		movs	r1, #0
 120 005c 1C48     		ldr	r0, .L17+36
 121 005e FFF7FEFF 		bl	crm_periph_reset
 122              	.LVL13:
 123 0062 E3E7     		b	.L1
 124              	.LVL14:
ARM GAS  C:\Users\10963\AppData\Local\Temp\ccYSkP21.s 			page 5


 125              	.L13:
  70:libraries/drivers/src/at32f403a_407_usart.c ****     crm_periph_reset(CRM_UART4_PERIPH_RESET, FALSE);
 126              		.loc 1 70 5 view .LVU26
 127 0064 0121     		movs	r1, #1
 128 0066 1B48     		ldr	r0, .L17+40
 129              	.LVL15:
  70:libraries/drivers/src/at32f403a_407_usart.c ****     crm_periph_reset(CRM_UART4_PERIPH_RESET, FALSE);
 130              		.loc 1 70 5 is_stmt 0 view .LVU27
 131 0068 FFF7FEFF 		bl	crm_periph_reset
 132              	.LVL16:
  71:libraries/drivers/src/at32f403a_407_usart.c ****   }
 133              		.loc 1 71 5 is_stmt 1 view .LVU28
 134 006c 0021     		movs	r1, #0
 135 006e 1948     		ldr	r0, .L17+40
 136 0070 FFF7FEFF 		bl	crm_periph_reset
 137              	.LVL17:
 138 0074 DAE7     		b	.L1
 139              	.LVL18:
 140              	.L14:
  75:libraries/drivers/src/at32f403a_407_usart.c ****     crm_periph_reset(CRM_UART5_PERIPH_RESET, FALSE);
 141              		.loc 1 75 5 view .LVU29
 142 0076 0121     		movs	r1, #1
 143 0078 1748     		ldr	r0, .L17+44
 144              	.LVL19:
  75:libraries/drivers/src/at32f403a_407_usart.c ****     crm_periph_reset(CRM_UART5_PERIPH_RESET, FALSE);
 145              		.loc 1 75 5 is_stmt 0 view .LVU30
 146 007a FFF7FEFF 		bl	crm_periph_reset
 147              	.LVL20:
  76:libraries/drivers/src/at32f403a_407_usart.c ****   }
 148              		.loc 1 76 5 is_stmt 1 view .LVU31
 149 007e 0021     		movs	r1, #0
 150 0080 1548     		ldr	r0, .L17+44
 151 0082 FFF7FEFF 		bl	crm_periph_reset
 152              	.LVL21:
 153 0086 D1E7     		b	.L1
 154              	.LVL22:
 155              	.L15:
  80:libraries/drivers/src/at32f403a_407_usart.c ****     crm_periph_reset(CRM_USART6_PERIPH_RESET, FALSE);
 156              		.loc 1 80 5 view .LVU32
 157 0088 0121     		movs	r1, #1
 158 008a 1448     		ldr	r0, .L17+48
 159              	.LVL23:
  80:libraries/drivers/src/at32f403a_407_usart.c ****     crm_periph_reset(CRM_USART6_PERIPH_RESET, FALSE);
 160              		.loc 1 80 5 is_stmt 0 view .LVU33
 161 008c FFF7FEFF 		bl	crm_periph_reset
 162              	.LVL24:
  81:libraries/drivers/src/at32f403a_407_usart.c ****   }
 163              		.loc 1 81 5 is_stmt 1 view .LVU34
 164 0090 0021     		movs	r1, #0
 165 0092 1248     		ldr	r0, .L17+48
 166 0094 FFF7FEFF 		bl	crm_periph_reset
 167              	.LVL25:
 168 0098 C8E7     		b	.L1
 169              	.LVL26:
 170              	.L16:
  85:libraries/drivers/src/at32f403a_407_usart.c ****     crm_periph_reset(CRM_UART7_PERIPH_RESET, FALSE);
 171              		.loc 1 85 5 view .LVU35
ARM GAS  C:\Users\10963\AppData\Local\Temp\ccYSkP21.s 			page 6


 172 009a 0121     		movs	r1, #1
 173 009c 1048     		ldr	r0, .L17+52
 174              	.LVL27:
  85:libraries/drivers/src/at32f403a_407_usart.c ****     crm_periph_reset(CRM_UART7_PERIPH_RESET, FALSE);
 175              		.loc 1 85 5 is_stmt 0 view .LVU36
 176 009e FFF7FEFF 		bl	crm_periph_reset
 177              	.LVL28:
  86:libraries/drivers/src/at32f403a_407_usart.c ****   }
 178              		.loc 1 86 5 is_stmt 1 view .LVU37
 179 00a2 0021     		movs	r1, #0
 180 00a4 0E48     		ldr	r0, .L17+52
 181 00a6 FFF7FEFF 		bl	crm_periph_reset
 182              	.LVL29:
 183              		.loc 1 96 1 is_stmt 0 view .LVU38
 184 00aa BFE7     		b	.L1
 185              	.L18:
 186              		.align	2
 187              	.L17:
 188 00ac 00380140 		.word	1073821696
 189 00b0 00440040 		.word	1073759232
 190 00b4 00480040 		.word	1073760256
 191 00b8 004C0040 		.word	1073761280
 192 00bc 00500040 		.word	1073762304
 193 00c0 00600140 		.word	1073831936
 194 00c4 00640140 		.word	1073832960
 195 00c8 0E000C00 		.word	786446
 196 00cc 11001000 		.word	1048593
 197 00d0 12001000 		.word	1048594
 198 00d4 13001000 		.word	1048595
 199 00d8 14001000 		.word	1048596
 200 00dc 18000C00 		.word	786456
 201 00e0 19000C00 		.word	786457
 202              		.cfi_endproc
 203              	.LFE134:
 205              		.section	.text.usart_init,"ax",%progbits
 206              		.align	1
 207              		.global	usart_init
 208              		.syntax unified
 209              		.thumb
 210              		.thumb_func
 212              	usart_init:
 213              	.LVL30:
 214              	.LFB135:
  97:libraries/drivers/src/at32f403a_407_usart.c **** 
  98:libraries/drivers/src/at32f403a_407_usart.c **** /**
  99:libraries/drivers/src/at32f403a_407_usart.c ****   * @brief  initialize the usart peripheral according to the specified parameters.
 100:libraries/drivers/src/at32f403a_407_usart.c ****   * @param  usart_x: select the usart or the uart peripheral.
 101:libraries/drivers/src/at32f403a_407_usart.c ****   *         this parameter can be one of the following values:
 102:libraries/drivers/src/at32f403a_407_usart.c ****   *         USART1, USART2, USART3, UART4 ,UART5, USART6, UART7 or UART8.
 103:libraries/drivers/src/at32f403a_407_usart.c ****   * @param  baud_rate: configure the usart communication baud rate.
 104:libraries/drivers/src/at32f403a_407_usart.c ****   * @param  data_bit: data bits transmitted or received in a frame
 105:libraries/drivers/src/at32f403a_407_usart.c ****   *         this parameter can be one of the following values:
 106:libraries/drivers/src/at32f403a_407_usart.c ****   *         - USART_DATA_8BITS
 107:libraries/drivers/src/at32f403a_407_usart.c ****   *         - USART_DATA_9BITS.
 108:libraries/drivers/src/at32f403a_407_usart.c ****   *         note:
 109:libraries/drivers/src/at32f403a_407_usart.c ****   *         - when parity check is disabled, the data bit width is the actual data bit number.
 110:libraries/drivers/src/at32f403a_407_usart.c ****   *         - when parity check is enabled, the data bit width is the actual data bit number minus 
ARM GAS  C:\Users\10963\AppData\Local\Temp\ccYSkP21.s 			page 7


 111:libraries/drivers/src/at32f403a_407_usart.c ****   * @param  stop_bit: stop bits transmitted
 112:libraries/drivers/src/at32f403a_407_usart.c ****   *         this parameter can be one of the following values:
 113:libraries/drivers/src/at32f403a_407_usart.c ****   *         - USART_STOP_1_BIT
 114:libraries/drivers/src/at32f403a_407_usart.c ****   *         - USART_STOP_0_5_BIT.
 115:libraries/drivers/src/at32f403a_407_usart.c ****   *         - USART_STOP_2_BIT
 116:libraries/drivers/src/at32f403a_407_usart.c ****   *         - USART_STOP_1_5_BIT.
 117:libraries/drivers/src/at32f403a_407_usart.c ****   * @retval none
 118:libraries/drivers/src/at32f403a_407_usart.c ****   */
 119:libraries/drivers/src/at32f403a_407_usart.c **** void usart_init(usart_type* usart_x, uint32_t baud_rate, usart_data_bit_num_type data_bit, usart_st
 120:libraries/drivers/src/at32f403a_407_usart.c **** {
 215              		.loc 1 120 1 is_stmt 1 view -0
 216              		.cfi_startproc
 217              		@ args = 0, pretend = 0, frame = 24
 218              		@ frame_needed = 0, uses_anonymous_args = 0
 219              		.loc 1 120 1 is_stmt 0 view .LVU40
 220 0000 F0B5     		push	{r4, r5, r6, r7, lr}
 221              	.LCFI1:
 222              		.cfi_def_cfa_offset 20
 223              		.cfi_offset 4, -20
 224              		.cfi_offset 5, -16
 225              		.cfi_offset 6, -12
 226              		.cfi_offset 7, -8
 227              		.cfi_offset 14, -4
 228 0002 87B0     		sub	sp, sp, #28
 229              	.LCFI2:
 230              		.cfi_def_cfa_offset 48
 231 0004 0446     		mov	r4, r0
 232 0006 0D46     		mov	r5, r1
 233 0008 1646     		mov	r6, r2
 234 000a 1F46     		mov	r7, r3
 121:libraries/drivers/src/at32f403a_407_usart.c ****   crm_clocks_freq_type clocks_freq;
 235              		.loc 1 121 3 is_stmt 1 view .LVU41
 122:libraries/drivers/src/at32f403a_407_usart.c ****   uint32_t apb_clock, temp_val;
 236              		.loc 1 122 3 view .LVU42
 123:libraries/drivers/src/at32f403a_407_usart.c ****   crm_clocks_freq_get(&clocks_freq);
 237              		.loc 1 123 3 view .LVU43
 238 000c 01A8     		add	r0, sp, #4
 239              	.LVL31:
 240              		.loc 1 123 3 is_stmt 0 view .LVU44
 241 000e FFF7FEFF 		bl	crm_clocks_freq_get
 242              	.LVL32:
 124:libraries/drivers/src/at32f403a_407_usart.c ****   if((usart_x == USART1) || (usart_x == USART6) || (usart_x == UART7)
 243              		.loc 1 124 3 is_stmt 1 view .LVU45
 244              		.loc 1 124 5 is_stmt 0 view .LVU46
 245 0012 1B4B     		ldr	r3, .L26
 246 0014 9C42     		cmp	r4, r3
 247 0016 09D0     		beq	.L20
 248              		.loc 1 124 26 discriminator 1 view .LVU47
 249 0018 03F52053 		add	r3, r3, #10240
 250 001c 9C42     		cmp	r4, r3
 251 001e 05D0     		beq	.L20
 252              		.loc 1 124 49 discriminator 2 view .LVU48
 253 0020 03F58063 		add	r3, r3, #1024
 254 0024 9C42     		cmp	r4, r3
 255 0026 01D0     		beq	.L20
 125:libraries/drivers/src/at32f403a_407_usart.c **** #if defined (AT32F403ARx) || defined (AT32F403AVx) || defined (AT32F407Rx) || \
 126:libraries/drivers/src/at32f403a_407_usart.c ****     defined (AT32F407Vx)
ARM GAS  C:\Users\10963\AppData\Local\Temp\ccYSkP21.s 			page 8


 127:libraries/drivers/src/at32f403a_407_usart.c ****     || (usart_x == UART8)
 128:libraries/drivers/src/at32f403a_407_usart.c **** #endif
 129:libraries/drivers/src/at32f403a_407_usart.c ****   )
 130:libraries/drivers/src/at32f403a_407_usart.c ****   {
 131:libraries/drivers/src/at32f403a_407_usart.c ****     apb_clock = clocks_freq.apb2_freq;
 132:libraries/drivers/src/at32f403a_407_usart.c ****   }
 133:libraries/drivers/src/at32f403a_407_usart.c ****   else
 134:libraries/drivers/src/at32f403a_407_usart.c ****   {
 135:libraries/drivers/src/at32f403a_407_usart.c ****     apb_clock = clocks_freq.apb1_freq;
 256              		.loc 1 135 5 is_stmt 1 view .LVU49
 257              		.loc 1 135 15 is_stmt 0 view .LVU50
 258 0028 0499     		ldr	r1, [sp, #16]
 259 002a 00E0     		b	.L22
 260              	.L20:
 131:libraries/drivers/src/at32f403a_407_usart.c ****   }
 261              		.loc 1 131 5 is_stmt 1 view .LVU51
 131:libraries/drivers/src/at32f403a_407_usart.c ****   }
 262              		.loc 1 131 15 is_stmt 0 view .LVU52
 263 002c 0399     		ldr	r1, [sp, #12]
 264              	.LVL33:
 265              	.L22:
 136:libraries/drivers/src/at32f403a_407_usart.c ****   }
 137:libraries/drivers/src/at32f403a_407_usart.c ****   temp_val = (apb_clock * 10 / baud_rate);
 266              		.loc 1 137 3 is_stmt 1 view .LVU53
 267              		.loc 1 137 25 is_stmt 0 view .LVU54
 268 002e 01EB8101 		add	r1, r1, r1, lsl #2
 269              	.LVL34:
 270              		.loc 1 137 25 view .LVU55
 271 0032 4FEA410C 		lsl	ip, r1, #1
 272              		.loc 1 137 12 view .LVU56
 273 0036 BCFBF5F1 		udiv	r1, ip, r5
 274              	.LVL35:
 138:libraries/drivers/src/at32f403a_407_usart.c ****   if((temp_val % 10) < 5)
 275              		.loc 1 138 3 is_stmt 1 view .LVU57
 276              		.loc 1 138 16 is_stmt 0 view .LVU58
 277 003a 124B     		ldr	r3, .L26+4
 278 003c A3FB0123 		umull	r2, r3, r3, r1
 279 0040 DB08     		lsrs	r3, r3, #3
 280 0042 03EB8303 		add	r3, r3, r3, lsl #2
 281 0046 A1EB4303 		sub	r3, r1, r3, lsl #1
 282              		.loc 1 138 5 view .LVU59
 283 004a 042B     		cmp	r3, #4
 284 004c 12D8     		bhi	.L23
 139:libraries/drivers/src/at32f403a_407_usart.c ****   {
 140:libraries/drivers/src/at32f403a_407_usart.c ****     temp_val = (temp_val / 10);
 285              		.loc 1 140 5 is_stmt 1 view .LVU60
 286              		.loc 1 140 14 is_stmt 0 view .LVU61
 287 004e 0D4B     		ldr	r3, .L26+4
 288 0050 A3FB0131 		umull	r3, r1, r3, r1
 289              	.LVL36:
 290              		.loc 1 140 14 view .LVU62
 291 0054 C908     		lsrs	r1, r1, #3
 292              	.LVL37:
 293              	.L24:
 141:libraries/drivers/src/at32f403a_407_usart.c ****   }
 142:libraries/drivers/src/at32f403a_407_usart.c ****   else
 143:libraries/drivers/src/at32f403a_407_usart.c ****   {
ARM GAS  C:\Users\10963\AppData\Local\Temp\ccYSkP21.s 			page 9


 144:libraries/drivers/src/at32f403a_407_usart.c ****     temp_val = (temp_val / 10) + 1;
 145:libraries/drivers/src/at32f403a_407_usart.c ****   }
 146:libraries/drivers/src/at32f403a_407_usart.c ****   usart_x->baudr_bit.div = temp_val;
 294              		.loc 1 146 3 is_stmt 1 view .LVU63
 295              		.loc 1 146 26 is_stmt 0 view .LVU64
 296 0056 89B2     		uxth	r1, r1
 297              	.LVL38:
 298              		.loc 1 146 26 view .LVU65
 299 0058 A368     		ldr	r3, [r4, #8]
 300 005a 61F30F03 		bfi	r3, r1, #0, #16
 301 005e A360     		str	r3, [r4, #8]
 147:libraries/drivers/src/at32f403a_407_usart.c ****   usart_x->ctrl1_bit.dbn = data_bit;
 302              		.loc 1 147 3 is_stmt 1 view .LVU66
 303              		.loc 1 147 26 is_stmt 0 view .LVU67
 304 0060 E368     		ldr	r3, [r4, #12]
 305 0062 66F30C33 		bfi	r3, r6, #12, #1
 306 0066 E360     		str	r3, [r4, #12]
 148:libraries/drivers/src/at32f403a_407_usart.c ****   usart_x->ctrl2_bit.stopbn = stop_bit;
 307              		.loc 1 148 3 is_stmt 1 view .LVU68
 308              		.loc 1 148 29 is_stmt 0 view .LVU69
 309 0068 2369     		ldr	r3, [r4, #16]
 310 006a 67F30D33 		bfi	r3, r7, #12, #2
 311 006e 2361     		str	r3, [r4, #16]
 149:libraries/drivers/src/at32f403a_407_usart.c **** }
 312              		.loc 1 149 1 view .LVU70
 313 0070 07B0     		add	sp, sp, #28
 314              	.LCFI3:
 315              		.cfi_remember_state
 316              		.cfi_def_cfa_offset 20
 317              		@ sp needed
 318 0072 F0BD     		pop	{r4, r5, r6, r7, pc}
 319              	.LVL39:
 320              	.L23:
 321              	.LCFI4:
 322              		.cfi_restore_state
 144:libraries/drivers/src/at32f403a_407_usart.c ****   }
 323              		.loc 1 144 5 is_stmt 1 view .LVU71
 144:libraries/drivers/src/at32f403a_407_usart.c ****   }
 324              		.loc 1 144 26 is_stmt 0 view .LVU72
 325 0074 034B     		ldr	r3, .L26+4
 326 0076 A3FB0131 		umull	r3, r1, r3, r1
 327              	.LVL40:
 144:libraries/drivers/src/at32f403a_407_usart.c ****   }
 328              		.loc 1 144 26 view .LVU73
 329 007a C908     		lsrs	r1, r1, #3
 144:libraries/drivers/src/at32f403a_407_usart.c ****   }
 330              		.loc 1 144 14 view .LVU74
 331 007c 0131     		adds	r1, r1, #1
 332 007e EAE7     		b	.L24
 333              	.L27:
 334              		.align	2
 335              	.L26:
 336 0080 00380140 		.word	1073821696
 337 0084 CDCCCCCC 		.word	-858993459
 338              		.cfi_endproc
 339              	.LFE135:
 341              		.section	.text.usart_parity_selection_config,"ax",%progbits
ARM GAS  C:\Users\10963\AppData\Local\Temp\ccYSkP21.s 			page 10


 342              		.align	1
 343              		.global	usart_parity_selection_config
 344              		.syntax unified
 345              		.thumb
 346              		.thumb_func
 348              	usart_parity_selection_config:
 349              	.LVL41:
 350              	.LFB136:
 150:libraries/drivers/src/at32f403a_407_usart.c **** 
 151:libraries/drivers/src/at32f403a_407_usart.c **** /**
 152:libraries/drivers/src/at32f403a_407_usart.c ****   * @brief  usart parity selection config.
 153:libraries/drivers/src/at32f403a_407_usart.c ****   * @param  usart_x: select the usart or the uart peripheral.
 154:libraries/drivers/src/at32f403a_407_usart.c ****   *         this parameter can be one of the following values:
 155:libraries/drivers/src/at32f403a_407_usart.c ****   *         USART1, USART2, USART3, UART4 ,UART5, USART6, UART7 or UART8.
 156:libraries/drivers/src/at32f403a_407_usart.c ****   * @param  parity: select the none, odd or even parity.
 157:libraries/drivers/src/at32f403a_407_usart.c ****   *         this parameter can be one of the following values:
 158:libraries/drivers/src/at32f403a_407_usart.c ****   *         - USART_PARITY_NONE
 159:libraries/drivers/src/at32f403a_407_usart.c ****   *         - USART_PARITY_EVEN.
 160:libraries/drivers/src/at32f403a_407_usart.c ****   *         - USART_PARITY_ODD
 161:libraries/drivers/src/at32f403a_407_usart.c ****   * @retval none
 162:libraries/drivers/src/at32f403a_407_usart.c ****   */
 163:libraries/drivers/src/at32f403a_407_usart.c **** void usart_parity_selection_config(usart_type* usart_x, usart_parity_selection_type parity)
 164:libraries/drivers/src/at32f403a_407_usart.c **** {
 351              		.loc 1 164 1 is_stmt 1 view -0
 352              		.cfi_startproc
 353              		@ args = 0, pretend = 0, frame = 0
 354              		@ frame_needed = 0, uses_anonymous_args = 0
 355              		@ link register save eliminated.
 165:libraries/drivers/src/at32f403a_407_usart.c ****   if(parity == USART_PARITY_NONE)
 356              		.loc 1 165 3 view .LVU76
 357              		.loc 1 165 5 is_stmt 0 view .LVU77
 358 0000 41B9     		cbnz	r1, .L29
 166:libraries/drivers/src/at32f403a_407_usart.c ****   {
 167:libraries/drivers/src/at32f403a_407_usart.c ****     usart_x->ctrl1_bit.psel = FALSE;
 359              		.loc 1 167 5 is_stmt 1 view .LVU78
 360              		.loc 1 167 29 is_stmt 0 view .LVU79
 361 0002 C368     		ldr	r3, [r0, #12]
 362 0004 23F40073 		bic	r3, r3, #512
 363 0008 C360     		str	r3, [r0, #12]
 168:libraries/drivers/src/at32f403a_407_usart.c ****     usart_x->ctrl1_bit.pen = FALSE;
 364              		.loc 1 168 5 is_stmt 1 view .LVU80
 365              		.loc 1 168 28 is_stmt 0 view .LVU81
 366 000a C368     		ldr	r3, [r0, #12]
 367 000c 23F48063 		bic	r3, r3, #1024
 368 0010 C360     		str	r3, [r0, #12]
 369 0012 7047     		bx	lr
 370              	.L29:
 169:libraries/drivers/src/at32f403a_407_usart.c ****   }
 170:libraries/drivers/src/at32f403a_407_usart.c ****   else if(parity == USART_PARITY_EVEN)
 371              		.loc 1 170 8 is_stmt 1 view .LVU82
 372              		.loc 1 170 10 is_stmt 0 view .LVU83
 373 0014 0129     		cmp	r1, #1
 374 0016 02D0     		beq	.L32
 171:libraries/drivers/src/at32f403a_407_usart.c ****   {
 172:libraries/drivers/src/at32f403a_407_usart.c ****     usart_x->ctrl1_bit.psel = FALSE;
 173:libraries/drivers/src/at32f403a_407_usart.c ****     usart_x->ctrl1_bit.pen = TRUE;
 174:libraries/drivers/src/at32f403a_407_usart.c ****   }
ARM GAS  C:\Users\10963\AppData\Local\Temp\ccYSkP21.s 			page 11


 175:libraries/drivers/src/at32f403a_407_usart.c ****   else if(parity == USART_PARITY_ODD)
 375              		.loc 1 175 8 is_stmt 1 view .LVU84
 376              		.loc 1 175 10 is_stmt 0 view .LVU85
 377 0018 0229     		cmp	r1, #2
 378 001a 09D0     		beq	.L33
 379              	.L28:
 176:libraries/drivers/src/at32f403a_407_usart.c ****   {
 177:libraries/drivers/src/at32f403a_407_usart.c ****     usart_x->ctrl1_bit.psel = TRUE;
 178:libraries/drivers/src/at32f403a_407_usart.c ****     usart_x->ctrl1_bit.pen = TRUE;
 179:libraries/drivers/src/at32f403a_407_usart.c ****   }
 180:libraries/drivers/src/at32f403a_407_usart.c **** }
 380              		.loc 1 180 1 view .LVU86
 381 001c 7047     		bx	lr
 382              	.L32:
 172:libraries/drivers/src/at32f403a_407_usart.c ****     usart_x->ctrl1_bit.pen = TRUE;
 383              		.loc 1 172 5 is_stmt 1 view .LVU87
 172:libraries/drivers/src/at32f403a_407_usart.c ****     usart_x->ctrl1_bit.pen = TRUE;
 384              		.loc 1 172 29 is_stmt 0 view .LVU88
 385 001e C368     		ldr	r3, [r0, #12]
 386 0020 23F40073 		bic	r3, r3, #512
 387 0024 C360     		str	r3, [r0, #12]
 173:libraries/drivers/src/at32f403a_407_usart.c ****   }
 388              		.loc 1 173 5 is_stmt 1 view .LVU89
 173:libraries/drivers/src/at32f403a_407_usart.c ****   }
 389              		.loc 1 173 28 is_stmt 0 view .LVU90
 390 0026 C368     		ldr	r3, [r0, #12]
 391 0028 43F48063 		orr	r3, r3, #1024
 392 002c C360     		str	r3, [r0, #12]
 393 002e 7047     		bx	lr
 394              	.L33:
 177:libraries/drivers/src/at32f403a_407_usart.c ****     usart_x->ctrl1_bit.pen = TRUE;
 395              		.loc 1 177 5 is_stmt 1 view .LVU91
 177:libraries/drivers/src/at32f403a_407_usart.c ****     usart_x->ctrl1_bit.pen = TRUE;
 396              		.loc 1 177 29 is_stmt 0 view .LVU92
 397 0030 C368     		ldr	r3, [r0, #12]
 398 0032 43F40073 		orr	r3, r3, #512
 399 0036 C360     		str	r3, [r0, #12]
 178:libraries/drivers/src/at32f403a_407_usart.c ****   }
 400              		.loc 1 178 5 is_stmt 1 view .LVU93
 178:libraries/drivers/src/at32f403a_407_usart.c ****   }
 401              		.loc 1 178 28 is_stmt 0 view .LVU94
 402 0038 C368     		ldr	r3, [r0, #12]
 403 003a 43F48063 		orr	r3, r3, #1024
 404 003e C360     		str	r3, [r0, #12]
 405              		.loc 1 180 1 view .LVU95
 406 0040 ECE7     		b	.L28
 407              		.cfi_endproc
 408              	.LFE136:
 410              		.section	.text.usart_enable,"ax",%progbits
 411              		.align	1
 412              		.global	usart_enable
 413              		.syntax unified
 414              		.thumb
 415              		.thumb_func
 417              	usart_enable:
 418              	.LVL42:
 419              	.LFB137:
ARM GAS  C:\Users\10963\AppData\Local\Temp\ccYSkP21.s 			page 12


 181:libraries/drivers/src/at32f403a_407_usart.c **** 
 182:libraries/drivers/src/at32f403a_407_usart.c **** /**
 183:libraries/drivers/src/at32f403a_407_usart.c ****   * @brief  enable or disable the specified usart peripheral.
 184:libraries/drivers/src/at32f403a_407_usart.c ****   * @param  usart_x: select the usart or the uart peripheral.
 185:libraries/drivers/src/at32f403a_407_usart.c ****   *         this parameter can be one of the following values:
 186:libraries/drivers/src/at32f403a_407_usart.c ****   *         USART1, USART2, USART3, UART4, UART5, USART6, UART7 or UART8.
 187:libraries/drivers/src/at32f403a_407_usart.c ****   * @param  new_state: new state of the usart peripheral.
 188:libraries/drivers/src/at32f403a_407_usart.c ****   *         this parameter can be: TRUE or FALSE.
 189:libraries/drivers/src/at32f403a_407_usart.c ****   * @retval none
 190:libraries/drivers/src/at32f403a_407_usart.c ****   */
 191:libraries/drivers/src/at32f403a_407_usart.c **** void usart_enable(usart_type* usart_x, confirm_state new_state)
 192:libraries/drivers/src/at32f403a_407_usart.c **** {
 420              		.loc 1 192 1 is_stmt 1 view -0
 421              		.cfi_startproc
 422              		@ args = 0, pretend = 0, frame = 0
 423              		@ frame_needed = 0, uses_anonymous_args = 0
 424              		@ link register save eliminated.
 193:libraries/drivers/src/at32f403a_407_usart.c ****   usart_x->ctrl1_bit.uen = new_state;
 425              		.loc 1 193 3 view .LVU97
 426              		.loc 1 193 26 is_stmt 0 view .LVU98
 427 0000 C368     		ldr	r3, [r0, #12]
 428 0002 61F34D33 		bfi	r3, r1, #13, #1
 429 0006 C360     		str	r3, [r0, #12]
 194:libraries/drivers/src/at32f403a_407_usart.c **** }
 430              		.loc 1 194 1 view .LVU99
 431 0008 7047     		bx	lr
 432              		.cfi_endproc
 433              	.LFE137:
 435              		.section	.text.usart_transmitter_enable,"ax",%progbits
 436              		.align	1
 437              		.global	usart_transmitter_enable
 438              		.syntax unified
 439              		.thumb
 440              		.thumb_func
 442              	usart_transmitter_enable:
 443              	.LVL43:
 444              	.LFB138:
 195:libraries/drivers/src/at32f403a_407_usart.c **** 
 196:libraries/drivers/src/at32f403a_407_usart.c **** /**
 197:libraries/drivers/src/at32f403a_407_usart.c ****   * @brief  usart transmitter enable.
 198:libraries/drivers/src/at32f403a_407_usart.c ****   * @param  usart_x: select the usart or the uart peripheral.
 199:libraries/drivers/src/at32f403a_407_usart.c ****   *         this parameter can be one of the following values:
 200:libraries/drivers/src/at32f403a_407_usart.c ****   *         USART1, USART2, USART3, UART4 ,UART5, USART6, UART7 or UART8.
 201:libraries/drivers/src/at32f403a_407_usart.c ****   * @param  new_state: TRUE or FALSE.
 202:libraries/drivers/src/at32f403a_407_usart.c ****   * @retval none
 203:libraries/drivers/src/at32f403a_407_usart.c ****   */
 204:libraries/drivers/src/at32f403a_407_usart.c **** void usart_transmitter_enable(usart_type* usart_x, confirm_state new_state)
 205:libraries/drivers/src/at32f403a_407_usart.c **** {
 445              		.loc 1 205 1 is_stmt 1 view -0
 446              		.cfi_startproc
 447              		@ args = 0, pretend = 0, frame = 0
 448              		@ frame_needed = 0, uses_anonymous_args = 0
 449              		@ link register save eliminated.
 206:libraries/drivers/src/at32f403a_407_usart.c ****   usart_x->ctrl1_bit.ten = new_state;
 450              		.loc 1 206 3 view .LVU101
 451              		.loc 1 206 26 is_stmt 0 view .LVU102
 452 0000 C368     		ldr	r3, [r0, #12]
ARM GAS  C:\Users\10963\AppData\Local\Temp\ccYSkP21.s 			page 13


 453 0002 61F3C303 		bfi	r3, r1, #3, #1
 454 0006 C360     		str	r3, [r0, #12]
 207:libraries/drivers/src/at32f403a_407_usart.c **** }
 455              		.loc 1 207 1 view .LVU103
 456 0008 7047     		bx	lr
 457              		.cfi_endproc
 458              	.LFE138:
 460              		.section	.text.usart_receiver_enable,"ax",%progbits
 461              		.align	1
 462              		.global	usart_receiver_enable
 463              		.syntax unified
 464              		.thumb
 465              		.thumb_func
 467              	usart_receiver_enable:
 468              	.LVL44:
 469              	.LFB139:
 208:libraries/drivers/src/at32f403a_407_usart.c **** 
 209:libraries/drivers/src/at32f403a_407_usart.c **** /**
 210:libraries/drivers/src/at32f403a_407_usart.c ****   * @brief  usart receiver enable.
 211:libraries/drivers/src/at32f403a_407_usart.c ****   * @param  usart_x: select the usart or the uart peripheral.
 212:libraries/drivers/src/at32f403a_407_usart.c ****   *         this parameter can be one of the following values:
 213:libraries/drivers/src/at32f403a_407_usart.c ****   *         USART1, USART2, USART3, UART4 ,UART5, USART6, UART7 or UART8.
 214:libraries/drivers/src/at32f403a_407_usart.c ****   * @param  new_state: TRUE or FALSE.
 215:libraries/drivers/src/at32f403a_407_usart.c ****   * @retval none
 216:libraries/drivers/src/at32f403a_407_usart.c ****   */
 217:libraries/drivers/src/at32f403a_407_usart.c **** void usart_receiver_enable(usart_type* usart_x, confirm_state new_state)
 218:libraries/drivers/src/at32f403a_407_usart.c **** {
 470              		.loc 1 218 1 is_stmt 1 view -0
 471              		.cfi_startproc
 472              		@ args = 0, pretend = 0, frame = 0
 473              		@ frame_needed = 0, uses_anonymous_args = 0
 474              		@ link register save eliminated.
 219:libraries/drivers/src/at32f403a_407_usart.c ****   usart_x->ctrl1_bit.ren = new_state;
 475              		.loc 1 219 3 view .LVU105
 476              		.loc 1 219 26 is_stmt 0 view .LVU106
 477 0000 C368     		ldr	r3, [r0, #12]
 478 0002 61F38203 		bfi	r3, r1, #2, #1
 479 0006 C360     		str	r3, [r0, #12]
 220:libraries/drivers/src/at32f403a_407_usart.c **** }
 480              		.loc 1 220 1 view .LVU107
 481 0008 7047     		bx	lr
 482              		.cfi_endproc
 483              	.LFE139:
 485              		.section	.text.usart_clock_config,"ax",%progbits
 486              		.align	1
 487              		.global	usart_clock_config
 488              		.syntax unified
 489              		.thumb
 490              		.thumb_func
 492              	usart_clock_config:
 493              	.LVL45:
 494              	.LFB140:
 221:libraries/drivers/src/at32f403a_407_usart.c **** 
 222:libraries/drivers/src/at32f403a_407_usart.c **** /**
 223:libraries/drivers/src/at32f403a_407_usart.c ****   * @brief  usart clock config.
 224:libraries/drivers/src/at32f403a_407_usart.c ****   * @note   clock config are not available for UART4, UART5, UART7 and UART8.
 225:libraries/drivers/src/at32f403a_407_usart.c ****   * @param  usart_x: select the usart or the uart peripheral.
ARM GAS  C:\Users\10963\AppData\Local\Temp\ccYSkP21.s 			page 14


 226:libraries/drivers/src/at32f403a_407_usart.c ****   *         this parameter can be one of the following values:
 227:libraries/drivers/src/at32f403a_407_usart.c ****   *         USART1, USART2, USART3 or USART6.
 228:libraries/drivers/src/at32f403a_407_usart.c ****   * @param  clk_pol: polarity of the clock output on the ck pin.
 229:libraries/drivers/src/at32f403a_407_usart.c ****   *         this parameter can be one of the following values:
 230:libraries/drivers/src/at32f403a_407_usart.c ****   *         - USART_CLOCK_POLARITY_LOW
 231:libraries/drivers/src/at32f403a_407_usart.c ****   *         - USART_CLOCK_POLARITY_HIGH
 232:libraries/drivers/src/at32f403a_407_usart.c ****   * @param  clk_pha: phase of the clock output on the ck pin.
 233:libraries/drivers/src/at32f403a_407_usart.c ****   *         this parameter can be one of the following values:
 234:libraries/drivers/src/at32f403a_407_usart.c ****   *         - USART_CLOCK_PHASE_1EDGE
 235:libraries/drivers/src/at32f403a_407_usart.c ****   *         - USART_CLOCK_PHASE_2EDGE
 236:libraries/drivers/src/at32f403a_407_usart.c ****   * @param  clk_lb: whether the clock pulse of the last data bit transmitted (MSB) is outputted on 
 237:libraries/drivers/src/at32f403a_407_usart.c ****   *         this parameter can be one of the following values:
 238:libraries/drivers/src/at32f403a_407_usart.c ****   *         - USART_CLOCK_LAST_BIT_NONE
 239:libraries/drivers/src/at32f403a_407_usart.c ****   *         - USART_CLOCK_LAST_BIT_OUTPUT
 240:libraries/drivers/src/at32f403a_407_usart.c ****   * @retval none
 241:libraries/drivers/src/at32f403a_407_usart.c ****   */
 242:libraries/drivers/src/at32f403a_407_usart.c **** void usart_clock_config(usart_type* usart_x, usart_clock_polarity_type clk_pol, usart_clock_phase_t
 243:libraries/drivers/src/at32f403a_407_usart.c **** {
 495              		.loc 1 243 1 is_stmt 1 view -0
 496              		.cfi_startproc
 497              		@ args = 0, pretend = 0, frame = 0
 498              		@ frame_needed = 0, uses_anonymous_args = 0
 499              		@ link register save eliminated.
 500              		.loc 1 243 1 is_stmt 0 view .LVU109
 501 0000 9C46     		mov	ip, r3
 244:libraries/drivers/src/at32f403a_407_usart.c ****   usart_x->ctrl2_bit.clkpol = clk_pol;
 502              		.loc 1 244 3 is_stmt 1 view .LVU110
 503              		.loc 1 244 29 is_stmt 0 view .LVU111
 504 0002 0369     		ldr	r3, [r0, #16]
 505              	.LVL46:
 506              		.loc 1 244 29 view .LVU112
 507 0004 61F38A23 		bfi	r3, r1, #10, #1
 508 0008 0361     		str	r3, [r0, #16]
 245:libraries/drivers/src/at32f403a_407_usart.c ****   usart_x->ctrl2_bit.clkpha = clk_pha;
 509              		.loc 1 245 3 is_stmt 1 view .LVU113
 510              		.loc 1 245 29 is_stmt 0 view .LVU114
 511 000a 0169     		ldr	r1, [r0, #16]
 512              	.LVL47:
 513              		.loc 1 245 29 view .LVU115
 514 000c 62F34921 		bfi	r1, r2, #9, #1
 515 0010 0161     		str	r1, [r0, #16]
 246:libraries/drivers/src/at32f403a_407_usart.c ****   usart_x->ctrl2_bit.lbcp = clk_lb;
 516              		.loc 1 246 3 is_stmt 1 view .LVU116
 517              		.loc 1 246 27 is_stmt 0 view .LVU117
 518 0012 0269     		ldr	r2, [r0, #16]
 519              	.LVL48:
 520              		.loc 1 246 27 view .LVU118
 521 0014 6CF30822 		bfi	r2, ip, #8, #1
 522 0018 0261     		str	r2, [r0, #16]
 247:libraries/drivers/src/at32f403a_407_usart.c **** }
 523              		.loc 1 247 1 view .LVU119
 524 001a 7047     		bx	lr
 525              		.cfi_endproc
 526              	.LFE140:
 528              		.section	.text.usart_clock_enable,"ax",%progbits
 529              		.align	1
 530              		.global	usart_clock_enable
ARM GAS  C:\Users\10963\AppData\Local\Temp\ccYSkP21.s 			page 15


 531              		.syntax unified
 532              		.thumb
 533              		.thumb_func
 535              	usart_clock_enable:
 536              	.LVL49:
 537              	.LFB141:
 248:libraries/drivers/src/at32f403a_407_usart.c **** 
 249:libraries/drivers/src/at32f403a_407_usart.c **** /**
 250:libraries/drivers/src/at32f403a_407_usart.c ****   * @brief  usart enable the ck pin.
 251:libraries/drivers/src/at32f403a_407_usart.c ****   * @note   clock enable are not available for UART4, UART5, UART7 and UART8.
 252:libraries/drivers/src/at32f403a_407_usart.c ****   * @param  usart_x: select the usart or the uart peripheral.
 253:libraries/drivers/src/at32f403a_407_usart.c ****   *         this parameter can be one of the following values:
 254:libraries/drivers/src/at32f403a_407_usart.c ****   *         USART1, USART2, USART3 or USART6.
 255:libraries/drivers/src/at32f403a_407_usart.c ****   * @param  new_state: TRUE or FALSE
 256:libraries/drivers/src/at32f403a_407_usart.c ****   * @retval none
 257:libraries/drivers/src/at32f403a_407_usart.c ****   */
 258:libraries/drivers/src/at32f403a_407_usart.c **** void usart_clock_enable(usart_type* usart_x, confirm_state new_state)
 259:libraries/drivers/src/at32f403a_407_usart.c **** {
 538              		.loc 1 259 1 is_stmt 1 view -0
 539              		.cfi_startproc
 540              		@ args = 0, pretend = 0, frame = 0
 541              		@ frame_needed = 0, uses_anonymous_args = 0
 542              		@ link register save eliminated.
 260:libraries/drivers/src/at32f403a_407_usart.c ****   usart_x->ctrl2_bit.clken = new_state;
 543              		.loc 1 260 3 view .LVU121
 544              		.loc 1 260 28 is_stmt 0 view .LVU122
 545 0000 0369     		ldr	r3, [r0, #16]
 546 0002 61F3CB23 		bfi	r3, r1, #11, #1
 547 0006 0361     		str	r3, [r0, #16]
 261:libraries/drivers/src/at32f403a_407_usart.c **** }
 548              		.loc 1 261 1 view .LVU123
 549 0008 7047     		bx	lr
 550              		.cfi_endproc
 551              	.LFE141:
 553              		.section	.text.usart_interrupt_enable,"ax",%progbits
 554              		.align	1
 555              		.global	usart_interrupt_enable
 556              		.syntax unified
 557              		.thumb
 558              		.thumb_func
 560              	usart_interrupt_enable:
 561              	.LVL50:
 562              	.LFB142:
 262:libraries/drivers/src/at32f403a_407_usart.c **** 
 263:libraries/drivers/src/at32f403a_407_usart.c **** /**
 264:libraries/drivers/src/at32f403a_407_usart.c ****   * @brief  enable or disable the specified usart interrupts.
 265:libraries/drivers/src/at32f403a_407_usart.c ****   * @param  usart_x: select the usart or the uart peripheral.
 266:libraries/drivers/src/at32f403a_407_usart.c ****   *         this parameter can be one of the following values:
 267:libraries/drivers/src/at32f403a_407_usart.c ****   *         USART1, USART2, USART3, UART4, UART5, USART6, UART7 or UART8.
 268:libraries/drivers/src/at32f403a_407_usart.c ****   * @param  usart_int: specifies the USART interrupt sources to be enabled or disabled.
 269:libraries/drivers/src/at32f403a_407_usart.c ****   *         this parameter can be one of the following values:
 270:libraries/drivers/src/at32f403a_407_usart.c ****   *         - USART_IDLE_INT:  idle interrupt
 271:libraries/drivers/src/at32f403a_407_usart.c ****   *         - USART_RDBF_INT:  rdbf interrupt
 272:libraries/drivers/src/at32f403a_407_usart.c ****   *         - USART_TDC_INT:   tdc interrupt
 273:libraries/drivers/src/at32f403a_407_usart.c ****   *         - USART_TDBE_INT:  tdbe interrupt
 274:libraries/drivers/src/at32f403a_407_usart.c ****   *         - USART_PERR_INT:  perr interrupt
 275:libraries/drivers/src/at32f403a_407_usart.c ****   *         - USART_BF_INT:    break frame interrupt
ARM GAS  C:\Users\10963\AppData\Local\Temp\ccYSkP21.s 			page 16


 276:libraries/drivers/src/at32f403a_407_usart.c ****   *         - USART_ERR_INT:   err interrupt
 277:libraries/drivers/src/at32f403a_407_usart.c ****   *         - USART_CTSCF_INT: ctscf interrupt
 278:libraries/drivers/src/at32f403a_407_usart.c ****   * @param  new_state: new state of the specified usart interrupts.
 279:libraries/drivers/src/at32f403a_407_usart.c ****   *         this parameter can be: TRUE or FALSE.
 280:libraries/drivers/src/at32f403a_407_usart.c ****   * @retval none
 281:libraries/drivers/src/at32f403a_407_usart.c ****   */
 282:libraries/drivers/src/at32f403a_407_usart.c **** void usart_interrupt_enable(usart_type* usart_x, uint32_t usart_int, confirm_state new_state)
 283:libraries/drivers/src/at32f403a_407_usart.c **** {
 563              		.loc 1 283 1 is_stmt 1 view -0
 564              		.cfi_startproc
 565              		@ args = 0, pretend = 0, frame = 0
 566              		@ frame_needed = 0, uses_anonymous_args = 0
 567              		@ link register save eliminated.
 284:libraries/drivers/src/at32f403a_407_usart.c ****   if(new_state == TRUE)
 568              		.loc 1 284 3 view .LVU125
 569              		.loc 1 284 5 is_stmt 0 view .LVU126
 570 0000 012A     		cmp	r2, #1
 571 0002 0CD0     		beq	.L42
 285:libraries/drivers/src/at32f403a_407_usart.c ****     PERIPH_REG((uint32_t)usart_x, usart_int) |= PERIPH_REG_BIT(usart_int);
 286:libraries/drivers/src/at32f403a_407_usart.c ****   else
 287:libraries/drivers/src/at32f403a_407_usart.c ****     PERIPH_REG((uint32_t)usart_x, usart_int) &= ~PERIPH_REG_BIT(usart_int);
 572              		.loc 1 287 5 is_stmt 1 view .LVU127
 573 0004 4FEA114C 		lsr	ip, r1, #16
 574 0008 50F80C30 		ldr	r3, [r0, ip]
 575              		.loc 1 287 50 is_stmt 0 view .LVU128
 576 000c 01F01F01 		and	r1, r1, #31
 577              	.LVL51:
 578              		.loc 1 287 50 view .LVU129
 579 0010 0122     		movs	r2, #1
 580              	.LVL52:
 581              		.loc 1 287 50 view .LVU130
 582 0012 8A40     		lsls	r2, r2, r1
 583              		.loc 1 287 46 view .LVU131
 584 0014 23EA0203 		bic	r3, r3, r2
 585 0018 40F80C30 		str	r3, [r0, ip]
 288:libraries/drivers/src/at32f403a_407_usart.c **** }
 586              		.loc 1 288 1 view .LVU132
 587 001c 7047     		bx	lr
 588              	.LVL53:
 589              	.L42:
 285:libraries/drivers/src/at32f403a_407_usart.c ****     PERIPH_REG((uint32_t)usart_x, usart_int) |= PERIPH_REG_BIT(usart_int);
 590              		.loc 1 285 5 is_stmt 1 view .LVU133
 591 001e 4FEA114C 		lsr	ip, r1, #16
 592 0022 50F80C30 		ldr	r3, [r0, ip]
 285:libraries/drivers/src/at32f403a_407_usart.c ****     PERIPH_REG((uint32_t)usart_x, usart_int) |= PERIPH_REG_BIT(usart_int);
 593              		.loc 1 285 49 is_stmt 0 view .LVU134
 594 0026 01F01F01 		and	r1, r1, #31
 595              	.LVL54:
 285:libraries/drivers/src/at32f403a_407_usart.c ****     PERIPH_REG((uint32_t)usart_x, usart_int) |= PERIPH_REG_BIT(usart_int);
 596              		.loc 1 285 49 view .LVU135
 597 002a 8A40     		lsls	r2, r2, r1
 598              	.LVL55:
 285:libraries/drivers/src/at32f403a_407_usart.c ****     PERIPH_REG((uint32_t)usart_x, usart_int) |= PERIPH_REG_BIT(usart_int);
 599              		.loc 1 285 46 view .LVU136
 600 002c 1343     		orrs	r3, r3, r2
 601 002e 40F80C30 		str	r3, [r0, ip]
 602 0032 7047     		bx	lr
ARM GAS  C:\Users\10963\AppData\Local\Temp\ccYSkP21.s 			page 17


 603              		.cfi_endproc
 604              	.LFE142:
 606              		.section	.text.usart_dma_transmitter_enable,"ax",%progbits
 607              		.align	1
 608              		.global	usart_dma_transmitter_enable
 609              		.syntax unified
 610              		.thumb
 611              		.thumb_func
 613              	usart_dma_transmitter_enable:
 614              	.LVL56:
 615              	.LFB143:
 289:libraries/drivers/src/at32f403a_407_usart.c **** 
 290:libraries/drivers/src/at32f403a_407_usart.c **** /**
 291:libraries/drivers/src/at32f403a_407_usart.c ****   * @brief  enable or disable the usart's dma transmitter interface.
 292:libraries/drivers/src/at32f403a_407_usart.c ****   * @param  usart_x: select the usart or the uart peripheral.
 293:libraries/drivers/src/at32f403a_407_usart.c ****   *         this parameter can be one of the following values:
 294:libraries/drivers/src/at32f403a_407_usart.c ****   *         USART1, USART2, USART3, UART4, UART5, USART6, UART7 or UART8.
 295:libraries/drivers/src/at32f403a_407_usart.c ****   * @param  new_state: new state of the dma request sources.
 296:libraries/drivers/src/at32f403a_407_usart.c ****   *         this parameter can be: TRUE or FALSE.
 297:libraries/drivers/src/at32f403a_407_usart.c ****   * @retval none
 298:libraries/drivers/src/at32f403a_407_usart.c ****   */
 299:libraries/drivers/src/at32f403a_407_usart.c **** void usart_dma_transmitter_enable(usart_type* usart_x, confirm_state new_state)
 300:libraries/drivers/src/at32f403a_407_usart.c **** {
 616              		.loc 1 300 1 is_stmt 1 view -0
 617              		.cfi_startproc
 618              		@ args = 0, pretend = 0, frame = 0
 619              		@ frame_needed = 0, uses_anonymous_args = 0
 620              		@ link register save eliminated.
 301:libraries/drivers/src/at32f403a_407_usart.c ****   usart_x->ctrl3_bit.dmaten = new_state;
 621              		.loc 1 301 3 view .LVU138
 622              		.loc 1 301 29 is_stmt 0 view .LVU139
 623 0000 4369     		ldr	r3, [r0, #20]
 624 0002 61F3C713 		bfi	r3, r1, #7, #1
 625 0006 4361     		str	r3, [r0, #20]
 302:libraries/drivers/src/at32f403a_407_usart.c **** }
 626              		.loc 1 302 1 view .LVU140
 627 0008 7047     		bx	lr
 628              		.cfi_endproc
 629              	.LFE143:
 631              		.section	.text.usart_dma_receiver_enable,"ax",%progbits
 632              		.align	1
 633              		.global	usart_dma_receiver_enable
 634              		.syntax unified
 635              		.thumb
 636              		.thumb_func
 638              	usart_dma_receiver_enable:
 639              	.LVL57:
 640              	.LFB144:
 303:libraries/drivers/src/at32f403a_407_usart.c **** 
 304:libraries/drivers/src/at32f403a_407_usart.c **** /**
 305:libraries/drivers/src/at32f403a_407_usart.c ****   * @brief  enable or disable the usart's dma receiver interface.
 306:libraries/drivers/src/at32f403a_407_usart.c ****   * @param  usart_x: select the usart or the uart peripheral.
 307:libraries/drivers/src/at32f403a_407_usart.c ****   *         this parameter can be one of the following values:
 308:libraries/drivers/src/at32f403a_407_usart.c ****   *         USART1, USART2, USART3, UART4, UART5, USART6, UART7 or UART8.
 309:libraries/drivers/src/at32f403a_407_usart.c ****   * @param  new_state: new state of the dma request sources.
 310:libraries/drivers/src/at32f403a_407_usart.c ****   *         this parameter can be: TRUE or FALSE.
 311:libraries/drivers/src/at32f403a_407_usart.c ****   * @retval none
ARM GAS  C:\Users\10963\AppData\Local\Temp\ccYSkP21.s 			page 18


 312:libraries/drivers/src/at32f403a_407_usart.c ****   */
 313:libraries/drivers/src/at32f403a_407_usart.c **** void usart_dma_receiver_enable(usart_type* usart_x, confirm_state new_state)
 314:libraries/drivers/src/at32f403a_407_usart.c **** {
 641              		.loc 1 314 1 is_stmt 1 view -0
 642              		.cfi_startproc
 643              		@ args = 0, pretend = 0, frame = 0
 644              		@ frame_needed = 0, uses_anonymous_args = 0
 645              		@ link register save eliminated.
 315:libraries/drivers/src/at32f403a_407_usart.c ****   usart_x->ctrl3_bit.dmaren = new_state;
 646              		.loc 1 315 3 view .LVU142
 647              		.loc 1 315 29 is_stmt 0 view .LVU143
 648 0000 4369     		ldr	r3, [r0, #20]
 649 0002 61F38613 		bfi	r3, r1, #6, #1
 650 0006 4361     		str	r3, [r0, #20]
 316:libraries/drivers/src/at32f403a_407_usart.c **** }
 651              		.loc 1 316 1 view .LVU144
 652 0008 7047     		bx	lr
 653              		.cfi_endproc
 654              	.LFE144:
 656              		.section	.text.usart_wakeup_id_set,"ax",%progbits
 657              		.align	1
 658              		.global	usart_wakeup_id_set
 659              		.syntax unified
 660              		.thumb
 661              		.thumb_func
 663              	usart_wakeup_id_set:
 664              	.LVL58:
 665              	.LFB145:
 317:libraries/drivers/src/at32f403a_407_usart.c **** 
 318:libraries/drivers/src/at32f403a_407_usart.c **** /**
 319:libraries/drivers/src/at32f403a_407_usart.c ****   * @brief  set the wakeup id of the usart.
 320:libraries/drivers/src/at32f403a_407_usart.c ****   * @param  usart_x: select the usart or the uart peripheral.
 321:libraries/drivers/src/at32f403a_407_usart.c ****   *         this parameter can be one of the following values:
 322:libraries/drivers/src/at32f403a_407_usart.c ****   *         USART1, USART2, USART3, UART4, UART5, USART6, UART7 or UART8.
 323:libraries/drivers/src/at32f403a_407_usart.c ****   * @param  usart_id: the matching id(0x0~0xF).
 324:libraries/drivers/src/at32f403a_407_usart.c ****   * @retval none
 325:libraries/drivers/src/at32f403a_407_usart.c ****   */
 326:libraries/drivers/src/at32f403a_407_usart.c **** void usart_wakeup_id_set(usart_type* usart_x, uint8_t usart_id)
 327:libraries/drivers/src/at32f403a_407_usart.c **** {
 666              		.loc 1 327 1 is_stmt 1 view -0
 667              		.cfi_startproc
 668              		@ args = 0, pretend = 0, frame = 0
 669              		@ frame_needed = 0, uses_anonymous_args = 0
 670              		@ link register save eliminated.
 328:libraries/drivers/src/at32f403a_407_usart.c ****   usart_x->ctrl2_bit.id = usart_id;
 671              		.loc 1 328 3 view .LVU146
 672              		.loc 1 328 25 is_stmt 0 view .LVU147
 673 0000 0369     		ldr	r3, [r0, #16]
 674 0002 61F30303 		bfi	r3, r1, #0, #4
 675 0006 0361     		str	r3, [r0, #16]
 329:libraries/drivers/src/at32f403a_407_usart.c **** }
 676              		.loc 1 329 1 view .LVU148
 677 0008 7047     		bx	lr
 678              		.cfi_endproc
 679              	.LFE145:
 681              		.section	.text.usart_wakeup_mode_set,"ax",%progbits
 682              		.align	1
ARM GAS  C:\Users\10963\AppData\Local\Temp\ccYSkP21.s 			page 19


 683              		.global	usart_wakeup_mode_set
 684              		.syntax unified
 685              		.thumb
 686              		.thumb_func
 688              	usart_wakeup_mode_set:
 689              	.LVL59:
 690              	.LFB146:
 330:libraries/drivers/src/at32f403a_407_usart.c **** 
 331:libraries/drivers/src/at32f403a_407_usart.c **** /**
 332:libraries/drivers/src/at32f403a_407_usart.c ****   * @brief  select the usart wakeup method in multi-processor communication.
 333:libraries/drivers/src/at32f403a_407_usart.c ****   * @param  usart_x: select the usart or the uart peripheral.
 334:libraries/drivers/src/at32f403a_407_usart.c ****   *         this parameter can be one of the following values:
 335:libraries/drivers/src/at32f403a_407_usart.c ****   *         USART1, USART2, USART3, UART4, UART5, USART6, UART7 or UART8.
 336:libraries/drivers/src/at32f403a_407_usart.c ****   * @param  wakeup_mode: determines the way to wake up usart method.
 337:libraries/drivers/src/at32f403a_407_usart.c ****   *         this parameter can be one of the following values:
 338:libraries/drivers/src/at32f403a_407_usart.c ****   *         - USART_WAKEUP_BY_IDLE_FRAME
 339:libraries/drivers/src/at32f403a_407_usart.c ****   *         - USART_WAKEUP_BY_MATCHING_ID
 340:libraries/drivers/src/at32f403a_407_usart.c ****   * @retval none
 341:libraries/drivers/src/at32f403a_407_usart.c ****   */
 342:libraries/drivers/src/at32f403a_407_usart.c **** void usart_wakeup_mode_set(usart_type* usart_x, usart_wakeup_mode_type wakeup_mode)
 343:libraries/drivers/src/at32f403a_407_usart.c **** {
 691              		.loc 1 343 1 is_stmt 1 view -0
 692              		.cfi_startproc
 693              		@ args = 0, pretend = 0, frame = 0
 694              		@ frame_needed = 0, uses_anonymous_args = 0
 695              		@ link register save eliminated.
 344:libraries/drivers/src/at32f403a_407_usart.c ****   usart_x->ctrl1_bit.wum = wakeup_mode;
 696              		.loc 1 344 3 view .LVU150
 697              		.loc 1 344 26 is_stmt 0 view .LVU151
 698 0000 C368     		ldr	r3, [r0, #12]
 699 0002 61F3CB23 		bfi	r3, r1, #11, #1
 700 0006 C360     		str	r3, [r0, #12]
 345:libraries/drivers/src/at32f403a_407_usart.c **** }
 701              		.loc 1 345 1 view .LVU152
 702 0008 7047     		bx	lr
 703              		.cfi_endproc
 704              	.LFE146:
 706              		.section	.text.usart_receiver_mute_enable,"ax",%progbits
 707              		.align	1
 708              		.global	usart_receiver_mute_enable
 709              		.syntax unified
 710              		.thumb
 711              		.thumb_func
 713              	usart_receiver_mute_enable:
 714              	.LVL60:
 715              	.LFB147:
 346:libraries/drivers/src/at32f403a_407_usart.c **** 
 347:libraries/drivers/src/at32f403a_407_usart.c **** /**
 348:libraries/drivers/src/at32f403a_407_usart.c ****   * @brief  config the usart in mute mode in multi-processor communication.
 349:libraries/drivers/src/at32f403a_407_usart.c ****   * @param  usart_x: select the usart or the uart peripheral.
 350:libraries/drivers/src/at32f403a_407_usart.c ****   *         this parameter can be one of the following values:
 351:libraries/drivers/src/at32f403a_407_usart.c ****   *         USART1, USART2, USART3, UART4, UART5, USART6, UART7 or UART8.
 352:libraries/drivers/src/at32f403a_407_usart.c ****   * @param  new_state: new state of the usart mute mode.
 353:libraries/drivers/src/at32f403a_407_usart.c ****   *         this parameter can be: TRUE or FALSE.
 354:libraries/drivers/src/at32f403a_407_usart.c ****   * @retval none
 355:libraries/drivers/src/at32f403a_407_usart.c ****   */
 356:libraries/drivers/src/at32f403a_407_usart.c **** void usart_receiver_mute_enable(usart_type* usart_x, confirm_state new_state)
ARM GAS  C:\Users\10963\AppData\Local\Temp\ccYSkP21.s 			page 20


 357:libraries/drivers/src/at32f403a_407_usart.c **** {
 716              		.loc 1 357 1 is_stmt 1 view -0
 717              		.cfi_startproc
 718              		@ args = 0, pretend = 0, frame = 0
 719              		@ frame_needed = 0, uses_anonymous_args = 0
 720              		@ link register save eliminated.
 358:libraries/drivers/src/at32f403a_407_usart.c ****   usart_x->ctrl1_bit.rm = new_state;
 721              		.loc 1 358 3 view .LVU154
 722              		.loc 1 358 25 is_stmt 0 view .LVU155
 723 0000 C368     		ldr	r3, [r0, #12]
 724 0002 61F34103 		bfi	r3, r1, #1, #1
 725 0006 C360     		str	r3, [r0, #12]
 359:libraries/drivers/src/at32f403a_407_usart.c **** }
 726              		.loc 1 359 1 view .LVU156
 727 0008 7047     		bx	lr
 728              		.cfi_endproc
 729              	.LFE147:
 731              		.section	.text.usart_break_bit_num_set,"ax",%progbits
 732              		.align	1
 733              		.global	usart_break_bit_num_set
 734              		.syntax unified
 735              		.thumb
 736              		.thumb_func
 738              	usart_break_bit_num_set:
 739              	.LVL61:
 740              	.LFB148:
 360:libraries/drivers/src/at32f403a_407_usart.c **** 
 361:libraries/drivers/src/at32f403a_407_usart.c **** /**
 362:libraries/drivers/src/at32f403a_407_usart.c ****   * @brief  set the usart break frame bit num.
 363:libraries/drivers/src/at32f403a_407_usart.c ****   * @param  usart_x: select the usart or the uart peripheral.
 364:libraries/drivers/src/at32f403a_407_usart.c ****   *         this parameter can be one of the following values:
 365:libraries/drivers/src/at32f403a_407_usart.c ****   *         USART1, USART2, USART3, UART4, UART5, USART6, UART7 or UART8.
 366:libraries/drivers/src/at32f403a_407_usart.c ****   * @param  break_bit: specifies the break bit num.
 367:libraries/drivers/src/at32f403a_407_usart.c ****   *         this parameter can be one of the following values:
 368:libraries/drivers/src/at32f403a_407_usart.c ****   *         - USART_BREAK_10BITS
 369:libraries/drivers/src/at32f403a_407_usart.c ****   *         - USART_BREAK_11BITS
 370:libraries/drivers/src/at32f403a_407_usart.c ****   * @retval none
 371:libraries/drivers/src/at32f403a_407_usart.c ****   */
 372:libraries/drivers/src/at32f403a_407_usart.c **** void usart_break_bit_num_set(usart_type* usart_x, usart_break_bit_num_type break_bit)
 373:libraries/drivers/src/at32f403a_407_usart.c **** {
 741              		.loc 1 373 1 is_stmt 1 view -0
 742              		.cfi_startproc
 743              		@ args = 0, pretend = 0, frame = 0
 744              		@ frame_needed = 0, uses_anonymous_args = 0
 745              		@ link register save eliminated.
 374:libraries/drivers/src/at32f403a_407_usart.c ****   usart_x->ctrl2_bit.bfbn = break_bit;
 746              		.loc 1 374 3 view .LVU158
 747              		.loc 1 374 27 is_stmt 0 view .LVU159
 748 0000 0369     		ldr	r3, [r0, #16]
 749 0002 61F34513 		bfi	r3, r1, #5, #1
 750 0006 0361     		str	r3, [r0, #16]
 375:libraries/drivers/src/at32f403a_407_usart.c **** }
 751              		.loc 1 375 1 view .LVU160
 752 0008 7047     		bx	lr
 753              		.cfi_endproc
 754              	.LFE148:
 756              		.section	.text.usart_lin_mode_enable,"ax",%progbits
ARM GAS  C:\Users\10963\AppData\Local\Temp\ccYSkP21.s 			page 21


 757              		.align	1
 758              		.global	usart_lin_mode_enable
 759              		.syntax unified
 760              		.thumb
 761              		.thumb_func
 763              	usart_lin_mode_enable:
 764              	.LVL62:
 765              	.LFB149:
 376:libraries/drivers/src/at32f403a_407_usart.c **** 
 377:libraries/drivers/src/at32f403a_407_usart.c **** /**
 378:libraries/drivers/src/at32f403a_407_usart.c ****   * @brief  enable or disable the usart lin mode.
 379:libraries/drivers/src/at32f403a_407_usart.c ****   * @param  usart_x: select the usart or the uart peripheral.
 380:libraries/drivers/src/at32f403a_407_usart.c ****   *         this parameter can be one of the following values:
 381:libraries/drivers/src/at32f403a_407_usart.c ****   *         USART1, USART2, USART3, UART4, UART5, USART6, UART7 or UART8.
 382:libraries/drivers/src/at32f403a_407_usart.c ****   * @param  new_state: new state of the usart lin mode.
 383:libraries/drivers/src/at32f403a_407_usart.c ****   *         this parameter can be: TRUE or FALSE.
 384:libraries/drivers/src/at32f403a_407_usart.c ****   * @retval none
 385:libraries/drivers/src/at32f403a_407_usart.c ****   */
 386:libraries/drivers/src/at32f403a_407_usart.c **** void usart_lin_mode_enable(usart_type* usart_x, confirm_state new_state)
 387:libraries/drivers/src/at32f403a_407_usart.c **** {
 766              		.loc 1 387 1 is_stmt 1 view -0
 767              		.cfi_startproc
 768              		@ args = 0, pretend = 0, frame = 0
 769              		@ frame_needed = 0, uses_anonymous_args = 0
 770              		@ link register save eliminated.
 388:libraries/drivers/src/at32f403a_407_usart.c ****   usart_x->ctrl2_bit.linen = new_state;
 771              		.loc 1 388 3 view .LVU162
 772              		.loc 1 388 28 is_stmt 0 view .LVU163
 773 0000 0369     		ldr	r3, [r0, #16]
 774 0002 61F38E33 		bfi	r3, r1, #14, #1
 775 0006 0361     		str	r3, [r0, #16]
 389:libraries/drivers/src/at32f403a_407_usart.c **** }
 776              		.loc 1 389 1 view .LVU164
 777 0008 7047     		bx	lr
 778              		.cfi_endproc
 779              	.LFE149:
 781              		.section	.text.usart_data_transmit,"ax",%progbits
 782              		.align	1
 783              		.global	usart_data_transmit
 784              		.syntax unified
 785              		.thumb
 786              		.thumb_func
 788              	usart_data_transmit:
 789              	.LVL63:
 790              	.LFB150:
 390:libraries/drivers/src/at32f403a_407_usart.c **** 
 391:libraries/drivers/src/at32f403a_407_usart.c **** /**
 392:libraries/drivers/src/at32f403a_407_usart.c ****   * @brief  transmit single data through the usart peripheral.
 393:libraries/drivers/src/at32f403a_407_usart.c ****   * @param  usart_x: select the usart or the uart peripheral.
 394:libraries/drivers/src/at32f403a_407_usart.c ****   *         this parameter can be one of the following values:
 395:libraries/drivers/src/at32f403a_407_usart.c ****   *         USART1, USART2, USART3, UART4, UART5, USART6, UART7 or UART8.
 396:libraries/drivers/src/at32f403a_407_usart.c ****   * @param  data: the data to transmit.
 397:libraries/drivers/src/at32f403a_407_usart.c ****   * @retval none
 398:libraries/drivers/src/at32f403a_407_usart.c ****   */
 399:libraries/drivers/src/at32f403a_407_usart.c **** void usart_data_transmit(usart_type* usart_x, uint16_t data)
 400:libraries/drivers/src/at32f403a_407_usart.c **** {
 791              		.loc 1 400 1 is_stmt 1 view -0
ARM GAS  C:\Users\10963\AppData\Local\Temp\ccYSkP21.s 			page 22


 792              		.cfi_startproc
 793              		@ args = 0, pretend = 0, frame = 0
 794              		@ frame_needed = 0, uses_anonymous_args = 0
 795              		@ link register save eliminated.
 401:libraries/drivers/src/at32f403a_407_usart.c ****   usart_x->dt = (data & 0x01FF);
 796              		.loc 1 401 3 view .LVU166
 797              		.loc 1 401 23 is_stmt 0 view .LVU167
 798 0000 C1F30801 		ubfx	r1, r1, #0, #9
 799              	.LVL64:
 800              		.loc 1 401 15 view .LVU168
 801 0004 4160     		str	r1, [r0, #4]
 402:libraries/drivers/src/at32f403a_407_usart.c **** }
 802              		.loc 1 402 1 view .LVU169
 803 0006 7047     		bx	lr
 804              		.cfi_endproc
 805              	.LFE150:
 807              		.section	.text.usart_data_receive,"ax",%progbits
 808              		.align	1
 809              		.global	usart_data_receive
 810              		.syntax unified
 811              		.thumb
 812              		.thumb_func
 814              	usart_data_receive:
 815              	.LVL65:
 816              	.LFB151:
 403:libraries/drivers/src/at32f403a_407_usart.c **** 
 404:libraries/drivers/src/at32f403a_407_usart.c **** /**
 405:libraries/drivers/src/at32f403a_407_usart.c ****   * @brief  return the most recent received data by the usart peripheral.
 406:libraries/drivers/src/at32f403a_407_usart.c ****   * @param  usart_x: select the usart or the uart peripheral.
 407:libraries/drivers/src/at32f403a_407_usart.c ****   *         this parameter can be one of the following values:
 408:libraries/drivers/src/at32f403a_407_usart.c ****   *         USART1, USART2, USART3, UART4, UART5, USART6, UART7 or UART8.
 409:libraries/drivers/src/at32f403a_407_usart.c ****   * @retval the received data.
 410:libraries/drivers/src/at32f403a_407_usart.c ****   */
 411:libraries/drivers/src/at32f403a_407_usart.c **** uint16_t usart_data_receive(usart_type* usart_x)
 412:libraries/drivers/src/at32f403a_407_usart.c **** {
 817              		.loc 1 412 1 is_stmt 1 view -0
 818              		.cfi_startproc
 819              		@ args = 0, pretend = 0, frame = 0
 820              		@ frame_needed = 0, uses_anonymous_args = 0
 821              		@ link register save eliminated.
 413:libraries/drivers/src/at32f403a_407_usart.c ****   return (uint16_t)(usart_x->dt);
 822              		.loc 1 413 3 view .LVU171
 823              		.loc 1 413 28 is_stmt 0 view .LVU172
 824 0000 4068     		ldr	r0, [r0, #4]
 825              	.LVL66:
 414:libraries/drivers/src/at32f403a_407_usart.c **** }
 826              		.loc 1 414 1 view .LVU173
 827 0002 80B2     		uxth	r0, r0
 828 0004 7047     		bx	lr
 829              		.cfi_endproc
 830              	.LFE151:
 832              		.section	.text.usart_break_send,"ax",%progbits
 833              		.align	1
 834              		.global	usart_break_send
 835              		.syntax unified
 836              		.thumb
 837              		.thumb_func
ARM GAS  C:\Users\10963\AppData\Local\Temp\ccYSkP21.s 			page 23


 839              	usart_break_send:
 840              	.LVL67:
 841              	.LFB152:
 415:libraries/drivers/src/at32f403a_407_usart.c **** 
 416:libraries/drivers/src/at32f403a_407_usart.c **** /**
 417:libraries/drivers/src/at32f403a_407_usart.c ****   * @brief  transmit break characters.
 418:libraries/drivers/src/at32f403a_407_usart.c ****   * @param  usart_x: select the usart or the uart peripheral.
 419:libraries/drivers/src/at32f403a_407_usart.c ****   *         this parameter can be one of the following values:
 420:libraries/drivers/src/at32f403a_407_usart.c ****   *         USART1, USART2, USART3, UART4, UART5, USART6, UART7 or UART8.
 421:libraries/drivers/src/at32f403a_407_usart.c ****   * @retval none
 422:libraries/drivers/src/at32f403a_407_usart.c ****   */
 423:libraries/drivers/src/at32f403a_407_usart.c **** void usart_break_send(usart_type* usart_x)
 424:libraries/drivers/src/at32f403a_407_usart.c **** {
 842              		.loc 1 424 1 is_stmt 1 view -0
 843              		.cfi_startproc
 844              		@ args = 0, pretend = 0, frame = 0
 845              		@ frame_needed = 0, uses_anonymous_args = 0
 846              		@ link register save eliminated.
 425:libraries/drivers/src/at32f403a_407_usart.c ****   usart_x->ctrl1_bit.sbf = TRUE;
 847              		.loc 1 425 3 view .LVU175
 848              		.loc 1 425 26 is_stmt 0 view .LVU176
 849 0000 C368     		ldr	r3, [r0, #12]
 850 0002 43F00103 		orr	r3, r3, #1
 851 0006 C360     		str	r3, [r0, #12]
 426:libraries/drivers/src/at32f403a_407_usart.c **** }
 852              		.loc 1 426 1 view .LVU177
 853 0008 7047     		bx	lr
 854              		.cfi_endproc
 855              	.LFE152:
 857              		.section	.text.usart_smartcard_guard_time_set,"ax",%progbits
 858              		.align	1
 859              		.global	usart_smartcard_guard_time_set
 860              		.syntax unified
 861              		.thumb
 862              		.thumb_func
 864              	usart_smartcard_guard_time_set:
 865              	.LVL68:
 866              	.LFB153:
 427:libraries/drivers/src/at32f403a_407_usart.c **** 
 428:libraries/drivers/src/at32f403a_407_usart.c **** /**
 429:libraries/drivers/src/at32f403a_407_usart.c ****   * @brief  config the specified usart smartcard guard time.
 430:libraries/drivers/src/at32f403a_407_usart.c ****   * @note   The guard time bits are not available for UART4, UART5, UART7 or UART8.
 431:libraries/drivers/src/at32f403a_407_usart.c ****   * @param  usart_x: select the usart or the uart peripheral.
 432:libraries/drivers/src/at32f403a_407_usart.c ****   *         this parameter can be one of the following values:
 433:libraries/drivers/src/at32f403a_407_usart.c ****   *         USART1, USART2, USART3 or USART6.
 434:libraries/drivers/src/at32f403a_407_usart.c ****   * @param  guard_time_val: specifies the guard time (0x00~0xFF).
 435:libraries/drivers/src/at32f403a_407_usart.c ****   * @retval none
 436:libraries/drivers/src/at32f403a_407_usart.c ****   */
 437:libraries/drivers/src/at32f403a_407_usart.c **** void usart_smartcard_guard_time_set(usart_type* usart_x, uint8_t guard_time_val)
 438:libraries/drivers/src/at32f403a_407_usart.c **** {
 867              		.loc 1 438 1 is_stmt 1 view -0
 868              		.cfi_startproc
 869              		@ args = 0, pretend = 0, frame = 0
 870              		@ frame_needed = 0, uses_anonymous_args = 0
 871              		@ link register save eliminated.
 439:libraries/drivers/src/at32f403a_407_usart.c ****   usart_x->gdiv_bit.scgt = guard_time_val;
 872              		.loc 1 439 3 view .LVU179
ARM GAS  C:\Users\10963\AppData\Local\Temp\ccYSkP21.s 			page 24


 873              		.loc 1 439 26 is_stmt 0 view .LVU180
 874 0000 8369     		ldr	r3, [r0, #24]
 875 0002 61F30F23 		bfi	r3, r1, #8, #8
 876 0006 8361     		str	r3, [r0, #24]
 440:libraries/drivers/src/at32f403a_407_usart.c **** }
 877              		.loc 1 440 1 view .LVU181
 878 0008 7047     		bx	lr
 879              		.cfi_endproc
 880              	.LFE153:
 882              		.section	.text.usart_irda_smartcard_division_set,"ax",%progbits
 883              		.align	1
 884              		.global	usart_irda_smartcard_division_set
 885              		.syntax unified
 886              		.thumb
 887              		.thumb_func
 889              	usart_irda_smartcard_division_set:
 890              	.LVL69:
 891              	.LFB154:
 441:libraries/drivers/src/at32f403a_407_usart.c **** 
 442:libraries/drivers/src/at32f403a_407_usart.c **** /**
 443:libraries/drivers/src/at32f403a_407_usart.c ****   * @brief  config the irda/smartcard division.
 444:libraries/drivers/src/at32f403a_407_usart.c ****   * @note   the division are not available for UART4, UART5, UART7 or UART8.
 445:libraries/drivers/src/at32f403a_407_usart.c ****   * @param  usart_x: select the usart or the uart peripheral.
 446:libraries/drivers/src/at32f403a_407_usart.c ****   *         this parameter can be one of the following values:
 447:libraries/drivers/src/at32f403a_407_usart.c ****   *         USART1, USART2, USART3 or USART6.
 448:libraries/drivers/src/at32f403a_407_usart.c ****   * @param  div_val: specifies the division.
 449:libraries/drivers/src/at32f403a_407_usart.c ****   * @retval none
 450:libraries/drivers/src/at32f403a_407_usart.c ****   */
 451:libraries/drivers/src/at32f403a_407_usart.c **** void usart_irda_smartcard_division_set(usart_type* usart_x, uint8_t div_val)
 452:libraries/drivers/src/at32f403a_407_usart.c **** {
 892              		.loc 1 452 1 is_stmt 1 view -0
 893              		.cfi_startproc
 894              		@ args = 0, pretend = 0, frame = 0
 895              		@ frame_needed = 0, uses_anonymous_args = 0
 896              		@ link register save eliminated.
 453:libraries/drivers/src/at32f403a_407_usart.c ****   usart_x->gdiv_bit.isdiv = div_val;
 897              		.loc 1 453 3 view .LVU183
 898              		.loc 1 453 27 is_stmt 0 view .LVU184
 899 0000 8369     		ldr	r3, [r0, #24]
 900              	.LVL70:
 901              		.loc 1 453 27 view .LVU185
 902 0002 61F30703 		bfi	r3, r1, #0, #8
 903 0006 8361     		str	r3, [r0, #24]
 454:libraries/drivers/src/at32f403a_407_usart.c **** }
 904              		.loc 1 454 1 view .LVU186
 905 0008 7047     		bx	lr
 906              		.cfi_endproc
 907              	.LFE154:
 909              		.section	.text.usart_smartcard_mode_enable,"ax",%progbits
 910              		.align	1
 911              		.global	usart_smartcard_mode_enable
 912              		.syntax unified
 913              		.thumb
 914              		.thumb_func
 916              	usart_smartcard_mode_enable:
 917              	.LVL71:
 918              	.LFB155:
ARM GAS  C:\Users\10963\AppData\Local\Temp\ccYSkP21.s 			page 25


 455:libraries/drivers/src/at32f403a_407_usart.c **** 
 456:libraries/drivers/src/at32f403a_407_usart.c **** /**
 457:libraries/drivers/src/at32f403a_407_usart.c ****   * @brief  enable or disable the usart smart card mode.
 458:libraries/drivers/src/at32f403a_407_usart.c ****   * @note   the smart card mode are not available for UART4, UART5, UART7 or UART8.
 459:libraries/drivers/src/at32f403a_407_usart.c ****   * @param  usart_x: select the usart or the uart peripheral.
 460:libraries/drivers/src/at32f403a_407_usart.c ****   *         this parameter can be one of the following values:
 461:libraries/drivers/src/at32f403a_407_usart.c ****   *         USART1, USART2, USART3 or USART6.
 462:libraries/drivers/src/at32f403a_407_usart.c ****   * @param  new_state: new state of the smart card mode.
 463:libraries/drivers/src/at32f403a_407_usart.c ****   *         this parameter can be: TRUE or FALSE.
 464:libraries/drivers/src/at32f403a_407_usart.c ****   * @retval none
 465:libraries/drivers/src/at32f403a_407_usart.c ****   */
 466:libraries/drivers/src/at32f403a_407_usart.c **** void usart_smartcard_mode_enable(usart_type* usart_x, confirm_state new_state)
 467:libraries/drivers/src/at32f403a_407_usart.c **** {
 919              		.loc 1 467 1 is_stmt 1 view -0
 920              		.cfi_startproc
 921              		@ args = 0, pretend = 0, frame = 0
 922              		@ frame_needed = 0, uses_anonymous_args = 0
 923              		@ link register save eliminated.
 468:libraries/drivers/src/at32f403a_407_usart.c ****   usart_x->ctrl3_bit.scmen = new_state;
 924              		.loc 1 468 3 view .LVU188
 925              		.loc 1 468 28 is_stmt 0 view .LVU189
 926 0000 4369     		ldr	r3, [r0, #20]
 927 0002 61F34513 		bfi	r3, r1, #5, #1
 928 0006 4361     		str	r3, [r0, #20]
 469:libraries/drivers/src/at32f403a_407_usart.c **** }
 929              		.loc 1 469 1 view .LVU190
 930 0008 7047     		bx	lr
 931              		.cfi_endproc
 932              	.LFE155:
 934              		.section	.text.usart_smartcard_nack_set,"ax",%progbits
 935              		.align	1
 936              		.global	usart_smartcard_nack_set
 937              		.syntax unified
 938              		.thumb
 939              		.thumb_func
 941              	usart_smartcard_nack_set:
 942              	.LVL72:
 943              	.LFB156:
 470:libraries/drivers/src/at32f403a_407_usart.c **** 
 471:libraries/drivers/src/at32f403a_407_usart.c **** /**
 472:libraries/drivers/src/at32f403a_407_usart.c ****   * @brief  enable or disable nack transmission in smartcard mode.
 473:libraries/drivers/src/at32f403a_407_usart.c ****   * @note   the smart card nack are not available for UART4, UART5, UART7 or UART8.
 474:libraries/drivers/src/at32f403a_407_usart.c ****   * @param  usart_x: select the usart or the uart peripheral.
 475:libraries/drivers/src/at32f403a_407_usart.c ****   *         this parameter can be one of the following values:
 476:libraries/drivers/src/at32f403a_407_usart.c ****   *         USART1, USART2, USART3 or USART6.
 477:libraries/drivers/src/at32f403a_407_usart.c ****   * @param  new_state: new state of the nack transmission.
 478:libraries/drivers/src/at32f403a_407_usart.c ****   *         this parameter can be: TRUE or FALSE.
 479:libraries/drivers/src/at32f403a_407_usart.c ****   * @retval none
 480:libraries/drivers/src/at32f403a_407_usart.c ****   */
 481:libraries/drivers/src/at32f403a_407_usart.c **** void usart_smartcard_nack_set(usart_type* usart_x, confirm_state new_state)
 482:libraries/drivers/src/at32f403a_407_usart.c **** {
 944              		.loc 1 482 1 is_stmt 1 view -0
 945              		.cfi_startproc
 946              		@ args = 0, pretend = 0, frame = 0
 947              		@ frame_needed = 0, uses_anonymous_args = 0
 948              		@ link register save eliminated.
 483:libraries/drivers/src/at32f403a_407_usart.c ****   usart_x->ctrl3_bit.scnacken = new_state;
ARM GAS  C:\Users\10963\AppData\Local\Temp\ccYSkP21.s 			page 26


 949              		.loc 1 483 3 view .LVU192
 950              		.loc 1 483 31 is_stmt 0 view .LVU193
 951 0000 4369     		ldr	r3, [r0, #20]
 952 0002 61F30413 		bfi	r3, r1, #4, #1
 953 0006 4361     		str	r3, [r0, #20]
 484:libraries/drivers/src/at32f403a_407_usart.c **** }
 954              		.loc 1 484 1 view .LVU194
 955 0008 7047     		bx	lr
 956              		.cfi_endproc
 957              	.LFE156:
 959              		.section	.text.usart_single_line_halfduplex_select,"ax",%progbits
 960              		.align	1
 961              		.global	usart_single_line_halfduplex_select
 962              		.syntax unified
 963              		.thumb
 964              		.thumb_func
 966              	usart_single_line_halfduplex_select:
 967              	.LVL73:
 968              	.LFB157:
 485:libraries/drivers/src/at32f403a_407_usart.c **** 
 486:libraries/drivers/src/at32f403a_407_usart.c **** /**
 487:libraries/drivers/src/at32f403a_407_usart.c ****   * @brief  enable or disable the usart single line bidirectional half-duplex communication.
 488:libraries/drivers/src/at32f403a_407_usart.c ****   * @param  usart_x: select the usart or the uart peripheral.
 489:libraries/drivers/src/at32f403a_407_usart.c ****   *         this parameter can be one of the following values:
 490:libraries/drivers/src/at32f403a_407_usart.c ****   *         USART1, USART2, USART3, UART4, UART5, USART6, UART7 or UART8.
 491:libraries/drivers/src/at32f403a_407_usart.c ****   * @param  new_state: new state of the single line half-duplex select.
 492:libraries/drivers/src/at32f403a_407_usart.c ****   *         this parameter can be: TRUE or FALSE.
 493:libraries/drivers/src/at32f403a_407_usart.c ****   * @retval none
 494:libraries/drivers/src/at32f403a_407_usart.c ****   */
 495:libraries/drivers/src/at32f403a_407_usart.c **** void usart_single_line_halfduplex_select(usart_type* usart_x, confirm_state new_state)
 496:libraries/drivers/src/at32f403a_407_usart.c **** {
 969              		.loc 1 496 1 is_stmt 1 view -0
 970              		.cfi_startproc
 971              		@ args = 0, pretend = 0, frame = 0
 972              		@ frame_needed = 0, uses_anonymous_args = 0
 973              		@ link register save eliminated.
 497:libraries/drivers/src/at32f403a_407_usart.c ****   usart_x->ctrl3_bit.slben = new_state;
 974              		.loc 1 497 3 view .LVU196
 975              		.loc 1 497 28 is_stmt 0 view .LVU197
 976 0000 4369     		ldr	r3, [r0, #20]
 977 0002 61F3C303 		bfi	r3, r1, #3, #1
 978 0006 4361     		str	r3, [r0, #20]
 498:libraries/drivers/src/at32f403a_407_usart.c **** }
 979              		.loc 1 498 1 view .LVU198
 980 0008 7047     		bx	lr
 981              		.cfi_endproc
 982              	.LFE157:
 984              		.section	.text.usart_irda_mode_enable,"ax",%progbits
 985              		.align	1
 986              		.global	usart_irda_mode_enable
 987              		.syntax unified
 988              		.thumb
 989              		.thumb_func
 991              	usart_irda_mode_enable:
 992              	.LVL74:
 993              	.LFB158:
 499:libraries/drivers/src/at32f403a_407_usart.c **** 
ARM GAS  C:\Users\10963\AppData\Local\Temp\ccYSkP21.s 			page 27


 500:libraries/drivers/src/at32f403a_407_usart.c **** /**
 501:libraries/drivers/src/at32f403a_407_usart.c ****   * @brief  enable or disable the usart's irda interface.
 502:libraries/drivers/src/at32f403a_407_usart.c ****   * @param  usart_x: select the usart or the uart peripheral.
 503:libraries/drivers/src/at32f403a_407_usart.c ****   *         this parameter can be one of the following values:
 504:libraries/drivers/src/at32f403a_407_usart.c ****   *         USART1, USART2, USART3, UART4, UART5, USART6, UART7 or UART8.
 505:libraries/drivers/src/at32f403a_407_usart.c ****   * @param  new_state: new state of the irda mode.
 506:libraries/drivers/src/at32f403a_407_usart.c ****   *         this parameter can be: TRUE or FALSE.
 507:libraries/drivers/src/at32f403a_407_usart.c ****   * @retval none
 508:libraries/drivers/src/at32f403a_407_usart.c ****   */
 509:libraries/drivers/src/at32f403a_407_usart.c **** void usart_irda_mode_enable(usart_type* usart_x, confirm_state new_state)
 510:libraries/drivers/src/at32f403a_407_usart.c **** {
 994              		.loc 1 510 1 is_stmt 1 view -0
 995              		.cfi_startproc
 996              		@ args = 0, pretend = 0, frame = 0
 997              		@ frame_needed = 0, uses_anonymous_args = 0
 998              		@ link register save eliminated.
 511:libraries/drivers/src/at32f403a_407_usart.c ****   usart_x->ctrl3_bit.irdaen = new_state;
 999              		.loc 1 511 3 view .LVU200
 1000              		.loc 1 511 29 is_stmt 0 view .LVU201
 1001 0000 4369     		ldr	r3, [r0, #20]
 1002 0002 61F34103 		bfi	r3, r1, #1, #1
 1003 0006 4361     		str	r3, [r0, #20]
 512:libraries/drivers/src/at32f403a_407_usart.c **** }
 1004              		.loc 1 512 1 view .LVU202
 1005 0008 7047     		bx	lr
 1006              		.cfi_endproc
 1007              	.LFE158:
 1009              		.section	.text.usart_irda_low_power_enable,"ax",%progbits
 1010              		.align	1
 1011              		.global	usart_irda_low_power_enable
 1012              		.syntax unified
 1013              		.thumb
 1014              		.thumb_func
 1016              	usart_irda_low_power_enable:
 1017              	.LVL75:
 1018              	.LFB159:
 513:libraries/drivers/src/at32f403a_407_usart.c **** 
 514:libraries/drivers/src/at32f403a_407_usart.c **** /**
 515:libraries/drivers/src/at32f403a_407_usart.c ****   * @brief  configure the usart's irda low power.
 516:libraries/drivers/src/at32f403a_407_usart.c ****   * @param  usart_x: select the usart or the uart peripheral.
 517:libraries/drivers/src/at32f403a_407_usart.c ****   *         this parameter can be one of the following values:
 518:libraries/drivers/src/at32f403a_407_usart.c ****   *         USART1, USART2, USART3, UART4, UART5, USART6, UART7 or UART8.
 519:libraries/drivers/src/at32f403a_407_usart.c ****   * @param  new_state: new state of the irda mode.
 520:libraries/drivers/src/at32f403a_407_usart.c ****   *         this parameter can be: TRUE or FALSE.
 521:libraries/drivers/src/at32f403a_407_usart.c ****   * @retval none
 522:libraries/drivers/src/at32f403a_407_usart.c ****   */
 523:libraries/drivers/src/at32f403a_407_usart.c **** void usart_irda_low_power_enable(usart_type* usart_x, confirm_state new_state)
 524:libraries/drivers/src/at32f403a_407_usart.c **** {
 1019              		.loc 1 524 1 is_stmt 1 view -0
 1020              		.cfi_startproc
 1021              		@ args = 0, pretend = 0, frame = 0
 1022              		@ frame_needed = 0, uses_anonymous_args = 0
 1023              		@ link register save eliminated.
 525:libraries/drivers/src/at32f403a_407_usart.c ****   usart_x->ctrl3_bit.irdalp = new_state;
 1024              		.loc 1 525 3 view .LVU204
 1025              		.loc 1 525 29 is_stmt 0 view .LVU205
 1026 0000 4369     		ldr	r3, [r0, #20]
ARM GAS  C:\Users\10963\AppData\Local\Temp\ccYSkP21.s 			page 28


 1027 0002 61F38203 		bfi	r3, r1, #2, #1
 1028 0006 4361     		str	r3, [r0, #20]
 526:libraries/drivers/src/at32f403a_407_usart.c **** }
 1029              		.loc 1 526 1 view .LVU206
 1030 0008 7047     		bx	lr
 1031              		.cfi_endproc
 1032              	.LFE159:
 1034              		.section	.text.usart_hardware_flow_control_set,"ax",%progbits
 1035              		.align	1
 1036              		.global	usart_hardware_flow_control_set
 1037              		.syntax unified
 1038              		.thumb
 1039              		.thumb_func
 1041              	usart_hardware_flow_control_set:
 1042              	.LVL76:
 1043              	.LFB160:
 527:libraries/drivers/src/at32f403a_407_usart.c **** 
 528:libraries/drivers/src/at32f403a_407_usart.c **** /**
 529:libraries/drivers/src/at32f403a_407_usart.c ****   * @brief  configure the usart's hardware flow control.
 530:libraries/drivers/src/at32f403a_407_usart.c ****   * @param  usart_x: select the usart or the uart peripheral.
 531:libraries/drivers/src/at32f403a_407_usart.c ****   *         this parameter can be one of the following values:
 532:libraries/drivers/src/at32f403a_407_usart.c ****   *         USART1, USART2, USART3
 533:libraries/drivers/src/at32f403a_407_usart.c ****   * @param  flow_state: specifies the hardware flow control.
 534:libraries/drivers/src/at32f403a_407_usart.c ****   *         this parameter can be one of the following values:
 535:libraries/drivers/src/at32f403a_407_usart.c ****   *         - USART_HARDWARE_FLOW_NONE
 536:libraries/drivers/src/at32f403a_407_usart.c ****   *         - USART_HARDWARE_FLOW_RTS,
 537:libraries/drivers/src/at32f403a_407_usart.c ****   *         - USART_HARDWARE_FLOW_CTS,
 538:libraries/drivers/src/at32f403a_407_usart.c ****   *         - USART_HARDWARE_FLOW_RTS_CTS
 539:libraries/drivers/src/at32f403a_407_usart.c ****   * @retval none
 540:libraries/drivers/src/at32f403a_407_usart.c ****   */
 541:libraries/drivers/src/at32f403a_407_usart.c **** void usart_hardware_flow_control_set(usart_type* usart_x,usart_hardware_flow_control_type flow_stat
 542:libraries/drivers/src/at32f403a_407_usart.c **** {
 1044              		.loc 1 542 1 is_stmt 1 view -0
 1045              		.cfi_startproc
 1046              		@ args = 0, pretend = 0, frame = 0
 1047              		@ frame_needed = 0, uses_anonymous_args = 0
 1048              		@ link register save eliminated.
 543:libraries/drivers/src/at32f403a_407_usart.c ****   if(flow_state == USART_HARDWARE_FLOW_NONE)
 1049              		.loc 1 543 3 view .LVU208
 1050              		.loc 1 543 5 is_stmt 0 view .LVU209
 1051 0000 41B9     		cbnz	r1, .L61
 544:libraries/drivers/src/at32f403a_407_usart.c ****   {
 545:libraries/drivers/src/at32f403a_407_usart.c ****     usart_x->ctrl3_bit.rtsen = FALSE;
 1052              		.loc 1 545 5 is_stmt 1 view .LVU210
 1053              		.loc 1 545 30 is_stmt 0 view .LVU211
 1054 0002 4369     		ldr	r3, [r0, #20]
 1055 0004 23F48073 		bic	r3, r3, #256
 1056 0008 4361     		str	r3, [r0, #20]
 546:libraries/drivers/src/at32f403a_407_usart.c ****     usart_x->ctrl3_bit.ctsen = FALSE;
 1057              		.loc 1 546 5 is_stmt 1 view .LVU212
 1058              		.loc 1 546 30 is_stmt 0 view .LVU213
 1059 000a 4369     		ldr	r3, [r0, #20]
 1060 000c 23F40073 		bic	r3, r3, #512
 1061 0010 4361     		str	r3, [r0, #20]
 1062 0012 7047     		bx	lr
 1063              	.L61:
 547:libraries/drivers/src/at32f403a_407_usart.c ****   }
ARM GAS  C:\Users\10963\AppData\Local\Temp\ccYSkP21.s 			page 29


 548:libraries/drivers/src/at32f403a_407_usart.c ****   else if(flow_state == USART_HARDWARE_FLOW_RTS)
 1064              		.loc 1 548 8 is_stmt 1 view .LVU214
 1065              		.loc 1 548 10 is_stmt 0 view .LVU215
 1066 0014 0129     		cmp	r1, #1
 1067 0016 04D0     		beq	.L65
 549:libraries/drivers/src/at32f403a_407_usart.c ****   {
 550:libraries/drivers/src/at32f403a_407_usart.c ****     usart_x->ctrl3_bit.rtsen = TRUE;
 551:libraries/drivers/src/at32f403a_407_usart.c ****     usart_x->ctrl3_bit.ctsen = FALSE;
 552:libraries/drivers/src/at32f403a_407_usart.c ****   }
 553:libraries/drivers/src/at32f403a_407_usart.c ****   else if(flow_state == USART_HARDWARE_FLOW_CTS)
 1068              		.loc 1 553 8 is_stmt 1 view .LVU216
 1069              		.loc 1 553 10 is_stmt 0 view .LVU217
 1070 0018 0229     		cmp	r1, #2
 1071 001a 0BD0     		beq	.L66
 554:libraries/drivers/src/at32f403a_407_usart.c ****   {
 555:libraries/drivers/src/at32f403a_407_usart.c ****     usart_x->ctrl3_bit.rtsen = FALSE;
 556:libraries/drivers/src/at32f403a_407_usart.c ****     usart_x->ctrl3_bit.ctsen = TRUE;
 557:libraries/drivers/src/at32f403a_407_usart.c ****   }
 558:libraries/drivers/src/at32f403a_407_usart.c ****   else if(flow_state == USART_HARDWARE_FLOW_RTS_CTS)
 1072              		.loc 1 558 8 is_stmt 1 view .LVU218
 1073              		.loc 1 558 10 is_stmt 0 view .LVU219
 1074 001c 0329     		cmp	r1, #3
 1075 001e 12D0     		beq	.L67
 1076              	.L60:
 559:libraries/drivers/src/at32f403a_407_usart.c ****   {
 560:libraries/drivers/src/at32f403a_407_usart.c ****     usart_x->ctrl3_bit.rtsen = TRUE;
 561:libraries/drivers/src/at32f403a_407_usart.c ****     usart_x->ctrl3_bit.ctsen = TRUE;
 562:libraries/drivers/src/at32f403a_407_usart.c ****   }
 563:libraries/drivers/src/at32f403a_407_usart.c **** }
 1077              		.loc 1 563 1 view .LVU220
 1078 0020 7047     		bx	lr
 1079              	.L65:
 550:libraries/drivers/src/at32f403a_407_usart.c ****     usart_x->ctrl3_bit.ctsen = FALSE;
 1080              		.loc 1 550 5 is_stmt 1 view .LVU221
 550:libraries/drivers/src/at32f403a_407_usart.c ****     usart_x->ctrl3_bit.ctsen = FALSE;
 1081              		.loc 1 550 30 is_stmt 0 view .LVU222
 1082 0022 4369     		ldr	r3, [r0, #20]
 1083 0024 43F48073 		orr	r3, r3, #256
 1084 0028 4361     		str	r3, [r0, #20]
 551:libraries/drivers/src/at32f403a_407_usart.c ****   }
 1085              		.loc 1 551 5 is_stmt 1 view .LVU223
 551:libraries/drivers/src/at32f403a_407_usart.c ****   }
 1086              		.loc 1 551 30 is_stmt 0 view .LVU224
 1087 002a 4369     		ldr	r3, [r0, #20]
 1088 002c 23F40073 		bic	r3, r3, #512
 1089 0030 4361     		str	r3, [r0, #20]
 1090 0032 7047     		bx	lr
 1091              	.L66:
 555:libraries/drivers/src/at32f403a_407_usart.c ****     usart_x->ctrl3_bit.ctsen = TRUE;
 1092              		.loc 1 555 5 is_stmt 1 view .LVU225
 555:libraries/drivers/src/at32f403a_407_usart.c ****     usart_x->ctrl3_bit.ctsen = TRUE;
 1093              		.loc 1 555 30 is_stmt 0 view .LVU226
 1094 0034 4369     		ldr	r3, [r0, #20]
 1095 0036 23F48073 		bic	r3, r3, #256
 1096 003a 4361     		str	r3, [r0, #20]
 556:libraries/drivers/src/at32f403a_407_usart.c ****   }
 1097              		.loc 1 556 5 is_stmt 1 view .LVU227
ARM GAS  C:\Users\10963\AppData\Local\Temp\ccYSkP21.s 			page 30


 556:libraries/drivers/src/at32f403a_407_usart.c ****   }
 1098              		.loc 1 556 30 is_stmt 0 view .LVU228
 1099 003c 4369     		ldr	r3, [r0, #20]
 1100 003e 43F40073 		orr	r3, r3, #512
 1101 0042 4361     		str	r3, [r0, #20]
 1102 0044 7047     		bx	lr
 1103              	.L67:
 560:libraries/drivers/src/at32f403a_407_usart.c ****     usart_x->ctrl3_bit.ctsen = TRUE;
 1104              		.loc 1 560 5 is_stmt 1 view .LVU229
 560:libraries/drivers/src/at32f403a_407_usart.c ****     usart_x->ctrl3_bit.ctsen = TRUE;
 1105              		.loc 1 560 30 is_stmt 0 view .LVU230
 1106 0046 4369     		ldr	r3, [r0, #20]
 1107 0048 43F48073 		orr	r3, r3, #256
 1108 004c 4361     		str	r3, [r0, #20]
 561:libraries/drivers/src/at32f403a_407_usart.c ****   }
 1109              		.loc 1 561 5 is_stmt 1 view .LVU231
 561:libraries/drivers/src/at32f403a_407_usart.c ****   }
 1110              		.loc 1 561 30 is_stmt 0 view .LVU232
 1111 004e 4369     		ldr	r3, [r0, #20]
 1112 0050 43F40073 		orr	r3, r3, #512
 1113 0054 4361     		str	r3, [r0, #20]
 1114              		.loc 1 563 1 view .LVU233
 1115 0056 E3E7     		b	.L60
 1116              		.cfi_endproc
 1117              	.LFE160:
 1119              		.section	.text.usart_flag_get,"ax",%progbits
 1120              		.align	1
 1121              		.global	usart_flag_get
 1122              		.syntax unified
 1123              		.thumb
 1124              		.thumb_func
 1126              	usart_flag_get:
 1127              	.LVL77:
 1128              	.LFB161:
 564:libraries/drivers/src/at32f403a_407_usart.c **** 
 565:libraries/drivers/src/at32f403a_407_usart.c **** /**
 566:libraries/drivers/src/at32f403a_407_usart.c ****   * @brief  check whether the specified usart flag is set or not.
 567:libraries/drivers/src/at32f403a_407_usart.c ****   * @param  usart_x: select the usart or the uart peripheral.
 568:libraries/drivers/src/at32f403a_407_usart.c ****   *         this parameter can be one of the following values:
 569:libraries/drivers/src/at32f403a_407_usart.c ****   *         USART1, USART2, USART3, UART4, UART5, USART6, UART7 or UART8.
 570:libraries/drivers/src/at32f403a_407_usart.c ****   * @param  flag: specifies the flag to check.
 571:libraries/drivers/src/at32f403a_407_usart.c ****   *         this parameter can be one of the following values:
 572:libraries/drivers/src/at32f403a_407_usart.c ****   *         - USART_CTSCF_FLAG: cts change flag (not available for UART4,UART5,USART6,UART7 and UAR
 573:libraries/drivers/src/at32f403a_407_usart.c ****   *         - USART_BFF_FLAG:   break frame flag
 574:libraries/drivers/src/at32f403a_407_usart.c ****   *         - USART_TDBE_FLAG:  transmit data buffer empty flag
 575:libraries/drivers/src/at32f403a_407_usart.c ****   *         - USART_TDC_FLAG:   transmit data complete flag
 576:libraries/drivers/src/at32f403a_407_usart.c ****   *         - USART_RDBF_FLAG:  receive data buffer full flag
 577:libraries/drivers/src/at32f403a_407_usart.c ****   *         - USART_IDLEF_FLAG: idle flag
 578:libraries/drivers/src/at32f403a_407_usart.c ****   *         - USART_ROERR_FLAG: receiver overflow error flag
 579:libraries/drivers/src/at32f403a_407_usart.c ****   *         - USART_NERR_FLAG:  noise error flag
 580:libraries/drivers/src/at32f403a_407_usart.c ****   *         - USART_FERR_FLAG:  framing error flag
 581:libraries/drivers/src/at32f403a_407_usart.c ****   *         - USART_PERR_FLAG:  parity error flag
 582:libraries/drivers/src/at32f403a_407_usart.c ****   * @retval the new state of usart_flag (SET or RESET).
 583:libraries/drivers/src/at32f403a_407_usart.c ****   */
 584:libraries/drivers/src/at32f403a_407_usart.c **** flag_status usart_flag_get(usart_type* usart_x, uint32_t flag)
 585:libraries/drivers/src/at32f403a_407_usart.c **** {
 1129              		.loc 1 585 1 is_stmt 1 view -0
ARM GAS  C:\Users\10963\AppData\Local\Temp\ccYSkP21.s 			page 31


 1130              		.cfi_startproc
 1131              		@ args = 0, pretend = 0, frame = 0
 1132              		@ frame_needed = 0, uses_anonymous_args = 0
 1133              		@ link register save eliminated.
 586:libraries/drivers/src/at32f403a_407_usart.c ****   if(usart_x->sts & flag)
 1134              		.loc 1 586 3 view .LVU235
 1135              		.loc 1 586 13 is_stmt 0 view .LVU236
 1136 0000 0368     		ldr	r3, [r0]
 1137              		.loc 1 586 5 view .LVU237
 1138 0002 0B42     		tst	r3, r1
 1139 0004 01D0     		beq	.L70
 587:libraries/drivers/src/at32f403a_407_usart.c ****   {
 588:libraries/drivers/src/at32f403a_407_usart.c ****     return SET;
 1140              		.loc 1 588 12 view .LVU238
 1141 0006 0120     		movs	r0, #1
 1142              	.LVL78:
 1143              		.loc 1 588 12 view .LVU239
 1144 0008 7047     		bx	lr
 1145              	.LVL79:
 1146              	.L70:
 589:libraries/drivers/src/at32f403a_407_usart.c ****   }
 590:libraries/drivers/src/at32f403a_407_usart.c ****   else
 591:libraries/drivers/src/at32f403a_407_usart.c ****   {
 592:libraries/drivers/src/at32f403a_407_usart.c ****     return RESET;
 1147              		.loc 1 592 12 view .LVU240
 1148 000a 0020     		movs	r0, #0
 1149              	.LVL80:
 593:libraries/drivers/src/at32f403a_407_usart.c ****   }
 594:libraries/drivers/src/at32f403a_407_usart.c **** }
 1150              		.loc 1 594 1 view .LVU241
 1151 000c 7047     		bx	lr
 1152              		.cfi_endproc
 1153              	.LFE161:
 1155              		.section	.text.usart_interrupt_flag_get,"ax",%progbits
 1156              		.align	1
 1157              		.global	usart_interrupt_flag_get
 1158              		.syntax unified
 1159              		.thumb
 1160              		.thumb_func
 1162              	usart_interrupt_flag_get:
 1163              	.LVL81:
 1164              	.LFB162:
 595:libraries/drivers/src/at32f403a_407_usart.c **** 
 596:libraries/drivers/src/at32f403a_407_usart.c **** /**
 597:libraries/drivers/src/at32f403a_407_usart.c ****   * @brief  check whether the specified usart interrupt flag is set or not.
 598:libraries/drivers/src/at32f403a_407_usart.c ****   * @param  usart_x: select the usart or the uart peripheral.
 599:libraries/drivers/src/at32f403a_407_usart.c ****   *         this parameter can be one of the following values:
 600:libraries/drivers/src/at32f403a_407_usart.c ****   *         USART1, USART2, USART3, UART4, UART5, USART6, UART7 or UART8.
 601:libraries/drivers/src/at32f403a_407_usart.c ****   * @param  flag: specifies the flag to check.
 602:libraries/drivers/src/at32f403a_407_usart.c ****   *         this parameter can be one of the following values:
 603:libraries/drivers/src/at32f403a_407_usart.c ****   *         - USART_CTSCF_FLAG: cts change flag (not available for UART4,UART5,USART6,UART7 and UAR
 604:libraries/drivers/src/at32f403a_407_usart.c ****   *         - USART_BFF_FLAG:   break frame flag
 605:libraries/drivers/src/at32f403a_407_usart.c ****   *         - USART_TDBE_FLAG:  transmit data buffer empty flag
 606:libraries/drivers/src/at32f403a_407_usart.c ****   *         - USART_TDC_FLAG:   transmit data complete flag
 607:libraries/drivers/src/at32f403a_407_usart.c ****   *         - USART_RDBF_FLAG:  receive data buffer full flag
 608:libraries/drivers/src/at32f403a_407_usart.c ****   *         - USART_IDLEF_FLAG: idle flag
 609:libraries/drivers/src/at32f403a_407_usart.c ****   *         - USART_ROERR_FLAG: receiver overflow error flag
ARM GAS  C:\Users\10963\AppData\Local\Temp\ccYSkP21.s 			page 32


 610:libraries/drivers/src/at32f403a_407_usart.c ****   *         - USART_NERR_FLAG:  noise error flag
 611:libraries/drivers/src/at32f403a_407_usart.c ****   *         - USART_FERR_FLAG:  framing error flag
 612:libraries/drivers/src/at32f403a_407_usart.c ****   *         - USART_PERR_FLAG:  parity error flag
 613:libraries/drivers/src/at32f403a_407_usart.c ****   * @retval the new state of usart_flag (SET or RESET).
 614:libraries/drivers/src/at32f403a_407_usart.c ****   */
 615:libraries/drivers/src/at32f403a_407_usart.c **** flag_status usart_interrupt_flag_get(usart_type* usart_x, uint32_t flag)
 616:libraries/drivers/src/at32f403a_407_usart.c **** {
 1165              		.loc 1 616 1 is_stmt 1 view -0
 1166              		.cfi_startproc
 1167              		@ args = 0, pretend = 0, frame = 0
 1168              		@ frame_needed = 0, uses_anonymous_args = 0
 1169              		@ link register save eliminated.
 617:libraries/drivers/src/at32f403a_407_usart.c ****   flag_status int_status = RESET;
 1170              		.loc 1 617 3 view .LVU243
 618:libraries/drivers/src/at32f403a_407_usart.c **** 
 619:libraries/drivers/src/at32f403a_407_usart.c ****   switch(flag)
 1171              		.loc 1 619 3 view .LVU244
 1172 0000 2029     		cmp	r1, #32
 1173 0002 3DD0     		beq	.L72
 1174 0004 1AD8     		bhi	.L73
 1175 0006 0429     		cmp	r1, #4
 1176 0008 10D0     		beq	.L74
 1177 000a 07D9     		bls	.L89
 1178 000c 0829     		cmp	r1, #8
 1179 000e 3BD0     		beq	.L78
 1180 0010 1029     		cmp	r1, #16
 1181 0012 11D1     		bne	.L90
 620:libraries/drivers/src/at32f403a_407_usart.c ****   {
 621:libraries/drivers/src/at32f403a_407_usart.c ****     case USART_CTSCF_FLAG:
 622:libraries/drivers/src/at32f403a_407_usart.c ****       int_status = (flag_status)usart_x->ctrl3_bit.ctscfien;
 623:libraries/drivers/src/at32f403a_407_usart.c ****       break;
 624:libraries/drivers/src/at32f403a_407_usart.c ****     case USART_BFF_FLAG:
 625:libraries/drivers/src/at32f403a_407_usart.c ****       int_status = (flag_status)usart_x->ctrl2_bit.bfien;
 626:libraries/drivers/src/at32f403a_407_usart.c ****       break;
 627:libraries/drivers/src/at32f403a_407_usart.c ****     case USART_TDBE_FLAG:
 628:libraries/drivers/src/at32f403a_407_usart.c ****       int_status = (flag_status)usart_x->ctrl1_bit.tdbeien;
 629:libraries/drivers/src/at32f403a_407_usart.c ****       break;
 630:libraries/drivers/src/at32f403a_407_usart.c ****     case USART_TDC_FLAG:
 631:libraries/drivers/src/at32f403a_407_usart.c ****       int_status = (flag_status)usart_x->ctrl1_bit.tdcien;
 632:libraries/drivers/src/at32f403a_407_usart.c ****       break;
 633:libraries/drivers/src/at32f403a_407_usart.c ****     case USART_RDBF_FLAG:
 634:libraries/drivers/src/at32f403a_407_usart.c ****       int_status = (flag_status)usart_x->ctrl1_bit.rdbfien;
 635:libraries/drivers/src/at32f403a_407_usart.c ****       break;
 636:libraries/drivers/src/at32f403a_407_usart.c ****     case USART_ROERR_FLAG:
 637:libraries/drivers/src/at32f403a_407_usart.c ****       int_status = (flag_status)(usart_x->ctrl1_bit.rdbfien || usart_x->ctrl3_bit.errien);
 638:libraries/drivers/src/at32f403a_407_usart.c ****       break;
 639:libraries/drivers/src/at32f403a_407_usart.c ****     case USART_IDLEF_FLAG:
 640:libraries/drivers/src/at32f403a_407_usart.c ****       int_status = (flag_status)usart_x->ctrl1_bit.idleien;
 1182              		.loc 1 640 7 view .LVU245
 1183              		.loc 1 640 51 is_stmt 0 view .LVU246
 1184 0014 C368     		ldr	r3, [r0, #12]
 1185 0016 C3F30013 		ubfx	r3, r3, #4, #1
 1186              	.LVL82:
 641:libraries/drivers/src/at32f403a_407_usart.c ****       break;  
 1187              		.loc 1 641 7 is_stmt 1 view .LVU247
 1188 001a 23E0     		b	.L84
 1189              	.LVL83:
ARM GAS  C:\Users\10963\AppData\Local\Temp\ccYSkP21.s 			page 33


 1190              	.L89:
 619:libraries/drivers/src/at32f403a_407_usart.c ****   {
 1191              		.loc 1 619 3 is_stmt 0 view .LVU248
 1192 001c 0129     		cmp	r1, #1
 1193 001e 03D1     		bne	.L91
 642:libraries/drivers/src/at32f403a_407_usart.c ****     case USART_NERR_FLAG:
 643:libraries/drivers/src/at32f403a_407_usart.c ****     case USART_FERR_FLAG:
 644:libraries/drivers/src/at32f403a_407_usart.c ****       int_status = (flag_status)usart_x->ctrl3_bit.errien;
 645:libraries/drivers/src/at32f403a_407_usart.c ****       break;
 646:libraries/drivers/src/at32f403a_407_usart.c ****     case USART_PERR_FLAG:
 647:libraries/drivers/src/at32f403a_407_usart.c ****       int_status = (flag_status)usart_x->ctrl1_bit.perrien;
 1194              		.loc 1 647 7 is_stmt 1 view .LVU249
 1195              		.loc 1 647 51 is_stmt 0 view .LVU250
 1196 0020 C368     		ldr	r3, [r0, #12]
 1197 0022 C3F30023 		ubfx	r3, r3, #8, #1
 1198              	.LVL84:
 648:libraries/drivers/src/at32f403a_407_usart.c ****       break;      
 1199              		.loc 1 648 7 is_stmt 1 view .LVU251
 1200 0026 1DE0     		b	.L84
 1201              	.LVL85:
 1202              	.L91:
 619:libraries/drivers/src/at32f403a_407_usart.c ****   {
 1203              		.loc 1 619 3 is_stmt 0 view .LVU252
 1204 0028 0229     		cmp	r1, #2
 1205 002a 03D1     		bne	.L92
 1206              	.L74:
 644:libraries/drivers/src/at32f403a_407_usart.c ****       break;
 1207              		.loc 1 644 7 is_stmt 1 view .LVU253
 644:libraries/drivers/src/at32f403a_407_usart.c ****       break;
 1208              		.loc 1 644 51 is_stmt 0 view .LVU254
 1209 002c 4369     		ldr	r3, [r0, #20]
 1210 002e 03F00103 		and	r3, r3, #1
 1211              	.LVL86:
 645:libraries/drivers/src/at32f403a_407_usart.c ****     case USART_PERR_FLAG:
 1212              		.loc 1 645 7 is_stmt 1 view .LVU255
 1213 0032 17E0     		b	.L84
 1214              	.LVL87:
 1215              	.L92:
 619:libraries/drivers/src/at32f403a_407_usart.c ****   {
 1216              		.loc 1 619 3 is_stmt 0 view .LVU256
 1217 0034 0020     		movs	r0, #0
 1218              	.LVL88:
 619:libraries/drivers/src/at32f403a_407_usart.c ****   {
 1219              		.loc 1 619 3 view .LVU257
 1220 0036 7047     		bx	lr
 1221              	.LVL89:
 1222              	.L90:
 619:libraries/drivers/src/at32f403a_407_usart.c ****   {
 1223              		.loc 1 619 3 view .LVU258
 1224 0038 0020     		movs	r0, #0
 1225              	.LVL90:
 619:libraries/drivers/src/at32f403a_407_usart.c ****   {
 1226              		.loc 1 619 3 view .LVU259
 1227 003a 7047     		bx	lr
 1228              	.LVL91:
 1229              	.L73:
 619:libraries/drivers/src/at32f403a_407_usart.c ****   {
ARM GAS  C:\Users\10963\AppData\Local\Temp\ccYSkP21.s 			page 34


 1230              		.loc 1 619 3 view .LVU260
 1231 003c B1F5807F 		cmp	r1, #256
 1232 0040 16D0     		beq	.L80
 1233 0042 09D8     		bhi	.L81
 1234 0044 4029     		cmp	r1, #64
 1235 0046 17D0     		beq	.L82
 1236 0048 8029     		cmp	r1, #128
 1237 004a 03D1     		bne	.L93
 628:libraries/drivers/src/at32f403a_407_usart.c ****       break;
 1238              		.loc 1 628 7 is_stmt 1 view .LVU261
 628:libraries/drivers/src/at32f403a_407_usart.c ****       break;
 1239              		.loc 1 628 51 is_stmt 0 view .LVU262
 1240 004c C368     		ldr	r3, [r0, #12]
 1241 004e C3F3C013 		ubfx	r3, r3, #7, #1
 1242              	.LVL92:
 629:libraries/drivers/src/at32f403a_407_usart.c ****     case USART_TDC_FLAG:
 1243              		.loc 1 629 7 is_stmt 1 view .LVU263
 1244 0052 07E0     		b	.L84
 1245              	.LVL93:
 1246              	.L93:
 619:libraries/drivers/src/at32f403a_407_usart.c ****   {
 1247              		.loc 1 619 3 is_stmt 0 view .LVU264
 1248 0054 0020     		movs	r0, #0
 1249              	.LVL94:
 619:libraries/drivers/src/at32f403a_407_usart.c ****   {
 1250              		.loc 1 619 3 view .LVU265
 1251 0056 7047     		bx	lr
 1252              	.LVL95:
 1253              	.L81:
 619:libraries/drivers/src/at32f403a_407_usart.c ****   {
 1254              		.loc 1 619 3 view .LVU266
 1255 0058 B1F5007F 		cmp	r1, #512
 1256 005c 1ED1     		bne	.L86
 622:libraries/drivers/src/at32f403a_407_usart.c ****       break;
 1257              		.loc 1 622 7 is_stmt 1 view .LVU267
 622:libraries/drivers/src/at32f403a_407_usart.c ****       break;
 1258              		.loc 1 622 51 is_stmt 0 view .LVU268
 1259 005e 4369     		ldr	r3, [r0, #20]
 1260 0060 C3F38023 		ubfx	r3, r3, #10, #1
 1261              	.LVL96:
 623:libraries/drivers/src/at32f403a_407_usart.c ****     case USART_BFF_FLAG:
 1262              		.loc 1 623 7 is_stmt 1 view .LVU269
 1263              	.L84:
 649:libraries/drivers/src/at32f403a_407_usart.c ****     default:
 650:libraries/drivers/src/at32f403a_407_usart.c ****       int_status = RESET;
 651:libraries/drivers/src/at32f403a_407_usart.c ****       break;
 652:libraries/drivers/src/at32f403a_407_usart.c ****   }
 653:libraries/drivers/src/at32f403a_407_usart.c **** 
 654:libraries/drivers/src/at32f403a_407_usart.c ****   if(int_status != SET)
 1264              		.loc 1 654 3 view .LVU270
 1265              		.loc 1 654 5 is_stmt 0 view .LVU271
 1266 0064 E3B1     		cbz	r3, .L87
 1267              	.LVL97:
 1268              	.L85:
 655:libraries/drivers/src/at32f403a_407_usart.c ****   {
 656:libraries/drivers/src/at32f403a_407_usart.c ****     return RESET;
 657:libraries/drivers/src/at32f403a_407_usart.c ****   }
ARM GAS  C:\Users\10963\AppData\Local\Temp\ccYSkP21.s 			page 35


 658:libraries/drivers/src/at32f403a_407_usart.c **** 
 659:libraries/drivers/src/at32f403a_407_usart.c ****   if(usart_x->sts & flag)
 1269              		.loc 1 659 3 is_stmt 1 view .LVU272
 1270              		.loc 1 659 13 is_stmt 0 view .LVU273
 1271 0066 0368     		ldr	r3, [r0]
 1272              		.loc 1 659 5 view .LVU274
 1273 0068 0B42     		tst	r3, r1
 1274 006a 1BD0     		beq	.L88
 660:libraries/drivers/src/at32f403a_407_usart.c ****   {
 661:libraries/drivers/src/at32f403a_407_usart.c ****     return SET;
 1275              		.loc 1 661 12 view .LVU275
 1276 006c 0120     		movs	r0, #1
 1277              	.LVL98:
 1278              		.loc 1 661 12 view .LVU276
 1279 006e 7047     		bx	lr
 1280              	.LVL99:
 1281              	.L80:
 625:libraries/drivers/src/at32f403a_407_usart.c ****       break;
 1282              		.loc 1 625 7 is_stmt 1 view .LVU277
 625:libraries/drivers/src/at32f403a_407_usart.c ****       break;
 1283              		.loc 1 625 51 is_stmt 0 view .LVU278
 1284 0070 0369     		ldr	r3, [r0, #16]
 1285 0072 C3F38013 		ubfx	r3, r3, #6, #1
 1286              	.LVL100:
 626:libraries/drivers/src/at32f403a_407_usart.c ****     case USART_TDBE_FLAG:
 1287              		.loc 1 626 7 is_stmt 1 view .LVU279
 1288 0076 F5E7     		b	.L84
 1289              	.LVL101:
 1290              	.L82:
 631:libraries/drivers/src/at32f403a_407_usart.c ****       break;
 1291              		.loc 1 631 7 view .LVU280
 631:libraries/drivers/src/at32f403a_407_usart.c ****       break;
 1292              		.loc 1 631 51 is_stmt 0 view .LVU281
 1293 0078 C368     		ldr	r3, [r0, #12]
 1294 007a C3F38013 		ubfx	r3, r3, #6, #1
 1295              	.LVL102:
 632:libraries/drivers/src/at32f403a_407_usart.c ****     case USART_RDBF_FLAG:
 1296              		.loc 1 632 7 is_stmt 1 view .LVU282
 1297 007e F1E7     		b	.L84
 1298              	.LVL103:
 1299              	.L72:
 634:libraries/drivers/src/at32f403a_407_usart.c ****       break;
 1300              		.loc 1 634 7 view .LVU283
 634:libraries/drivers/src/at32f403a_407_usart.c ****       break;
 1301              		.loc 1 634 51 is_stmt 0 view .LVU284
 1302 0080 C368     		ldr	r3, [r0, #12]
 1303 0082 C3F34013 		ubfx	r3, r3, #5, #1
 1304              	.LVL104:
 635:libraries/drivers/src/at32f403a_407_usart.c ****     case USART_ROERR_FLAG:
 1305              		.loc 1 635 7 is_stmt 1 view .LVU285
 1306 0086 EDE7     		b	.L84
 1307              	.LVL105:
 1308              	.L78:
 637:libraries/drivers/src/at32f403a_407_usart.c ****       break;
 1309              		.loc 1 637 7 view .LVU286
 637:libraries/drivers/src/at32f403a_407_usart.c ****       break;
 1310              		.loc 1 637 52 is_stmt 0 view .LVU287
ARM GAS  C:\Users\10963\AppData\Local\Temp\ccYSkP21.s 			page 36


 1311 0088 C368     		ldr	r3, [r0, #12]
 637:libraries/drivers/src/at32f403a_407_usart.c ****       break;
 1312              		.loc 1 637 61 view .LVU288
 1313 008a 13F0200F 		tst	r3, #32
 1314 008e EAD1     		bne	.L85
 637:libraries/drivers/src/at32f403a_407_usart.c ****       break;
 1315              		.loc 1 637 82 discriminator 2 view .LVU289
 1316 0090 4369     		ldr	r3, [r0, #20]
 637:libraries/drivers/src/at32f403a_407_usart.c ****       break;
 1317              		.loc 1 637 61 discriminator 2 view .LVU290
 1318 0092 13F0010F 		tst	r3, #1
 1319 0096 E6D1     		bne	.L85
 656:libraries/drivers/src/at32f403a_407_usart.c ****   }
 1320              		.loc 1 656 12 view .LVU291
 1321 0098 0020     		movs	r0, #0
 1322              	.LVL106:
 656:libraries/drivers/src/at32f403a_407_usart.c ****   }
 1323              		.loc 1 656 12 view .LVU292
 1324 009a 7047     		bx	lr
 1325              	.LVL107:
 1326              	.L86:
 619:libraries/drivers/src/at32f403a_407_usart.c ****   {
 1327              		.loc 1 619 3 view .LVU293
 1328 009c 0020     		movs	r0, #0
 1329              	.LVL108:
 619:libraries/drivers/src/at32f403a_407_usart.c ****   {
 1330              		.loc 1 619 3 view .LVU294
 1331 009e 7047     		bx	lr
 1332              	.LVL109:
 1333              	.L87:
 656:libraries/drivers/src/at32f403a_407_usart.c ****   }
 1334              		.loc 1 656 12 view .LVU295
 1335 00a0 1846     		mov	r0, r3
 1336              	.LVL110:
 656:libraries/drivers/src/at32f403a_407_usart.c ****   }
 1337              		.loc 1 656 12 view .LVU296
 1338 00a2 7047     		bx	lr
 1339              	.LVL111:
 1340              	.L88:
 662:libraries/drivers/src/at32f403a_407_usart.c ****   }
 663:libraries/drivers/src/at32f403a_407_usart.c ****   else
 664:libraries/drivers/src/at32f403a_407_usart.c ****   {
 665:libraries/drivers/src/at32f403a_407_usart.c ****     return RESET;
 1341              		.loc 1 665 12 view .LVU297
 1342 00a4 0020     		movs	r0, #0
 1343              	.LVL112:
 666:libraries/drivers/src/at32f403a_407_usart.c ****   }
 667:libraries/drivers/src/at32f403a_407_usart.c **** }
 1344              		.loc 1 667 1 view .LVU298
 1345 00a6 7047     		bx	lr
 1346              		.cfi_endproc
 1347              	.LFE162:
 1349              		.section	.text.usart_flag_clear,"ax",%progbits
 1350              		.align	1
 1351              		.global	usart_flag_clear
 1352              		.syntax unified
 1353              		.thumb
ARM GAS  C:\Users\10963\AppData\Local\Temp\ccYSkP21.s 			page 37


 1354              		.thumb_func
 1356              	usart_flag_clear:
 1357              	.LVL113:
 1358              	.LFB163:
 668:libraries/drivers/src/at32f403a_407_usart.c **** 
 669:libraries/drivers/src/at32f403a_407_usart.c **** /**
 670:libraries/drivers/src/at32f403a_407_usart.c ****   * @brief  clear the usart's pending flags.
 671:libraries/drivers/src/at32f403a_407_usart.c ****   * @param  usart_x: select the usart or the uart peripheral.
 672:libraries/drivers/src/at32f403a_407_usart.c ****   *         this parameter can be one of the following values:
 673:libraries/drivers/src/at32f403a_407_usart.c ****   *         USART1, USART2, USART3, UART4, UART5, USART6, UART7 or UART8.
 674:libraries/drivers/src/at32f403a_407_usart.c ****   * @param  flag: specifies the flag to clear.
 675:libraries/drivers/src/at32f403a_407_usart.c ****   *         this parameter can be any combination of the following values:
 676:libraries/drivers/src/at32f403a_407_usart.c ****   *         - USART_CTSCF_FLAG: (not available for UART4,UART5,USART6,UART7 and UART8).
 677:libraries/drivers/src/at32f403a_407_usart.c ****   *         - USART_BFF_FLAG:
 678:libraries/drivers/src/at32f403a_407_usart.c ****   *         - USART_TDC_FLAG:
 679:libraries/drivers/src/at32f403a_407_usart.c ****   *         - USART_RDBF_FLAG:
 680:libraries/drivers/src/at32f403a_407_usart.c ****   *         - USART_PERR_FLAG:
 681:libraries/drivers/src/at32f403a_407_usart.c ****   *         - USART_FERR_FLAG:
 682:libraries/drivers/src/at32f403a_407_usart.c ****   *         - USART_NERR_FLAG:
 683:libraries/drivers/src/at32f403a_407_usart.c ****   *         - USART_ROERR_FLAG:
 684:libraries/drivers/src/at32f403a_407_usart.c ****   *         - USART_IDLEF_FLAG:
 685:libraries/drivers/src/at32f403a_407_usart.c ****   * @note
 686:libraries/drivers/src/at32f403a_407_usart.c ****   *         - USART_PERR_FLAG, USART_FERR_FLAG, USART_NERR_FLAG, USART_ROERR_FLAG and USART_IDLEF_F
 687:libraries/drivers/src/at32f403a_407_usart.c ****   *           sequence: a read operation to usart sts register (usart_flag_get())
 688:libraries/drivers/src/at32f403a_407_usart.c ****   *           followed by a read operation to usart dt register (usart_data_receive()).
 689:libraries/drivers/src/at32f403a_407_usart.c ****   *         - USART_RDBF_FLAG can be also cleared by a read to the usart dt register(usart_data_rec
 690:libraries/drivers/src/at32f403a_407_usart.c ****   *         - USART_TDC_FLAG can be also cleared by software sequence: a read operation to usart st
 691:libraries/drivers/src/at32f403a_407_usart.c ****   *           followed by a write operation to usart dt register (usart_data_transmit()).
 692:libraries/drivers/src/at32f403a_407_usart.c ****   *         - USART_TDBE_FLAG is cleared only by a write to the usart dt register(usart_data_transm
 693:libraries/drivers/src/at32f403a_407_usart.c ****   * @retval none
 694:libraries/drivers/src/at32f403a_407_usart.c ****   */
 695:libraries/drivers/src/at32f403a_407_usart.c **** void usart_flag_clear(usart_type* usart_x, uint32_t flag)
 696:libraries/drivers/src/at32f403a_407_usart.c **** {
 1359              		.loc 1 696 1 is_stmt 1 view -0
 1360              		.cfi_startproc
 1361              		@ args = 0, pretend = 0, frame = 0
 1362              		@ frame_needed = 0, uses_anonymous_args = 0
 1363              		@ link register save eliminated.
 697:libraries/drivers/src/at32f403a_407_usart.c ****   if(flag & (USART_PERR_FLAG | USART_FERR_FLAG | USART_NERR_FLAG | USART_ROERR_FLAG | USART_IDLEF_F
 1364              		.loc 1 697 3 view .LVU300
 1365              		.loc 1 697 5 is_stmt 0 view .LVU301
 1366 0000 11F01F0F 		tst	r1, #31
 1367 0004 02D0     		beq	.L95
 698:libraries/drivers/src/at32f403a_407_usart.c ****   {
 699:libraries/drivers/src/at32f403a_407_usart.c ****     UNUSED(usart_x->sts);
 1368              		.loc 1 699 5 is_stmt 1 view .LVU302
 1369 0006 0368     		ldr	r3, [r0]
 700:libraries/drivers/src/at32f403a_407_usart.c ****     UNUSED(usart_x->dt);
 1370              		.loc 1 700 5 view .LVU303
 1371 0008 4368     		ldr	r3, [r0, #4]
 1372 000a 7047     		bx	lr
 1373              	.L95:
 701:libraries/drivers/src/at32f403a_407_usart.c ****   }
 702:libraries/drivers/src/at32f403a_407_usart.c ****   else
 703:libraries/drivers/src/at32f403a_407_usart.c ****   {
 704:libraries/drivers/src/at32f403a_407_usart.c ****     usart_x->sts = ~flag;
 1374              		.loc 1 704 5 view .LVU304
ARM GAS  C:\Users\10963\AppData\Local\Temp\ccYSkP21.s 			page 38


 1375              		.loc 1 704 20 is_stmt 0 view .LVU305
 1376 000c C943     		mvns	r1, r1
 1377              	.LVL114:
 1378              		.loc 1 704 18 view .LVU306
 1379 000e 0160     		str	r1, [r0]
 705:libraries/drivers/src/at32f403a_407_usart.c ****   }
 706:libraries/drivers/src/at32f403a_407_usart.c **** }
 1380              		.loc 1 706 1 view .LVU307
 1381 0010 7047     		bx	lr
 1382              		.cfi_endproc
 1383              	.LFE163:
 1385              		.text
 1386              	.Letext0:
 1387              		.file 2 "C:/Program Files (x86)/Arm/GNU Toolchain mingw-w64-i686-arm-none-eabi/arm-none-eabi/inclu
 1388              		.file 3 "C:/Program Files (x86)/Arm/GNU Toolchain mingw-w64-i686-arm-none-eabi/arm-none-eabi/inclu
 1389              		.file 4 "libraries/cmsis/cm4/device_support/at32f403a_407.h"
 1390              		.file 5 "libraries/drivers/inc/at32f403a_407_crm.h"
 1391              		.file 6 "libraries/drivers/inc/at32f403a_407_usart.h"
ARM GAS  C:\Users\10963\AppData\Local\Temp\ccYSkP21.s 			page 39

