ARM GAS  C:\Users\10963\AppData\Local\Temp\ccZn7T5h.s 			page 1


   1              		.cpu cortex-m4
   2              		.arch armv7e-m
   3              		.fpu fpv4-sp-d16
   4              		.eabi_attribute 27, 1
   5              		.eabi_attribute 28, 1
   6              		.eabi_attribute 20, 1
   7              		.eabi_attribute 21, 1
   8              		.eabi_attribute 23, 3
   9              		.eabi_attribute 24, 1
  10              		.eabi_attribute 25, 1
  11              		.eabi_attribute 26, 1
  12              		.eabi_attribute 30, 1
  13              		.eabi_attribute 34, 1
  14              		.eabi_attribute 18, 4
  15              		.file	"at32f403a_407_can.c"
  16              		.text
  17              	.Ltext0:
  18              		.cfi_sections	.debug_frame
  19              		.file 1 "libraries/drivers/src/at32f403a_407_can.c"
  20              		.section	.text.can_reset,"ax",%progbits
  21              		.align	1
  22              		.global	can_reset
  23              		.syntax unified
  24              		.thumb
  25              		.thumb_func
  27              	can_reset:
  28              	.LVL0:
  29              	.LFB134:
   1:libraries/drivers/src/at32f403a_407_can.c **** /**
   2:libraries/drivers/src/at32f403a_407_can.c ****   **************************************************************************
   3:libraries/drivers/src/at32f403a_407_can.c ****   * @file     at32f403a_407_can.c
   4:libraries/drivers/src/at32f403a_407_can.c ****   * @brief    contains all the functions for the can firmware library
   5:libraries/drivers/src/at32f403a_407_can.c ****   **************************************************************************
   6:libraries/drivers/src/at32f403a_407_can.c ****   *
   7:libraries/drivers/src/at32f403a_407_can.c ****   * Copyright (c) 2025, Artery Technology, All rights reserved.
   8:libraries/drivers/src/at32f403a_407_can.c ****   *
   9:libraries/drivers/src/at32f403a_407_can.c ****   * The software Board Support Package (BSP) that is made available to
  10:libraries/drivers/src/at32f403a_407_can.c ****   * download from Artery official website is the copyrighted work of Artery.
  11:libraries/drivers/src/at32f403a_407_can.c ****   * Artery authorizes customers to use, copy, and distribute the BSP
  12:libraries/drivers/src/at32f403a_407_can.c ****   * software and its related documentation for the purpose of design and
  13:libraries/drivers/src/at32f403a_407_can.c ****   * development in conjunction with Artery microcontrollers. Use of the
  14:libraries/drivers/src/at32f403a_407_can.c ****   * software is governed by this copyright notice and the following disclaimer.
  15:libraries/drivers/src/at32f403a_407_can.c ****   *
  16:libraries/drivers/src/at32f403a_407_can.c ****   * THIS SOFTWARE IS PROVIDED ON "AS IS" BASIS WITHOUT WARRANTIES,
  17:libraries/drivers/src/at32f403a_407_can.c ****   * GUARANTEES OR REPRESENTATIONS OF ANY KIND. ARTERY EXPRESSLY DISCLAIMS,
  18:libraries/drivers/src/at32f403a_407_can.c ****   * TO THE FULLEST EXTENT PERMITTED BY LAW, ALL EXPRESS, IMPLIED OR
  19:libraries/drivers/src/at32f403a_407_can.c ****   * STATUTORY OR OTHER WARRANTIES, GUARANTEES OR REPRESENTATIONS,
  20:libraries/drivers/src/at32f403a_407_can.c ****   * INCLUDING BUT NOT LIMITED TO, THE IMPLIED WARRANTIES OF MERCHANTABILITY,
  21:libraries/drivers/src/at32f403a_407_can.c ****   * FITNESS FOR A PARTICULAR PURPOSE, OR NON-INFRINGEMENT.
  22:libraries/drivers/src/at32f403a_407_can.c ****   *
  23:libraries/drivers/src/at32f403a_407_can.c ****   **************************************************************************
  24:libraries/drivers/src/at32f403a_407_can.c ****   */
  25:libraries/drivers/src/at32f403a_407_can.c **** 
  26:libraries/drivers/src/at32f403a_407_can.c **** #include "at32f403a_407_conf.h"
  27:libraries/drivers/src/at32f403a_407_can.c **** 
  28:libraries/drivers/src/at32f403a_407_can.c **** /** @addtogroup AT32F403A_407_periph_driver
  29:libraries/drivers/src/at32f403a_407_can.c ****   * @{
ARM GAS  C:\Users\10963\AppData\Local\Temp\ccZn7T5h.s 			page 2


  30:libraries/drivers/src/at32f403a_407_can.c ****   */
  31:libraries/drivers/src/at32f403a_407_can.c **** 
  32:libraries/drivers/src/at32f403a_407_can.c **** /** @defgroup CAN
  33:libraries/drivers/src/at32f403a_407_can.c ****   * @brief CAN driver modules
  34:libraries/drivers/src/at32f403a_407_can.c ****   * @{
  35:libraries/drivers/src/at32f403a_407_can.c ****   */
  36:libraries/drivers/src/at32f403a_407_can.c **** 
  37:libraries/drivers/src/at32f403a_407_can.c **** #ifdef CAN_MODULE_ENABLED
  38:libraries/drivers/src/at32f403a_407_can.c **** 
  39:libraries/drivers/src/at32f403a_407_can.c **** /** @defgroup CAN_private_functions
  40:libraries/drivers/src/at32f403a_407_can.c ****   * @{
  41:libraries/drivers/src/at32f403a_407_can.c ****   */
  42:libraries/drivers/src/at32f403a_407_can.c **** 
  43:libraries/drivers/src/at32f403a_407_can.c **** /**
  44:libraries/drivers/src/at32f403a_407_can.c ****   * @brief  deinitialize the can peripheral registers to their default reset values.
  45:libraries/drivers/src/at32f403a_407_can.c ****   * @param  can_x: select the can peripheral.
  46:libraries/drivers/src/at32f403a_407_can.c ****   *         this parameter can be one of the following values:
  47:libraries/drivers/src/at32f403a_407_can.c ****   *         CAN1,CAN2.
  48:libraries/drivers/src/at32f403a_407_can.c ****   * @retval none.
  49:libraries/drivers/src/at32f403a_407_can.c ****   */
  50:libraries/drivers/src/at32f403a_407_can.c **** void can_reset(can_type* can_x)
  51:libraries/drivers/src/at32f403a_407_can.c **** {
  30              		.loc 1 51 1 view -0
  31              		.cfi_startproc
  32              		@ args = 0, pretend = 0, frame = 0
  33              		@ frame_needed = 0, uses_anonymous_args = 0
  34              		.loc 1 51 1 is_stmt 0 view .LVU1
  35 0000 08B5     		push	{r3, lr}
  36              	.LCFI0:
  37              		.cfi_def_cfa_offset 8
  38              		.cfi_offset 3, -8
  39              		.cfi_offset 14, -4
  52:libraries/drivers/src/at32f403a_407_can.c ****   if(can_x == CAN1)
  40              		.loc 1 52 3 is_stmt 1 view .LVU2
  41              		.loc 1 52 5 is_stmt 0 view .LVU3
  42 0002 0C4B     		ldr	r3, .L7
  43 0004 9842     		cmp	r0, r3
  44 0006 03D0     		beq	.L5
  53:libraries/drivers/src/at32f403a_407_can.c ****   {
  54:libraries/drivers/src/at32f403a_407_can.c ****     crm_periph_reset(CRM_CAN1_PERIPH_RESET, TRUE);
  55:libraries/drivers/src/at32f403a_407_can.c ****     crm_periph_reset(CRM_CAN1_PERIPH_RESET, FALSE);
  56:libraries/drivers/src/at32f403a_407_can.c ****   }
  57:libraries/drivers/src/at32f403a_407_can.c ****   else if(can_x == CAN2)
  45              		.loc 1 57 8 is_stmt 1 view .LVU4
  46              		.loc 1 57 10 is_stmt 0 view .LVU5
  47 0008 0B4B     		ldr	r3, .L7+4
  48 000a 9842     		cmp	r0, r3
  49 000c 09D0     		beq	.L6
  50              	.LVL1:
  51              	.L1:
  58:libraries/drivers/src/at32f403a_407_can.c ****   {
  59:libraries/drivers/src/at32f403a_407_can.c ****     crm_periph_reset(CRM_CAN2_PERIPH_RESET, TRUE);
  60:libraries/drivers/src/at32f403a_407_can.c ****     crm_periph_reset(CRM_CAN2_PERIPH_RESET, FALSE);
  61:libraries/drivers/src/at32f403a_407_can.c ****   }
  62:libraries/drivers/src/at32f403a_407_can.c **** }
  52              		.loc 1 62 1 view .LVU6
  53 000e 08BD     		pop	{r3, pc}
ARM GAS  C:\Users\10963\AppData\Local\Temp\ccZn7T5h.s 			page 3


  54              	.LVL2:
  55              	.L5:
  54:libraries/drivers/src/at32f403a_407_can.c ****     crm_periph_reset(CRM_CAN1_PERIPH_RESET, FALSE);
  56              		.loc 1 54 5 is_stmt 1 view .LVU7
  57 0010 0121     		movs	r1, #1
  58 0012 0A48     		ldr	r0, .L7+8
  59              	.LVL3:
  54:libraries/drivers/src/at32f403a_407_can.c ****     crm_periph_reset(CRM_CAN1_PERIPH_RESET, FALSE);
  60              		.loc 1 54 5 is_stmt 0 view .LVU8
  61 0014 FFF7FEFF 		bl	crm_periph_reset
  62              	.LVL4:
  55:libraries/drivers/src/at32f403a_407_can.c ****   }
  63              		.loc 1 55 5 is_stmt 1 view .LVU9
  64 0018 0021     		movs	r1, #0
  65 001a 0848     		ldr	r0, .L7+8
  66 001c FFF7FEFF 		bl	crm_periph_reset
  67              	.LVL5:
  68 0020 F5E7     		b	.L1
  69              	.LVL6:
  70              	.L6:
  59:libraries/drivers/src/at32f403a_407_can.c ****     crm_periph_reset(CRM_CAN2_PERIPH_RESET, FALSE);
  71              		.loc 1 59 5 view .LVU10
  72 0022 0121     		movs	r1, #1
  73 0024 0648     		ldr	r0, .L7+12
  74              	.LVL7:
  59:libraries/drivers/src/at32f403a_407_can.c ****     crm_periph_reset(CRM_CAN2_PERIPH_RESET, FALSE);
  75              		.loc 1 59 5 is_stmt 0 view .LVU11
  76 0026 FFF7FEFF 		bl	crm_periph_reset
  77              	.LVL8:
  60:libraries/drivers/src/at32f403a_407_can.c ****   }
  78              		.loc 1 60 5 is_stmt 1 view .LVU12
  79 002a 0021     		movs	r1, #0
  80 002c 0448     		ldr	r0, .L7+12
  81 002e FFF7FEFF 		bl	crm_periph_reset
  82              	.LVL9:
  83              		.loc 1 62 1 is_stmt 0 view .LVU13
  84 0032 ECE7     		b	.L1
  85              	.L8:
  86              		.align	2
  87              	.L7:
  88 0034 00640040 		.word	1073767424
  89 0038 00680040 		.word	1073768448
  90 003c 19001000 		.word	1048601
  91 0040 1A001000 		.word	1048602
  92              		.cfi_endproc
  93              	.LFE134:
  95              		.section	.text.can_baudrate_default_para_init,"ax",%progbits
  96              		.align	1
  97              		.global	can_baudrate_default_para_init
  98              		.syntax unified
  99              		.thumb
 100              		.thumb_func
 102              	can_baudrate_default_para_init:
 103              	.LVL10:
 104              	.LFB135:
  63:libraries/drivers/src/at32f403a_407_can.c **** 
  64:libraries/drivers/src/at32f403a_407_can.c **** /**
ARM GAS  C:\Users\10963\AppData\Local\Temp\ccZn7T5h.s 			page 4


  65:libraries/drivers/src/at32f403a_407_can.c ****   * @brief  fill each can_baudrate_struct member with its default value.
  66:libraries/drivers/src/at32f403a_407_can.c ****   * @param  can_baudrate_struct: pointer to a can_baudrate_type structure which will be initialized
  67:libraries/drivers/src/at32f403a_407_can.c ****   * @retval none.
  68:libraries/drivers/src/at32f403a_407_can.c ****   */
  69:libraries/drivers/src/at32f403a_407_can.c **** void can_baudrate_default_para_init(can_baudrate_type* can_baudrate_struct)
  70:libraries/drivers/src/at32f403a_407_can.c **** {
 105              		.loc 1 70 1 is_stmt 1 view -0
 106              		.cfi_startproc
 107              		@ args = 0, pretend = 0, frame = 0
 108              		@ frame_needed = 0, uses_anonymous_args = 0
 109              		@ link register save eliminated.
  71:libraries/drivers/src/at32f403a_407_can.c ****   /* reset can baudrate structure parameters values */
  72:libraries/drivers/src/at32f403a_407_can.c **** 
  73:libraries/drivers/src/at32f403a_407_can.c ****   /* baud rate division */
  74:libraries/drivers/src/at32f403a_407_can.c ****   can_baudrate_struct->baudrate_div = 1;
 110              		.loc 1 74 3 view .LVU15
 111              		.loc 1 74 37 is_stmt 0 view .LVU16
 112 0000 0123     		movs	r3, #1
 113 0002 0380     		strh	r3, [r0]	@ movhi
  75:libraries/drivers/src/at32f403a_407_can.c **** 
  76:libraries/drivers/src/at32f403a_407_can.c ****   /* resynchronization adjust width */
  77:libraries/drivers/src/at32f403a_407_can.c ****   can_baudrate_struct->rsaw_size = CAN_RSAW_2TQ;
 114              		.loc 1 77 3 is_stmt 1 view .LVU17
 115              		.loc 1 77 34 is_stmt 0 view .LVU18
 116 0004 8370     		strb	r3, [r0, #2]
  78:libraries/drivers/src/at32f403a_407_can.c **** 
  79:libraries/drivers/src/at32f403a_407_can.c ****   /* bit time segment 1 */
  80:libraries/drivers/src/at32f403a_407_can.c ****   can_baudrate_struct->bts1_size = CAN_BTS1_4TQ;
 117              		.loc 1 80 3 is_stmt 1 view .LVU19
 118              		.loc 1 80 34 is_stmt 0 view .LVU20
 119 0006 0323     		movs	r3, #3
 120 0008 C370     		strb	r3, [r0, #3]
  81:libraries/drivers/src/at32f403a_407_can.c **** 
  82:libraries/drivers/src/at32f403a_407_can.c ****   /* bit time segment 2 */
  83:libraries/drivers/src/at32f403a_407_can.c ****   can_baudrate_struct->bts2_size = CAN_BTS2_3TQ;
 121              		.loc 1 83 3 is_stmt 1 view .LVU21
 122              		.loc 1 83 34 is_stmt 0 view .LVU22
 123 000a 0223     		movs	r3, #2
 124 000c 0371     		strb	r3, [r0, #4]
  84:libraries/drivers/src/at32f403a_407_can.c **** }
 125              		.loc 1 84 1 view .LVU23
 126 000e 7047     		bx	lr
 127              		.cfi_endproc
 128              	.LFE135:
 130              		.section	.text.can_baudrate_set,"ax",%progbits
 131              		.align	1
 132              		.global	can_baudrate_set
 133              		.syntax unified
 134              		.thumb
 135              		.thumb_func
 137              	can_baudrate_set:
 138              	.LVL11:
 139              	.LFB136:
  85:libraries/drivers/src/at32f403a_407_can.c **** 
  86:libraries/drivers/src/at32f403a_407_can.c **** /**
  87:libraries/drivers/src/at32f403a_407_can.c ****   * @brief  set the baudrate of the can peripheral
  88:libraries/drivers/src/at32f403a_407_can.c ****   * @param  can_x: select the can peripheral.
ARM GAS  C:\Users\10963\AppData\Local\Temp\ccZn7T5h.s 			page 5


  89:libraries/drivers/src/at32f403a_407_can.c ****   *         this parameter can be one of the following values:
  90:libraries/drivers/src/at32f403a_407_can.c ****   *         CAN1,CAN2.
  91:libraries/drivers/src/at32f403a_407_can.c ****   * @param  can_baudrate_struct: pointer to a can_baudrate_type structure which will be set.
  92:libraries/drivers/src/at32f403a_407_can.c ****   * @note   baudrate calculate method is:
  93:libraries/drivers/src/at32f403a_407_can.c ****   *         baudrate = fpclk/(baudrate_div *(3 + bts1_size + bts2_size))
  94:libraries/drivers/src/at32f403a_407_can.c ****   * @retval the result of baudrate set
  95:libraries/drivers/src/at32f403a_407_can.c ****   *         this parameter can be one of the following values:
  96:libraries/drivers/src/at32f403a_407_can.c ****   *         SUCCESS or ERROR
  97:libraries/drivers/src/at32f403a_407_can.c ****   */
  98:libraries/drivers/src/at32f403a_407_can.c **** error_status can_baudrate_set(can_type* can_x, can_baudrate_type* can_baudrate_struct)
  99:libraries/drivers/src/at32f403a_407_can.c **** {
 140              		.loc 1 99 1 is_stmt 1 view -0
 141              		.cfi_startproc
 142              		@ args = 0, pretend = 0, frame = 0
 143              		@ frame_needed = 0, uses_anonymous_args = 0
 144              		@ link register save eliminated.
 100:libraries/drivers/src/at32f403a_407_can.c ****   error_status status_index = ERROR;
 145              		.loc 1 100 3 view .LVU25
 101:libraries/drivers/src/at32f403a_407_can.c ****   uint32_t wait_ack_index = 0x00000000;
 146              		.loc 1 101 3 view .LVU26
 102:libraries/drivers/src/at32f403a_407_can.c ****   /* exit from doze mode */
 103:libraries/drivers/src/at32f403a_407_can.c ****   can_x->mctrl_bit.dzen = FALSE;
 147              		.loc 1 103 3 view .LVU27
 148              		.loc 1 103 25 is_stmt 0 view .LVU28
 149 0000 0368     		ldr	r3, [r0]
 150 0002 23F00203 		bic	r3, r3, #2
 151 0006 0360     		str	r3, [r0]
 104:libraries/drivers/src/at32f403a_407_can.c **** 
 105:libraries/drivers/src/at32f403a_407_can.c ****   /* request freeze mode */
 106:libraries/drivers/src/at32f403a_407_can.c ****   can_x->mctrl_bit.fzen = TRUE;
 152              		.loc 1 106 3 is_stmt 1 view .LVU29
 153              		.loc 1 106 25 is_stmt 0 view .LVU30
 154 0008 0368     		ldr	r3, [r0]
 155 000a 43F00103 		orr	r3, r3, #1
 156 000e 0360     		str	r3, [r0]
 107:libraries/drivers/src/at32f403a_407_can.c **** 
 108:libraries/drivers/src/at32f403a_407_can.c ****   /* wait the acknowledge */
 109:libraries/drivers/src/at32f403a_407_can.c ****   while((!can_x->msts_bit.fzc) && (wait_ack_index != FZC_TIMEOUT))
 157              		.loc 1 109 3 is_stmt 1 view .LVU31
 101:libraries/drivers/src/at32f403a_407_can.c ****   /* exit from doze mode */
 158              		.loc 1 101 12 is_stmt 0 view .LVU32
 159 0010 0023     		movs	r3, #0
 160              	.LVL12:
 161              	.L11:
 162              		.loc 1 109 32 is_stmt 1 view .LVU33
 163              		.loc 1 109 26 is_stmt 0 view .LVU34
 164 0012 4268     		ldr	r2, [r0, #4]
 165              		.loc 1 109 32 view .LVU35
 166 0014 12F0010F 		tst	r2, #1
 167 0018 05D1     		bne	.L12
 168              		.loc 1 109 32 discriminator 1 view .LVU36
 169 001a 4FF6FF72 		movw	r2, #65535
 170 001e 9342     		cmp	r3, r2
 171 0020 01D0     		beq	.L12
 110:libraries/drivers/src/at32f403a_407_can.c ****   {
 111:libraries/drivers/src/at32f403a_407_can.c ****     wait_ack_index++;
 172              		.loc 1 111 5 is_stmt 1 view .LVU37
ARM GAS  C:\Users\10963\AppData\Local\Temp\ccZn7T5h.s 			page 6


 173              		.loc 1 111 19 is_stmt 0 view .LVU38
 174 0022 0133     		adds	r3, r3, #1
 175              	.LVL13:
 176              		.loc 1 111 19 view .LVU39
 177 0024 F5E7     		b	.L11
 178              	.LVL14:
 179              	.L12:
 112:libraries/drivers/src/at32f403a_407_can.c ****   }
 113:libraries/drivers/src/at32f403a_407_can.c **** 
 114:libraries/drivers/src/at32f403a_407_can.c ****   /* check acknowledge */
 115:libraries/drivers/src/at32f403a_407_can.c ****   if(can_x->msts_bit.fzc)
 180              		.loc 1 115 3 is_stmt 1 view .LVU40
 181              		.loc 1 115 21 is_stmt 0 view .LVU41
 182 0026 4368     		ldr	r3, [r0, #4]
 183              	.LVL15:
 184              		.loc 1 115 5 view .LVU42
 185 0028 13F0010F 		tst	r3, #1
 186 002c 29D0     		beq	.L18
 116:libraries/drivers/src/at32f403a_407_can.c ****   {
 117:libraries/drivers/src/at32f403a_407_can.c ****     can_x->btmg_bit.brdiv = can_baudrate_struct->baudrate_div - 1;
 187              		.loc 1 117 5 is_stmt 1 view .LVU43
 188              		.loc 1 117 48 is_stmt 0 view .LVU44
 189 002e 0B88     		ldrh	r3, [r1]
 190              		.loc 1 117 63 view .LVU45
 191 0030 013B     		subs	r3, r3, #1
 192              		.loc 1 117 27 view .LVU46
 193 0032 C269     		ldr	r2, [r0, #28]
 194 0034 63F30B02 		bfi	r2, r3, #0, #12
 195 0038 C261     		str	r2, [r0, #28]
 118:libraries/drivers/src/at32f403a_407_can.c ****     can_x->btmg_bit.rsaw = can_baudrate_struct->rsaw_size;
 196              		.loc 1 118 5 is_stmt 1 view .LVU47
 197              		.loc 1 118 47 is_stmt 0 view .LVU48
 198 003a 8A78     		ldrb	r2, [r1, #2]	@ zero_extendqisi2
 199              		.loc 1 118 26 view .LVU49
 200 003c C369     		ldr	r3, [r0, #28]
 201 003e 62F31963 		bfi	r3, r2, #24, #2
 202 0042 C361     		str	r3, [r0, #28]
 119:libraries/drivers/src/at32f403a_407_can.c ****     can_x->btmg_bit.bts1 = can_baudrate_struct->bts1_size;
 203              		.loc 1 119 5 is_stmt 1 view .LVU50
 204              		.loc 1 119 47 is_stmt 0 view .LVU51
 205 0044 CA78     		ldrb	r2, [r1, #3]	@ zero_extendqisi2
 206              		.loc 1 119 26 view .LVU52
 207 0046 C369     		ldr	r3, [r0, #28]
 208 0048 62F31343 		bfi	r3, r2, #16, #4
 209 004c C361     		str	r3, [r0, #28]
 120:libraries/drivers/src/at32f403a_407_can.c ****     can_x->btmg_bit.bts2 = can_baudrate_struct->bts2_size;
 210              		.loc 1 120 5 is_stmt 1 view .LVU53
 211              		.loc 1 120 47 is_stmt 0 view .LVU54
 212 004e 0A79     		ldrb	r2, [r1, #4]	@ zero_extendqisi2
 213              		.loc 1 120 26 view .LVU55
 214 0050 C369     		ldr	r3, [r0, #28]
 215 0052 62F31653 		bfi	r3, r2, #20, #3
 216 0056 C361     		str	r3, [r0, #28]
 121:libraries/drivers/src/at32f403a_407_can.c **** 
 122:libraries/drivers/src/at32f403a_407_can.c ****     /* request leave freeze mode */
 123:libraries/drivers/src/at32f403a_407_can.c ****     can_x->mctrl_bit.fzen = FALSE;
 217              		.loc 1 123 5 is_stmt 1 view .LVU56
ARM GAS  C:\Users\10963\AppData\Local\Temp\ccZn7T5h.s 			page 7


 218              		.loc 1 123 27 is_stmt 0 view .LVU57
 219 0058 0368     		ldr	r3, [r0]
 220 005a 23F00103 		bic	r3, r3, #1
 221 005e 0360     		str	r3, [r0]
 124:libraries/drivers/src/at32f403a_407_can.c **** 
 125:libraries/drivers/src/at32f403a_407_can.c ****     /* wait the acknowledge */
 126:libraries/drivers/src/at32f403a_407_can.c ****     wait_ack_index = 0;
 222              		.loc 1 126 5 is_stmt 1 view .LVU58
 223              	.LVL16:
 127:libraries/drivers/src/at32f403a_407_can.c ****     while((can_x->msts_bit.fzc) && (wait_ack_index != FZC_TIMEOUT))
 224              		.loc 1 127 5 view .LVU59
 126:libraries/drivers/src/at32f403a_407_can.c ****     while((can_x->msts_bit.fzc) && (wait_ack_index != FZC_TIMEOUT))
 225              		.loc 1 126 20 is_stmt 0 view .LVU60
 226 0060 0023     		movs	r3, #0
 227              		.loc 1 127 10 view .LVU61
 228 0062 00E0     		b	.L15
 229              	.LVL17:
 230              	.L17:
 128:libraries/drivers/src/at32f403a_407_can.c ****     {
 129:libraries/drivers/src/at32f403a_407_can.c ****       wait_ack_index++;
 231              		.loc 1 129 7 is_stmt 1 view .LVU62
 232              		.loc 1 129 21 is_stmt 0 view .LVU63
 233 0064 0133     		adds	r3, r3, #1
 234              	.LVL18:
 235              	.L15:
 127:libraries/drivers/src/at32f403a_407_can.c ****     {
 236              		.loc 1 127 33 is_stmt 1 view .LVU64
 127:libraries/drivers/src/at32f403a_407_can.c ****     {
 237              		.loc 1 127 27 is_stmt 0 view .LVU65
 238 0066 4268     		ldr	r2, [r0, #4]
 127:libraries/drivers/src/at32f403a_407_can.c ****     {
 239              		.loc 1 127 33 view .LVU66
 240 0068 12F0010F 		tst	r2, #1
 241 006c 03D0     		beq	.L16
 127:libraries/drivers/src/at32f403a_407_can.c ****     {
 242              		.loc 1 127 33 discriminator 1 view .LVU67
 243 006e 4FF6FF72 		movw	r2, #65535
 244 0072 9342     		cmp	r3, r2
 245 0074 F6D1     		bne	.L17
 246              	.L16:
 130:libraries/drivers/src/at32f403a_407_can.c ****     }
 131:libraries/drivers/src/at32f403a_407_can.c **** 
 132:libraries/drivers/src/at32f403a_407_can.c ****     /* check acknowledged */
 133:libraries/drivers/src/at32f403a_407_can.c ****     if(can_x->msts_bit.fzc)
 247              		.loc 1 133 5 is_stmt 1 view .LVU68
 248              		.loc 1 133 23 is_stmt 0 view .LVU69
 249 0076 4368     		ldr	r3, [r0, #4]
 250              	.LVL19:
 251              		.loc 1 133 7 view .LVU70
 252 0078 13F0010F 		tst	r3, #1
 253 007c 03D0     		beq	.L19
 134:libraries/drivers/src/at32f403a_407_can.c ****     {
 135:libraries/drivers/src/at32f403a_407_can.c ****       status_index = ERROR;
 254              		.loc 1 135 20 view .LVU71
 255 007e 0020     		movs	r0, #0
 256              	.LVL20:
 257              		.loc 1 135 20 view .LVU72
ARM GAS  C:\Users\10963\AppData\Local\Temp\ccZn7T5h.s 			page 8


 258 0080 7047     		bx	lr
 259              	.LVL21:
 260              	.L18:
 136:libraries/drivers/src/at32f403a_407_can.c ****     }
 137:libraries/drivers/src/at32f403a_407_can.c ****     else
 138:libraries/drivers/src/at32f403a_407_can.c ****     {
 139:libraries/drivers/src/at32f403a_407_can.c ****       status_index = SUCCESS ;
 140:libraries/drivers/src/at32f403a_407_can.c ****     }
 141:libraries/drivers/src/at32f403a_407_can.c ****   }
 142:libraries/drivers/src/at32f403a_407_can.c ****   else
 143:libraries/drivers/src/at32f403a_407_can.c ****   {
 144:libraries/drivers/src/at32f403a_407_can.c ****     status_index = ERROR;
 261              		.loc 1 144 18 view .LVU73
 262 0082 0020     		movs	r0, #0
 263              	.LVL22:
 264              		.loc 1 144 18 view .LVU74
 265 0084 7047     		bx	lr
 266              	.LVL23:
 267              	.L19:
 139:libraries/drivers/src/at32f403a_407_can.c ****     }
 268              		.loc 1 139 20 view .LVU75
 269 0086 0120     		movs	r0, #1
 270              	.LVL24:
 145:libraries/drivers/src/at32f403a_407_can.c ****   }
 146:libraries/drivers/src/at32f403a_407_can.c **** 
 147:libraries/drivers/src/at32f403a_407_can.c ****   /* return the status of baudrate set */
 148:libraries/drivers/src/at32f403a_407_can.c ****   return status_index;
 271              		.loc 1 148 3 is_stmt 1 view .LVU76
 149:libraries/drivers/src/at32f403a_407_can.c **** }
 272              		.loc 1 149 1 is_stmt 0 view .LVU77
 273 0088 7047     		bx	lr
 274              		.cfi_endproc
 275              	.LFE136:
 277              		.section	.text.can_default_para_init,"ax",%progbits
 278              		.align	1
 279              		.global	can_default_para_init
 280              		.syntax unified
 281              		.thumb
 282              		.thumb_func
 284              	can_default_para_init:
 285              	.LVL25:
 286              	.LFB137:
 150:libraries/drivers/src/at32f403a_407_can.c **** 
 151:libraries/drivers/src/at32f403a_407_can.c **** /**
 152:libraries/drivers/src/at32f403a_407_can.c ****   * @brief  fill each can_init_struct member with its default value.
 153:libraries/drivers/src/at32f403a_407_can.c ****   * @param  can_base_struct: pointer to a can_base_type structure which will be initialized.
 154:libraries/drivers/src/at32f403a_407_can.c ****   * @retval none.
 155:libraries/drivers/src/at32f403a_407_can.c ****   */
 156:libraries/drivers/src/at32f403a_407_can.c **** void can_default_para_init(can_base_type* can_base_struct)
 157:libraries/drivers/src/at32f403a_407_can.c **** {
 287              		.loc 1 157 1 is_stmt 1 view -0
 288              		.cfi_startproc
 289              		@ args = 0, pretend = 0, frame = 0
 290              		@ frame_needed = 0, uses_anonymous_args = 0
 291              		@ link register save eliminated.
 158:libraries/drivers/src/at32f403a_407_can.c ****   /* reset can init structure parameters values */
 159:libraries/drivers/src/at32f403a_407_can.c **** 
ARM GAS  C:\Users\10963\AppData\Local\Temp\ccZn7T5h.s 			page 9


 160:libraries/drivers/src/at32f403a_407_can.c ****   /* initialize the time triggered communication mode */
 161:libraries/drivers/src/at32f403a_407_can.c ****   can_base_struct->ttc_enable = FALSE;
 292              		.loc 1 161 3 view .LVU79
 293              		.loc 1 161 31 is_stmt 0 view .LVU80
 294 0000 0023     		movs	r3, #0
 295 0002 4370     		strb	r3, [r0, #1]
 162:libraries/drivers/src/at32f403a_407_can.c **** 
 163:libraries/drivers/src/at32f403a_407_can.c ****   /* initialize the automatic exit bus-off management */
 164:libraries/drivers/src/at32f403a_407_can.c ****   can_base_struct->aebo_enable = FALSE;
 296              		.loc 1 164 3 is_stmt 1 view .LVU81
 297              		.loc 1 164 32 is_stmt 0 view .LVU82
 298 0004 8370     		strb	r3, [r0, #2]
 165:libraries/drivers/src/at32f403a_407_can.c **** 
 166:libraries/drivers/src/at32f403a_407_can.c ****   /* initialize the automatic exit doze mode */
 167:libraries/drivers/src/at32f403a_407_can.c ****   can_base_struct->aed_enable = FALSE;
 299              		.loc 1 167 3 is_stmt 1 view .LVU83
 300              		.loc 1 167 31 is_stmt 0 view .LVU84
 301 0006 C370     		strb	r3, [r0, #3]
 168:libraries/drivers/src/at32f403a_407_can.c **** 
 169:libraries/drivers/src/at32f403a_407_can.c ****   /* initialize the prohibit retransmission when sending fails */
 170:libraries/drivers/src/at32f403a_407_can.c ****   can_base_struct->prsf_enable = FALSE;
 302              		.loc 1 170 3 is_stmt 1 view .LVU85
 303              		.loc 1 170 32 is_stmt 0 view .LVU86
 304 0008 0371     		strb	r3, [r0, #4]
 171:libraries/drivers/src/at32f403a_407_can.c **** 
 172:libraries/drivers/src/at32f403a_407_can.c ****   /* initialize the message discarding rule select when overflow */
 173:libraries/drivers/src/at32f403a_407_can.c ****   can_base_struct->mdrsel_selection = CAN_DISCARDING_FIRST_RECEIVED;
 305              		.loc 1 173 3 is_stmt 1 view .LVU87
 306              		.loc 1 173 37 is_stmt 0 view .LVU88
 307 000a 4371     		strb	r3, [r0, #5]
 174:libraries/drivers/src/at32f403a_407_can.c **** 
 175:libraries/drivers/src/at32f403a_407_can.c ****   /* initialize the multiple message sending sequence rule */
 176:libraries/drivers/src/at32f403a_407_can.c ****   can_base_struct->mmssr_selection = CAN_SENDING_BY_ID;
 308              		.loc 1 176 3 is_stmt 1 view .LVU89
 309              		.loc 1 176 36 is_stmt 0 view .LVU90
 310 000c 8371     		strb	r3, [r0, #6]
 177:libraries/drivers/src/at32f403a_407_can.c **** 
 178:libraries/drivers/src/at32f403a_407_can.c ****   /* initialize the can_mode */
 179:libraries/drivers/src/at32f403a_407_can.c ****   can_base_struct->mode_selection = CAN_MODE_COMMUNICATE;
 311              		.loc 1 179 3 is_stmt 1 view .LVU91
 312              		.loc 1 179 35 is_stmt 0 view .LVU92
 313 000e 0370     		strb	r3, [r0]
 180:libraries/drivers/src/at32f403a_407_can.c **** }
 314              		.loc 1 180 1 view .LVU93
 315 0010 7047     		bx	lr
 316              		.cfi_endproc
 317              	.LFE137:
 319              		.section	.text.can_base_init,"ax",%progbits
 320              		.align	1
 321              		.global	can_base_init
 322              		.syntax unified
 323              		.thumb
 324              		.thumb_func
 326              	can_base_init:
 327              	.LVL26:
 328              	.LFB138:
 181:libraries/drivers/src/at32f403a_407_can.c **** 
ARM GAS  C:\Users\10963\AppData\Local\Temp\ccZn7T5h.s 			page 10


 182:libraries/drivers/src/at32f403a_407_can.c **** /**
 183:libraries/drivers/src/at32f403a_407_can.c ****   * @brief  initialize the can peripheral according to the specified
 184:libraries/drivers/src/at32f403a_407_can.c ****   *         parameters in the can_init_struct.
 185:libraries/drivers/src/at32f403a_407_can.c ****   * @param  can_x: select the can peripheral.
 186:libraries/drivers/src/at32f403a_407_can.c ****   *         this parameter can be one of the following values:
 187:libraries/drivers/src/at32f403a_407_can.c ****   *         CAN1,CAN2.
 188:libraries/drivers/src/at32f403a_407_can.c ****   * @param  can_base_struct: pointer to a can_base_struct structure that contains the configuration
 189:libraries/drivers/src/at32f403a_407_can.c ****   * @retval the status of initialization
 190:libraries/drivers/src/at32f403a_407_can.c ****   *         this parameter can be one of the following values:
 191:libraries/drivers/src/at32f403a_407_can.c ****   *         SUCCESS or ERROR
 192:libraries/drivers/src/at32f403a_407_can.c ****   */
 193:libraries/drivers/src/at32f403a_407_can.c **** error_status can_base_init(can_type* can_x, can_base_type* can_base_struct)
 194:libraries/drivers/src/at32f403a_407_can.c **** {
 329              		.loc 1 194 1 is_stmt 1 view -0
 330              		.cfi_startproc
 331              		@ args = 0, pretend = 0, frame = 0
 332              		@ frame_needed = 0, uses_anonymous_args = 0
 333              		@ link register save eliminated.
 195:libraries/drivers/src/at32f403a_407_can.c ****   error_status init_status_index = ERROR;
 334              		.loc 1 195 3 view .LVU95
 196:libraries/drivers/src/at32f403a_407_can.c ****   uint32_t wait_ack_index = 0x00000000;
 335              		.loc 1 196 3 view .LVU96
 197:libraries/drivers/src/at32f403a_407_can.c ****   /* exit from doze mode */
 198:libraries/drivers/src/at32f403a_407_can.c ****   can_x->mctrl_bit.dzen = FALSE;
 336              		.loc 1 198 3 view .LVU97
 337              		.loc 1 198 25 is_stmt 0 view .LVU98
 338 0000 0368     		ldr	r3, [r0]
 339 0002 23F00203 		bic	r3, r3, #2
 340 0006 0360     		str	r3, [r0]
 199:libraries/drivers/src/at32f403a_407_can.c **** 
 200:libraries/drivers/src/at32f403a_407_can.c ****   /* request freeze mode */
 201:libraries/drivers/src/at32f403a_407_can.c ****   can_x->mctrl_bit.fzen = TRUE;
 341              		.loc 1 201 3 is_stmt 1 view .LVU99
 342              		.loc 1 201 25 is_stmt 0 view .LVU100
 343 0008 0368     		ldr	r3, [r0]
 344 000a 43F00103 		orr	r3, r3, #1
 345 000e 0360     		str	r3, [r0]
 202:libraries/drivers/src/at32f403a_407_can.c **** 
 203:libraries/drivers/src/at32f403a_407_can.c ****   /* wait the acknowledge */
 204:libraries/drivers/src/at32f403a_407_can.c ****   while((!can_x->msts_bit.fzc) && (wait_ack_index != FZC_TIMEOUT))
 346              		.loc 1 204 3 is_stmt 1 view .LVU101
 196:libraries/drivers/src/at32f403a_407_can.c ****   /* exit from doze mode */
 347              		.loc 1 196 12 is_stmt 0 view .LVU102
 348 0010 0023     		movs	r3, #0
 349              	.LVL27:
 350              	.L22:
 351              		.loc 1 204 32 is_stmt 1 view .LVU103
 352              		.loc 1 204 26 is_stmt 0 view .LVU104
 353 0012 4268     		ldr	r2, [r0, #4]
 354              		.loc 1 204 32 view .LVU105
 355 0014 12F0010F 		tst	r2, #1
 356 0018 05D1     		bne	.L23
 357              		.loc 1 204 32 discriminator 1 view .LVU106
 358 001a 4FF6FF72 		movw	r2, #65535
 359 001e 9342     		cmp	r3, r2
 360 0020 01D0     		beq	.L23
 205:libraries/drivers/src/at32f403a_407_can.c ****   {
ARM GAS  C:\Users\10963\AppData\Local\Temp\ccZn7T5h.s 			page 11


 206:libraries/drivers/src/at32f403a_407_can.c ****     wait_ack_index++;
 361              		.loc 1 206 5 is_stmt 1 view .LVU107
 362              		.loc 1 206 19 is_stmt 0 view .LVU108
 363 0022 0133     		adds	r3, r3, #1
 364              	.LVL28:
 365              		.loc 1 206 19 view .LVU109
 366 0024 F5E7     		b	.L22
 367              	.LVL29:
 368              	.L23:
 207:libraries/drivers/src/at32f403a_407_can.c ****   }
 208:libraries/drivers/src/at32f403a_407_can.c **** 
 209:libraries/drivers/src/at32f403a_407_can.c ****   /* check acknowledge */
 210:libraries/drivers/src/at32f403a_407_can.c ****   if(can_x->msts_bit.fzc)
 369              		.loc 1 210 3 is_stmt 1 view .LVU110
 370              		.loc 1 210 21 is_stmt 0 view .LVU111
 371 0026 4368     		ldr	r3, [r0, #4]
 372              	.LVL30:
 373              		.loc 1 210 5 view .LVU112
 374 0028 13F0010F 		tst	r3, #1
 375 002c 3ED0     		beq	.L29
 211:libraries/drivers/src/at32f403a_407_can.c ****   {
 212:libraries/drivers/src/at32f403a_407_can.c ****     /* set the time triggered communication mode */
 213:libraries/drivers/src/at32f403a_407_can.c ****     can_x->mctrl_bit.ttcen = can_base_struct->ttc_enable;
 376              		.loc 1 213 5 is_stmt 1 view .LVU113
 377              		.loc 1 213 45 is_stmt 0 view .LVU114
 378 002e 4A78     		ldrb	r2, [r1, #1]	@ zero_extendqisi2
 379              		.loc 1 213 28 view .LVU115
 380 0030 0368     		ldr	r3, [r0]
 381 0032 62F3C713 		bfi	r3, r2, #7, #1
 382 0036 0360     		str	r3, [r0]
 214:libraries/drivers/src/at32f403a_407_can.c **** 
 215:libraries/drivers/src/at32f403a_407_can.c ****     /* set the automatic exit bus-off management */
 216:libraries/drivers/src/at32f403a_407_can.c ****     can_x->mctrl_bit.aeboen = can_base_struct->aebo_enable;
 383              		.loc 1 216 5 is_stmt 1 view .LVU116
 384              		.loc 1 216 46 is_stmt 0 view .LVU117
 385 0038 8A78     		ldrb	r2, [r1, #2]	@ zero_extendqisi2
 386              		.loc 1 216 29 view .LVU118
 387 003a 0368     		ldr	r3, [r0]
 388 003c 62F38613 		bfi	r3, r2, #6, #1
 389 0040 0360     		str	r3, [r0]
 217:libraries/drivers/src/at32f403a_407_can.c **** 
 218:libraries/drivers/src/at32f403a_407_can.c ****     /* set the automatic automatic exit doze mode */
 219:libraries/drivers/src/at32f403a_407_can.c ****     can_x->mctrl_bit.aeden = can_base_struct->aed_enable;
 390              		.loc 1 219 5 is_stmt 1 view .LVU119
 391              		.loc 1 219 45 is_stmt 0 view .LVU120
 392 0042 CA78     		ldrb	r2, [r1, #3]	@ zero_extendqisi2
 393              		.loc 1 219 28 view .LVU121
 394 0044 0368     		ldr	r3, [r0]
 395 0046 62F34513 		bfi	r3, r2, #5, #1
 396 004a 0360     		str	r3, [r0]
 220:libraries/drivers/src/at32f403a_407_can.c **** 
 221:libraries/drivers/src/at32f403a_407_can.c ****     /* set the prohibit retransmission when sending fails */
 222:libraries/drivers/src/at32f403a_407_can.c ****     can_x->mctrl_bit.prsfen = can_base_struct->prsf_enable;
 397              		.loc 1 222 5 is_stmt 1 view .LVU122
 398              		.loc 1 222 46 is_stmt 0 view .LVU123
 399 004c 0A79     		ldrb	r2, [r1, #4]	@ zero_extendqisi2
 400              		.loc 1 222 29 view .LVU124
ARM GAS  C:\Users\10963\AppData\Local\Temp\ccZn7T5h.s 			page 12


 401 004e 0368     		ldr	r3, [r0]
 402 0050 62F30413 		bfi	r3, r2, #4, #1
 403 0054 0360     		str	r3, [r0]
 223:libraries/drivers/src/at32f403a_407_can.c **** 
 224:libraries/drivers/src/at32f403a_407_can.c ****     /* set the message discarding rule select when overflow */
 225:libraries/drivers/src/at32f403a_407_can.c ****     can_x->mctrl_bit.mdrsel = can_base_struct->mdrsel_selection;
 404              		.loc 1 225 5 is_stmt 1 view .LVU125
 405              		.loc 1 225 46 is_stmt 0 view .LVU126
 406 0056 4A79     		ldrb	r2, [r1, #5]	@ zero_extendqisi2
 407              		.loc 1 225 29 view .LVU127
 408 0058 0368     		ldr	r3, [r0]
 409 005a 62F3C303 		bfi	r3, r2, #3, #1
 410 005e 0360     		str	r3, [r0]
 226:libraries/drivers/src/at32f403a_407_can.c **** 
 227:libraries/drivers/src/at32f403a_407_can.c ****     /* set the multiple message sending sequence rule */
 228:libraries/drivers/src/at32f403a_407_can.c ****     can_x->mctrl_bit.mmssr = can_base_struct->mmssr_selection;
 411              		.loc 1 228 5 is_stmt 1 view .LVU128
 412              		.loc 1 228 45 is_stmt 0 view .LVU129
 413 0060 8A79     		ldrb	r2, [r1, #6]	@ zero_extendqisi2
 414              		.loc 1 228 28 view .LVU130
 415 0062 0368     		ldr	r3, [r0]
 416 0064 62F38203 		bfi	r3, r2, #2, #1
 417 0068 0360     		str	r3, [r0]
 229:libraries/drivers/src/at32f403a_407_can.c **** 
 230:libraries/drivers/src/at32f403a_407_can.c ****     /* set the test mode */
 231:libraries/drivers/src/at32f403a_407_can.c ****     can_x->btmg_bit.lben = can_base_struct->mode_selection & 0x01;
 418              		.loc 1 231 5 is_stmt 1 view .LVU131
 419              		.loc 1 231 43 is_stmt 0 view .LVU132
 420 006a 0A78     		ldrb	r2, [r1]	@ zero_extendqisi2
 421              		.loc 1 231 26 view .LVU133
 422 006c C369     		ldr	r3, [r0, #28]
 423 006e 62F39E73 		bfi	r3, r2, #30, #1
 424 0072 C361     		str	r3, [r0, #28]
 232:libraries/drivers/src/at32f403a_407_can.c ****     can_x->btmg_bit.loen = (can_base_struct->mode_selection >> 1) & 0x01;
 425              		.loc 1 232 5 is_stmt 1 view .LVU134
 426              		.loc 1 232 44 is_stmt 0 view .LVU135
 427 0074 0B78     		ldrb	r3, [r1]	@ zero_extendqisi2
 428              		.loc 1 232 67 view .LVU136
 429 0076 C3F34003 		ubfx	r3, r3, #1, #1
 430              		.loc 1 232 26 view .LVU137
 431 007a C269     		ldr	r2, [r0, #28]
 432 007c 63F3DF72 		bfi	r2, r3, #31, #1
 433 0080 C261     		str	r2, [r0, #28]
 233:libraries/drivers/src/at32f403a_407_can.c **** 
 234:libraries/drivers/src/at32f403a_407_can.c ****     /* request leave freeze mode */
 235:libraries/drivers/src/at32f403a_407_can.c ****     can_x->mctrl_bit.fzen = FALSE;
 434              		.loc 1 235 5 is_stmt 1 view .LVU138
 435              		.loc 1 235 27 is_stmt 0 view .LVU139
 436 0082 0368     		ldr	r3, [r0]
 437 0084 23F00103 		bic	r3, r3, #1
 438 0088 0360     		str	r3, [r0]
 236:libraries/drivers/src/at32f403a_407_can.c **** 
 237:libraries/drivers/src/at32f403a_407_can.c ****     /* wait the acknowledge */
 238:libraries/drivers/src/at32f403a_407_can.c ****     wait_ack_index = 0;
 439              		.loc 1 238 5 is_stmt 1 view .LVU140
 440              	.LVL31:
 239:libraries/drivers/src/at32f403a_407_can.c ****     while((can_x->msts_bit.fzc) && (wait_ack_index != FZC_TIMEOUT))
ARM GAS  C:\Users\10963\AppData\Local\Temp\ccZn7T5h.s 			page 13


 441              		.loc 1 239 5 view .LVU141
 238:libraries/drivers/src/at32f403a_407_can.c ****     while((can_x->msts_bit.fzc) && (wait_ack_index != FZC_TIMEOUT))
 442              		.loc 1 238 20 is_stmt 0 view .LVU142
 443 008a 0023     		movs	r3, #0
 444              		.loc 1 239 10 view .LVU143
 445 008c 00E0     		b	.L26
 446              	.LVL32:
 447              	.L28:
 240:libraries/drivers/src/at32f403a_407_can.c ****     {
 241:libraries/drivers/src/at32f403a_407_can.c ****       wait_ack_index++;
 448              		.loc 1 241 7 is_stmt 1 view .LVU144
 449              		.loc 1 241 21 is_stmt 0 view .LVU145
 450 008e 0133     		adds	r3, r3, #1
 451              	.LVL33:
 452              	.L26:
 239:libraries/drivers/src/at32f403a_407_can.c ****     {
 453              		.loc 1 239 33 is_stmt 1 view .LVU146
 239:libraries/drivers/src/at32f403a_407_can.c ****     {
 454              		.loc 1 239 27 is_stmt 0 view .LVU147
 455 0090 4268     		ldr	r2, [r0, #4]
 239:libraries/drivers/src/at32f403a_407_can.c ****     {
 456              		.loc 1 239 33 view .LVU148
 457 0092 12F0010F 		tst	r2, #1
 458 0096 03D0     		beq	.L27
 239:libraries/drivers/src/at32f403a_407_can.c ****     {
 459              		.loc 1 239 33 discriminator 1 view .LVU149
 460 0098 4FF6FF72 		movw	r2, #65535
 461 009c 9342     		cmp	r3, r2
 462 009e F6D1     		bne	.L28
 463              	.L27:
 242:libraries/drivers/src/at32f403a_407_can.c ****     }
 243:libraries/drivers/src/at32f403a_407_can.c **** 
 244:libraries/drivers/src/at32f403a_407_can.c ****     /* check acknowledged */
 245:libraries/drivers/src/at32f403a_407_can.c ****     if(can_x->msts_bit.fzc)
 464              		.loc 1 245 5 is_stmt 1 view .LVU150
 465              		.loc 1 245 23 is_stmt 0 view .LVU151
 466 00a0 4368     		ldr	r3, [r0, #4]
 467              	.LVL34:
 468              		.loc 1 245 7 view .LVU152
 469 00a2 13F0010F 		tst	r3, #1
 470 00a6 03D0     		beq	.L30
 246:libraries/drivers/src/at32f403a_407_can.c ****     {
 247:libraries/drivers/src/at32f403a_407_can.c ****       init_status_index = ERROR;
 471              		.loc 1 247 25 view .LVU153
 472 00a8 0020     		movs	r0, #0
 473              	.LVL35:
 474              		.loc 1 247 25 view .LVU154
 475 00aa 7047     		bx	lr
 476              	.LVL36:
 477              	.L29:
 248:libraries/drivers/src/at32f403a_407_can.c ****     }
 249:libraries/drivers/src/at32f403a_407_can.c ****     else
 250:libraries/drivers/src/at32f403a_407_can.c ****     {
 251:libraries/drivers/src/at32f403a_407_can.c ****       init_status_index = SUCCESS ;
 252:libraries/drivers/src/at32f403a_407_can.c ****     }
 253:libraries/drivers/src/at32f403a_407_can.c ****   }
 254:libraries/drivers/src/at32f403a_407_can.c ****   else
ARM GAS  C:\Users\10963\AppData\Local\Temp\ccZn7T5h.s 			page 14


 255:libraries/drivers/src/at32f403a_407_can.c ****   {
 256:libraries/drivers/src/at32f403a_407_can.c ****     init_status_index = ERROR;
 478              		.loc 1 256 23 view .LVU155
 479 00ac 0020     		movs	r0, #0
 480              	.LVL37:
 481              		.loc 1 256 23 view .LVU156
 482 00ae 7047     		bx	lr
 483              	.LVL38:
 484              	.L30:
 251:libraries/drivers/src/at32f403a_407_can.c ****     }
 485              		.loc 1 251 25 view .LVU157
 486 00b0 0120     		movs	r0, #1
 487              	.LVL39:
 257:libraries/drivers/src/at32f403a_407_can.c ****   }
 258:libraries/drivers/src/at32f403a_407_can.c **** 
 259:libraries/drivers/src/at32f403a_407_can.c ****   /* return the status of initialization */
 260:libraries/drivers/src/at32f403a_407_can.c ****   return init_status_index;
 488              		.loc 1 260 3 is_stmt 1 view .LVU158
 261:libraries/drivers/src/at32f403a_407_can.c **** }
 489              		.loc 1 261 1 is_stmt 0 view .LVU159
 490 00b2 7047     		bx	lr
 491              		.cfi_endproc
 492              	.LFE138:
 494              		.section	.text.can_filter_default_para_init,"ax",%progbits
 495              		.align	1
 496              		.global	can_filter_default_para_init
 497              		.syntax unified
 498              		.thumb
 499              		.thumb_func
 501              	can_filter_default_para_init:
 502              	.LVL40:
 503              	.LFB139:
 262:libraries/drivers/src/at32f403a_407_can.c **** 
 263:libraries/drivers/src/at32f403a_407_can.c **** /**
 264:libraries/drivers/src/at32f403a_407_can.c ****   * @brief  fill each can_filter_init_struct member with its default value.
 265:libraries/drivers/src/at32f403a_407_can.c ****   * @param  can_filter_init_struct: pointer to a can_filter_init_type structure which will be initi
 266:libraries/drivers/src/at32f403a_407_can.c ****   * @retval none.
 267:libraries/drivers/src/at32f403a_407_can.c ****   */
 268:libraries/drivers/src/at32f403a_407_can.c **** void can_filter_default_para_init(can_filter_init_type* can_filter_init_struct)
 269:libraries/drivers/src/at32f403a_407_can.c **** {
 504              		.loc 1 269 1 is_stmt 1 view -0
 505              		.cfi_startproc
 506              		@ args = 0, pretend = 0, frame = 0
 507              		@ frame_needed = 0, uses_anonymous_args = 0
 508              		@ link register save eliminated.
 270:libraries/drivers/src/at32f403a_407_can.c ****   /* reset can filter init structure parameters values */
 271:libraries/drivers/src/at32f403a_407_can.c **** 
 272:libraries/drivers/src/at32f403a_407_can.c ****   /* initialize the filter activate state */
 273:libraries/drivers/src/at32f403a_407_can.c ****   can_filter_init_struct->filter_activate_enable = FALSE;
 509              		.loc 1 273 3 view .LVU161
 510              		.loc 1 273 50 is_stmt 0 view .LVU162
 511 0000 0023     		movs	r3, #0
 512 0002 0370     		strb	r3, [r0]
 274:libraries/drivers/src/at32f403a_407_can.c **** 
 275:libraries/drivers/src/at32f403a_407_can.c ****   /* filter mode */
 276:libraries/drivers/src/at32f403a_407_can.c ****   can_filter_init_struct->filter_mode = CAN_FILTER_MODE_ID_MASK;
 513              		.loc 1 276 3 is_stmt 1 view .LVU163
ARM GAS  C:\Users\10963\AppData\Local\Temp\ccZn7T5h.s 			page 15


 514              		.loc 1 276 39 is_stmt 0 view .LVU164
 515 0004 4370     		strb	r3, [r0, #1]
 277:libraries/drivers/src/at32f403a_407_can.c **** 
 278:libraries/drivers/src/at32f403a_407_can.c ****   /* filter relation fifo select */
 279:libraries/drivers/src/at32f403a_407_can.c ****   can_filter_init_struct->filter_fifo = CAN_FILTER_FIFO0;
 516              		.loc 1 279 3 is_stmt 1 view .LVU165
 517              		.loc 1 279 39 is_stmt 0 view .LVU166
 518 0006 8370     		strb	r3, [r0, #2]
 280:libraries/drivers/src/at32f403a_407_can.c **** 
 281:libraries/drivers/src/at32f403a_407_can.c ****   /* filter number select */
 282:libraries/drivers/src/at32f403a_407_can.c ****   can_filter_init_struct->filter_number = 0;
 519              		.loc 1 282 3 is_stmt 1 view .LVU167
 520              		.loc 1 282 41 is_stmt 0 view .LVU168
 521 0008 C370     		strb	r3, [r0, #3]
 283:libraries/drivers/src/at32f403a_407_can.c **** 
 284:libraries/drivers/src/at32f403a_407_can.c ****   /* initialize the filter bit width */
 285:libraries/drivers/src/at32f403a_407_can.c ****   can_filter_init_struct->filter_bit = CAN_FILTER_16BIT;
 522              		.loc 1 285 3 is_stmt 1 view .LVU169
 523              		.loc 1 285 38 is_stmt 0 view .LVU170
 524 000a 0371     		strb	r3, [r0, #4]
 286:libraries/drivers/src/at32f403a_407_can.c **** 
 287:libraries/drivers/src/at32f403a_407_can.c ****   /* initialize the filters filter data bit */
 288:libraries/drivers/src/at32f403a_407_can.c ****   can_filter_init_struct->filter_id_high = 0;
 525              		.loc 1 288 3 is_stmt 1 view .LVU171
 526              		.loc 1 288 42 is_stmt 0 view .LVU172
 527 000c C380     		strh	r3, [r0, #6]	@ movhi
 289:libraries/drivers/src/at32f403a_407_can.c ****   can_filter_init_struct->filter_id_low = 0;
 528              		.loc 1 289 3 is_stmt 1 view .LVU173
 529              		.loc 1 289 41 is_stmt 0 view .LVU174
 530 000e 0381     		strh	r3, [r0, #8]	@ movhi
 290:libraries/drivers/src/at32f403a_407_can.c ****   can_filter_init_struct->filter_mask_high = 0;
 531              		.loc 1 290 3 is_stmt 1 view .LVU175
 532              		.loc 1 290 44 is_stmt 0 view .LVU176
 533 0010 4381     		strh	r3, [r0, #10]	@ movhi
 291:libraries/drivers/src/at32f403a_407_can.c ****   can_filter_init_struct->filter_mask_low = 0;
 534              		.loc 1 291 3 is_stmt 1 view .LVU177
 535              		.loc 1 291 43 is_stmt 0 view .LVU178
 536 0012 8381     		strh	r3, [r0, #12]	@ movhi
 292:libraries/drivers/src/at32f403a_407_can.c **** }
 537              		.loc 1 292 1 view .LVU179
 538 0014 7047     		bx	lr
 539              		.cfi_endproc
 540              	.LFE139:
 542              		.section	.text.can_filter_init,"ax",%progbits
 543              		.align	1
 544              		.global	can_filter_init
 545              		.syntax unified
 546              		.thumb
 547              		.thumb_func
 549              	can_filter_init:
 550              	.LVL41:
 551              	.LFB140:
 293:libraries/drivers/src/at32f403a_407_can.c **** 
 294:libraries/drivers/src/at32f403a_407_can.c **** /**
 295:libraries/drivers/src/at32f403a_407_can.c ****   * @brief  initialize the can peripheral according to the specified
 296:libraries/drivers/src/at32f403a_407_can.c ****   *         parameters in the can_filter_init_struct.
 297:libraries/drivers/src/at32f403a_407_can.c ****   * @param  can_x: select the can peripheral.
ARM GAS  C:\Users\10963\AppData\Local\Temp\ccZn7T5h.s 			page 16


 298:libraries/drivers/src/at32f403a_407_can.c ****   *         this parameter can be one of the following values:
 299:libraries/drivers/src/at32f403a_407_can.c ****   *         CAN1,CAN2.
 300:libraries/drivers/src/at32f403a_407_can.c ****   * @param  can_filter_init_struct: pointer to a can_filter_init_type structure that contains the c
 301:libraries/drivers/src/at32f403a_407_can.c ****   * @retval none.
 302:libraries/drivers/src/at32f403a_407_can.c ****   */
 303:libraries/drivers/src/at32f403a_407_can.c **** void can_filter_init(can_type* can_x, can_filter_init_type* can_filter_init_struct)
 304:libraries/drivers/src/at32f403a_407_can.c **** {
 552              		.loc 1 304 1 is_stmt 1 view -0
 553              		.cfi_startproc
 554              		@ args = 0, pretend = 0, frame = 0
 555              		@ frame_needed = 0, uses_anonymous_args = 0
 556              		.loc 1 304 1 is_stmt 0 view .LVU181
 557 0000 10B5     		push	{r4, lr}
 558              	.LCFI1:
 559              		.cfi_def_cfa_offset 8
 560              		.cfi_offset 4, -8
 561              		.cfi_offset 14, -4
 305:libraries/drivers/src/at32f403a_407_can.c ****   uint32_t filter_number_bit_pos = 0;
 562              		.loc 1 305 3 is_stmt 1 view .LVU182
 563              	.LVL42:
 306:libraries/drivers/src/at32f403a_407_can.c ****   filter_number_bit_pos = ((uint32_t)1) << can_filter_init_struct->filter_number;
 564              		.loc 1 306 3 view .LVU183
 565              		.loc 1 306 66 is_stmt 0 view .LVU184
 566 0002 CA78     		ldrb	r2, [r1, #3]	@ zero_extendqisi2
 567              		.loc 1 306 25 view .LVU185
 568 0004 0123     		movs	r3, #1
 569 0006 9340     		lsls	r3, r3, r2
 570              	.LVL43:
 307:libraries/drivers/src/at32f403a_407_can.c ****   /* set the filter turn into configuration condition */
 308:libraries/drivers/src/at32f403a_407_can.c ****   can_x->fctrl_bit.fcs = TRUE;
 571              		.loc 1 308 3 is_stmt 1 view .LVU186
 572              		.loc 1 308 24 is_stmt 0 view .LVU187
 573 0008 D0F80022 		ldr	r2, [r0, #512]
 574 000c 42F00102 		orr	r2, r2, #1
 575 0010 C0F80022 		str	r2, [r0, #512]
 309:libraries/drivers/src/at32f403a_407_can.c **** 
 310:libraries/drivers/src/at32f403a_407_can.c ****   /* filter activate disable */
 311:libraries/drivers/src/at32f403a_407_can.c ****   can_x->facfg &= ~(uint32_t)filter_number_bit_pos;
 576              		.loc 1 311 3 is_stmt 1 view .LVU188
 577              		.loc 1 311 8 is_stmt 0 view .LVU189
 578 0014 D0F81C22 		ldr	r2, [r0, #540]
 579              		.loc 1 311 19 view .LVU190
 580 0018 6FEA030C 		mvn	ip, r3
 581              		.loc 1 311 16 view .LVU191
 582 001c 22EA0302 		bic	r2, r2, r3
 583 0020 C0F81C22 		str	r2, [r0, #540]
 312:libraries/drivers/src/at32f403a_407_can.c **** 
 313:libraries/drivers/src/at32f403a_407_can.c ****   /* filter bit width */
 314:libraries/drivers/src/at32f403a_407_can.c ****   switch(can_filter_init_struct->filter_bit)
 584              		.loc 1 314 3 is_stmt 1 view .LVU192
 585              		.loc 1 314 32 is_stmt 0 view .LVU193
 586 0024 0A79     		ldrb	r2, [r1, #4]	@ zero_extendqisi2
 587              		.loc 1 314 3 view .LVU194
 588 0026 72B3     		cbz	r2, .L33
 589 0028 012A     		cmp	r2, #1
 590 002a 59D1     		bne	.L35
 315:libraries/drivers/src/at32f403a_407_can.c ****   {
ARM GAS  C:\Users\10963\AppData\Local\Temp\ccZn7T5h.s 			page 17


 316:libraries/drivers/src/at32f403a_407_can.c ****     case CAN_FILTER_16BIT:
 317:libraries/drivers/src/at32f403a_407_can.c ****       can_x->fbwcfg &= ~(uint32_t)filter_number_bit_pos;
 318:libraries/drivers/src/at32f403a_407_can.c ****       /* first 16-bit identifier and first 16-bit mask or first 16-bit identifier and second 16-bit
 319:libraries/drivers/src/at32f403a_407_can.c ****       can_x->ffb[can_filter_init_struct->filter_number].ffdb1 = ((0x0000FFFF & (uint32_t)can_filter
 320:libraries/drivers/src/at32f403a_407_can.c ****       can_x->ffb[can_filter_init_struct->filter_number].ffdb1 |= (0x0000FFFF & (uint32_t)can_filter
 321:libraries/drivers/src/at32f403a_407_can.c **** 
 322:libraries/drivers/src/at32f403a_407_can.c ****       /* second 16-bit identifier and second 16-bit mask or third 16-bit identifier and fourth 16-b
 323:libraries/drivers/src/at32f403a_407_can.c ****       can_x->ffb[can_filter_init_struct->filter_number].ffdb2 = ((0x0000FFFF & (uint32_t)can_filter
 324:libraries/drivers/src/at32f403a_407_can.c ****       can_x->ffb[can_filter_init_struct->filter_number].ffdb2 |= (0x0000FFFF & (uint32_t)can_filter
 325:libraries/drivers/src/at32f403a_407_can.c **** 
 326:libraries/drivers/src/at32f403a_407_can.c ****       break;
 327:libraries/drivers/src/at32f403a_407_can.c ****     case CAN_FILTER_32BIT:
 328:libraries/drivers/src/at32f403a_407_can.c ****       can_x->fbwcfg |= filter_number_bit_pos;
 591              		.loc 1 328 7 is_stmt 1 view .LVU195
 592              		.loc 1 328 12 is_stmt 0 view .LVU196
 593 002c D0F80C22 		ldr	r2, [r0, #524]
 594              		.loc 1 328 21 view .LVU197
 595 0030 1A43     		orrs	r2, r2, r3
 596 0032 C0F80C22 		str	r2, [r0, #524]
 329:libraries/drivers/src/at32f403a_407_can.c ****       /* 32-bit identifier or first 32-bit identifier */
 330:libraries/drivers/src/at32f403a_407_can.c ****       can_x->ffb[can_filter_init_struct->filter_number].ffdb1 = ((0x0000FFFF & (uint32_t)can_filter
 597              		.loc 1 330 7 is_stmt 1 view .LVU198
 598              		.loc 1 330 112 is_stmt 0 view .LVU199
 599 0036 B1F806E0 		ldrh	lr, [r1, #6]
 600              		.loc 1 330 40 view .LVU200
 601 003a CA78     		ldrb	r2, [r1, #3]	@ zero_extendqisi2
 602              		.loc 1 330 130 view .LVU201
 603 003c 4FEA0E4E 		lsl	lr, lr, #16
 604              		.loc 1 330 63 view .LVU202
 605 0040 4832     		adds	r2, r2, #72
 606 0042 40F832E0 		str	lr, [r0, r2, lsl #3]
 331:libraries/drivers/src/at32f403a_407_can.c ****       can_x->ffb[can_filter_init_struct->filter_number].ffdb1 |= (0x0000FFFF & (uint32_t)can_filter
 607              		.loc 1 331 7 is_stmt 1 view .LVU203
 608              		.loc 1 331 40 is_stmt 0 view .LVU204
 609 0046 CA78     		ldrb	r2, [r1, #3]	@ zero_extendqisi2
 610              		.loc 1 331 56 view .LVU205
 611 0048 4832     		adds	r2, r2, #72
 612 004a 50F83240 		ldr	r4, [r0, r2, lsl #3]
 613              		.loc 1 331 112 view .LVU206
 614 004e B1F808E0 		ldrh	lr, [r1, #8]
 615              		.loc 1 331 63 view .LVU207
 616 0052 44EA0E0E 		orr	lr, r4, lr
 617 0056 40F832E0 		str	lr, [r0, r2, lsl #3]
 332:libraries/drivers/src/at32f403a_407_can.c **** 
 333:libraries/drivers/src/at32f403a_407_can.c ****       /* 32-bit mask or second 32-bit identifier */
 334:libraries/drivers/src/at32f403a_407_can.c ****       can_x->ffb[can_filter_init_struct->filter_number].ffdb2 = ((0x0000FFFF & (uint32_t)can_filter
 618              		.loc 1 334 7 is_stmt 1 view .LVU208
 619              		.loc 1 334 112 is_stmt 0 view .LVU209
 620 005a B1F80AE0 		ldrh	lr, [r1, #10]
 621              		.loc 1 334 40 view .LVU210
 622 005e CA78     		ldrb	r2, [r1, #3]	@ zero_extendqisi2
 623              		.loc 1 334 132 view .LVU211
 624 0060 4FEA0E4E 		lsl	lr, lr, #16
 625              		.loc 1 334 63 view .LVU212
 626 0064 4832     		adds	r2, r2, #72
 627 0066 00EBC202 		add	r2, r0, r2, lsl #3
 628 006a C2F804E0 		str	lr, [r2, #4]
ARM GAS  C:\Users\10963\AppData\Local\Temp\ccZn7T5h.s 			page 18


 335:libraries/drivers/src/at32f403a_407_can.c ****       can_x->ffb[can_filter_init_struct->filter_number].ffdb2 |= (0x0000FFFF & (uint32_t)can_filter
 629              		.loc 1 335 7 is_stmt 1 view .LVU213
 630              		.loc 1 335 40 is_stmt 0 view .LVU214
 631 006e CA78     		ldrb	r2, [r1, #3]	@ zero_extendqisi2
 632              		.loc 1 335 56 view .LVU215
 633 0070 4832     		adds	r2, r2, #72
 634 0072 00EBC202 		add	r2, r0, r2, lsl #3
 635 0076 5468     		ldr	r4, [r2, #4]
 636              		.loc 1 335 112 view .LVU216
 637 0078 B1F80CE0 		ldrh	lr, [r1, #12]
 638              		.loc 1 335 63 view .LVU217
 639 007c 44EA0E0E 		orr	lr, r4, lr
 640 0080 C2F804E0 		str	lr, [r2, #4]
 336:libraries/drivers/src/at32f403a_407_can.c **** 
 337:libraries/drivers/src/at32f403a_407_can.c ****       break;
 641              		.loc 1 337 7 is_stmt 1 view .LVU218
 642 0084 2CE0     		b	.L35
 643              	.L33:
 317:libraries/drivers/src/at32f403a_407_can.c ****       /* first 16-bit identifier and first 16-bit mask or first 16-bit identifier and second 16-bit
 644              		.loc 1 317 7 view .LVU219
 317:libraries/drivers/src/at32f403a_407_can.c ****       /* first 16-bit identifier and first 16-bit mask or first 16-bit identifier and second 16-bit
 645              		.loc 1 317 12 is_stmt 0 view .LVU220
 646 0086 D0F80C22 		ldr	r2, [r0, #524]
 317:libraries/drivers/src/at32f403a_407_can.c ****       /* first 16-bit identifier and first 16-bit mask or first 16-bit identifier and second 16-bit
 647              		.loc 1 317 21 view .LVU221
 648 008a 0CEA0202 		and	r2, ip, r2
 649 008e C0F80C22 		str	r2, [r0, #524]
 319:libraries/drivers/src/at32f403a_407_can.c ****       can_x->ffb[can_filter_init_struct->filter_number].ffdb1 |= (0x0000FFFF & (uint32_t)can_filter
 650              		.loc 1 319 7 is_stmt 1 view .LVU222
 319:libraries/drivers/src/at32f403a_407_can.c ****       can_x->ffb[can_filter_init_struct->filter_number].ffdb1 |= (0x0000FFFF & (uint32_t)can_filter
 651              		.loc 1 319 112 is_stmt 0 view .LVU223
 652 0092 B1F80CE0 		ldrh	lr, [r1, #12]
 319:libraries/drivers/src/at32f403a_407_can.c ****       can_x->ffb[can_filter_init_struct->filter_number].ffdb1 |= (0x0000FFFF & (uint32_t)can_filter
 653              		.loc 1 319 40 view .LVU224
 654 0096 CA78     		ldrb	r2, [r1, #3]	@ zero_extendqisi2
 319:libraries/drivers/src/at32f403a_407_can.c ****       can_x->ffb[can_filter_init_struct->filter_number].ffdb1 |= (0x0000FFFF & (uint32_t)can_filter
 655              		.loc 1 319 131 view .LVU225
 656 0098 4FEA0E4E 		lsl	lr, lr, #16
 319:libraries/drivers/src/at32f403a_407_can.c ****       can_x->ffb[can_filter_init_struct->filter_number].ffdb1 |= (0x0000FFFF & (uint32_t)can_filter
 657              		.loc 1 319 63 view .LVU226
 658 009c 4832     		adds	r2, r2, #72
 659 009e 40F832E0 		str	lr, [r0, r2, lsl #3]
 320:libraries/drivers/src/at32f403a_407_can.c **** 
 660              		.loc 1 320 7 is_stmt 1 view .LVU227
 320:libraries/drivers/src/at32f403a_407_can.c **** 
 661              		.loc 1 320 40 is_stmt 0 view .LVU228
 662 00a2 CA78     		ldrb	r2, [r1, #3]	@ zero_extendqisi2
 320:libraries/drivers/src/at32f403a_407_can.c **** 
 663              		.loc 1 320 56 view .LVU229
 664 00a4 4832     		adds	r2, r2, #72
 665 00a6 50F83240 		ldr	r4, [r0, r2, lsl #3]
 320:libraries/drivers/src/at32f403a_407_can.c **** 
 666              		.loc 1 320 112 view .LVU230
 667 00aa B1F808E0 		ldrh	lr, [r1, #8]
 320:libraries/drivers/src/at32f403a_407_can.c **** 
 668              		.loc 1 320 63 view .LVU231
 669 00ae 44EA0E0E 		orr	lr, r4, lr
ARM GAS  C:\Users\10963\AppData\Local\Temp\ccZn7T5h.s 			page 19


 670 00b2 40F832E0 		str	lr, [r0, r2, lsl #3]
 323:libraries/drivers/src/at32f403a_407_can.c ****       can_x->ffb[can_filter_init_struct->filter_number].ffdb2 |= (0x0000FFFF & (uint32_t)can_filter
 671              		.loc 1 323 7 is_stmt 1 view .LVU232
 323:libraries/drivers/src/at32f403a_407_can.c ****       can_x->ffb[can_filter_init_struct->filter_number].ffdb2 |= (0x0000FFFF & (uint32_t)can_filter
 672              		.loc 1 323 112 is_stmt 0 view .LVU233
 673 00b6 B1F80AE0 		ldrh	lr, [r1, #10]
 323:libraries/drivers/src/at32f403a_407_can.c ****       can_x->ffb[can_filter_init_struct->filter_number].ffdb2 |= (0x0000FFFF & (uint32_t)can_filter
 674              		.loc 1 323 40 view .LVU234
 675 00ba CA78     		ldrb	r2, [r1, #3]	@ zero_extendqisi2
 323:libraries/drivers/src/at32f403a_407_can.c ****       can_x->ffb[can_filter_init_struct->filter_number].ffdb2 |= (0x0000FFFF & (uint32_t)can_filter
 676              		.loc 1 323 132 view .LVU235
 677 00bc 4FEA0E4E 		lsl	lr, lr, #16
 323:libraries/drivers/src/at32f403a_407_can.c ****       can_x->ffb[can_filter_init_struct->filter_number].ffdb2 |= (0x0000FFFF & (uint32_t)can_filter
 678              		.loc 1 323 63 view .LVU236
 679 00c0 4832     		adds	r2, r2, #72
 680 00c2 00EBC202 		add	r2, r0, r2, lsl #3
 681 00c6 C2F804E0 		str	lr, [r2, #4]
 324:libraries/drivers/src/at32f403a_407_can.c **** 
 682              		.loc 1 324 7 is_stmt 1 view .LVU237
 324:libraries/drivers/src/at32f403a_407_can.c **** 
 683              		.loc 1 324 40 is_stmt 0 view .LVU238
 684 00ca CA78     		ldrb	r2, [r1, #3]	@ zero_extendqisi2
 324:libraries/drivers/src/at32f403a_407_can.c **** 
 685              		.loc 1 324 56 view .LVU239
 686 00cc 4832     		adds	r2, r2, #72
 687 00ce 00EBC202 		add	r2, r0, r2, lsl #3
 688 00d2 5468     		ldr	r4, [r2, #4]
 324:libraries/drivers/src/at32f403a_407_can.c **** 
 689              		.loc 1 324 112 view .LVU240
 690 00d4 B1F806E0 		ldrh	lr, [r1, #6]
 324:libraries/drivers/src/at32f403a_407_can.c **** 
 691              		.loc 1 324 63 view .LVU241
 692 00d8 44EA0E0E 		orr	lr, r4, lr
 693 00dc C2F804E0 		str	lr, [r2, #4]
 326:libraries/drivers/src/at32f403a_407_can.c ****     case CAN_FILTER_32BIT:
 694              		.loc 1 326 7 is_stmt 1 view .LVU242
 695              	.L35:
 338:libraries/drivers/src/at32f403a_407_can.c ****     default:
 339:libraries/drivers/src/at32f403a_407_can.c ****       break;
 340:libraries/drivers/src/at32f403a_407_can.c ****   }
 341:libraries/drivers/src/at32f403a_407_can.c **** 
 342:libraries/drivers/src/at32f403a_407_can.c ****   /* filter mode */
 343:libraries/drivers/src/at32f403a_407_can.c ****   switch(can_filter_init_struct->filter_mode)
 696              		.loc 1 343 3 view .LVU243
 697              		.loc 1 343 32 is_stmt 0 view .LVU244
 698 00e0 4A78     		ldrb	r2, [r1, #1]	@ zero_extendqisi2
 699              		.loc 1 343 3 view .LVU245
 700 00e2 3AB1     		cbz	r2, .L36
 701 00e4 012A     		cmp	r2, #1
 702 00e6 0BD1     		bne	.L38
 344:libraries/drivers/src/at32f403a_407_can.c ****   {
 345:libraries/drivers/src/at32f403a_407_can.c ****     case CAN_FILTER_MODE_ID_MASK:
 346:libraries/drivers/src/at32f403a_407_can.c ****       can_x->fmcfg &= ~(uint32_t)filter_number_bit_pos;
 347:libraries/drivers/src/at32f403a_407_can.c ****       break;
 348:libraries/drivers/src/at32f403a_407_can.c ****     case CAN_FILTER_MODE_ID_LIST:
 349:libraries/drivers/src/at32f403a_407_can.c ****       can_x->fmcfg |= (uint32_t)filter_number_bit_pos;
 703              		.loc 1 349 7 is_stmt 1 view .LVU246
ARM GAS  C:\Users\10963\AppData\Local\Temp\ccZn7T5h.s 			page 20


 704              		.loc 1 349 12 is_stmt 0 view .LVU247
 705 00e8 D0F80422 		ldr	r2, [r0, #516]
 706              		.loc 1 349 20 view .LVU248
 707 00ec 1A43     		orrs	r2, r2, r3
 708 00ee C0F80422 		str	r2, [r0, #516]
 350:libraries/drivers/src/at32f403a_407_can.c ****       break;
 709              		.loc 1 350 7 is_stmt 1 view .LVU249
 710 00f2 05E0     		b	.L38
 711              	.L36:
 346:libraries/drivers/src/at32f403a_407_can.c ****       break;
 712              		.loc 1 346 7 view .LVU250
 346:libraries/drivers/src/at32f403a_407_can.c ****       break;
 713              		.loc 1 346 12 is_stmt 0 view .LVU251
 714 00f4 D0F80422 		ldr	r2, [r0, #516]
 346:libraries/drivers/src/at32f403a_407_can.c ****       break;
 715              		.loc 1 346 20 view .LVU252
 716 00f8 0CEA0202 		and	r2, ip, r2
 717 00fc C0F80422 		str	r2, [r0, #516]
 347:libraries/drivers/src/at32f403a_407_can.c ****     case CAN_FILTER_MODE_ID_LIST:
 718              		.loc 1 347 7 is_stmt 1 view .LVU253
 719              	.L38:
 351:libraries/drivers/src/at32f403a_407_can.c ****     default:
 352:libraries/drivers/src/at32f403a_407_can.c ****       break;
 353:libraries/drivers/src/at32f403a_407_can.c ****   }
 354:libraries/drivers/src/at32f403a_407_can.c **** 
 355:libraries/drivers/src/at32f403a_407_can.c ****   /* filter relation fifo select */
 356:libraries/drivers/src/at32f403a_407_can.c ****   switch(can_filter_init_struct->filter_fifo)
 720              		.loc 1 356 3 view .LVU254
 721              		.loc 1 356 32 is_stmt 0 view .LVU255
 722 0100 8A78     		ldrb	r2, [r1, #2]	@ zero_extendqisi2
 723              		.loc 1 356 3 view .LVU256
 724 0102 3AB1     		cbz	r2, .L39
 725 0104 012A     		cmp	r2, #1
 726 0106 0BD1     		bne	.L41
 357:libraries/drivers/src/at32f403a_407_can.c ****   {
 358:libraries/drivers/src/at32f403a_407_can.c ****     case CAN_FILTER_FIFO0:
 359:libraries/drivers/src/at32f403a_407_can.c ****       can_x->frf &= ~(uint32_t)filter_number_bit_pos;
 360:libraries/drivers/src/at32f403a_407_can.c ****       break;
 361:libraries/drivers/src/at32f403a_407_can.c ****     case CAN_FILTER_FIFO1:
 362:libraries/drivers/src/at32f403a_407_can.c ****       can_x->frf |= (uint32_t)filter_number_bit_pos;
 727              		.loc 1 362 7 is_stmt 1 view .LVU257
 728              		.loc 1 362 12 is_stmt 0 view .LVU258
 729 0108 D0F81422 		ldr	r2, [r0, #532]
 730              		.loc 1 362 18 view .LVU259
 731 010c 1A43     		orrs	r2, r2, r3
 732 010e C0F81422 		str	r2, [r0, #532]
 363:libraries/drivers/src/at32f403a_407_can.c ****       break;
 733              		.loc 1 363 7 is_stmt 1 view .LVU260
 734 0112 05E0     		b	.L41
 735              	.L39:
 359:libraries/drivers/src/at32f403a_407_can.c ****       break;
 736              		.loc 1 359 7 view .LVU261
 359:libraries/drivers/src/at32f403a_407_can.c ****       break;
 737              		.loc 1 359 12 is_stmt 0 view .LVU262
 738 0114 D0F81422 		ldr	r2, [r0, #532]
 359:libraries/drivers/src/at32f403a_407_can.c ****       break;
 739              		.loc 1 359 18 view .LVU263
ARM GAS  C:\Users\10963\AppData\Local\Temp\ccZn7T5h.s 			page 21


 740 0118 0CEA0202 		and	r2, ip, r2
 741 011c C0F81422 		str	r2, [r0, #532]
 360:libraries/drivers/src/at32f403a_407_can.c ****     case CAN_FILTER_FIFO1:
 742              		.loc 1 360 7 is_stmt 1 view .LVU264
 743              	.L41:
 364:libraries/drivers/src/at32f403a_407_can.c ****     default:
 365:libraries/drivers/src/at32f403a_407_can.c ****       break;
 366:libraries/drivers/src/at32f403a_407_can.c ****   }
 367:libraries/drivers/src/at32f403a_407_can.c **** 
 368:libraries/drivers/src/at32f403a_407_can.c ****   /* filter activate enable */
 369:libraries/drivers/src/at32f403a_407_can.c ****   switch(can_filter_init_struct->filter_activate_enable)
 744              		.loc 1 369 3 view .LVU265
 745              		.loc 1 369 32 is_stmt 0 view .LVU266
 746 0120 0A78     		ldrb	r2, [r1]	@ zero_extendqisi2
 747              		.loc 1 369 3 view .LVU267
 748 0122 6AB1     		cbz	r2, .L42
 749 0124 012A     		cmp	r2, #1
 750 0126 04D1     		bne	.L43
 370:libraries/drivers/src/at32f403a_407_can.c ****   {
 371:libraries/drivers/src/at32f403a_407_can.c ****     case TRUE:
 372:libraries/drivers/src/at32f403a_407_can.c ****       can_x->facfg |= (uint32_t)filter_number_bit_pos;
 751              		.loc 1 372 7 is_stmt 1 view .LVU268
 752              		.loc 1 372 12 is_stmt 0 view .LVU269
 753 0128 D0F81C22 		ldr	r2, [r0, #540]
 754              		.loc 1 372 20 view .LVU270
 755 012c 1343     		orrs	r3, r3, r2
 756              	.LVL44:
 757              		.loc 1 372 20 view .LVU271
 758 012e C0F81C32 		str	r3, [r0, #540]
 373:libraries/drivers/src/at32f403a_407_can.c ****       break;
 759              		.loc 1 373 7 is_stmt 1 view .LVU272
 760              	.L43:
 374:libraries/drivers/src/at32f403a_407_can.c ****     case FALSE:
 375:libraries/drivers/src/at32f403a_407_can.c ****       can_x->facfg &= ~(uint32_t)filter_number_bit_pos;
 376:libraries/drivers/src/at32f403a_407_can.c ****       break;
 377:libraries/drivers/src/at32f403a_407_can.c ****     default:
 378:libraries/drivers/src/at32f403a_407_can.c ****       break;
 379:libraries/drivers/src/at32f403a_407_can.c ****   }
 380:libraries/drivers/src/at32f403a_407_can.c **** 
 381:libraries/drivers/src/at32f403a_407_can.c ****   /* set the filter turn into working condition */
 382:libraries/drivers/src/at32f403a_407_can.c ****   can_x->fctrl_bit.fcs = FALSE;
 761              		.loc 1 382 3 view .LVU273
 762              		.loc 1 382 24 is_stmt 0 view .LVU274
 763 0132 D0F80032 		ldr	r3, [r0, #512]
 764 0136 23F00103 		bic	r3, r3, #1
 765 013a C0F80032 		str	r3, [r0, #512]
 383:libraries/drivers/src/at32f403a_407_can.c **** }
 766              		.loc 1 383 1 view .LVU275
 767 013e 10BD     		pop	{r4, pc}
 768              	.LVL45:
 769              	.L42:
 375:libraries/drivers/src/at32f403a_407_can.c ****       break;
 770              		.loc 1 375 7 is_stmt 1 view .LVU276
 375:libraries/drivers/src/at32f403a_407_can.c ****       break;
 771              		.loc 1 375 12 is_stmt 0 view .LVU277
 772 0140 D0F81C32 		ldr	r3, [r0, #540]
 773              	.LVL46:
ARM GAS  C:\Users\10963\AppData\Local\Temp\ccZn7T5h.s 			page 22


 375:libraries/drivers/src/at32f403a_407_can.c ****       break;
 774              		.loc 1 375 20 view .LVU278
 775 0144 0CEA0303 		and	r3, ip, r3
 776 0148 C0F81C32 		str	r3, [r0, #540]
 376:libraries/drivers/src/at32f403a_407_can.c ****     default:
 777              		.loc 1 376 7 is_stmt 1 view .LVU279
 778 014c F1E7     		b	.L43
 779              		.cfi_endproc
 780              	.LFE140:
 782              		.section	.text.can_debug_transmission_prohibit,"ax",%progbits
 783              		.align	1
 784              		.global	can_debug_transmission_prohibit
 785              		.syntax unified
 786              		.thumb
 787              		.thumb_func
 789              	can_debug_transmission_prohibit:
 790              	.LVL47:
 791              	.LFB141:
 384:libraries/drivers/src/at32f403a_407_can.c **** 
 385:libraries/drivers/src/at32f403a_407_can.c **** /**
 386:libraries/drivers/src/at32f403a_407_can.c ****   * @brief  enable or disable the debug transmission prohibit of the specified can peripheral.
 387:libraries/drivers/src/at32f403a_407_can.c ****   * @param  can_x: select the can peripheral.
 388:libraries/drivers/src/at32f403a_407_can.c ****   *         this parameter can be one of the following values:
 389:libraries/drivers/src/at32f403a_407_can.c ****   *         CAN1,CAN2.
 390:libraries/drivers/src/at32f403a_407_can.c ****   * @param  new_state: new state of debug transmission prohibit.
 391:libraries/drivers/src/at32f403a_407_can.c ****   *         this parameter can be: TRUE or FALSE.
 392:libraries/drivers/src/at32f403a_407_can.c ****   * @retval none.
 393:libraries/drivers/src/at32f403a_407_can.c ****   */
 394:libraries/drivers/src/at32f403a_407_can.c **** void can_debug_transmission_prohibit(can_type* can_x, confirm_state new_state)
 395:libraries/drivers/src/at32f403a_407_can.c **** {
 792              		.loc 1 395 1 view -0
 793              		.cfi_startproc
 794              		@ args = 0, pretend = 0, frame = 0
 795              		@ frame_needed = 0, uses_anonymous_args = 0
 796              		@ link register save eliminated.
 396:libraries/drivers/src/at32f403a_407_can.c ****   can_x->mctrl_bit.ptd = new_state;
 797              		.loc 1 396 3 view .LVU281
 798              		.loc 1 396 24 is_stmt 0 view .LVU282
 799 0000 0368     		ldr	r3, [r0]
 800 0002 61F31043 		bfi	r3, r1, #16, #1
 801 0006 0360     		str	r3, [r0]
 397:libraries/drivers/src/at32f403a_407_can.c **** }
 802              		.loc 1 397 1 view .LVU283
 803 0008 7047     		bx	lr
 804              		.cfi_endproc
 805              	.LFE141:
 807              		.section	.text.can_ttc_mode_enable,"ax",%progbits
 808              		.align	1
 809              		.global	can_ttc_mode_enable
 810              		.syntax unified
 811              		.thumb
 812              		.thumb_func
 814              	can_ttc_mode_enable:
 815              	.LVL48:
 816              	.LFB142:
 398:libraries/drivers/src/at32f403a_407_can.c **** 
 399:libraries/drivers/src/at32f403a_407_can.c **** /**
ARM GAS  C:\Users\10963\AppData\Local\Temp\ccZn7T5h.s 			page 23


 400:libraries/drivers/src/at32f403a_407_can.c ****   * @brief  enable or disable time trigger operation communication mode of the specified can periph
 401:libraries/drivers/src/at32f403a_407_can.c ****   * @param  can_x: select the can peripheral.
 402:libraries/drivers/src/at32f403a_407_can.c ****   *         this parameter can be one of the following values:
 403:libraries/drivers/src/at32f403a_407_can.c ****   *         CAN1 or CAN2.
 404:libraries/drivers/src/at32f403a_407_can.c ****   * @param  new_state : new state of time trigger operation communication mode.
 405:libraries/drivers/src/at32f403a_407_can.c ****   *         this parameter can be: TRUE or FALSE.
 406:libraries/drivers/src/at32f403a_407_can.c ****   * @note
 407:libraries/drivers/src/at32f403a_407_can.c ****   *         note1:
 408:libraries/drivers/src/at32f403a_407_can.c ****   *         when enabled, transmit mailbox time stamp(tmts[15:0]) value is sent in the last two dat
 409:libraries/drivers/src/at32f403a_407_can.c ****   *         the 8-byte message: tmts[7:0] in data byte 6 and tmts[15:8] in data byte 7
 410:libraries/drivers/src/at32f403a_407_can.c ****   * @note
 411:libraries/drivers/src/at32f403a_407_can.c ****   *         note2:
 412:libraries/drivers/src/at32f403a_407_can.c ****   *         tmdtbl must be programmed as 8 in order time stamp (2 bytes) to be sent over the can bu
 413:libraries/drivers/src/at32f403a_407_can.c ****   * @retval none
 414:libraries/drivers/src/at32f403a_407_can.c ****   */
 415:libraries/drivers/src/at32f403a_407_can.c **** void can_ttc_mode_enable(can_type* can_x, confirm_state new_state)
 416:libraries/drivers/src/at32f403a_407_can.c **** {
 817              		.loc 1 416 1 is_stmt 1 view -0
 818              		.cfi_startproc
 819              		@ args = 0, pretend = 0, frame = 0
 820              		@ frame_needed = 0, uses_anonymous_args = 0
 821              		@ link register save eliminated.
 417:libraries/drivers/src/at32f403a_407_can.c ****   /* config the ttc mode new_state */
 418:libraries/drivers/src/at32f403a_407_can.c ****   can_x->mctrl_bit.ttcen = new_state;
 822              		.loc 1 418 3 view .LVU285
 823              		.loc 1 418 26 is_stmt 0 view .LVU286
 824 0000 01F00101 		and	r1, r1, #1
 825              	.LVL49:
 826              		.loc 1 418 26 view .LVU287
 827 0004 0368     		ldr	r3, [r0]
 828 0006 61F3C713 		bfi	r3, r1, #7, #1
 829 000a 0360     		str	r3, [r0]
 419:libraries/drivers/src/at32f403a_407_can.c **** 
 420:libraries/drivers/src/at32f403a_407_can.c ****   /* config tmtsten bits new_state */
 421:libraries/drivers/src/at32f403a_407_can.c ****   can_x->tx_mailbox[0].tmc_bit.tmtsten = new_state;
 830              		.loc 1 421 3 is_stmt 1 view .LVU288
 831              		.loc 1 421 40 is_stmt 0 view .LVU289
 832 000c D0F88431 		ldr	r3, [r0, #388]
 833 0010 61F30823 		bfi	r3, r1, #8, #1
 834 0014 C0F88431 		str	r3, [r0, #388]
 422:libraries/drivers/src/at32f403a_407_can.c ****   can_x->tx_mailbox[1].tmc_bit.tmtsten = new_state;
 835              		.loc 1 422 3 is_stmt 1 view .LVU290
 836              		.loc 1 422 40 is_stmt 0 view .LVU291
 837 0018 D0F89431 		ldr	r3, [r0, #404]
 838 001c 61F30823 		bfi	r3, r1, #8, #1
 839 0020 C0F89431 		str	r3, [r0, #404]
 423:libraries/drivers/src/at32f403a_407_can.c ****   can_x->tx_mailbox[2].tmc_bit.tmtsten = new_state;
 840              		.loc 1 423 3 is_stmt 1 view .LVU292
 841              		.loc 1 423 40 is_stmt 0 view .LVU293
 842 0024 D0F8A431 		ldr	r3, [r0, #420]
 843 0028 61F30823 		bfi	r3, r1, #8, #1
 844 002c C0F8A431 		str	r3, [r0, #420]
 424:libraries/drivers/src/at32f403a_407_can.c **** }
 845              		.loc 1 424 1 view .LVU294
 846 0030 7047     		bx	lr
 847              		.cfi_endproc
 848              	.LFE142:
ARM GAS  C:\Users\10963\AppData\Local\Temp\ccZn7T5h.s 			page 24


 850              		.section	.text.can_message_transmit,"ax",%progbits
 851              		.align	1
 852              		.global	can_message_transmit
 853              		.syntax unified
 854              		.thumb
 855              		.thumb_func
 857              	can_message_transmit:
 858              	.LVL50:
 859              	.LFB143:
 425:libraries/drivers/src/at32f403a_407_can.c **** 
 426:libraries/drivers/src/at32f403a_407_can.c **** /**
 427:libraries/drivers/src/at32f403a_407_can.c ****   * @brief  fill the transmission message and transmit of the specified can peripheral.
 428:libraries/drivers/src/at32f403a_407_can.c ****   * @param  can_x: select the can peripheral.
 429:libraries/drivers/src/at32f403a_407_can.c ****   *         this parameter can be one of the following values:
 430:libraries/drivers/src/at32f403a_407_can.c ****   *         CAN1,CAN2.
 431:libraries/drivers/src/at32f403a_407_can.c ****   * @param  tx_message_struct: pointer to a structure which contains the message to be trans.
 432:libraries/drivers/src/at32f403a_407_can.c ****   * @retval the number of the mailbox that is used for transmission:
 433:libraries/drivers/src/at32f403a_407_can.c ****   *         this parameter can be one of the following values:
 434:libraries/drivers/src/at32f403a_407_can.c ****   *         - CAN_TX_MAILBOX0
 435:libraries/drivers/src/at32f403a_407_can.c ****   *         - CAN_TX_MAILBOX1
 436:libraries/drivers/src/at32f403a_407_can.c ****   *         - CAN_TX_MAILBOX2
 437:libraries/drivers/src/at32f403a_407_can.c ****   *         - CAN_TX_STATUS_NO_EMPTY <meanings there is no empty mailbox, message cannot be filled>
 438:libraries/drivers/src/at32f403a_407_can.c ****   */
 439:libraries/drivers/src/at32f403a_407_can.c **** uint8_t can_message_transmit(can_type* can_x, can_tx_message_type* tx_message_struct)
 440:libraries/drivers/src/at32f403a_407_can.c **** {
 860              		.loc 1 440 1 is_stmt 1 view -0
 861              		.cfi_startproc
 862              		@ args = 0, pretend = 0, frame = 0
 863              		@ frame_needed = 0, uses_anonymous_args = 0
 864              		.loc 1 440 1 is_stmt 0 view .LVU296
 865 0000 0346     		mov	r3, r0
 441:libraries/drivers/src/at32f403a_407_can.c ****   uint8_t transmit_mailbox = CAN_TX_STATUS_NO_EMPTY;
 866              		.loc 1 441 3 is_stmt 1 view .LVU297
 867              	.LVL51:
 442:libraries/drivers/src/at32f403a_407_can.c **** 
 443:libraries/drivers/src/at32f403a_407_can.c ****   /* select one empty transmit mailbox */
 444:libraries/drivers/src/at32f403a_407_can.c ****   if(can_x->tsts_bit.tm0ef)
 868              		.loc 1 444 3 view .LVU298
 869              		.loc 1 444 21 is_stmt 0 view .LVU299
 870 0002 8268     		ldr	r2, [r0, #8]
 871              		.loc 1 444 5 view .LVU300
 872 0004 12F0806F 		tst	r2, #67108864
 873 0008 09D1     		bne	.L53
 445:libraries/drivers/src/at32f403a_407_can.c ****   {
 446:libraries/drivers/src/at32f403a_407_can.c ****     transmit_mailbox = CAN_TX_MAILBOX0;
 447:libraries/drivers/src/at32f403a_407_can.c ****   }
 448:libraries/drivers/src/at32f403a_407_can.c ****   else if(can_x->tsts_bit.tm1ef)
 874              		.loc 1 448 8 is_stmt 1 view .LVU301
 875              		.loc 1 448 26 is_stmt 0 view .LVU302
 876 000a 8268     		ldr	r2, [r0, #8]
 877              		.loc 1 448 10 view .LVU303
 878 000c 12F0006F 		tst	r2, #134217728
 879 0010 22D1     		bne	.L54
 449:libraries/drivers/src/at32f403a_407_can.c ****   {
 450:libraries/drivers/src/at32f403a_407_can.c ****     transmit_mailbox = CAN_TX_MAILBOX1;
 451:libraries/drivers/src/at32f403a_407_can.c ****   }
 452:libraries/drivers/src/at32f403a_407_can.c ****   else if(can_x->tsts_bit.tm2ef)
ARM GAS  C:\Users\10963\AppData\Local\Temp\ccZn7T5h.s 			page 25


 880              		.loc 1 452 8 is_stmt 1 view .LVU304
 881              		.loc 1 452 26 is_stmt 0 view .LVU305
 882 0012 8268     		ldr	r2, [r0, #8]
 883              		.loc 1 452 10 view .LVU306
 884 0014 12F0805F 		tst	r2, #268435456
 885 0018 5CD0     		beq	.L55
 453:libraries/drivers/src/at32f403a_407_can.c ****   {
 454:libraries/drivers/src/at32f403a_407_can.c ****     transmit_mailbox = CAN_TX_MAILBOX2;
 886              		.loc 1 454 22 view .LVU307
 887 001a 0220     		movs	r0, #2
 888              	.LVL52:
 889              		.loc 1 454 22 view .LVU308
 890 001c 00E0     		b	.L48
 891              	.LVL53:
 892              	.L53:
 446:libraries/drivers/src/at32f403a_407_can.c ****   }
 893              		.loc 1 446 22 view .LVU309
 894 001e 0020     		movs	r0, #0
 895              	.LVL54:
 896              	.L48:
 440:libraries/drivers/src/at32f403a_407_can.c ****   uint8_t transmit_mailbox = CAN_TX_STATUS_NO_EMPTY;
 897              		.loc 1 440 1 view .LVU310
 898 0020 30B5     		push	{r4, r5, lr}
 899              	.LCFI2:
 900              		.cfi_def_cfa_offset 12
 901              		.cfi_offset 4, -12
 902              		.cfi_offset 5, -8
 903              		.cfi_offset 14, -4
 904              	.LVL55:
 455:libraries/drivers/src/at32f403a_407_can.c ****   }
 456:libraries/drivers/src/at32f403a_407_can.c ****   else
 457:libraries/drivers/src/at32f403a_407_can.c ****   {
 458:libraries/drivers/src/at32f403a_407_can.c ****     transmit_mailbox = CAN_TX_STATUS_NO_EMPTY;
 459:libraries/drivers/src/at32f403a_407_can.c ****   }
 460:libraries/drivers/src/at32f403a_407_can.c **** 
 461:libraries/drivers/src/at32f403a_407_can.c ****   if(transmit_mailbox != CAN_TX_STATUS_NO_EMPTY)
 462:libraries/drivers/src/at32f403a_407_can.c ****   {
 463:libraries/drivers/src/at32f403a_407_can.c ****     /* set up the id */
 464:libraries/drivers/src/at32f403a_407_can.c ****     can_x->tx_mailbox[transmit_mailbox].tmi &= 0x00000001;
 905              		.loc 1 464 5 is_stmt 1 view .LVU311
 906              		.loc 1 464 45 is_stmt 0 view .LVU312
 907 0022 8646     		mov	lr, r0
 908              		.loc 1 464 40 view .LVU313
 909 0024 00F11802 		add	r2, r0, #24
 910 0028 1201     		lsls	r2, r2, #4
 911 002a 9C58     		ldr	r4, [r3, r2]
 912              		.loc 1 464 45 view .LVU314
 913 002c 04F00104 		and	r4, r4, #1
 914 0030 9C50     		str	r4, [r3, r2]
 465:libraries/drivers/src/at32f403a_407_can.c ****     can_x->tx_mailbox[transmit_mailbox].tmi_bit.tmidsel = tx_message_struct->id_type;
 915              		.loc 1 465 5 is_stmt 1 view .LVU315
 916              		.loc 1 465 76 is_stmt 0 view .LVU316
 917 0032 91F808C0 		ldrb	ip, [r1, #8]	@ zero_extendqisi2
 918              		.loc 1 465 57 view .LVU317
 919 0036 9C58     		ldr	r4, [r3, r2]
 920 0038 6CF38204 		bfi	r4, ip, #2, #1
 921 003c 9C50     		str	r4, [r3, r2]
ARM GAS  C:\Users\10963\AppData\Local\Temp\ccZn7T5h.s 			page 26


 466:libraries/drivers/src/at32f403a_407_can.c ****     switch(tx_message_struct->id_type)
 922              		.loc 1 466 5 is_stmt 1 view .LVU318
 923              		.loc 1 466 29 is_stmt 0 view .LVU319
 924 003e 0A7A     		ldrb	r2, [r1, #8]	@ zero_extendqisi2
 925              		.loc 1 466 5 view .LVU320
 926 0040 62B1     		cbz	r2, .L50
 927 0042 012A     		cmp	r2, #1
 928 0044 12D1     		bne	.L52
 467:libraries/drivers/src/at32f403a_407_can.c ****     {
 468:libraries/drivers/src/at32f403a_407_can.c ****       case CAN_ID_STANDARD:
 469:libraries/drivers/src/at32f403a_407_can.c ****         can_x->tx_mailbox[transmit_mailbox].tmi_bit.tmsid = tx_message_struct->standard_id;
 470:libraries/drivers/src/at32f403a_407_can.c ****         break;
 471:libraries/drivers/src/at32f403a_407_can.c ****       case CAN_ID_EXTENDED:
 472:libraries/drivers/src/at32f403a_407_can.c ****         can_x->tx_mailbox[transmit_mailbox].tmi |= (tx_message_struct->extended_id << 3);
 929              		.loc 1 472 9 is_stmt 1 view .LVU321
 930              		.loc 1 472 44 is_stmt 0 view .LVU322
 931 0046 00F11802 		add	r2, r0, #24
 932 004a 1201     		lsls	r2, r2, #4
 933 004c 9C58     		ldr	r4, [r3, r2]
 934              		.loc 1 472 49 view .LVU323
 935 004e 4D68     		ldr	r5, [r1, #4]
 936 0050 44EAC504 		orr	r4, r4, r5, lsl #3
 937 0054 9C50     		str	r4, [r3, r2]
 473:libraries/drivers/src/at32f403a_407_can.c ****         break;
 938              		.loc 1 473 9 is_stmt 1 view .LVU324
 939 0056 09E0     		b	.L52
 940              	.LVL56:
 941              	.L54:
 942              	.LCFI3:
 943              		.cfi_def_cfa_offset 0
 944              		.cfi_restore 4
 945              		.cfi_restore 5
 946              		.cfi_restore 14
 450:libraries/drivers/src/at32f403a_407_can.c ****   }
 947              		.loc 1 450 22 is_stmt 0 view .LVU325
 948 0058 0120     		movs	r0, #1
 949              	.LVL57:
 450:libraries/drivers/src/at32f403a_407_can.c ****   }
 950              		.loc 1 450 22 view .LVU326
 951 005a E1E7     		b	.L48
 952              	.LVL58:
 953              	.L50:
 954              	.LCFI4:
 955              		.cfi_def_cfa_offset 12
 956              		.cfi_offset 4, -12
 957              		.cfi_offset 5, -8
 958              		.cfi_offset 14, -4
 469:libraries/drivers/src/at32f403a_407_can.c ****         break;
 959              		.loc 1 469 9 is_stmt 1 view .LVU327
 469:libraries/drivers/src/at32f403a_407_can.c ****         break;
 960              		.loc 1 469 59 is_stmt 0 view .LVU328
 961 005c 00F11802 		add	r2, r0, #24
 962 0060 1201     		lsls	r2, r2, #4
 963 0062 9C58     		ldr	r4, [r3, r2]
 964 0064 0D68     		ldr	r5, [r1]
 965 0066 65F35F54 		bfi	r4, r5, #21, #11
 966 006a 9C50     		str	r4, [r3, r2]
ARM GAS  C:\Users\10963\AppData\Local\Temp\ccZn7T5h.s 			page 27


 470:libraries/drivers/src/at32f403a_407_can.c ****       case CAN_ID_EXTENDED:
 967              		.loc 1 470 9 is_stmt 1 view .LVU329
 968              	.L52:
 474:libraries/drivers/src/at32f403a_407_can.c ****       default:
 475:libraries/drivers/src/at32f403a_407_can.c ****         break;
 476:libraries/drivers/src/at32f403a_407_can.c ****     }
 477:libraries/drivers/src/at32f403a_407_can.c ****     can_x->tx_mailbox[transmit_mailbox].tmi_bit.tmfrsel = tx_message_struct->frame_type;
 969              		.loc 1 477 5 view .LVU330
 970              		.loc 1 477 76 is_stmt 0 view .LVU331
 971 006c 4D7A     		ldrb	r5, [r1, #9]	@ zero_extendqisi2
 972              		.loc 1 477 57 view .LVU332
 973 006e 0EF11802 		add	r2, lr, #24
 974 0072 4FEA021C 		lsl	ip, r2, #4
 975 0076 03EB0212 		add	r2, r3, r2, lsl #4
 976 007a 53F80C40 		ldr	r4, [r3, ip]
 977 007e 65F34104 		bfi	r4, r5, #1, #1
 978 0082 43F80C40 		str	r4, [r3, ip]
 478:libraries/drivers/src/at32f403a_407_can.c ****     /* set up the dlc */
 479:libraries/drivers/src/at32f403a_407_can.c ****     can_x->tx_mailbox[transmit_mailbox].tmc_bit.tmdtbl = (tx_message_struct->dlc & ((uint8_t)0x0F))
 979              		.loc 1 479 5 is_stmt 1 view .LVU333
 980              		.loc 1 479 76 is_stmt 0 view .LVU334
 981 0086 8C7A     		ldrb	r4, [r1, #10]	@ zero_extendqisi2
 982 0088 2546     		mov	r5, r4
 983              		.loc 1 479 56 view .LVU335
 984 008a 5468     		ldr	r4, [r2, #4]
 985 008c 65F30304 		bfi	r4, r5, #0, #4
 986 0090 5460     		str	r4, [r2, #4]
 480:libraries/drivers/src/at32f403a_407_can.c **** 
 481:libraries/drivers/src/at32f403a_407_can.c ****     /* set up the data field */
 482:libraries/drivers/src/at32f403a_407_can.c ****     can_x->tx_mailbox[transmit_mailbox].tmdtl = (((uint32_t)tx_message_struct->data[3] << 24) |
 987              		.loc 1 482 5 is_stmt 1 view .LVU336
 988              		.loc 1 482 84 is_stmt 0 view .LVU337
 989 0092 8C7B     		ldrb	r4, [r1, #14]	@ zero_extendqisi2
 483:libraries/drivers/src/at32f403a_407_can.c ****                                                 ((uint32_t)tx_message_struct->data[2] << 16) |
 990              		.loc 1 483 83 view .LVU338
 991 0094 4A7B     		ldrb	r2, [r1, #13]	@ zero_extendqisi2
 992              		.loc 1 483 87 view .LVU339
 993 0096 1204     		lsls	r2, r2, #16
 482:libraries/drivers/src/at32f403a_407_can.c ****                                                 ((uint32_t)tx_message_struct->data[2] << 16) |
 994              		.loc 1 482 95 view .LVU340
 995 0098 42EA0462 		orr	r2, r2, r4, lsl #24
 484:libraries/drivers/src/at32f403a_407_can.c ****                                                 ((uint32_t)tx_message_struct->data[1] << 8) |
 996              		.loc 1 484 83 view .LVU341
 997 009c 0C7B     		ldrb	r4, [r1, #12]	@ zero_extendqisi2
 483:libraries/drivers/src/at32f403a_407_can.c ****                                                 ((uint32_t)tx_message_struct->data[2] << 16) |
 998              		.loc 1 483 94 view .LVU342
 999 009e 42EA0422 		orr	r2, r2, r4, lsl #8
 485:libraries/drivers/src/at32f403a_407_can.c ****                                                 ((uint32_t)tx_message_struct->data[0]));
 1000              		.loc 1 485 83 view .LVU343
 1001 00a2 CC7A     		ldrb	r4, [r1, #11]	@ zero_extendqisi2
 484:libraries/drivers/src/at32f403a_407_can.c ****                                                 ((uint32_t)tx_message_struct->data[1] << 8) |
 1002              		.loc 1 484 93 view .LVU344
 1003 00a4 2243     		orrs	r2, r2, r4
 482:libraries/drivers/src/at32f403a_407_can.c ****                                                 ((uint32_t)tx_message_struct->data[2] << 16) |
 1004              		.loc 1 482 47 view .LVU345
 1005 00a6 03EB0E1E 		add	lr, r3, lr, lsl #4
 1006 00aa CEF88821 		str	r2, [lr, #392]
ARM GAS  C:\Users\10963\AppData\Local\Temp\ccZn7T5h.s 			page 28


 486:libraries/drivers/src/at32f403a_407_can.c ****     can_x->tx_mailbox[transmit_mailbox].tmdth = (((uint32_t)tx_message_struct->data[7] << 24) |
 1007              		.loc 1 486 5 is_stmt 1 view .LVU346
 1008              		.loc 1 486 84 is_stmt 0 view .LVU347
 1009 00ae 8C7C     		ldrb	r4, [r1, #18]	@ zero_extendqisi2
 487:libraries/drivers/src/at32f403a_407_can.c ****                                                 ((uint32_t)tx_message_struct->data[6] << 16) |
 1010              		.loc 1 487 83 view .LVU348
 1011 00b0 4A7C     		ldrb	r2, [r1, #17]	@ zero_extendqisi2
 1012              		.loc 1 487 87 view .LVU349
 1013 00b2 1204     		lsls	r2, r2, #16
 486:libraries/drivers/src/at32f403a_407_can.c ****     can_x->tx_mailbox[transmit_mailbox].tmdth = (((uint32_t)tx_message_struct->data[7] << 24) |
 1014              		.loc 1 486 95 view .LVU350
 1015 00b4 42EA0462 		orr	r2, r2, r4, lsl #24
 488:libraries/drivers/src/at32f403a_407_can.c ****                                                 ((uint32_t)tx_message_struct->data[5] << 8) |
 1016              		.loc 1 488 83 view .LVU351
 1017 00b8 0C7C     		ldrb	r4, [r1, #16]	@ zero_extendqisi2
 487:libraries/drivers/src/at32f403a_407_can.c ****                                                 ((uint32_t)tx_message_struct->data[6] << 16) |
 1018              		.loc 1 487 94 view .LVU352
 1019 00ba 42EA0422 		orr	r2, r2, r4, lsl #8
 489:libraries/drivers/src/at32f403a_407_can.c ****                                                 ((uint32_t)tx_message_struct->data[4]));
 1020              		.loc 1 489 83 view .LVU353
 1021 00be C97B     		ldrb	r1, [r1, #15]	@ zero_extendqisi2
 1022              	.LVL59:
 488:libraries/drivers/src/at32f403a_407_can.c ****                                                 ((uint32_t)tx_message_struct->data[5] << 8) |
 1023              		.loc 1 488 93 view .LVU354
 1024 00c0 0A43     		orrs	r2, r2, r1
 486:libraries/drivers/src/at32f403a_407_can.c ****                                                 ((uint32_t)tx_message_struct->data[6] << 16) |
 1025              		.loc 1 486 47 view .LVU355
 1026 00c2 CEF88C21 		str	r2, [lr, #396]
 490:libraries/drivers/src/at32f403a_407_can.c **** 
 491:libraries/drivers/src/at32f403a_407_can.c ****     /* request transmission */
 492:libraries/drivers/src/at32f403a_407_can.c ****     can_x->tx_mailbox[transmit_mailbox].tmi_bit.tmsr = TRUE;
 1027              		.loc 1 492 5 is_stmt 1 view .LVU356
 1028              		.loc 1 492 54 is_stmt 0 view .LVU357
 1029 00c6 53F80C20 		ldr	r2, [r3, ip]
 1030 00ca 42F00102 		orr	r2, r2, #1
 1031 00ce 43F80C20 		str	r2, [r3, ip]
 493:libraries/drivers/src/at32f403a_407_can.c ****   }
 494:libraries/drivers/src/at32f403a_407_can.c ****   return transmit_mailbox;
 1032              		.loc 1 494 3 is_stmt 1 view .LVU358
 495:libraries/drivers/src/at32f403a_407_can.c **** }
 1033              		.loc 1 495 1 is_stmt 0 view .LVU359
 1034 00d2 30BD     		pop	{r4, r5, pc}
 1035              	.LVL60:
 1036              	.L55:
 1037              	.LCFI5:
 1038              		.cfi_def_cfa_offset 0
 1039              		.cfi_restore 4
 1040              		.cfi_restore 5
 1041              		.cfi_restore 14
 458:libraries/drivers/src/at32f403a_407_can.c ****   }
 1042              		.loc 1 458 22 view .LVU360
 1043 00d4 0420     		movs	r0, #4
 1044              	.LVL61:
 494:libraries/drivers/src/at32f403a_407_can.c **** }
 1045              		.loc 1 494 3 is_stmt 1 view .LVU361
 1046              		.loc 1 495 1 is_stmt 0 view .LVU362
 1047 00d6 7047     		bx	lr
ARM GAS  C:\Users\10963\AppData\Local\Temp\ccZn7T5h.s 			page 29


 1048              		.cfi_endproc
 1049              	.LFE143:
 1051              		.section	.text.can_transmit_status_get,"ax",%progbits
 1052              		.align	1
 1053              		.global	can_transmit_status_get
 1054              		.syntax unified
 1055              		.thumb
 1056              		.thumb_func
 1058              	can_transmit_status_get:
 1059              	.LVL62:
 1060              	.LFB144:
 496:libraries/drivers/src/at32f403a_407_can.c **** 
 497:libraries/drivers/src/at32f403a_407_can.c **** /**
 498:libraries/drivers/src/at32f403a_407_can.c ****   * @brief  check the transmission state of the specified can peripheral.
 499:libraries/drivers/src/at32f403a_407_can.c ****   * @param  can_x: select the can peripheral.
 500:libraries/drivers/src/at32f403a_407_can.c ****   *         this parameter can be one of the following values:
 501:libraries/drivers/src/at32f403a_407_can.c ****   *         CAN1 or CAN2.
 502:libraries/drivers/src/at32f403a_407_can.c ****   * @param  transmit_mailbox: the number of the mailbox that is used for transmission.
 503:libraries/drivers/src/at32f403a_407_can.c ****   *         this parameter can be one of the following values:
 504:libraries/drivers/src/at32f403a_407_can.c ****   *         - CAN_TX_MAILBOX0
 505:libraries/drivers/src/at32f403a_407_can.c ****   *         - CAN_TX_MAILBOX1
 506:libraries/drivers/src/at32f403a_407_can.c ****   *         - CAN_TX_MAILBOX2
 507:libraries/drivers/src/at32f403a_407_can.c ****   * @retval can transmit status
 508:libraries/drivers/src/at32f403a_407_can.c ****   *         this parameter can be one of the following values:
 509:libraries/drivers/src/at32f403a_407_can.c ****   *         - CAN_TX_STATUS_SUCCESSFUL
 510:libraries/drivers/src/at32f403a_407_can.c ****   *         - CAN_TX_STATUS_FAILED
 511:libraries/drivers/src/at32f403a_407_can.c ****   *         - CAN_TX_STATUS_PENDING
 512:libraries/drivers/src/at32f403a_407_can.c ****   */
 513:libraries/drivers/src/at32f403a_407_can.c **** can_transmit_status_type can_transmit_status_get(can_type* can_x, can_tx_mailbox_num_type transmit_
 514:libraries/drivers/src/at32f403a_407_can.c **** {
 1061              		.loc 1 514 1 is_stmt 1 view -0
 1062              		.cfi_startproc
 1063              		@ args = 0, pretend = 0, frame = 0
 1064              		@ frame_needed = 0, uses_anonymous_args = 0
 1065              		@ link register save eliminated.
 515:libraries/drivers/src/at32f403a_407_can.c ****   can_transmit_status_type state_index = CAN_TX_STATUS_FAILED;
 1066              		.loc 1 515 3 view .LVU364
 516:libraries/drivers/src/at32f403a_407_can.c ****   switch(transmit_mailbox)
 1067              		.loc 1 516 3 view .LVU365
 1068 0000 0129     		cmp	r1, #1
 1069 0002 0CD0     		beq	.L60
 1070 0004 0229     		cmp	r1, #2
 1071 0006 14D0     		beq	.L61
 1072 0008 E9B9     		cbnz	r1, .L63
 517:libraries/drivers/src/at32f403a_407_can.c ****   {
 518:libraries/drivers/src/at32f403a_407_can.c ****     case CAN_TX_MAILBOX0:
 519:libraries/drivers/src/at32f403a_407_can.c ****       if(can_x->tsts_bit.tm0tcf != RESET)
 1073              		.loc 1 519 7 view .LVU366
 1074              		.loc 1 519 25 is_stmt 0 view .LVU367
 1075 000a 8368     		ldr	r3, [r0, #8]
 1076              		.loc 1 519 9 view .LVU368
 1077 000c 13F0010F 		tst	r3, #1
 1078 0010 1BD0     		beq	.L64
 520:libraries/drivers/src/at32f403a_407_can.c ****       {
 521:libraries/drivers/src/at32f403a_407_can.c ****         if(can_x->tsts_bit.tm0tsf != RESET)
 1079              		.loc 1 521 9 is_stmt 1 view .LVU369
 1080              		.loc 1 521 27 is_stmt 0 view .LVU370
ARM GAS  C:\Users\10963\AppData\Local\Temp\ccZn7T5h.s 			page 30


 1081 0012 8368     		ldr	r3, [r0, #8]
 1082              		.loc 1 521 11 view .LVU371
 1083 0014 13F0020F 		tst	r3, #2
 1084 0018 19D0     		beq	.L65
 522:libraries/drivers/src/at32f403a_407_can.c ****         {
 523:libraries/drivers/src/at32f403a_407_can.c ****           state_index = CAN_TX_STATUS_SUCCESSFUL;
 1085              		.loc 1 523 23 view .LVU372
 1086 001a 0120     		movs	r0, #1
 1087              	.LVL63:
 1088              		.loc 1 523 23 view .LVU373
 1089 001c 7047     		bx	lr
 1090              	.LVL64:
 1091              	.L60:
 524:libraries/drivers/src/at32f403a_407_can.c ****         }
 525:libraries/drivers/src/at32f403a_407_can.c ****         else
 526:libraries/drivers/src/at32f403a_407_can.c ****         {
 527:libraries/drivers/src/at32f403a_407_can.c ****           state_index = CAN_TX_STATUS_FAILED;
 528:libraries/drivers/src/at32f403a_407_can.c ****         }
 529:libraries/drivers/src/at32f403a_407_can.c ****       }
 530:libraries/drivers/src/at32f403a_407_can.c ****       else
 531:libraries/drivers/src/at32f403a_407_can.c ****       {
 532:libraries/drivers/src/at32f403a_407_can.c ****         state_index = CAN_TX_STATUS_PENDING;
 533:libraries/drivers/src/at32f403a_407_can.c ****       }
 534:libraries/drivers/src/at32f403a_407_can.c ****       break;
 535:libraries/drivers/src/at32f403a_407_can.c ****     case CAN_TX_MAILBOX1:
 536:libraries/drivers/src/at32f403a_407_can.c ****       if(can_x->tsts_bit.tm1tcf != RESET)
 1092              		.loc 1 536 7 is_stmt 1 view .LVU374
 1093              		.loc 1 536 25 is_stmt 0 view .LVU375
 1094 001e 8368     		ldr	r3, [r0, #8]
 1095              		.loc 1 536 9 view .LVU376
 1096 0020 13F4807F 		tst	r3, #256
 1097 0024 15D0     		beq	.L66
 537:libraries/drivers/src/at32f403a_407_can.c ****       {
 538:libraries/drivers/src/at32f403a_407_can.c ****         if(can_x->tsts_bit.tm1tsf != RESET)
 1098              		.loc 1 538 9 is_stmt 1 view .LVU377
 1099              		.loc 1 538 27 is_stmt 0 view .LVU378
 1100 0026 8368     		ldr	r3, [r0, #8]
 1101              		.loc 1 538 11 view .LVU379
 1102 0028 13F4007F 		tst	r3, #512
 1103 002c 13D0     		beq	.L67
 539:libraries/drivers/src/at32f403a_407_can.c ****         {
 540:libraries/drivers/src/at32f403a_407_can.c ****           state_index = CAN_TX_STATUS_SUCCESSFUL;
 1104              		.loc 1 540 23 view .LVU380
 1105 002e 0846     		mov	r0, r1
 1106              	.LVL65:
 1107              		.loc 1 540 23 view .LVU381
 1108 0030 7047     		bx	lr
 1109              	.LVL66:
 1110              	.L61:
 541:libraries/drivers/src/at32f403a_407_can.c ****         }
 542:libraries/drivers/src/at32f403a_407_can.c ****         else
 543:libraries/drivers/src/at32f403a_407_can.c ****         {
 544:libraries/drivers/src/at32f403a_407_can.c ****           state_index = CAN_TX_STATUS_FAILED;
 545:libraries/drivers/src/at32f403a_407_can.c ****         }
 546:libraries/drivers/src/at32f403a_407_can.c ****       }
 547:libraries/drivers/src/at32f403a_407_can.c ****       else
 548:libraries/drivers/src/at32f403a_407_can.c ****       {
ARM GAS  C:\Users\10963\AppData\Local\Temp\ccZn7T5h.s 			page 31


 549:libraries/drivers/src/at32f403a_407_can.c ****         state_index = CAN_TX_STATUS_PENDING;
 550:libraries/drivers/src/at32f403a_407_can.c ****       }
 551:libraries/drivers/src/at32f403a_407_can.c ****       break;
 552:libraries/drivers/src/at32f403a_407_can.c ****     case CAN_TX_MAILBOX2:
 553:libraries/drivers/src/at32f403a_407_can.c ****       if(can_x->tsts_bit.tm2tcf != RESET)
 1111              		.loc 1 553 7 is_stmt 1 view .LVU382
 1112              		.loc 1 553 25 is_stmt 0 view .LVU383
 1113 0032 8368     		ldr	r3, [r0, #8]
 1114              		.loc 1 553 9 view .LVU384
 1115 0034 13F4803F 		tst	r3, #65536
 1116 0038 0FD0     		beq	.L68
 554:libraries/drivers/src/at32f403a_407_can.c ****       {
 555:libraries/drivers/src/at32f403a_407_can.c ****         if(can_x->tsts_bit.tm2tsf != RESET)
 1117              		.loc 1 555 9 is_stmt 1 view .LVU385
 1118              		.loc 1 555 27 is_stmt 0 view .LVU386
 1119 003a 8368     		ldr	r3, [r0, #8]
 1120              		.loc 1 555 11 view .LVU387
 1121 003c 13F4003F 		tst	r3, #131072
 1122 0040 0DD0     		beq	.L69
 556:libraries/drivers/src/at32f403a_407_can.c ****         {
 557:libraries/drivers/src/at32f403a_407_can.c ****           state_index = CAN_TX_STATUS_SUCCESSFUL;
 1123              		.loc 1 557 23 view .LVU388
 1124 0042 0120     		movs	r0, #1
 1125              	.LVL67:
 1126              		.loc 1 557 23 view .LVU389
 1127 0044 7047     		bx	lr
 1128              	.LVL68:
 1129              	.L63:
 516:libraries/drivers/src/at32f403a_407_can.c ****   {
 1130              		.loc 1 516 3 view .LVU390
 1131 0046 0020     		movs	r0, #0
 1132              	.LVL69:
 516:libraries/drivers/src/at32f403a_407_can.c ****   {
 1133              		.loc 1 516 3 view .LVU391
 1134 0048 7047     		bx	lr
 1135              	.LVL70:
 1136              	.L64:
 532:libraries/drivers/src/at32f403a_407_can.c ****       }
 1137              		.loc 1 532 21 view .LVU392
 1138 004a 0220     		movs	r0, #2
 1139              	.LVL71:
 532:libraries/drivers/src/at32f403a_407_can.c ****       }
 1140              		.loc 1 532 21 view .LVU393
 1141 004c 7047     		bx	lr
 1142              	.LVL72:
 1143              	.L65:
 527:libraries/drivers/src/at32f403a_407_can.c ****         }
 1144              		.loc 1 527 23 view .LVU394
 1145 004e 0846     		mov	r0, r1
 1146              	.LVL73:
 527:libraries/drivers/src/at32f403a_407_can.c ****         }
 1147              		.loc 1 527 23 view .LVU395
 1148 0050 7047     		bx	lr
 1149              	.LVL74:
 1150              	.L66:
 549:libraries/drivers/src/at32f403a_407_can.c ****       }
 1151              		.loc 1 549 21 view .LVU396
ARM GAS  C:\Users\10963\AppData\Local\Temp\ccZn7T5h.s 			page 32


 1152 0052 0220     		movs	r0, #2
 1153              	.LVL75:
 549:libraries/drivers/src/at32f403a_407_can.c ****       }
 1154              		.loc 1 549 21 view .LVU397
 1155 0054 7047     		bx	lr
 1156              	.LVL76:
 1157              	.L67:
 544:libraries/drivers/src/at32f403a_407_can.c ****         }
 1158              		.loc 1 544 23 view .LVU398
 1159 0056 0020     		movs	r0, #0
 1160              	.LVL77:
 544:libraries/drivers/src/at32f403a_407_can.c ****         }
 1161              		.loc 1 544 23 view .LVU399
 1162 0058 7047     		bx	lr
 1163              	.LVL78:
 1164              	.L68:
 558:libraries/drivers/src/at32f403a_407_can.c ****         }
 559:libraries/drivers/src/at32f403a_407_can.c ****         else
 560:libraries/drivers/src/at32f403a_407_can.c ****         {
 561:libraries/drivers/src/at32f403a_407_can.c ****           state_index = CAN_TX_STATUS_FAILED;
 562:libraries/drivers/src/at32f403a_407_can.c ****         }
 563:libraries/drivers/src/at32f403a_407_can.c ****       }
 564:libraries/drivers/src/at32f403a_407_can.c ****       else
 565:libraries/drivers/src/at32f403a_407_can.c ****       {
 566:libraries/drivers/src/at32f403a_407_can.c ****         state_index = CAN_TX_STATUS_PENDING;
 1165              		.loc 1 566 21 view .LVU400
 1166 005a 0846     		mov	r0, r1
 1167              	.LVL79:
 1168              		.loc 1 566 21 view .LVU401
 1169 005c 7047     		bx	lr
 1170              	.LVL80:
 1171              	.L69:
 561:libraries/drivers/src/at32f403a_407_can.c ****         }
 1172              		.loc 1 561 23 view .LVU402
 1173 005e 0020     		movs	r0, #0
 1174              	.LVL81:
 567:libraries/drivers/src/at32f403a_407_can.c ****       }
 568:libraries/drivers/src/at32f403a_407_can.c ****       break;
 569:libraries/drivers/src/at32f403a_407_can.c ****     default:
 570:libraries/drivers/src/at32f403a_407_can.c ****       state_index = CAN_TX_STATUS_FAILED;
 571:libraries/drivers/src/at32f403a_407_can.c ****       break;
 572:libraries/drivers/src/at32f403a_407_can.c ****   }
 573:libraries/drivers/src/at32f403a_407_can.c ****   return state_index;
 1175              		.loc 1 573 3 is_stmt 1 view .LVU403
 574:libraries/drivers/src/at32f403a_407_can.c **** }
 1176              		.loc 1 574 1 is_stmt 0 view .LVU404
 1177 0060 7047     		bx	lr
 1178              		.cfi_endproc
 1179              	.LFE144:
 1181              		.section	.text.can_transmit_cancel,"ax",%progbits
 1182              		.align	1
 1183              		.global	can_transmit_cancel
 1184              		.syntax unified
 1185              		.thumb
 1186              		.thumb_func
 1188              	can_transmit_cancel:
 1189              	.LVL82:
ARM GAS  C:\Users\10963\AppData\Local\Temp\ccZn7T5h.s 			page 33


 1190              	.LFB145:
 575:libraries/drivers/src/at32f403a_407_can.c **** 
 576:libraries/drivers/src/at32f403a_407_can.c **** /**
 577:libraries/drivers/src/at32f403a_407_can.c ****   * @brief  cancel a transmit request of the specified can peripheral.
 578:libraries/drivers/src/at32f403a_407_can.c ****   * @param  can_x: select the can peripheral.
 579:libraries/drivers/src/at32f403a_407_can.c ****   *         this parameter can be one of the following values:
 580:libraries/drivers/src/at32f403a_407_can.c ****   *         CAN1 or CAN2.
 581:libraries/drivers/src/at32f403a_407_can.c ****   * @param  mailbox:  mailbox number.
 582:libraries/drivers/src/at32f403a_407_can.c ****   *         this parameter can be one of the following values:
 583:libraries/drivers/src/at32f403a_407_can.c ****   *         - CAN_TX_MAILBOX0
 584:libraries/drivers/src/at32f403a_407_can.c ****   *         - CAN_TX_MAILBOX1
 585:libraries/drivers/src/at32f403a_407_can.c ****   *         - CAN_TX_MAILBOX2
 586:libraries/drivers/src/at32f403a_407_can.c ****   * @retval none.
 587:libraries/drivers/src/at32f403a_407_can.c ****   */
 588:libraries/drivers/src/at32f403a_407_can.c **** void can_transmit_cancel(can_type* can_x, can_tx_mailbox_num_type transmit_mailbox)
 589:libraries/drivers/src/at32f403a_407_can.c **** {
 1191              		.loc 1 589 1 is_stmt 1 view -0
 1192              		.cfi_startproc
 1193              		@ args = 0, pretend = 0, frame = 0
 1194              		@ frame_needed = 0, uses_anonymous_args = 0
 1195              		@ link register save eliminated.
 590:libraries/drivers/src/at32f403a_407_can.c ****   uint32_t transmit_cancel_bit = 0;
 1196              		.loc 1 590 3 view .LVU406
 591:libraries/drivers/src/at32f403a_407_can.c ****   transmit_cancel_bit = can_x->tsts & (CAN_TSTS_TM0CT_VAL | CAN_TSTS_TM1CT_VAL | CAN_TSTS_TM2CT_VAL
 1197              		.loc 1 591 3 view .LVU407
 1198              		.loc 1 591 30 is_stmt 0 view .LVU408
 1199 0000 8368     		ldr	r3, [r0, #8]
 1200              		.loc 1 591 23 view .LVU409
 1201 0002 03F08033 		and	r3, r3, #-2139062144
 1202 0006 23F00043 		bic	r3, r3, #-2147483648
 1203              	.LVL83:
 592:libraries/drivers/src/at32f403a_407_can.c ****   switch (transmit_mailbox)
 1204              		.loc 1 592 3 is_stmt 1 view .LVU410
 1205 000a 0129     		cmp	r1, #1
 1206 000c 06D0     		beq	.L71
 1207 000e 0229     		cmp	r1, #2
 1208 0010 08D0     		beq	.L72
 1209 0012 51B9     		cbnz	r1, .L70
 593:libraries/drivers/src/at32f403a_407_can.c ****   {
 594:libraries/drivers/src/at32f403a_407_can.c ****     case CAN_TX_MAILBOX0:
 595:libraries/drivers/src/at32f403a_407_can.c ****       can_x->tsts = transmit_cancel_bit | CAN_TSTS_TM0CT_VAL;
 1210              		.loc 1 595 7 view .LVU411
 1211              		.loc 1 595 41 is_stmt 0 view .LVU412
 1212 0014 43F08003 		orr	r3, r3, #128
 1213              	.LVL84:
 1214              		.loc 1 595 19 view .LVU413
 1215 0018 8360     		str	r3, [r0, #8]
 596:libraries/drivers/src/at32f403a_407_can.c ****       break;
 1216              		.loc 1 596 7 is_stmt 1 view .LVU414
 1217 001a 7047     		bx	lr
 1218              	.LVL85:
 1219              	.L71:
 597:libraries/drivers/src/at32f403a_407_can.c ****     case CAN_TX_MAILBOX1:
 598:libraries/drivers/src/at32f403a_407_can.c ****       can_x->tsts = transmit_cancel_bit | CAN_TSTS_TM1CT_VAL;
 1220              		.loc 1 598 7 view .LVU415
 1221              		.loc 1 598 41 is_stmt 0 view .LVU416
 1222 001c 43F40043 		orr	r3, r3, #32768
ARM GAS  C:\Users\10963\AppData\Local\Temp\ccZn7T5h.s 			page 34


 1223              	.LVL86:
 1224              		.loc 1 598 19 view .LVU417
 1225 0020 8360     		str	r3, [r0, #8]
 599:libraries/drivers/src/at32f403a_407_can.c ****       break;
 1226              		.loc 1 599 7 is_stmt 1 view .LVU418
 1227 0022 7047     		bx	lr
 1228              	.LVL87:
 1229              	.L72:
 600:libraries/drivers/src/at32f403a_407_can.c ****     case CAN_TX_MAILBOX2:
 601:libraries/drivers/src/at32f403a_407_can.c ****       can_x->tsts = transmit_cancel_bit | CAN_TSTS_TM2CT_VAL;
 1230              		.loc 1 601 7 view .LVU419
 1231              		.loc 1 601 41 is_stmt 0 view .LVU420
 1232 0024 43F40003 		orr	r3, r3, #8388608
 1233              	.LVL88:
 1234              		.loc 1 601 19 view .LVU421
 1235 0028 8360     		str	r3, [r0, #8]
 602:libraries/drivers/src/at32f403a_407_can.c ****       break;
 1236              		.loc 1 602 7 is_stmt 1 view .LVU422
 1237              	.L70:
 603:libraries/drivers/src/at32f403a_407_can.c ****     default:
 604:libraries/drivers/src/at32f403a_407_can.c ****       break;
 605:libraries/drivers/src/at32f403a_407_can.c ****   }
 606:libraries/drivers/src/at32f403a_407_can.c **** }
 1238              		.loc 1 606 1 is_stmt 0 view .LVU423
 1239 002a 7047     		bx	lr
 1240              		.cfi_endproc
 1241              	.LFE145:
 1243              		.section	.text.can_receive_fifo_release,"ax",%progbits
 1244              		.align	1
 1245              		.global	can_receive_fifo_release
 1246              		.syntax unified
 1247              		.thumb
 1248              		.thumb_func
 1250              	can_receive_fifo_release:
 1251              	.LVL89:
 1252              	.LFB147:
 607:libraries/drivers/src/at32f403a_407_can.c **** 
 608:libraries/drivers/src/at32f403a_407_can.c **** /**
 609:libraries/drivers/src/at32f403a_407_can.c ****   * @brief  receive message of the specified can peripheral.
 610:libraries/drivers/src/at32f403a_407_can.c ****   * @param  can_x: select the can peripheral.
 611:libraries/drivers/src/at32f403a_407_can.c ****   *         this parameter can be one of the following values:
 612:libraries/drivers/src/at32f403a_407_can.c ****   *         CAN1,CAN2.
 613:libraries/drivers/src/at32f403a_407_can.c ****   * @param  fifo_number: receive fifo number.
 614:libraries/drivers/src/at32f403a_407_can.c ****   *         this parameter can be one of the following values:
 615:libraries/drivers/src/at32f403a_407_can.c ****   *         - CAN_RX_FIFO0
 616:libraries/drivers/src/at32f403a_407_can.c ****   *         - CAN_RX_FIFO1
 617:libraries/drivers/src/at32f403a_407_can.c ****   * @param  rx_message_struct: pointer to a structure which store the receive message.
 618:libraries/drivers/src/at32f403a_407_can.c ****   * @retval none.
 619:libraries/drivers/src/at32f403a_407_can.c ****   */
 620:libraries/drivers/src/at32f403a_407_can.c **** void can_message_receive(can_type* can_x, can_rx_fifo_num_type fifo_number, can_rx_message_type* rx
 621:libraries/drivers/src/at32f403a_407_can.c **** {
 622:libraries/drivers/src/at32f403a_407_can.c ****   /* get the id type */
 623:libraries/drivers/src/at32f403a_407_can.c ****   rx_message_struct->id_type = (can_identifier_type)can_x->fifo_mailbox[fifo_number].rfi_bit.rfidi;
 624:libraries/drivers/src/at32f403a_407_can.c ****   switch (rx_message_struct->id_type)
 625:libraries/drivers/src/at32f403a_407_can.c ****   {
 626:libraries/drivers/src/at32f403a_407_can.c ****     case CAN_ID_STANDARD:
 627:libraries/drivers/src/at32f403a_407_can.c ****       rx_message_struct->standard_id = can_x->fifo_mailbox[fifo_number].rfi_bit.rfsid;
ARM GAS  C:\Users\10963\AppData\Local\Temp\ccZn7T5h.s 			page 35


 628:libraries/drivers/src/at32f403a_407_can.c ****       break;
 629:libraries/drivers/src/at32f403a_407_can.c ****     case CAN_ID_EXTENDED:
 630:libraries/drivers/src/at32f403a_407_can.c ****       rx_message_struct->extended_id = 0x1FFFFFFF & (can_x->fifo_mailbox[fifo_number].rfi >> 3);
 631:libraries/drivers/src/at32f403a_407_can.c ****       break;
 632:libraries/drivers/src/at32f403a_407_can.c ****     default:
 633:libraries/drivers/src/at32f403a_407_can.c ****       break;
 634:libraries/drivers/src/at32f403a_407_can.c ****   }
 635:libraries/drivers/src/at32f403a_407_can.c ****   rx_message_struct->frame_type = (can_trans_frame_type)can_x->fifo_mailbox[fifo_number].rfi_bit.rf
 636:libraries/drivers/src/at32f403a_407_can.c ****   /* get the dlc */
 637:libraries/drivers/src/at32f403a_407_can.c ****   rx_message_struct->dlc = can_x->fifo_mailbox[fifo_number].rfc_bit.rfdtl;
 638:libraries/drivers/src/at32f403a_407_can.c **** 
 639:libraries/drivers/src/at32f403a_407_can.c ****   /* get the filter match number */
 640:libraries/drivers/src/at32f403a_407_can.c ****   rx_message_struct->filter_index = can_x->fifo_mailbox[fifo_number].rfc_bit.rffmn;
 641:libraries/drivers/src/at32f403a_407_can.c **** 
 642:libraries/drivers/src/at32f403a_407_can.c ****   /* get the data field */
 643:libraries/drivers/src/at32f403a_407_can.c ****   rx_message_struct->data[0] = can_x->fifo_mailbox[fifo_number].rfdtl_bit.rfdt0;
 644:libraries/drivers/src/at32f403a_407_can.c ****   rx_message_struct->data[1] = can_x->fifo_mailbox[fifo_number].rfdtl_bit.rfdt1;
 645:libraries/drivers/src/at32f403a_407_can.c ****   rx_message_struct->data[2] = can_x->fifo_mailbox[fifo_number].rfdtl_bit.rfdt2;
 646:libraries/drivers/src/at32f403a_407_can.c ****   rx_message_struct->data[3] = can_x->fifo_mailbox[fifo_number].rfdtl_bit.rfdt3;
 647:libraries/drivers/src/at32f403a_407_can.c ****   rx_message_struct->data[4] = can_x->fifo_mailbox[fifo_number].rfdth_bit.rfdt4;
 648:libraries/drivers/src/at32f403a_407_can.c ****   rx_message_struct->data[5] = can_x->fifo_mailbox[fifo_number].rfdth_bit.rfdt5;
 649:libraries/drivers/src/at32f403a_407_can.c ****   rx_message_struct->data[6] = can_x->fifo_mailbox[fifo_number].rfdth_bit.rfdt6;
 650:libraries/drivers/src/at32f403a_407_can.c ****   rx_message_struct->data[7] = can_x->fifo_mailbox[fifo_number].rfdth_bit.rfdt7;
 651:libraries/drivers/src/at32f403a_407_can.c **** 
 652:libraries/drivers/src/at32f403a_407_can.c ****   /* release the fifo */
 653:libraries/drivers/src/at32f403a_407_can.c ****   can_receive_fifo_release(can_x, fifo_number);
 654:libraries/drivers/src/at32f403a_407_can.c **** }
 655:libraries/drivers/src/at32f403a_407_can.c **** 
 656:libraries/drivers/src/at32f403a_407_can.c **** /**
 657:libraries/drivers/src/at32f403a_407_can.c ****   * @brief  release the specified fifo of the specified can peripheral.
 658:libraries/drivers/src/at32f403a_407_can.c ****   * @param  can_x: select the can peripheral.
 659:libraries/drivers/src/at32f403a_407_can.c ****   *         this parameter can be one of the following values:
 660:libraries/drivers/src/at32f403a_407_can.c ****   *         CAN1,CAN2.
 661:libraries/drivers/src/at32f403a_407_can.c ****   * @param  fifo_number: fifo to be release.
 662:libraries/drivers/src/at32f403a_407_can.c ****   *         this parameter can be one of the following values:
 663:libraries/drivers/src/at32f403a_407_can.c ****   *         - CAN_RX_FIFO0
 664:libraries/drivers/src/at32f403a_407_can.c ****   *         - CAN_RX_FIFO1
 665:libraries/drivers/src/at32f403a_407_can.c ****   * @retval none.
 666:libraries/drivers/src/at32f403a_407_can.c ****   */
 667:libraries/drivers/src/at32f403a_407_can.c **** void can_receive_fifo_release(can_type* can_x, can_rx_fifo_num_type fifo_number)
 668:libraries/drivers/src/at32f403a_407_can.c **** {
 1253              		.loc 1 668 1 is_stmt 1 view -0
 1254              		.cfi_startproc
 1255              		@ args = 0, pretend = 0, frame = 0
 1256              		@ frame_needed = 0, uses_anonymous_args = 0
 1257              		@ link register save eliminated.
 669:libraries/drivers/src/at32f403a_407_can.c ****   switch (fifo_number)
 1258              		.loc 1 669 3 view .LVU425
 1259 0000 11B1     		cbz	r1, .L75
 1260 0002 0129     		cmp	r1, #1
 1261 0004 03D0     		beq	.L76
 1262 0006 7047     		bx	lr
 1263              	.L75:
 670:libraries/drivers/src/at32f403a_407_can.c ****   {
 671:libraries/drivers/src/at32f403a_407_can.c ****     case CAN_RX_FIFO0:
 672:libraries/drivers/src/at32f403a_407_can.c ****       can_x->rf0 = CAN_RF0_RF0R_VAL;
 1264              		.loc 1 672 7 view .LVU426
ARM GAS  C:\Users\10963\AppData\Local\Temp\ccZn7T5h.s 			page 36


 1265              		.loc 1 672 18 is_stmt 0 view .LVU427
 1266 0008 2023     		movs	r3, #32
 1267 000a C360     		str	r3, [r0, #12]
 673:libraries/drivers/src/at32f403a_407_can.c ****       break;
 1268              		.loc 1 673 7 is_stmt 1 view .LVU428
 1269 000c 7047     		bx	lr
 1270              	.L76:
 674:libraries/drivers/src/at32f403a_407_can.c ****     case CAN_RX_FIFO1:
 675:libraries/drivers/src/at32f403a_407_can.c ****       can_x->rf1 = CAN_RF1_RF1R_VAL;
 1271              		.loc 1 675 7 view .LVU429
 1272              		.loc 1 675 18 is_stmt 0 view .LVU430
 1273 000e 2023     		movs	r3, #32
 1274 0010 0361     		str	r3, [r0, #16]
 676:libraries/drivers/src/at32f403a_407_can.c ****       break;
 1275              		.loc 1 676 7 is_stmt 1 view .LVU431
 677:libraries/drivers/src/at32f403a_407_can.c ****     default:
 678:libraries/drivers/src/at32f403a_407_can.c ****       break;
 679:libraries/drivers/src/at32f403a_407_can.c ****   }
 680:libraries/drivers/src/at32f403a_407_can.c **** }
 1276              		.loc 1 680 1 is_stmt 0 view .LVU432
 1277 0012 7047     		bx	lr
 1278              		.cfi_endproc
 1279              	.LFE147:
 1281              		.section	.text.can_message_receive,"ax",%progbits
 1282              		.align	1
 1283              		.global	can_message_receive
 1284              		.syntax unified
 1285              		.thumb
 1286              		.thumb_func
 1288              	can_message_receive:
 1289              	.LVL90:
 1290              	.LFB146:
 621:libraries/drivers/src/at32f403a_407_can.c ****   /* get the id type */
 1291              		.loc 1 621 1 is_stmt 1 view -0
 1292              		.cfi_startproc
 1293              		@ args = 0, pretend = 0, frame = 0
 1294              		@ frame_needed = 0, uses_anonymous_args = 0
 621:libraries/drivers/src/at32f403a_407_can.c ****   /* get the id type */
 1295              		.loc 1 621 1 is_stmt 0 view .LVU434
 1296 0000 08B5     		push	{r3, lr}
 1297              	.LCFI6:
 1298              		.cfi_def_cfa_offset 8
 1299              		.cfi_offset 3, -8
 1300              		.cfi_offset 14, -4
 623:libraries/drivers/src/at32f403a_407_can.c ****   switch (rx_message_struct->id_type)
 1301              		.loc 1 623 3 is_stmt 1 view .LVU435
 623:libraries/drivers/src/at32f403a_407_can.c ****   switch (rx_message_struct->id_type)
 1302              		.loc 1 623 93 is_stmt 0 view .LVU436
 1303 0002 01F11B03 		add	r3, r1, #27
 1304 0006 1B01     		lsls	r3, r3, #4
 1305 0008 C358     		ldr	r3, [r0, r3]
 1306 000a C3F3800C 		ubfx	ip, r3, #2, #1
 623:libraries/drivers/src/at32f403a_407_can.c ****   switch (rx_message_struct->id_type)
 1307              		.loc 1 623 30 view .LVU437
 1308 000e 82F808C0 		strb	ip, [r2, #8]
 624:libraries/drivers/src/at32f403a_407_can.c ****   {
 1309              		.loc 1 624 3 is_stmt 1 view .LVU438
ARM GAS  C:\Users\10963\AppData\Local\Temp\ccZn7T5h.s 			page 37


 1310 0012 13F0040F 		tst	r3, #4
 1311 0016 09D0     		beq	.L79
 1312 0018 BCF1000F 		cmp	ip, #0
 1313 001c 0CD0     		beq	.L81
 630:libraries/drivers/src/at32f403a_407_can.c ****       break;
 1314              		.loc 1 630 7 view .LVU439
 630:libraries/drivers/src/at32f403a_407_can.c ****       break;
 1315              		.loc 1 630 86 is_stmt 0 view .LVU440
 1316 001e 01F11B03 		add	r3, r1, #27
 1317 0022 1B01     		lsls	r3, r3, #4
 1318 0024 C358     		ldr	r3, [r0, r3]
 630:libraries/drivers/src/at32f403a_407_can.c ****       break;
 1319              		.loc 1 630 91 view .LVU441
 1320 0026 DB08     		lsrs	r3, r3, #3
 630:libraries/drivers/src/at32f403a_407_can.c ****       break;
 1321              		.loc 1 630 38 view .LVU442
 1322 0028 5360     		str	r3, [r2, #4]
 631:libraries/drivers/src/at32f403a_407_can.c ****     default:
 1323              		.loc 1 631 7 is_stmt 1 view .LVU443
 1324 002a 05E0     		b	.L81
 1325              	.L79:
 627:libraries/drivers/src/at32f403a_407_can.c ****       break;
 1326              		.loc 1 627 7 view .LVU444
 627:libraries/drivers/src/at32f403a_407_can.c ****       break;
 1327              		.loc 1 627 80 is_stmt 0 view .LVU445
 1328 002c 01F11B03 		add	r3, r1, #27
 1329 0030 1B01     		lsls	r3, r3, #4
 1330 0032 C358     		ldr	r3, [r0, r3]
 1331 0034 5B0D     		lsrs	r3, r3, #21
 627:libraries/drivers/src/at32f403a_407_can.c ****       break;
 1332              		.loc 1 627 38 view .LVU446
 1333 0036 1360     		str	r3, [r2]
 628:libraries/drivers/src/at32f403a_407_can.c ****     case CAN_ID_EXTENDED:
 1334              		.loc 1 628 7 is_stmt 1 view .LVU447
 1335              	.L81:
 635:libraries/drivers/src/at32f403a_407_can.c ****   /* get the dlc */
 1336              		.loc 1 635 3 view .LVU448
 635:libraries/drivers/src/at32f403a_407_can.c ****   /* get the dlc */
 1337              		.loc 1 635 97 is_stmt 0 view .LVU449
 1338 0038 01F11B03 		add	r3, r1, #27
 1339 003c 4FEA031C 		lsl	ip, r3, #4
 1340 0040 00EB0313 		add	r3, r0, r3, lsl #4
 1341 0044 50F80CC0 		ldr	ip, [r0, ip]
 1342 0048 CCF3400C 		ubfx	ip, ip, #1, #1
 635:libraries/drivers/src/at32f403a_407_can.c ****   /* get the dlc */
 1343              		.loc 1 635 33 view .LVU450
 1344 004c 82F809C0 		strb	ip, [r2, #9]
 637:libraries/drivers/src/at32f403a_407_can.c **** 
 1345              		.loc 1 637 3 is_stmt 1 view .LVU451
 637:libraries/drivers/src/at32f403a_407_can.c **** 
 1346              		.loc 1 637 68 is_stmt 0 view .LVU452
 1347 0050 D3F804C0 		ldr	ip, [r3, #4]
 1348 0054 CCF3030C 		ubfx	ip, ip, #0, #4
 637:libraries/drivers/src/at32f403a_407_can.c **** 
 1349              		.loc 1 637 26 view .LVU453
 1350 0058 82F80AC0 		strb	ip, [r2, #10]
 640:libraries/drivers/src/at32f403a_407_can.c **** 
ARM GAS  C:\Users\10963\AppData\Local\Temp\ccZn7T5h.s 			page 38


 1351              		.loc 1 640 3 is_stmt 1 view .LVU454
 640:libraries/drivers/src/at32f403a_407_can.c **** 
 1352              		.loc 1 640 77 is_stmt 0 view .LVU455
 1353 005c 5B68     		ldr	r3, [r3, #4]
 1354 005e C3F30723 		ubfx	r3, r3, #8, #8
 640:libraries/drivers/src/at32f403a_407_can.c **** 
 1355              		.loc 1 640 35 view .LVU456
 1356 0062 D374     		strb	r3, [r2, #19]
 643:libraries/drivers/src/at32f403a_407_can.c ****   rx_message_struct->data[1] = can_x->fifo_mailbox[fifo_number].rfdtl_bit.rfdt1;
 1357              		.loc 1 643 3 is_stmt 1 view .LVU457
 643:libraries/drivers/src/at32f403a_407_can.c ****   rx_message_struct->data[1] = can_x->fifo_mailbox[fifo_number].rfdtl_bit.rfdt1;
 1358              		.loc 1 643 74 is_stmt 0 view .LVU458
 1359 0064 00EB0113 		add	r3, r0, r1, lsl #4
 1360 0068 03F5DC7C 		add	ip, r3, #440
 1361 006c D3F8B8E1 		ldr	lr, [r3, #440]
 643:libraries/drivers/src/at32f403a_407_can.c ****   rx_message_struct->data[1] = can_x->fifo_mailbox[fifo_number].rfdtl_bit.rfdt1;
 1362              		.loc 1 643 30 view .LVU459
 1363 0070 82F80BE0 		strb	lr, [r2, #11]
 644:libraries/drivers/src/at32f403a_407_can.c ****   rx_message_struct->data[2] = can_x->fifo_mailbox[fifo_number].rfdtl_bit.rfdt2;
 1364              		.loc 1 644 3 is_stmt 1 view .LVU460
 644:libraries/drivers/src/at32f403a_407_can.c ****   rx_message_struct->data[2] = can_x->fifo_mailbox[fifo_number].rfdtl_bit.rfdt2;
 1365              		.loc 1 644 74 is_stmt 0 view .LVU461
 1366 0074 D3F8B8E1 		ldr	lr, [r3, #440]
 1367 0078 CEF3072E 		ubfx	lr, lr, #8, #8
 644:libraries/drivers/src/at32f403a_407_can.c ****   rx_message_struct->data[2] = can_x->fifo_mailbox[fifo_number].rfdtl_bit.rfdt2;
 1368              		.loc 1 644 30 view .LVU462
 1369 007c 82F80CE0 		strb	lr, [r2, #12]
 645:libraries/drivers/src/at32f403a_407_can.c ****   rx_message_struct->data[3] = can_x->fifo_mailbox[fifo_number].rfdtl_bit.rfdt3;
 1370              		.loc 1 645 3 is_stmt 1 view .LVU463
 645:libraries/drivers/src/at32f403a_407_can.c ****   rx_message_struct->data[3] = can_x->fifo_mailbox[fifo_number].rfdtl_bit.rfdt3;
 1371              		.loc 1 645 74 is_stmt 0 view .LVU464
 1372 0080 D3F8B8E1 		ldr	lr, [r3, #440]
 1373 0084 CEF3074E 		ubfx	lr, lr, #16, #8
 645:libraries/drivers/src/at32f403a_407_can.c ****   rx_message_struct->data[3] = can_x->fifo_mailbox[fifo_number].rfdtl_bit.rfdt3;
 1374              		.loc 1 645 30 view .LVU465
 1375 0088 82F80DE0 		strb	lr, [r2, #13]
 646:libraries/drivers/src/at32f403a_407_can.c ****   rx_message_struct->data[4] = can_x->fifo_mailbox[fifo_number].rfdth_bit.rfdt4;
 1376              		.loc 1 646 3 is_stmt 1 view .LVU466
 646:libraries/drivers/src/at32f403a_407_can.c ****   rx_message_struct->data[4] = can_x->fifo_mailbox[fifo_number].rfdth_bit.rfdt4;
 1377              		.loc 1 646 74 is_stmt 0 view .LVU467
 1378 008c D3F8B831 		ldr	r3, [r3, #440]
 1379 0090 C3F30763 		ubfx	r3, r3, #24, #8
 646:libraries/drivers/src/at32f403a_407_can.c ****   rx_message_struct->data[4] = can_x->fifo_mailbox[fifo_number].rfdth_bit.rfdt4;
 1380              		.loc 1 646 30 view .LVU468
 1381 0094 9373     		strb	r3, [r2, #14]
 647:libraries/drivers/src/at32f403a_407_can.c ****   rx_message_struct->data[5] = can_x->fifo_mailbox[fifo_number].rfdth_bit.rfdt5;
 1382              		.loc 1 647 3 is_stmt 1 view .LVU469
 647:libraries/drivers/src/at32f403a_407_can.c ****   rx_message_struct->data[5] = can_x->fifo_mailbox[fifo_number].rfdth_bit.rfdt5;
 1383              		.loc 1 647 74 is_stmt 0 view .LVU470
 1384 0096 DCF80430 		ldr	r3, [ip, #4]
 647:libraries/drivers/src/at32f403a_407_can.c ****   rx_message_struct->data[5] = can_x->fifo_mailbox[fifo_number].rfdth_bit.rfdt5;
 1385              		.loc 1 647 30 view .LVU471
 1386 009a D373     		strb	r3, [r2, #15]
 648:libraries/drivers/src/at32f403a_407_can.c ****   rx_message_struct->data[6] = can_x->fifo_mailbox[fifo_number].rfdth_bit.rfdt6;
 1387              		.loc 1 648 3 is_stmt 1 view .LVU472
 648:libraries/drivers/src/at32f403a_407_can.c ****   rx_message_struct->data[6] = can_x->fifo_mailbox[fifo_number].rfdth_bit.rfdt6;
 1388              		.loc 1 648 74 is_stmt 0 view .LVU473
ARM GAS  C:\Users\10963\AppData\Local\Temp\ccZn7T5h.s 			page 39


 1389 009c DCF80430 		ldr	r3, [ip, #4]
 1390 00a0 C3F30723 		ubfx	r3, r3, #8, #8
 648:libraries/drivers/src/at32f403a_407_can.c ****   rx_message_struct->data[6] = can_x->fifo_mailbox[fifo_number].rfdth_bit.rfdt6;
 1391              		.loc 1 648 30 view .LVU474
 1392 00a4 1374     		strb	r3, [r2, #16]
 649:libraries/drivers/src/at32f403a_407_can.c ****   rx_message_struct->data[7] = can_x->fifo_mailbox[fifo_number].rfdth_bit.rfdt7;
 1393              		.loc 1 649 3 is_stmt 1 view .LVU475
 649:libraries/drivers/src/at32f403a_407_can.c ****   rx_message_struct->data[7] = can_x->fifo_mailbox[fifo_number].rfdth_bit.rfdt7;
 1394              		.loc 1 649 74 is_stmt 0 view .LVU476
 1395 00a6 DCF80430 		ldr	r3, [ip, #4]
 1396 00aa C3F30743 		ubfx	r3, r3, #16, #8
 649:libraries/drivers/src/at32f403a_407_can.c ****   rx_message_struct->data[7] = can_x->fifo_mailbox[fifo_number].rfdth_bit.rfdt7;
 1397              		.loc 1 649 30 view .LVU477
 1398 00ae 5374     		strb	r3, [r2, #17]
 650:libraries/drivers/src/at32f403a_407_can.c **** 
 1399              		.loc 1 650 3 is_stmt 1 view .LVU478
 650:libraries/drivers/src/at32f403a_407_can.c **** 
 1400              		.loc 1 650 74 is_stmt 0 view .LVU479
 1401 00b0 DCF80430 		ldr	r3, [ip, #4]
 1402 00b4 C3F30763 		ubfx	r3, r3, #24, #8
 650:libraries/drivers/src/at32f403a_407_can.c **** 
 1403              		.loc 1 650 30 view .LVU480
 1404 00b8 9374     		strb	r3, [r2, #18]
 653:libraries/drivers/src/at32f403a_407_can.c **** }
 1405              		.loc 1 653 3 is_stmt 1 view .LVU481
 1406 00ba FFF7FEFF 		bl	can_receive_fifo_release
 1407              	.LVL91:
 654:libraries/drivers/src/at32f403a_407_can.c **** 
 1408              		.loc 1 654 1 is_stmt 0 view .LVU482
 1409 00be 08BD     		pop	{r3, pc}
 1410              		.cfi_endproc
 1411              	.LFE146:
 1413              		.section	.text.can_receive_message_pending_get,"ax",%progbits
 1414              		.align	1
 1415              		.global	can_receive_message_pending_get
 1416              		.syntax unified
 1417              		.thumb
 1418              		.thumb_func
 1420              	can_receive_message_pending_get:
 1421              	.LVL92:
 1422              	.LFB148:
 681:libraries/drivers/src/at32f403a_407_can.c **** 
 682:libraries/drivers/src/at32f403a_407_can.c **** /**
 683:libraries/drivers/src/at32f403a_407_can.c ****   * @brief  return the number of pending messages of the specified can peripheral.
 684:libraries/drivers/src/at32f403a_407_can.c ****   * @param  can_x: select the can peripheral.
 685:libraries/drivers/src/at32f403a_407_can.c ****   *         this parameter can be one of the following values:
 686:libraries/drivers/src/at32f403a_407_can.c ****   *         CAN1,CAN2.
 687:libraries/drivers/src/at32f403a_407_can.c ****   * @param  fifo_number: receive fifo number.
 688:libraries/drivers/src/at32f403a_407_can.c ****   *         this parameter can be one of the following values:
 689:libraries/drivers/src/at32f403a_407_can.c ****   *         - CAN_RX_FIFO0
 690:libraries/drivers/src/at32f403a_407_can.c ****   *         - CAN_RX_FIFO1
 691:libraries/drivers/src/at32f403a_407_can.c ****   * @retval the number of message pending in the receive fifo.
 692:libraries/drivers/src/at32f403a_407_can.c ****   */
 693:libraries/drivers/src/at32f403a_407_can.c **** uint8_t can_receive_message_pending_get(can_type* can_x, can_rx_fifo_num_type fifo_number)
 694:libraries/drivers/src/at32f403a_407_can.c **** {
 1423              		.loc 1 694 1 is_stmt 1 view -0
 1424              		.cfi_startproc
ARM GAS  C:\Users\10963\AppData\Local\Temp\ccZn7T5h.s 			page 40


 1425              		@ args = 0, pretend = 0, frame = 0
 1426              		@ frame_needed = 0, uses_anonymous_args = 0
 1427              		@ link register save eliminated.
 695:libraries/drivers/src/at32f403a_407_can.c ****   uint8_t message_pending = 0;
 1428              		.loc 1 695 3 view .LVU484
 696:libraries/drivers/src/at32f403a_407_can.c ****   switch (fifo_number)
 1429              		.loc 1 696 3 view .LVU485
 1430 0000 19B1     		cbz	r1, .L84
 1431 0002 0129     		cmp	r1, #1
 1432 0004 05D0     		beq	.L85
 1433 0006 0020     		movs	r0, #0
 1434              	.LVL93:
 1435              		.loc 1 696 3 is_stmt 0 view .LVU486
 1436 0008 7047     		bx	lr
 1437              	.LVL94:
 1438              	.L84:
 697:libraries/drivers/src/at32f403a_407_can.c ****   {
 698:libraries/drivers/src/at32f403a_407_can.c ****     case CAN_RX_FIFO0:
 699:libraries/drivers/src/at32f403a_407_can.c ****       message_pending = can_x->rf0_bit.rf0mn;
 1439              		.loc 1 699 7 is_stmt 1 view .LVU487
 1440              		.loc 1 699 39 is_stmt 0 view .LVU488
 1441 000a C068     		ldr	r0, [r0, #12]
 1442              	.LVL95:
 1443              		.loc 1 699 39 view .LVU489
 1444 000c 00F00300 		and	r0, r0, #3
 1445              	.LVL96:
 700:libraries/drivers/src/at32f403a_407_can.c ****       break;
 1446              		.loc 1 700 7 is_stmt 1 view .LVU490
 1447 0010 7047     		bx	lr
 1448              	.LVL97:
 1449              	.L85:
 701:libraries/drivers/src/at32f403a_407_can.c ****     case CAN_RX_FIFO1:
 702:libraries/drivers/src/at32f403a_407_can.c ****       message_pending = can_x->rf1_bit.rf1mn;
 1450              		.loc 1 702 7 view .LVU491
 1451              		.loc 1 702 39 is_stmt 0 view .LVU492
 1452 0012 0069     		ldr	r0, [r0, #16]
 1453              	.LVL98:
 1454              		.loc 1 702 39 view .LVU493
 1455 0014 00F00300 		and	r0, r0, #3
 1456              	.LVL99:
 703:libraries/drivers/src/at32f403a_407_can.c ****       break;
 1457              		.loc 1 703 7 is_stmt 1 view .LVU494
 704:libraries/drivers/src/at32f403a_407_can.c ****     default:
 705:libraries/drivers/src/at32f403a_407_can.c ****       break;
 706:libraries/drivers/src/at32f403a_407_can.c ****   }
 707:libraries/drivers/src/at32f403a_407_can.c ****   return message_pending;
 1458              		.loc 1 707 3 view .LVU495
 708:libraries/drivers/src/at32f403a_407_can.c **** }
 1459              		.loc 1 708 1 is_stmt 0 view .LVU496
 1460 0018 7047     		bx	lr
 1461              		.cfi_endproc
 1462              	.LFE148:
 1464              		.section	.text.can_operating_mode_set,"ax",%progbits
 1465              		.align	1
 1466              		.global	can_operating_mode_set
 1467              		.syntax unified
 1468              		.thumb
ARM GAS  C:\Users\10963\AppData\Local\Temp\ccZn7T5h.s 			page 41


 1469              		.thumb_func
 1471              	can_operating_mode_set:
 1472              	.LVL100:
 1473              	.LFB149:
 709:libraries/drivers/src/at32f403a_407_can.c **** 
 710:libraries/drivers/src/at32f403a_407_can.c **** /**
 711:libraries/drivers/src/at32f403a_407_can.c ****   * @brief  set the operation mode of the specified can peripheral.
 712:libraries/drivers/src/at32f403a_407_can.c ****   * @param  can_x: select the can peripheral.
 713:libraries/drivers/src/at32f403a_407_can.c ****   *         this parameter can be one of the following values:
 714:libraries/drivers/src/at32f403a_407_can.c ****   *         CAN1,CAN2.
 715:libraries/drivers/src/at32f403a_407_can.c ****   * @param  can_operating_mode: can operating mode.
 716:libraries/drivers/src/at32f403a_407_can.c ****   *         this parameter can be one of the following values:
 717:libraries/drivers/src/at32f403a_407_can.c ****   *         - CAN_OPERATINGMODE_FREEZE
 718:libraries/drivers/src/at32f403a_407_can.c ****   *         - CAN_OPERATINGMODE_DOZE
 719:libraries/drivers/src/at32f403a_407_can.c ****   *         - CAN_OPERATINGMODE_COMMUNICATE
 720:libraries/drivers/src/at32f403a_407_can.c ****   * @retval status of operation mode set
 721:libraries/drivers/src/at32f403a_407_can.c ****   *         this parameter can be one of the following values:
 722:libraries/drivers/src/at32f403a_407_can.c ****   *         SUCCESS or ERROR
 723:libraries/drivers/src/at32f403a_407_can.c ****   */
 724:libraries/drivers/src/at32f403a_407_can.c **** error_status can_operating_mode_set(can_type* can_x, can_operating_mode_type can_operating_mode)
 725:libraries/drivers/src/at32f403a_407_can.c **** {
 1474              		.loc 1 725 1 is_stmt 1 view -0
 1475              		.cfi_startproc
 1476              		@ args = 0, pretend = 0, frame = 0
 1477              		@ frame_needed = 0, uses_anonymous_args = 0
 1478              		@ link register save eliminated.
 726:libraries/drivers/src/at32f403a_407_can.c ****   error_status status = ERROR;
 1479              		.loc 1 726 3 view .LVU498
 727:libraries/drivers/src/at32f403a_407_can.c ****   uint32_t time_out_index = FZC_TIMEOUT;
 1480              		.loc 1 727 3 view .LVU499
 728:libraries/drivers/src/at32f403a_407_can.c **** 
 729:libraries/drivers/src/at32f403a_407_can.c ****   if (can_operating_mode == CAN_OPERATINGMODE_FREEZE)
 1481              		.loc 1 729 3 view .LVU500
 1482              		.loc 1 729 6 is_stmt 0 view .LVU501
 1483 0000 8C46     		mov	ip, r1
 1484 0002 F1B9     		cbnz	r1, .L88
 730:libraries/drivers/src/at32f403a_407_can.c ****   {
 731:libraries/drivers/src/at32f403a_407_can.c ****     /* request enter freeze mode */
 732:libraries/drivers/src/at32f403a_407_can.c ****     can_x->mctrl_bit.dzen = FALSE;
 1485              		.loc 1 732 5 is_stmt 1 view .LVU502
 1486              		.loc 1 732 27 is_stmt 0 view .LVU503
 1487 0004 0368     		ldr	r3, [r0]
 1488 0006 23F00203 		bic	r3, r3, #2
 1489 000a 0360     		str	r3, [r0]
 733:libraries/drivers/src/at32f403a_407_can.c ****     can_x->mctrl_bit.fzen = TRUE;
 1490              		.loc 1 733 5 is_stmt 1 view .LVU504
 1491              		.loc 1 733 27 is_stmt 0 view .LVU505
 1492 000c 0368     		ldr	r3, [r0]
 1493 000e 43F00103 		orr	r3, r3, #1
 1494 0012 0360     		str	r3, [r0]
 734:libraries/drivers/src/at32f403a_407_can.c **** 
 735:libraries/drivers/src/at32f403a_407_can.c ****     while(((can_x->msts_bit.dzc) || (!can_x->msts_bit.fzc)) && (time_out_index != 0))
 1495              		.loc 1 735 5 is_stmt 1 view .LVU506
 727:libraries/drivers/src/at32f403a_407_can.c **** 
 1496              		.loc 1 727 12 is_stmt 0 view .LVU507
 1497 0014 4FF6FF73 		movw	r3, #65535
 1498              		.loc 1 735 10 view .LVU508
ARM GAS  C:\Users\10963\AppData\Local\Temp\ccZn7T5h.s 			page 42


 1499 0018 01E0     		b	.L89
 1500              	.LVL101:
 1501              	.L90:
 1502              		.loc 1 735 61 discriminator 3 view .LVU509
 1503 001a 43B1     		cbz	r3, .L91
 736:libraries/drivers/src/at32f403a_407_can.c ****     {
 737:libraries/drivers/src/at32f403a_407_can.c ****       time_out_index--;
 1504              		.loc 1 737 7 is_stmt 1 view .LVU510
 1505              		.loc 1 737 21 is_stmt 0 view .LVU511
 1506 001c 013B     		subs	r3, r3, #1
 1507              	.LVL102:
 1508              	.L89:
 735:libraries/drivers/src/at32f403a_407_can.c ****     {
 1509              		.loc 1 735 61 is_stmt 1 view .LVU512
 735:libraries/drivers/src/at32f403a_407_can.c ****     {
 1510              		.loc 1 735 28 is_stmt 0 view .LVU513
 1511 001e 4268     		ldr	r2, [r0, #4]
 735:libraries/drivers/src/at32f403a_407_can.c ****     {
 1512              		.loc 1 735 61 view .LVU514
 1513 0020 12F0020F 		tst	r2, #2
 1514 0024 F9D1     		bne	.L90
 735:libraries/drivers/src/at32f403a_407_can.c ****     {
 1515              		.loc 1 735 54 discriminator 2 view .LVU515
 1516 0026 4268     		ldr	r2, [r0, #4]
 735:libraries/drivers/src/at32f403a_407_can.c ****     {
 1517              		.loc 1 735 34 discriminator 2 view .LVU516
 1518 0028 12F0010F 		tst	r2, #1
 1519 002c F5D0     		beq	.L90
 1520              	.L91:
 738:libraries/drivers/src/at32f403a_407_can.c ****     }
 739:libraries/drivers/src/at32f403a_407_can.c ****     if((can_x->msts_bit.dzc) || (!can_x->msts_bit.fzc))
 1521              		.loc 1 739 5 is_stmt 1 view .LVU517
 1522              		.loc 1 739 24 is_stmt 0 view .LVU518
 1523 002e 4368     		ldr	r3, [r0, #4]
 1524              	.LVL103:
 1525              		.loc 1 739 7 view .LVU519
 1526 0030 13F0020F 		tst	r3, #2
 1527 0034 49D1     		bne	.L103
 1528              		.loc 1 739 50 discriminator 1 view .LVU520
 1529 0036 4368     		ldr	r3, [r0, #4]
 1530              		.loc 1 739 30 discriminator 1 view .LVU521
 1531 0038 13F0010F 		tst	r3, #1
 1532 003c 47D1     		bne	.L104
 740:libraries/drivers/src/at32f403a_407_can.c ****     {
 741:libraries/drivers/src/at32f403a_407_can.c ****       status = ERROR;
 1533              		.loc 1 741 14 view .LVU522
 1534 003e 6046     		mov	r0, ip
 1535              	.LVL104:
 1536              		.loc 1 741 14 view .LVU523
 1537 0040 7047     		bx	lr
 1538              	.LVL105:
 1539              	.L88:
 742:libraries/drivers/src/at32f403a_407_can.c ****     }
 743:libraries/drivers/src/at32f403a_407_can.c ****     else
 744:libraries/drivers/src/at32f403a_407_can.c ****     {
 745:libraries/drivers/src/at32f403a_407_can.c ****       status = SUCCESS;
 746:libraries/drivers/src/at32f403a_407_can.c ****     }
ARM GAS  C:\Users\10963\AppData\Local\Temp\ccZn7T5h.s 			page 43


 747:libraries/drivers/src/at32f403a_407_can.c ****   }
 748:libraries/drivers/src/at32f403a_407_can.c ****   else if(can_operating_mode == CAN_OPERATINGMODE_DOZE)
 1540              		.loc 1 748 8 is_stmt 1 view .LVU524
 1541              		.loc 1 748 10 is_stmt 0 view .LVU525
 1542 0042 0129     		cmp	r1, #1
 1543 0044 03D0     		beq	.L110
 749:libraries/drivers/src/at32f403a_407_can.c ****   {
 750:libraries/drivers/src/at32f403a_407_can.c ****     /* request enter doze mode */
 751:libraries/drivers/src/at32f403a_407_can.c ****     can_x->mctrl_bit.dzen = TRUE;
 752:libraries/drivers/src/at32f403a_407_can.c ****     can_x->mctrl_bit.fzen = FALSE;
 753:libraries/drivers/src/at32f403a_407_can.c **** 
 754:libraries/drivers/src/at32f403a_407_can.c ****     while(((!can_x->msts_bit.dzc) || (can_x->msts_bit.fzc)) && (time_out_index != 0))
 755:libraries/drivers/src/at32f403a_407_can.c ****     {
 756:libraries/drivers/src/at32f403a_407_can.c ****       time_out_index--;
 757:libraries/drivers/src/at32f403a_407_can.c ****     }
 758:libraries/drivers/src/at32f403a_407_can.c ****     if((!can_x->msts_bit.dzc) || (can_x->msts_bit.fzc))
 759:libraries/drivers/src/at32f403a_407_can.c ****     {
 760:libraries/drivers/src/at32f403a_407_can.c ****       status = ERROR;
 761:libraries/drivers/src/at32f403a_407_can.c ****     }
 762:libraries/drivers/src/at32f403a_407_can.c ****     else
 763:libraries/drivers/src/at32f403a_407_can.c ****     {
 764:libraries/drivers/src/at32f403a_407_can.c ****       status = SUCCESS;
 765:libraries/drivers/src/at32f403a_407_can.c ****     }
 766:libraries/drivers/src/at32f403a_407_can.c ****   }
 767:libraries/drivers/src/at32f403a_407_can.c ****   else if(can_operating_mode == CAN_OPERATINGMODE_COMMUNICATE)
 1544              		.loc 1 767 8 is_stmt 1 view .LVU526
 1545              		.loc 1 767 10 is_stmt 0 view .LVU527
 1546 0046 0229     		cmp	r1, #2
 1547 0048 20D0     		beq	.L111
 768:libraries/drivers/src/at32f403a_407_can.c ****   {
 769:libraries/drivers/src/at32f403a_407_can.c ****     /* request enter normal mode */
 770:libraries/drivers/src/at32f403a_407_can.c ****     can_x->mctrl_bit.dzen = FALSE;
 771:libraries/drivers/src/at32f403a_407_can.c ****     can_x->mctrl_bit.fzen = FALSE;
 772:libraries/drivers/src/at32f403a_407_can.c **** 
 773:libraries/drivers/src/at32f403a_407_can.c ****     while(((can_x->msts_bit.dzc) || (can_x->msts_bit.fzc)) && (time_out_index != 0))
 774:libraries/drivers/src/at32f403a_407_can.c ****     {
 775:libraries/drivers/src/at32f403a_407_can.c ****       time_out_index--;
 776:libraries/drivers/src/at32f403a_407_can.c ****     }
 777:libraries/drivers/src/at32f403a_407_can.c ****     if((can_x->msts_bit.dzc) || (can_x->msts_bit.fzc))
 778:libraries/drivers/src/at32f403a_407_can.c ****     {
 779:libraries/drivers/src/at32f403a_407_can.c ****       status = ERROR;
 780:libraries/drivers/src/at32f403a_407_can.c ****     }
 781:libraries/drivers/src/at32f403a_407_can.c ****     else
 782:libraries/drivers/src/at32f403a_407_can.c ****     {
 783:libraries/drivers/src/at32f403a_407_can.c ****       status = SUCCESS;
 784:libraries/drivers/src/at32f403a_407_can.c ****     }
 785:libraries/drivers/src/at32f403a_407_can.c ****   }
 786:libraries/drivers/src/at32f403a_407_can.c ****   else
 787:libraries/drivers/src/at32f403a_407_can.c ****   {
 788:libraries/drivers/src/at32f403a_407_can.c ****     status = ERROR;
 1548              		.loc 1 788 12 view .LVU528
 1549 004a 0020     		movs	r0, #0
 1550              	.LVL106:
 1551              		.loc 1 788 12 view .LVU529
 1552 004c 7047     		bx	lr
 1553              	.LVL107:
 1554              	.L110:
ARM GAS  C:\Users\10963\AppData\Local\Temp\ccZn7T5h.s 			page 44


 751:libraries/drivers/src/at32f403a_407_can.c ****     can_x->mctrl_bit.fzen = FALSE;
 1555              		.loc 1 751 5 is_stmt 1 view .LVU530
 751:libraries/drivers/src/at32f403a_407_can.c ****     can_x->mctrl_bit.fzen = FALSE;
 1556              		.loc 1 751 27 is_stmt 0 view .LVU531
 1557 004e 0368     		ldr	r3, [r0]
 1558 0050 43F00203 		orr	r3, r3, #2
 1559 0054 0360     		str	r3, [r0]
 752:libraries/drivers/src/at32f403a_407_can.c **** 
 1560              		.loc 1 752 5 is_stmt 1 view .LVU532
 752:libraries/drivers/src/at32f403a_407_can.c **** 
 1561              		.loc 1 752 27 is_stmt 0 view .LVU533
 1562 0056 0368     		ldr	r3, [r0]
 1563 0058 23F00103 		bic	r3, r3, #1
 1564 005c 0360     		str	r3, [r0]
 754:libraries/drivers/src/at32f403a_407_can.c ****     {
 1565              		.loc 1 754 5 is_stmt 1 view .LVU534
 727:libraries/drivers/src/at32f403a_407_can.c **** 
 1566              		.loc 1 727 12 is_stmt 0 view .LVU535
 1567 005e 4FF6FF73 		movw	r3, #65535
 754:libraries/drivers/src/at32f403a_407_can.c ****     {
 1568              		.loc 1 754 10 view .LVU536
 1569 0062 01E0     		b	.L95
 1570              	.LVL108:
 1571              	.L96:
 754:libraries/drivers/src/at32f403a_407_can.c ****     {
 1572              		.loc 1 754 61 discriminator 3 view .LVU537
 1573 0064 43B1     		cbz	r3, .L97
 756:libraries/drivers/src/at32f403a_407_can.c ****     }
 1574              		.loc 1 756 7 is_stmt 1 view .LVU538
 756:libraries/drivers/src/at32f403a_407_can.c ****     }
 1575              		.loc 1 756 21 is_stmt 0 view .LVU539
 1576 0066 013B     		subs	r3, r3, #1
 1577              	.LVL109:
 1578              	.L95:
 754:libraries/drivers/src/at32f403a_407_can.c ****     {
 1579              		.loc 1 754 61 is_stmt 1 view .LVU540
 754:libraries/drivers/src/at32f403a_407_can.c ****     {
 1580              		.loc 1 754 29 is_stmt 0 view .LVU541
 1581 0068 4268     		ldr	r2, [r0, #4]
 754:libraries/drivers/src/at32f403a_407_can.c ****     {
 1582              		.loc 1 754 61 view .LVU542
 1583 006a 12F0020F 		tst	r2, #2
 1584 006e F9D0     		beq	.L96
 754:libraries/drivers/src/at32f403a_407_can.c ****     {
 1585              		.loc 1 754 54 discriminator 2 view .LVU543
 1586 0070 4268     		ldr	r2, [r0, #4]
 754:libraries/drivers/src/at32f403a_407_can.c ****     {
 1587              		.loc 1 754 35 discriminator 2 view .LVU544
 1588 0072 12F0010F 		tst	r2, #1
 1589 0076 F5D1     		bne	.L96
 1590              	.L97:
 758:libraries/drivers/src/at32f403a_407_can.c ****     {
 1591              		.loc 1 758 5 is_stmt 1 view .LVU545
 758:libraries/drivers/src/at32f403a_407_can.c ****     {
 1592              		.loc 1 758 25 is_stmt 0 view .LVU546
 1593 0078 4368     		ldr	r3, [r0, #4]
 1594              	.LVL110:
ARM GAS  C:\Users\10963\AppData\Local\Temp\ccZn7T5h.s 			page 45


 758:libraries/drivers/src/at32f403a_407_can.c ****     {
 1595              		.loc 1 758 7 view .LVU547
 1596 007a 13F0020F 		tst	r3, #2
 1597 007e 28D0     		beq	.L105
 758:libraries/drivers/src/at32f403a_407_can.c ****     {
 1598              		.loc 1 758 50 discriminator 1 view .LVU548
 1599 0080 4368     		ldr	r3, [r0, #4]
 758:libraries/drivers/src/at32f403a_407_can.c ****     {
 1600              		.loc 1 758 31 discriminator 1 view .LVU549
 1601 0082 13F0010F 		tst	r3, #1
 1602 0086 26D0     		beq	.L106
 760:libraries/drivers/src/at32f403a_407_can.c ****     }
 1603              		.loc 1 760 14 view .LVU550
 1604 0088 0020     		movs	r0, #0
 1605              	.LVL111:
 760:libraries/drivers/src/at32f403a_407_can.c ****     }
 1606              		.loc 1 760 14 view .LVU551
 1607 008a 7047     		bx	lr
 1608              	.LVL112:
 1609              	.L111:
 770:libraries/drivers/src/at32f403a_407_can.c ****     can_x->mctrl_bit.fzen = FALSE;
 1610              		.loc 1 770 5 is_stmt 1 view .LVU552
 770:libraries/drivers/src/at32f403a_407_can.c ****     can_x->mctrl_bit.fzen = FALSE;
 1611              		.loc 1 770 27 is_stmt 0 view .LVU553
 1612 008c 0368     		ldr	r3, [r0]
 1613 008e 23F00203 		bic	r3, r3, #2
 1614 0092 0360     		str	r3, [r0]
 771:libraries/drivers/src/at32f403a_407_can.c **** 
 1615              		.loc 1 771 5 is_stmt 1 view .LVU554
 771:libraries/drivers/src/at32f403a_407_can.c **** 
 1616              		.loc 1 771 27 is_stmt 0 view .LVU555
 1617 0094 0368     		ldr	r3, [r0]
 1618 0096 23F00103 		bic	r3, r3, #1
 1619 009a 0360     		str	r3, [r0]
 773:libraries/drivers/src/at32f403a_407_can.c ****     {
 1620              		.loc 1 773 5 is_stmt 1 view .LVU556
 727:libraries/drivers/src/at32f403a_407_can.c **** 
 1621              		.loc 1 727 12 is_stmt 0 view .LVU557
 1622 009c 4FF6FF73 		movw	r3, #65535
 773:libraries/drivers/src/at32f403a_407_can.c ****     {
 1623              		.loc 1 773 10 view .LVU558
 1624 00a0 01E0     		b	.L99
 1625              	.LVL113:
 1626              	.L100:
 773:libraries/drivers/src/at32f403a_407_can.c ****     {
 1627              		.loc 1 773 60 discriminator 3 view .LVU559
 1628 00a2 43B1     		cbz	r3, .L101
 775:libraries/drivers/src/at32f403a_407_can.c ****     }
 1629              		.loc 1 775 7 is_stmt 1 view .LVU560
 775:libraries/drivers/src/at32f403a_407_can.c ****     }
 1630              		.loc 1 775 21 is_stmt 0 view .LVU561
 1631 00a4 013B     		subs	r3, r3, #1
 1632              	.LVL114:
 1633              	.L99:
 773:libraries/drivers/src/at32f403a_407_can.c ****     {
 1634              		.loc 1 773 60 is_stmt 1 view .LVU562
 773:libraries/drivers/src/at32f403a_407_can.c ****     {
ARM GAS  C:\Users\10963\AppData\Local\Temp\ccZn7T5h.s 			page 46


 1635              		.loc 1 773 28 is_stmt 0 view .LVU563
 1636 00a6 4268     		ldr	r2, [r0, #4]
 773:libraries/drivers/src/at32f403a_407_can.c ****     {
 1637              		.loc 1 773 60 view .LVU564
 1638 00a8 12F0020F 		tst	r2, #2
 1639 00ac F9D1     		bne	.L100
 773:libraries/drivers/src/at32f403a_407_can.c ****     {
 1640              		.loc 1 773 53 discriminator 2 view .LVU565
 1641 00ae 4268     		ldr	r2, [r0, #4]
 773:libraries/drivers/src/at32f403a_407_can.c ****     {
 1642              		.loc 1 773 34 discriminator 2 view .LVU566
 1643 00b0 12F0010F 		tst	r2, #1
 1644 00b4 F5D1     		bne	.L100
 1645              	.L101:
 777:libraries/drivers/src/at32f403a_407_can.c ****     {
 1646              		.loc 1 777 5 is_stmt 1 view .LVU567
 777:libraries/drivers/src/at32f403a_407_can.c ****     {
 1647              		.loc 1 777 24 is_stmt 0 view .LVU568
 1648 00b6 4368     		ldr	r3, [r0, #4]
 1649              	.LVL115:
 777:libraries/drivers/src/at32f403a_407_can.c ****     {
 1650              		.loc 1 777 7 view .LVU569
 1651 00b8 13F0020F 		tst	r3, #2
 1652 00bc 0DD1     		bne	.L108
 777:libraries/drivers/src/at32f403a_407_can.c ****     {
 1653              		.loc 1 777 49 discriminator 1 view .LVU570
 1654 00be 4368     		ldr	r3, [r0, #4]
 777:libraries/drivers/src/at32f403a_407_can.c ****     {
 1655              		.loc 1 777 30 discriminator 1 view .LVU571
 1656 00c0 13F0010F 		tst	r3, #1
 1657 00c4 0BD0     		beq	.L109
 779:libraries/drivers/src/at32f403a_407_can.c ****     }
 1658              		.loc 1 779 14 view .LVU572
 1659 00c6 0020     		movs	r0, #0
 1660              	.LVL116:
 779:libraries/drivers/src/at32f403a_407_can.c ****     }
 1661              		.loc 1 779 14 view .LVU573
 1662 00c8 7047     		bx	lr
 1663              	.LVL117:
 1664              	.L103:
 741:libraries/drivers/src/at32f403a_407_can.c ****     }
 1665              		.loc 1 741 14 view .LVU574
 1666 00ca 6046     		mov	r0, ip
 1667              	.LVL118:
 741:libraries/drivers/src/at32f403a_407_can.c ****     }
 1668              		.loc 1 741 14 view .LVU575
 1669 00cc 7047     		bx	lr
 1670              	.LVL119:
 1671              	.L104:
 745:libraries/drivers/src/at32f403a_407_can.c ****     }
 1672              		.loc 1 745 14 view .LVU576
 1673 00ce 0120     		movs	r0, #1
 1674              	.LVL120:
 745:libraries/drivers/src/at32f403a_407_can.c ****     }
 1675              		.loc 1 745 14 view .LVU577
 1676 00d0 7047     		bx	lr
 1677              	.LVL121:
ARM GAS  C:\Users\10963\AppData\Local\Temp\ccZn7T5h.s 			page 47


 1678              	.L105:
 760:libraries/drivers/src/at32f403a_407_can.c ****     }
 1679              		.loc 1 760 14 view .LVU578
 1680 00d2 0020     		movs	r0, #0
 1681              	.LVL122:
 760:libraries/drivers/src/at32f403a_407_can.c ****     }
 1682              		.loc 1 760 14 view .LVU579
 1683 00d4 7047     		bx	lr
 1684              	.LVL123:
 1685              	.L106:
 764:libraries/drivers/src/at32f403a_407_can.c ****     }
 1686              		.loc 1 764 14 view .LVU580
 1687 00d6 6046     		mov	r0, ip
 1688              	.LVL124:
 764:libraries/drivers/src/at32f403a_407_can.c ****     }
 1689              		.loc 1 764 14 view .LVU581
 1690 00d8 7047     		bx	lr
 1691              	.LVL125:
 1692              	.L108:
 779:libraries/drivers/src/at32f403a_407_can.c ****     }
 1693              		.loc 1 779 14 view .LVU582
 1694 00da 0020     		movs	r0, #0
 1695              	.LVL126:
 779:libraries/drivers/src/at32f403a_407_can.c ****     }
 1696              		.loc 1 779 14 view .LVU583
 1697 00dc 7047     		bx	lr
 1698              	.LVL127:
 1699              	.L109:
 783:libraries/drivers/src/at32f403a_407_can.c ****     }
 1700              		.loc 1 783 14 view .LVU584
 1701 00de 0120     		movs	r0, #1
 1702              	.LVL128:
 789:libraries/drivers/src/at32f403a_407_can.c ****   }
 790:libraries/drivers/src/at32f403a_407_can.c ****   return status;
 1703              		.loc 1 790 3 is_stmt 1 view .LVU585
 791:libraries/drivers/src/at32f403a_407_can.c **** }
 1704              		.loc 1 791 1 is_stmt 0 view .LVU586
 1705 00e0 7047     		bx	lr
 1706              		.cfi_endproc
 1707              	.LFE149:
 1709              		.section	.text.can_doze_mode_enter,"ax",%progbits
 1710              		.align	1
 1711              		.global	can_doze_mode_enter
 1712              		.syntax unified
 1713              		.thumb
 1714              		.thumb_func
 1716              	can_doze_mode_enter:
 1717              	.LVL129:
 1718              	.LFB150:
 792:libraries/drivers/src/at32f403a_407_can.c **** 
 793:libraries/drivers/src/at32f403a_407_can.c **** /**
 794:libraries/drivers/src/at32f403a_407_can.c ****   * @brief  enter the low power mode of the specified can peripheral.
 795:libraries/drivers/src/at32f403a_407_can.c ****   * @param  can_x: select the can peripheral.
 796:libraries/drivers/src/at32f403a_407_can.c ****   *         this parameter can be one of the following values:
 797:libraries/drivers/src/at32f403a_407_can.c ****   *         CAN1,CAN2.
 798:libraries/drivers/src/at32f403a_407_can.c ****   * @retval status of doze mode enter, the returned value can be:
 799:libraries/drivers/src/at32f403a_407_can.c ****   *         - CAN_ENTER_DOZE_SUCCESSFUL  <it meaning enter the doze mode succeed>
ARM GAS  C:\Users\10963\AppData\Local\Temp\ccZn7T5h.s 			page 48


 800:libraries/drivers/src/at32f403a_407_can.c ****   *         - CAN_ENTER_DOZE_FAILED  <it meaning enter the doze mode failed>
 801:libraries/drivers/src/at32f403a_407_can.c ****   */
 802:libraries/drivers/src/at32f403a_407_can.c **** can_enter_doze_status_type can_doze_mode_enter(can_type* can_x)
 803:libraries/drivers/src/at32f403a_407_can.c **** {
 1719              		.loc 1 803 1 is_stmt 1 view -0
 1720              		.cfi_startproc
 1721              		@ args = 0, pretend = 0, frame = 0
 1722              		@ frame_needed = 0, uses_anonymous_args = 0
 1723              		@ link register save eliminated.
 804:libraries/drivers/src/at32f403a_407_can.c ****   can_enter_doze_status_type status = CAN_ENTER_DOZE_FAILED;
 1724              		.loc 1 804 3 view .LVU588
 805:libraries/drivers/src/at32f403a_407_can.c ****   uint32_t time_out_index = FZC_TIMEOUT;
 1725              		.loc 1 805 3 view .LVU589
 806:libraries/drivers/src/at32f403a_407_can.c ****   can_x->mctrl_bit.fzen = FALSE;
 1726              		.loc 1 806 3 view .LVU590
 1727              		.loc 1 806 25 is_stmt 0 view .LVU591
 1728 0000 0368     		ldr	r3, [r0]
 1729 0002 23F00103 		bic	r3, r3, #1
 1730 0006 0360     		str	r3, [r0]
 807:libraries/drivers/src/at32f403a_407_can.c ****   can_x->mctrl_bit.dzen = TRUE;
 1731              		.loc 1 807 3 is_stmt 1 view .LVU592
 1732              		.loc 1 807 25 is_stmt 0 view .LVU593
 1733 0008 0368     		ldr	r3, [r0]
 1734 000a 43F00203 		orr	r3, r3, #2
 1735 000e 0360     		str	r3, [r0]
 808:libraries/drivers/src/at32f403a_407_can.c ****   while(((!can_x->msts_bit.dzc) || (can_x->msts_bit.fzc)) && (time_out_index != 0))
 1736              		.loc 1 808 3 is_stmt 1 view .LVU594
 805:libraries/drivers/src/at32f403a_407_can.c ****   can_x->mctrl_bit.fzen = FALSE;
 1737              		.loc 1 805 12 is_stmt 0 view .LVU595
 1738 0010 4FF6FF73 		movw	r3, #65535
 1739              		.loc 1 808 8 view .LVU596
 1740 0014 01E0     		b	.L113
 1741              	.LVL130:
 1742              	.L114:
 1743              		.loc 1 808 59 discriminator 3 view .LVU597
 1744 0016 43B1     		cbz	r3, .L115
 809:libraries/drivers/src/at32f403a_407_can.c ****   {
 810:libraries/drivers/src/at32f403a_407_can.c ****     time_out_index--;
 1745              		.loc 1 810 5 is_stmt 1 view .LVU598
 1746              		.loc 1 810 19 is_stmt 0 view .LVU599
 1747 0018 013B     		subs	r3, r3, #1
 1748              	.LVL131:
 1749              	.L113:
 808:libraries/drivers/src/at32f403a_407_can.c ****   {
 1750              		.loc 1 808 59 is_stmt 1 view .LVU600
 808:libraries/drivers/src/at32f403a_407_can.c ****   {
 1751              		.loc 1 808 27 is_stmt 0 view .LVU601
 1752 001a 4268     		ldr	r2, [r0, #4]
 808:libraries/drivers/src/at32f403a_407_can.c ****   {
 1753              		.loc 1 808 59 view .LVU602
 1754 001c 12F0020F 		tst	r2, #2
 1755 0020 F9D0     		beq	.L114
 808:libraries/drivers/src/at32f403a_407_can.c ****   {
 1756              		.loc 1 808 52 discriminator 2 view .LVU603
 1757 0022 4268     		ldr	r2, [r0, #4]
 808:libraries/drivers/src/at32f403a_407_can.c ****   {
 1758              		.loc 1 808 33 discriminator 2 view .LVU604
ARM GAS  C:\Users\10963\AppData\Local\Temp\ccZn7T5h.s 			page 49


 1759 0024 12F0010F 		tst	r2, #1
 1760 0028 F5D1     		bne	.L114
 1761              	.L115:
 811:libraries/drivers/src/at32f403a_407_can.c ****   }
 812:libraries/drivers/src/at32f403a_407_can.c ****   if((!can_x->msts_bit.dzc) || (can_x->msts_bit.fzc))
 1762              		.loc 1 812 3 is_stmt 1 view .LVU605
 1763              		.loc 1 812 23 is_stmt 0 view .LVU606
 1764 002a 4368     		ldr	r3, [r0, #4]
 1765              	.LVL132:
 1766              		.loc 1 812 5 view .LVU607
 1767 002c 13F0020F 		tst	r3, #2
 1768 0030 05D0     		beq	.L118
 1769              		.loc 1 812 48 discriminator 1 view .LVU608
 1770 0032 4368     		ldr	r3, [r0, #4]
 1771              		.loc 1 812 29 discriminator 1 view .LVU609
 1772 0034 13F0010F 		tst	r3, #1
 1773 0038 03D0     		beq	.L119
 813:libraries/drivers/src/at32f403a_407_can.c ****   {
 814:libraries/drivers/src/at32f403a_407_can.c ****     status =  CAN_ENTER_DOZE_FAILED;
 1774              		.loc 1 814 12 view .LVU610
 1775 003a 0020     		movs	r0, #0
 1776              	.LVL133:
 1777              		.loc 1 814 12 view .LVU611
 1778 003c 7047     		bx	lr
 1779              	.LVL134:
 1780              	.L118:
 1781              		.loc 1 814 12 view .LVU612
 1782 003e 0020     		movs	r0, #0
 1783              	.LVL135:
 1784              		.loc 1 814 12 view .LVU613
 1785 0040 7047     		bx	lr
 1786              	.LVL136:
 1787              	.L119:
 815:libraries/drivers/src/at32f403a_407_can.c ****   }
 816:libraries/drivers/src/at32f403a_407_can.c ****   else
 817:libraries/drivers/src/at32f403a_407_can.c ****   {
 818:libraries/drivers/src/at32f403a_407_can.c ****     status =  CAN_ENTER_DOZE_SUCCESSFUL;
 1788              		.loc 1 818 12 view .LVU614
 1789 0042 0120     		movs	r0, #1
 1790              	.LVL137:
 819:libraries/drivers/src/at32f403a_407_can.c ****   }
 820:libraries/drivers/src/at32f403a_407_can.c ****   return status;
 1791              		.loc 1 820 3 is_stmt 1 view .LVU615
 821:libraries/drivers/src/at32f403a_407_can.c **** }
 1792              		.loc 1 821 1 is_stmt 0 view .LVU616
 1793 0044 7047     		bx	lr
 1794              		.cfi_endproc
 1795              	.LFE150:
 1797              		.section	.text.can_doze_mode_exit,"ax",%progbits
 1798              		.align	1
 1799              		.global	can_doze_mode_exit
 1800              		.syntax unified
 1801              		.thumb
 1802              		.thumb_func
 1804              	can_doze_mode_exit:
 1805              	.LVL138:
 1806              	.LFB151:
ARM GAS  C:\Users\10963\AppData\Local\Temp\ccZn7T5h.s 			page 50


 822:libraries/drivers/src/at32f403a_407_can.c **** 
 823:libraries/drivers/src/at32f403a_407_can.c **** /**
 824:libraries/drivers/src/at32f403a_407_can.c ****   * @brief  exit the doze mode of the specified can peripheral.
 825:libraries/drivers/src/at32f403a_407_can.c ****   * @param  can_x: select the can peripheral.
 826:libraries/drivers/src/at32f403a_407_can.c ****   *         this parameter can be one of the following values:
 827:libraries/drivers/src/at32f403a_407_can.c ****   *         CAN1,CAN2.
 828:libraries/drivers/src/at32f403a_407_can.c ****   * @retval status of doze mode enter, the returned value can be:
 829:libraries/drivers/src/at32f403a_407_can.c ****   *         - CAN_QUIT_DOZE_SUCCESSFUL  <it meaning exit the doze mode succeed>
 830:libraries/drivers/src/at32f403a_407_can.c ****   *         - CAN_QUIT_DOZE_FAILED  <it meaning exit the doze mode failed>
 831:libraries/drivers/src/at32f403a_407_can.c ****   */
 832:libraries/drivers/src/at32f403a_407_can.c **** can_quit_doze_status_type can_doze_mode_exit(can_type* can_x)
 833:libraries/drivers/src/at32f403a_407_can.c **** {
 1807              		.loc 1 833 1 is_stmt 1 view -0
 1808              		.cfi_startproc
 1809              		@ args = 0, pretend = 0, frame = 0
 1810              		@ frame_needed = 0, uses_anonymous_args = 0
 1811              		@ link register save eliminated.
 834:libraries/drivers/src/at32f403a_407_can.c ****   can_quit_doze_status_type status = CAN_QUIT_DOZE_FAILED;
 1812              		.loc 1 834 3 view .LVU618
 835:libraries/drivers/src/at32f403a_407_can.c ****   uint32_t time_out_index = DZC_TIMEOUT;
 1813              		.loc 1 835 3 view .LVU619
 836:libraries/drivers/src/at32f403a_407_can.c ****   can_x->mctrl_bit.dzen = FALSE;
 1814              		.loc 1 836 3 view .LVU620
 1815              		.loc 1 836 25 is_stmt 0 view .LVU621
 1816 0000 0368     		ldr	r3, [r0]
 1817 0002 23F00203 		bic	r3, r3, #2
 1818 0006 0360     		str	r3, [r0]
 837:libraries/drivers/src/at32f403a_407_can.c ****   while((can_x->msts_bit.dzc) && (time_out_index != 0))
 1819              		.loc 1 837 3 is_stmt 1 view .LVU622
 835:libraries/drivers/src/at32f403a_407_can.c ****   uint32_t time_out_index = DZC_TIMEOUT;
 1820              		.loc 1 835 12 is_stmt 0 view .LVU623
 1821 0008 4FF6FF73 		movw	r3, #65535
 1822              	.LVL139:
 1823              	.L121:
 1824              		.loc 1 837 31 is_stmt 1 view .LVU624
 1825              		.loc 1 837 25 is_stmt 0 view .LVU625
 1826 000c 4268     		ldr	r2, [r0, #4]
 1827              		.loc 1 837 31 view .LVU626
 1828 000e 12F0020F 		tst	r2, #2
 1829 0012 02D0     		beq	.L122
 1830              		.loc 1 837 31 discriminator 1 view .LVU627
 1831 0014 0BB1     		cbz	r3, .L122
 838:libraries/drivers/src/at32f403a_407_can.c ****   {
 839:libraries/drivers/src/at32f403a_407_can.c ****     time_out_index--;
 1832              		.loc 1 839 5 is_stmt 1 view .LVU628
 1833              		.loc 1 839 19 is_stmt 0 view .LVU629
 1834 0016 013B     		subs	r3, r3, #1
 1835              	.LVL140:
 1836              		.loc 1 839 19 view .LVU630
 1837 0018 F8E7     		b	.L121
 1838              	.LVL141:
 1839              	.L122:
 840:libraries/drivers/src/at32f403a_407_can.c ****   }
 841:libraries/drivers/src/at32f403a_407_can.c ****   if(!can_x->msts_bit.dzc)
 1840              		.loc 1 841 3 is_stmt 1 view .LVU631
 1841              		.loc 1 841 22 is_stmt 0 view .LVU632
 1842 001a 4368     		ldr	r3, [r0, #4]
ARM GAS  C:\Users\10963\AppData\Local\Temp\ccZn7T5h.s 			page 51


 1843              	.LVL142:
 1844              		.loc 1 841 5 view .LVU633
 1845 001c 13F0020F 		tst	r3, #2
 1846 0020 01D0     		beq	.L125
 834:libraries/drivers/src/at32f403a_407_can.c ****   uint32_t time_out_index = DZC_TIMEOUT;
 1847              		.loc 1 834 29 view .LVU634
 1848 0022 0020     		movs	r0, #0
 1849              	.LVL143:
 834:libraries/drivers/src/at32f403a_407_can.c ****   uint32_t time_out_index = DZC_TIMEOUT;
 1850              		.loc 1 834 29 view .LVU635
 1851 0024 7047     		bx	lr
 1852              	.LVL144:
 1853              	.L125:
 842:libraries/drivers/src/at32f403a_407_can.c ****   {
 843:libraries/drivers/src/at32f403a_407_can.c ****     status = CAN_QUIT_DOZE_SUCCESSFUL;
 1854              		.loc 1 843 12 view .LVU636
 1855 0026 0120     		movs	r0, #1
 1856              	.LVL145:
 844:libraries/drivers/src/at32f403a_407_can.c ****   }
 845:libraries/drivers/src/at32f403a_407_can.c ****   return status;
 1857              		.loc 1 845 3 is_stmt 1 view .LVU637
 846:libraries/drivers/src/at32f403a_407_can.c **** }
 1858              		.loc 1 846 1 is_stmt 0 view .LVU638
 1859 0028 7047     		bx	lr
 1860              		.cfi_endproc
 1861              	.LFE151:
 1863              		.section	.text.can_error_type_record_get,"ax",%progbits
 1864              		.align	1
 1865              		.global	can_error_type_record_get
 1866              		.syntax unified
 1867              		.thumb
 1868              		.thumb_func
 1870              	can_error_type_record_get:
 1871              	.LVL146:
 1872              	.LFB152:
 847:libraries/drivers/src/at32f403a_407_can.c **** 
 848:libraries/drivers/src/at32f403a_407_can.c **** /**
 849:libraries/drivers/src/at32f403a_407_can.c ****   * @brief  return the error type record (etr) of the specified can peripheral.
 850:libraries/drivers/src/at32f403a_407_can.c ****   * @param  can_x: select the can peripheral.
 851:libraries/drivers/src/at32f403a_407_can.c ****   *         this parameter can be one of the following values:
 852:libraries/drivers/src/at32f403a_407_can.c ****   *         CAN1,CAN2.
 853:libraries/drivers/src/at32f403a_407_can.c ****   * @retval the value of the error code
 854:libraries/drivers/src/at32f403a_407_can.c ****   *         the return can be one of the follow values:
 855:libraries/drivers/src/at32f403a_407_can.c ****   *         - CAN_ERRORRECORD_NOERR
 856:libraries/drivers/src/at32f403a_407_can.c ****   *         - CAN_ERRORRECORD_STUFFERR,
 857:libraries/drivers/src/at32f403a_407_can.c ****   *         - CAN_ERRORRECORD_FORMERR,
 858:libraries/drivers/src/at32f403a_407_can.c ****   *         - CAN_ERRORRECORD_ACKERR,
 859:libraries/drivers/src/at32f403a_407_can.c ****   *         - CAN_ERRORRECORD_BITRECESSIVEERR,
 860:libraries/drivers/src/at32f403a_407_can.c ****   *         - CAN_ERRORRECORD_BITDOMINANTERR,
 861:libraries/drivers/src/at32f403a_407_can.c ****   *         - CAN_ERRORRECORD_CRCERR,
 862:libraries/drivers/src/at32f403a_407_can.c ****   *         - CAN_ERRORRECORD_SOFTWARESETERR
 863:libraries/drivers/src/at32f403a_407_can.c ****   */
 864:libraries/drivers/src/at32f403a_407_can.c **** can_error_record_type can_error_type_record_get(can_type* can_x)
 865:libraries/drivers/src/at32f403a_407_can.c **** {
 1873              		.loc 1 865 1 is_stmt 1 view -0
 1874              		.cfi_startproc
 1875              		@ args = 0, pretend = 0, frame = 0
ARM GAS  C:\Users\10963\AppData\Local\Temp\ccZn7T5h.s 			page 52


 1876              		@ frame_needed = 0, uses_anonymous_args = 0
 1877              		@ link register save eliminated.
 866:libraries/drivers/src/at32f403a_407_can.c ****   can_error_record_type error_code = CAN_ERRORRECORD_NOERR;
 1878              		.loc 1 866 3 view .LVU640
 867:libraries/drivers/src/at32f403a_407_can.c **** 
 868:libraries/drivers/src/at32f403a_407_can.c ****   error_code = (can_error_record_type)can_x->ests_bit.etr;
 1879              		.loc 1 868 3 view .LVU641
 1880              		.loc 1 868 54 is_stmt 0 view .LVU642
 1881 0000 8069     		ldr	r0, [r0, #24]
 1882              	.LVL147:
 869:libraries/drivers/src/at32f403a_407_can.c ****   return error_code;
 1883              		.loc 1 869 3 is_stmt 1 view .LVU643
 870:libraries/drivers/src/at32f403a_407_can.c **** }
 1884              		.loc 1 870 1 is_stmt 0 view .LVU644
 1885 0002 C0F30210 		ubfx	r0, r0, #4, #3
 1886              	.LVL148:
 1887              		.loc 1 870 1 view .LVU645
 1888 0006 7047     		bx	lr
 1889              		.cfi_endproc
 1890              	.LFE152:
 1892              		.section	.text.can_receive_error_counter_get,"ax",%progbits
 1893              		.align	1
 1894              		.global	can_receive_error_counter_get
 1895              		.syntax unified
 1896              		.thumb
 1897              		.thumb_func
 1899              	can_receive_error_counter_get:
 1900              	.LVL149:
 1901              	.LFB153:
 871:libraries/drivers/src/at32f403a_407_can.c **** 
 872:libraries/drivers/src/at32f403a_407_can.c **** /**
 873:libraries/drivers/src/at32f403a_407_can.c ****   * @brief  return the receive error counter (rec) of the specified can peripheral.
 874:libraries/drivers/src/at32f403a_407_can.c ****   * @param  can_x: select the can peripheral.
 875:libraries/drivers/src/at32f403a_407_can.c ****   *         this parameter can be one of the following values:
 876:libraries/drivers/src/at32f403a_407_can.c ****   *         CAN1,CAN2.
 877:libraries/drivers/src/at32f403a_407_can.c ****   * @retval the value of receive error counter.
 878:libraries/drivers/src/at32f403a_407_can.c ****   */
 879:libraries/drivers/src/at32f403a_407_can.c **** uint8_t can_receive_error_counter_get(can_type* can_x)
 880:libraries/drivers/src/at32f403a_407_can.c **** {
 1902              		.loc 1 880 1 is_stmt 1 view -0
 1903              		.cfi_startproc
 1904              		@ args = 0, pretend = 0, frame = 0
 1905              		@ frame_needed = 0, uses_anonymous_args = 0
 1906              		@ link register save eliminated.
 881:libraries/drivers/src/at32f403a_407_can.c ****   uint8_t counter = 0;
 1907              		.loc 1 881 3 view .LVU647
 882:libraries/drivers/src/at32f403a_407_can.c ****   counter = can_x->ests_bit.rec;
 1908              		.loc 1 882 3 view .LVU648
 1909              		.loc 1 882 11 is_stmt 0 view .LVU649
 1910 0000 8069     		ldr	r0, [r0, #24]
 1911              	.LVL150:
 883:libraries/drivers/src/at32f403a_407_can.c ****   return counter;
 1912              		.loc 1 883 3 is_stmt 1 view .LVU650
 884:libraries/drivers/src/at32f403a_407_can.c **** }
 1913              		.loc 1 884 1 is_stmt 0 view .LVU651
 1914 0002 000E     		lsrs	r0, r0, #24
 1915              	.LVL151:
ARM GAS  C:\Users\10963\AppData\Local\Temp\ccZn7T5h.s 			page 53


 1916              		.loc 1 884 1 view .LVU652
 1917 0004 7047     		bx	lr
 1918              		.cfi_endproc
 1919              	.LFE153:
 1921              		.section	.text.can_transmit_error_counter_get,"ax",%progbits
 1922              		.align	1
 1923              		.global	can_transmit_error_counter_get
 1924              		.syntax unified
 1925              		.thumb
 1926              		.thumb_func
 1928              	can_transmit_error_counter_get:
 1929              	.LVL152:
 1930              	.LFB154:
 885:libraries/drivers/src/at32f403a_407_can.c **** 
 886:libraries/drivers/src/at32f403a_407_can.c **** /**
 887:libraries/drivers/src/at32f403a_407_can.c ****   * @brief  return the transmit error counter of the specified can peripheral.
 888:libraries/drivers/src/at32f403a_407_can.c ****   * @param  can_x: select the can peripheral.
 889:libraries/drivers/src/at32f403a_407_can.c ****   *         this parameter can be one of the following values:
 890:libraries/drivers/src/at32f403a_407_can.c ****   *         CAN1,CAN2.
 891:libraries/drivers/src/at32f403a_407_can.c ****   * @retval the value of transmit error counter.
 892:libraries/drivers/src/at32f403a_407_can.c ****   */
 893:libraries/drivers/src/at32f403a_407_can.c **** uint8_t can_transmit_error_counter_get(can_type* can_x)
 894:libraries/drivers/src/at32f403a_407_can.c **** {
 1931              		.loc 1 894 1 is_stmt 1 view -0
 1932              		.cfi_startproc
 1933              		@ args = 0, pretend = 0, frame = 0
 1934              		@ frame_needed = 0, uses_anonymous_args = 0
 1935              		@ link register save eliminated.
 895:libraries/drivers/src/at32f403a_407_can.c ****   uint8_t counter = 0;
 1936              		.loc 1 895 3 view .LVU654
 896:libraries/drivers/src/at32f403a_407_can.c ****   counter = can_x->ests_bit.tec;
 1937              		.loc 1 896 3 view .LVU655
 1938              		.loc 1 896 11 is_stmt 0 view .LVU656
 1939 0000 8069     		ldr	r0, [r0, #24]
 1940              	.LVL153:
 897:libraries/drivers/src/at32f403a_407_can.c ****   return counter;
 1941              		.loc 1 897 3 is_stmt 1 view .LVU657
 898:libraries/drivers/src/at32f403a_407_can.c **** }
 1942              		.loc 1 898 1 is_stmt 0 view .LVU658
 1943 0002 C0F30740 		ubfx	r0, r0, #16, #8
 1944              	.LVL154:
 1945              		.loc 1 898 1 view .LVU659
 1946 0006 7047     		bx	lr
 1947              		.cfi_endproc
 1948              	.LFE154:
 1950              		.section	.text.can_interrupt_enable,"ax",%progbits
 1951              		.align	1
 1952              		.global	can_interrupt_enable
 1953              		.syntax unified
 1954              		.thumb
 1955              		.thumb_func
 1957              	can_interrupt_enable:
 1958              	.LVL155:
 1959              	.LFB155:
 899:libraries/drivers/src/at32f403a_407_can.c **** 
 900:libraries/drivers/src/at32f403a_407_can.c **** /**
 901:libraries/drivers/src/at32f403a_407_can.c ****   * @brief  enable or disable the interrupt of the specified can peripheral.
ARM GAS  C:\Users\10963\AppData\Local\Temp\ccZn7T5h.s 			page 54


 902:libraries/drivers/src/at32f403a_407_can.c ****   * @param  can_x: select the can peripheral.
 903:libraries/drivers/src/at32f403a_407_can.c ****   *         this parameter can be one of the following values:
 904:libraries/drivers/src/at32f403a_407_can.c ****   *         CAN1,CAN2.
 905:libraries/drivers/src/at32f403a_407_can.c ****   * @param  can_int: specifies the can interrupt sources to be enabled or disabled.
 906:libraries/drivers/src/at32f403a_407_can.c ****   *         this parameter can be one of the following values:
 907:libraries/drivers/src/at32f403a_407_can.c ****   *         - CAN_TCIEN_INT
 908:libraries/drivers/src/at32f403a_407_can.c ****   *         - CAN_RF0MIEN_INT
 909:libraries/drivers/src/at32f403a_407_can.c ****   *         - CAN_RF0FIEN_INT
 910:libraries/drivers/src/at32f403a_407_can.c ****   *         - CAN_RF0OIEN_INT
 911:libraries/drivers/src/at32f403a_407_can.c ****   *         - CAN_RF1MIEN_INT
 912:libraries/drivers/src/at32f403a_407_can.c ****   *         - CAN_RF1FIEN_INT
 913:libraries/drivers/src/at32f403a_407_can.c ****   *         - CAN_RF1OIEN_INT
 914:libraries/drivers/src/at32f403a_407_can.c ****   *         - CAN_EAIEN_INT
 915:libraries/drivers/src/at32f403a_407_can.c ****   *         - CAN_EPIEN_INT
 916:libraries/drivers/src/at32f403a_407_can.c ****   *         - CAN_BOIEN_INT
 917:libraries/drivers/src/at32f403a_407_can.c ****   *         - CAN_ETRIEN_INT
 918:libraries/drivers/src/at32f403a_407_can.c ****   *         - CAN_EOIEN_INT
 919:libraries/drivers/src/at32f403a_407_can.c ****   *         - CAN_QDZIEN_INT
 920:libraries/drivers/src/at32f403a_407_can.c ****   *         - CAN_EDZIEN_INT
 921:libraries/drivers/src/at32f403a_407_can.c ****   * @param  new_state: new state of the can interrupts.
 922:libraries/drivers/src/at32f403a_407_can.c ****   *         this parameter can be: TRUE or FALSE.
 923:libraries/drivers/src/at32f403a_407_can.c ****   * @retval none.
 924:libraries/drivers/src/at32f403a_407_can.c ****   */
 925:libraries/drivers/src/at32f403a_407_can.c **** void can_interrupt_enable(can_type* can_x, uint32_t can_int, confirm_state new_state)
 926:libraries/drivers/src/at32f403a_407_can.c **** {
 1960              		.loc 1 926 1 is_stmt 1 view -0
 1961              		.cfi_startproc
 1962              		@ args = 0, pretend = 0, frame = 0
 1963              		@ frame_needed = 0, uses_anonymous_args = 0
 1964              		@ link register save eliminated.
 927:libraries/drivers/src/at32f403a_407_can.c ****   if (new_state != FALSE)
 1965              		.loc 1 927 3 view .LVU661
 1966              		.loc 1 927 6 is_stmt 0 view .LVU662
 1967 0000 1AB1     		cbz	r2, .L130
 928:libraries/drivers/src/at32f403a_407_can.c ****   {
 929:libraries/drivers/src/at32f403a_407_can.c ****     can_x->inten |= can_int;
 1968              		.loc 1 929 5 is_stmt 1 view .LVU663
 1969              		.loc 1 929 10 is_stmt 0 view .LVU664
 1970 0002 4369     		ldr	r3, [r0, #20]
 1971              		.loc 1 929 18 view .LVU665
 1972 0004 0B43     		orrs	r3, r3, r1
 1973 0006 4361     		str	r3, [r0, #20]
 1974 0008 7047     		bx	lr
 1975              	.L130:
 930:libraries/drivers/src/at32f403a_407_can.c ****   }
 931:libraries/drivers/src/at32f403a_407_can.c ****   else
 932:libraries/drivers/src/at32f403a_407_can.c ****   {
 933:libraries/drivers/src/at32f403a_407_can.c ****     can_x->inten &= ~can_int;
 1976              		.loc 1 933 5 is_stmt 1 view .LVU666
 1977              		.loc 1 933 10 is_stmt 0 view .LVU667
 1978 000a 4369     		ldr	r3, [r0, #20]
 1979              		.loc 1 933 18 view .LVU668
 1980 000c 23EA0103 		bic	r3, r3, r1
 1981 0010 4361     		str	r3, [r0, #20]
 934:libraries/drivers/src/at32f403a_407_can.c ****   }
 935:libraries/drivers/src/at32f403a_407_can.c **** }
 1982              		.loc 1 935 1 view .LVU669
ARM GAS  C:\Users\10963\AppData\Local\Temp\ccZn7T5h.s 			page 55


 1983 0012 7047     		bx	lr
 1984              		.cfi_endproc
 1985              	.LFE155:
 1987              		.section	.text.can_flag_get,"ax",%progbits
 1988              		.align	1
 1989              		.global	can_flag_get
 1990              		.syntax unified
 1991              		.thumb
 1992              		.thumb_func
 1994              	can_flag_get:
 1995              	.LVL156:
 1996              	.LFB157:
 936:libraries/drivers/src/at32f403a_407_can.c **** 
 937:libraries/drivers/src/at32f403a_407_can.c **** /**
 938:libraries/drivers/src/at32f403a_407_can.c ****   * @brief  get interrupt flag of the specified can peripheral.
 939:libraries/drivers/src/at32f403a_407_can.c ****   * @param  can_x: select the can peripheral.
 940:libraries/drivers/src/at32f403a_407_can.c ****   *         this parameter can be one of the following values:
 941:libraries/drivers/src/at32f403a_407_can.c ****   *         CAN1,CAN2.
 942:libraries/drivers/src/at32f403a_407_can.c ****   * @param  can_flag: select the flag.
 943:libraries/drivers/src/at32f403a_407_can.c ****   *         this parameter can be one of the following flags:
 944:libraries/drivers/src/at32f403a_407_can.c ****   *         - CAN_EAF_FLAG
 945:libraries/drivers/src/at32f403a_407_can.c ****   *         - CAN_EPF_FLAG
 946:libraries/drivers/src/at32f403a_407_can.c ****   *         - CAN_BOF_FLAG
 947:libraries/drivers/src/at32f403a_407_can.c ****   *         - CAN_ETR_FLAG
 948:libraries/drivers/src/at32f403a_407_can.c ****   *         - CAN_EOIF_FLAG
 949:libraries/drivers/src/at32f403a_407_can.c ****   *         - CAN_TM0TCF_FLAG
 950:libraries/drivers/src/at32f403a_407_can.c ****   *         - CAN_TM1TCF_FLAG
 951:libraries/drivers/src/at32f403a_407_can.c ****   *         - CAN_TM2TCF_FLAG
 952:libraries/drivers/src/at32f403a_407_can.c ****   *         - CAN_RF0MN_FLAG
 953:libraries/drivers/src/at32f403a_407_can.c ****   *         - CAN_RF0FF_FLAG
 954:libraries/drivers/src/at32f403a_407_can.c ****   *         - CAN_RF0OF_FLAG
 955:libraries/drivers/src/at32f403a_407_can.c ****   *         - CAN_RF1MN_FLAG
 956:libraries/drivers/src/at32f403a_407_can.c ****   *         - CAN_RF1FF_FLAG
 957:libraries/drivers/src/at32f403a_407_can.c ****   *         - CAN_RF1OF_FLAG
 958:libraries/drivers/src/at32f403a_407_can.c ****   *         - CAN_QDZIF_FLAG
 959:libraries/drivers/src/at32f403a_407_can.c ****   *         - CAN_EDZC_FLAG
 960:libraries/drivers/src/at32f403a_407_can.c ****   *         - CAN_TMEF_FLAG
 961:libraries/drivers/src/at32f403a_407_can.c ****   *         note:the state of CAN_EDZC_FLAG need to check dzc and edzif bit
 962:libraries/drivers/src/at32f403a_407_can.c ****   *         note:the state of CAN_TMEF_FLAG need to check rqc0,rqc1 and rqc2 bit
 963:libraries/drivers/src/at32f403a_407_can.c ****   * @retval status of can_flag, the returned value can be:SET or RESET.
 964:libraries/drivers/src/at32f403a_407_can.c ****   */
 965:libraries/drivers/src/at32f403a_407_can.c **** flag_status can_interrupt_flag_get(can_type* can_x, uint32_t can_flag)
 966:libraries/drivers/src/at32f403a_407_can.c **** {
 967:libraries/drivers/src/at32f403a_407_can.c ****   flag_status bit_status = RESET;
 968:libraries/drivers/src/at32f403a_407_can.c ****   flag_status int_status = RESET;
 969:libraries/drivers/src/at32f403a_407_can.c **** 
 970:libraries/drivers/src/at32f403a_407_can.c ****   switch(can_flag)
 971:libraries/drivers/src/at32f403a_407_can.c ****   {
 972:libraries/drivers/src/at32f403a_407_can.c ****     case CAN_EAF_FLAG:
 973:libraries/drivers/src/at32f403a_407_can.c ****       int_status = (flag_status)(can_x->inten_bit.eoien && can_x->inten_bit.eaien);
 974:libraries/drivers/src/at32f403a_407_can.c ****       break;
 975:libraries/drivers/src/at32f403a_407_can.c ****     case CAN_EPF_FLAG:
 976:libraries/drivers/src/at32f403a_407_can.c ****       int_status = (flag_status)(can_x->inten_bit.eoien && can_x->inten_bit.epien);
 977:libraries/drivers/src/at32f403a_407_can.c ****       break;
 978:libraries/drivers/src/at32f403a_407_can.c ****     case CAN_BOF_FLAG:
 979:libraries/drivers/src/at32f403a_407_can.c ****       int_status = (flag_status)(can_x->inten_bit.eoien && can_x->inten_bit.boien);
 980:libraries/drivers/src/at32f403a_407_can.c ****       break;
ARM GAS  C:\Users\10963\AppData\Local\Temp\ccZn7T5h.s 			page 56


 981:libraries/drivers/src/at32f403a_407_can.c ****     case CAN_ETR_FLAG:
 982:libraries/drivers/src/at32f403a_407_can.c ****       int_status = (flag_status)(can_x->inten_bit.eoien && can_x->inten_bit.etrien);
 983:libraries/drivers/src/at32f403a_407_can.c ****       break;
 984:libraries/drivers/src/at32f403a_407_can.c ****     case CAN_EOIF_FLAG:     
 985:libraries/drivers/src/at32f403a_407_can.c ****       int_status = (flag_status)can_x->inten_bit.eoien;
 986:libraries/drivers/src/at32f403a_407_can.c ****       break;
 987:libraries/drivers/src/at32f403a_407_can.c ****     case CAN_TM0TCF_FLAG:
 988:libraries/drivers/src/at32f403a_407_can.c ****     case CAN_TM1TCF_FLAG:
 989:libraries/drivers/src/at32f403a_407_can.c ****     case CAN_TM2TCF_FLAG:
 990:libraries/drivers/src/at32f403a_407_can.c ****       int_status = (flag_status)can_x->inten_bit.tcien;
 991:libraries/drivers/src/at32f403a_407_can.c ****       break;
 992:libraries/drivers/src/at32f403a_407_can.c ****     case CAN_RF0MN_FLAG:
 993:libraries/drivers/src/at32f403a_407_can.c ****       int_status = (flag_status)can_x->inten_bit.rf0mien;
 994:libraries/drivers/src/at32f403a_407_can.c ****       break;
 995:libraries/drivers/src/at32f403a_407_can.c ****     case CAN_RF0FF_FLAG:
 996:libraries/drivers/src/at32f403a_407_can.c ****       int_status = (flag_status)can_x->inten_bit.rf0fien;
 997:libraries/drivers/src/at32f403a_407_can.c ****       break;
 998:libraries/drivers/src/at32f403a_407_can.c ****     case CAN_RF0OF_FLAG:
 999:libraries/drivers/src/at32f403a_407_can.c ****       int_status = (flag_status)can_x->inten_bit.rf0oien;
1000:libraries/drivers/src/at32f403a_407_can.c ****       break;
1001:libraries/drivers/src/at32f403a_407_can.c ****     case CAN_RF1MN_FLAG:
1002:libraries/drivers/src/at32f403a_407_can.c ****       int_status = (flag_status)can_x->inten_bit.rf1mien;
1003:libraries/drivers/src/at32f403a_407_can.c ****       break;
1004:libraries/drivers/src/at32f403a_407_can.c ****     case CAN_RF1FF_FLAG:
1005:libraries/drivers/src/at32f403a_407_can.c ****       int_status = (flag_status)can_x->inten_bit.rf1fien;
1006:libraries/drivers/src/at32f403a_407_can.c ****       break;
1007:libraries/drivers/src/at32f403a_407_can.c ****     case CAN_RF1OF_FLAG:
1008:libraries/drivers/src/at32f403a_407_can.c ****       int_status = (flag_status)can_x->inten_bit.rf1oien;
1009:libraries/drivers/src/at32f403a_407_can.c ****       break;
1010:libraries/drivers/src/at32f403a_407_can.c ****     case CAN_QDZIF_FLAG:
1011:libraries/drivers/src/at32f403a_407_can.c ****       int_status = (flag_status)can_x->inten_bit.qdzien;
1012:libraries/drivers/src/at32f403a_407_can.c ****       break;
1013:libraries/drivers/src/at32f403a_407_can.c ****     case CAN_EDZC_FLAG:
1014:libraries/drivers/src/at32f403a_407_can.c ****       int_status = (flag_status)can_x->inten_bit.edzien;
1015:libraries/drivers/src/at32f403a_407_can.c ****       break;
1016:libraries/drivers/src/at32f403a_407_can.c ****     case CAN_TMEF_FLAG:
1017:libraries/drivers/src/at32f403a_407_can.c ****       int_status = (flag_status)can_x->inten_bit.tcien;
1018:libraries/drivers/src/at32f403a_407_can.c ****       break;
1019:libraries/drivers/src/at32f403a_407_can.c ****     default:
1020:libraries/drivers/src/at32f403a_407_can.c ****       int_status = RESET;
1021:libraries/drivers/src/at32f403a_407_can.c ****       break;
1022:libraries/drivers/src/at32f403a_407_can.c ****   }
1023:libraries/drivers/src/at32f403a_407_can.c **** 
1024:libraries/drivers/src/at32f403a_407_can.c ****   if(int_status != SET)
1025:libraries/drivers/src/at32f403a_407_can.c ****   {
1026:libraries/drivers/src/at32f403a_407_can.c ****     return RESET;
1027:libraries/drivers/src/at32f403a_407_can.c ****   }
1028:libraries/drivers/src/at32f403a_407_can.c ****   bit_status = can_flag_get(can_x, can_flag);
1029:libraries/drivers/src/at32f403a_407_can.c **** 
1030:libraries/drivers/src/at32f403a_407_can.c ****   return bit_status;
1031:libraries/drivers/src/at32f403a_407_can.c **** }
1032:libraries/drivers/src/at32f403a_407_can.c **** 
1033:libraries/drivers/src/at32f403a_407_can.c **** /**
1034:libraries/drivers/src/at32f403a_407_can.c ****   * @brief  get flag of the specified can peripheral.
1035:libraries/drivers/src/at32f403a_407_can.c ****   * @param  can_x: select the can peripheral.
1036:libraries/drivers/src/at32f403a_407_can.c ****   *         this parameter can be one of the following values:
1037:libraries/drivers/src/at32f403a_407_can.c ****   *         CAN1,CAN2.
ARM GAS  C:\Users\10963\AppData\Local\Temp\ccZn7T5h.s 			page 57


1038:libraries/drivers/src/at32f403a_407_can.c ****   * @param  can_flag: select the flag.
1039:libraries/drivers/src/at32f403a_407_can.c ****   *         this parameter can be one of the following flags:
1040:libraries/drivers/src/at32f403a_407_can.c ****   *         - CAN_EAF_FLAG
1041:libraries/drivers/src/at32f403a_407_can.c ****   *         - CAN_EPF_FLAG
1042:libraries/drivers/src/at32f403a_407_can.c ****   *         - CAN_BOF_FLAG
1043:libraries/drivers/src/at32f403a_407_can.c ****   *         - CAN_ETR_FLAG
1044:libraries/drivers/src/at32f403a_407_can.c ****   *         - CAN_EOIF_FLAG
1045:libraries/drivers/src/at32f403a_407_can.c ****   *         - CAN_TM0TCF_FLAG
1046:libraries/drivers/src/at32f403a_407_can.c ****   *         - CAN_TM1TCF_FLAG
1047:libraries/drivers/src/at32f403a_407_can.c ****   *         - CAN_TM2TCF_FLAG
1048:libraries/drivers/src/at32f403a_407_can.c ****   *         - CAN_RF0MN_FLAG
1049:libraries/drivers/src/at32f403a_407_can.c ****   *         - CAN_RF0FF_FLAG
1050:libraries/drivers/src/at32f403a_407_can.c ****   *         - CAN_RF0OF_FLAG
1051:libraries/drivers/src/at32f403a_407_can.c ****   *         - CAN_RF1MN_FLAG
1052:libraries/drivers/src/at32f403a_407_can.c ****   *         - CAN_RF1FF_FLAG
1053:libraries/drivers/src/at32f403a_407_can.c ****   *         - CAN_RF1OF_FLAG
1054:libraries/drivers/src/at32f403a_407_can.c ****   *         - CAN_QDZIF_FLAG
1055:libraries/drivers/src/at32f403a_407_can.c ****   *         - CAN_EDZC_FLAG
1056:libraries/drivers/src/at32f403a_407_can.c ****   *         - CAN_TMEF_FLAG
1057:libraries/drivers/src/at32f403a_407_can.c ****   *         note:the state of CAN_EDZC_FLAG need to check dzc and edzif bit
1058:libraries/drivers/src/at32f403a_407_can.c ****   *         note:the state of CAN_TMEF_FLAG need to check rqc0,rqc1 and rqc2 bit
1059:libraries/drivers/src/at32f403a_407_can.c ****   * @retval status of can_flag, the returned value can be:SET or RESET.
1060:libraries/drivers/src/at32f403a_407_can.c ****   */
1061:libraries/drivers/src/at32f403a_407_can.c **** flag_status can_flag_get(can_type* can_x, uint32_t can_flag)
1062:libraries/drivers/src/at32f403a_407_can.c **** {
 1997              		.loc 1 1062 1 is_stmt 1 view -0
 1998              		.cfi_startproc
 1999              		@ args = 0, pretend = 0, frame = 0
 2000              		@ frame_needed = 0, uses_anonymous_args = 0
 2001              		@ link register save eliminated.
1063:libraries/drivers/src/at32f403a_407_can.c ****   flag_status bit_status = RESET;
 2002              		.loc 1 1063 3 view .LVU671
1064:libraries/drivers/src/at32f403a_407_can.c ****   switch(can_flag)
 2003              		.loc 1 1064 3 view .LVU672
 2004 0000 0929     		cmp	r1, #9
 2005 0002 5ED0     		beq	.L133
 2006 0004 25D8     		bhi	.L134
 2007 0006 0529     		cmp	r1, #5
 2008 0008 4FD0     		beq	.L135
 2009 000a 16D8     		bhi	.L136
 2010 000c 0329     		cmp	r1, #3
 2011 000e 48D0     		beq	.L137
 2012 0010 09D8     		bhi	.L138
 2013 0012 0129     		cmp	r1, #1
 2014 0014 41D0     		beq	.L139
 2015 0016 0229     		cmp	r1, #2
 2016 0018 03D1     		bne	.L164
1065:libraries/drivers/src/at32f403a_407_can.c ****   {
1066:libraries/drivers/src/at32f403a_407_can.c ****     case CAN_EAF_FLAG:
1067:libraries/drivers/src/at32f403a_407_can.c ****       bit_status = (flag_status)can_x->ests_bit.eaf;
1068:libraries/drivers/src/at32f403a_407_can.c ****       break;
1069:libraries/drivers/src/at32f403a_407_can.c ****     case CAN_EPF_FLAG:
1070:libraries/drivers/src/at32f403a_407_can.c ****       bit_status = (flag_status)can_x->ests_bit.epf;
 2017              		.loc 1 1070 7 view .LVU673
 2018              		.loc 1 1070 48 is_stmt 0 view .LVU674
 2019 001a 8069     		ldr	r0, [r0, #24]
 2020              	.LVL157:
ARM GAS  C:\Users\10963\AppData\Local\Temp\ccZn7T5h.s 			page 58


 2021              		.loc 1 1070 48 view .LVU675
 2022 001c C0F34000 		ubfx	r0, r0, #1, #1
 2023              	.LVL158:
1071:libraries/drivers/src/at32f403a_407_can.c ****       break;
 2024              		.loc 1 1071 7 is_stmt 1 view .LVU676
 2025 0020 7047     		bx	lr
 2026              	.LVL159:
 2027              	.L164:
1064:libraries/drivers/src/at32f403a_407_can.c ****   switch(can_flag)
 2028              		.loc 1 1064 3 is_stmt 0 view .LVU677
 2029 0022 0020     		movs	r0, #0
 2030              	.LVL160:
1064:libraries/drivers/src/at32f403a_407_can.c ****   switch(can_flag)
 2031              		.loc 1 1064 3 view .LVU678
 2032 0024 7047     		bx	lr
 2033              	.LVL161:
 2034              	.L138:
1064:libraries/drivers/src/at32f403a_407_can.c ****   switch(can_flag)
 2035              		.loc 1 1064 3 view .LVU679
 2036 0026 0429     		cmp	r1, #4
 2037 0028 05D1     		bne	.L165
1072:libraries/drivers/src/at32f403a_407_can.c ****     case CAN_BOF_FLAG:
1073:libraries/drivers/src/at32f403a_407_can.c ****       bit_status = (flag_status)can_x->ests_bit.bof;
1074:libraries/drivers/src/at32f403a_407_can.c ****       break;
1075:libraries/drivers/src/at32f403a_407_can.c ****     case CAN_ETR_FLAG:
1076:libraries/drivers/src/at32f403a_407_can.c ****       if(can_x->ests_bit.etr != 0)
 2038              		.loc 1 1076 7 is_stmt 1 view .LVU680
 2039              		.loc 1 1076 25 is_stmt 0 view .LVU681
 2040 002a 8369     		ldr	r3, [r0, #24]
 2041              		.loc 1 1076 9 view .LVU682
 2042 002c 13F0700F 		tst	r3, #112
 2043 0030 73D0     		beq	.L156
1077:libraries/drivers/src/at32f403a_407_can.c ****       {
1078:libraries/drivers/src/at32f403a_407_can.c ****         bit_status = SET;
 2044              		.loc 1 1078 20 view .LVU683
 2045 0032 0120     		movs	r0, #1
 2046              	.LVL162:
 2047              		.loc 1 1078 20 view .LVU684
 2048 0034 7047     		bx	lr
 2049              	.LVL163:
 2050              	.L165:
1064:libraries/drivers/src/at32f403a_407_can.c ****   {
 2051              		.loc 1 1064 3 view .LVU685
 2052 0036 0020     		movs	r0, #0
 2053              	.LVL164:
1064:libraries/drivers/src/at32f403a_407_can.c ****   {
 2054              		.loc 1 1064 3 view .LVU686
 2055 0038 7047     		bx	lr
 2056              	.LVL165:
 2057              	.L136:
1064:libraries/drivers/src/at32f403a_407_can.c ****   {
 2058              		.loc 1 1064 3 view .LVU687
 2059 003a 0729     		cmp	r1, #7
 2060 003c 39D0     		beq	.L143
 2061 003e 0829     		cmp	r1, #8
 2062 0040 3BD0     		beq	.L144
 2063 0042 0629     		cmp	r1, #6
ARM GAS  C:\Users\10963\AppData\Local\Temp\ccZn7T5h.s 			page 59


 2064 0044 03D1     		bne	.L166
1079:libraries/drivers/src/at32f403a_407_can.c ****       }
1080:libraries/drivers/src/at32f403a_407_can.c ****       else
1081:libraries/drivers/src/at32f403a_407_can.c ****       {
1082:libraries/drivers/src/at32f403a_407_can.c ****         bit_status = RESET;
1083:libraries/drivers/src/at32f403a_407_can.c ****       }
1084:libraries/drivers/src/at32f403a_407_can.c ****       break;
1085:libraries/drivers/src/at32f403a_407_can.c ****     case CAN_EOIF_FLAG:
1086:libraries/drivers/src/at32f403a_407_can.c ****       bit_status = (flag_status)can_x->msts_bit.eoif;
1087:libraries/drivers/src/at32f403a_407_can.c ****       break;
1088:libraries/drivers/src/at32f403a_407_can.c ****     case CAN_TM0TCF_FLAG:
1089:libraries/drivers/src/at32f403a_407_can.c ****       bit_status = (flag_status)can_x->tsts_bit.tm0tcf;
 2065              		.loc 1 1089 7 is_stmt 1 view .LVU688
 2066              		.loc 1 1089 48 is_stmt 0 view .LVU689
 2067 0046 8068     		ldr	r0, [r0, #8]
 2068              	.LVL166:
 2069              		.loc 1 1089 48 view .LVU690
 2070 0048 00F00100 		and	r0, r0, #1
 2071              	.LVL167:
1090:libraries/drivers/src/at32f403a_407_can.c ****       break;
 2072              		.loc 1 1090 7 is_stmt 1 view .LVU691
 2073 004c 7047     		bx	lr
 2074              	.LVL168:
 2075              	.L166:
1064:libraries/drivers/src/at32f403a_407_can.c ****   {
 2076              		.loc 1 1064 3 is_stmt 0 view .LVU692
 2077 004e 0020     		movs	r0, #0
 2078              	.LVL169:
1064:libraries/drivers/src/at32f403a_407_can.c ****   {
 2079              		.loc 1 1064 3 view .LVU693
 2080 0050 7047     		bx	lr
 2081              	.LVL170:
 2082              	.L134:
1064:libraries/drivers/src/at32f403a_407_can.c ****   {
 2083              		.loc 1 1064 3 view .LVU694
 2084 0052 0E29     		cmp	r1, #14
 2085 0054 45D0     		beq	.L146
 2086 0056 14D8     		bhi	.L147
 2087 0058 0C29     		cmp	r1, #12
 2088 005a 3CD0     		beq	.L148
 2089 005c 09D8     		bhi	.L149
 2090 005e 0A29     		cmp	r1, #10
 2091 0060 35D0     		beq	.L150
 2092 0062 0B29     		cmp	r1, #11
 2093 0064 03D1     		bne	.L167
1091:libraries/drivers/src/at32f403a_407_can.c ****     case CAN_TM1TCF_FLAG:
1092:libraries/drivers/src/at32f403a_407_can.c ****       bit_status = (flag_status)can_x->tsts_bit.tm1tcf;
1093:libraries/drivers/src/at32f403a_407_can.c ****       break;
1094:libraries/drivers/src/at32f403a_407_can.c ****     case CAN_TM2TCF_FLAG:
1095:libraries/drivers/src/at32f403a_407_can.c ****       bit_status = (flag_status)can_x->tsts_bit.tm2tcf;
1096:libraries/drivers/src/at32f403a_407_can.c ****       break;
1097:libraries/drivers/src/at32f403a_407_can.c ****     case CAN_RF0MN_FLAG:
1098:libraries/drivers/src/at32f403a_407_can.c ****       if(can_x->rf0_bit.rf0mn != 0)
1099:libraries/drivers/src/at32f403a_407_can.c ****       {
1100:libraries/drivers/src/at32f403a_407_can.c ****         bit_status = SET;
1101:libraries/drivers/src/at32f403a_407_can.c ****       }
1102:libraries/drivers/src/at32f403a_407_can.c ****       else
ARM GAS  C:\Users\10963\AppData\Local\Temp\ccZn7T5h.s 			page 60


1103:libraries/drivers/src/at32f403a_407_can.c ****       {
1104:libraries/drivers/src/at32f403a_407_can.c ****         bit_status = RESET;
1105:libraries/drivers/src/at32f403a_407_can.c ****       }
1106:libraries/drivers/src/at32f403a_407_can.c ****       break;
1107:libraries/drivers/src/at32f403a_407_can.c ****     case CAN_RF0FF_FLAG:
1108:libraries/drivers/src/at32f403a_407_can.c ****       bit_status = (flag_status)can_x->rf0_bit.rf0ff;
1109:libraries/drivers/src/at32f403a_407_can.c ****       break;
1110:libraries/drivers/src/at32f403a_407_can.c ****     case CAN_RF0OF_FLAG:
1111:libraries/drivers/src/at32f403a_407_can.c ****       bit_status = (flag_status)can_x->rf0_bit.rf0of;
 2094              		.loc 1 1111 7 is_stmt 1 view .LVU695
 2095              		.loc 1 1111 47 is_stmt 0 view .LVU696
 2096 0066 C068     		ldr	r0, [r0, #12]
 2097              	.LVL171:
 2098              		.loc 1 1111 47 view .LVU697
 2099 0068 C0F30010 		ubfx	r0, r0, #4, #1
 2100              	.LVL172:
1112:libraries/drivers/src/at32f403a_407_can.c ****       break;
 2101              		.loc 1 1112 7 is_stmt 1 view .LVU698
 2102 006c 7047     		bx	lr
 2103              	.LVL173:
 2104              	.L167:
1064:libraries/drivers/src/at32f403a_407_can.c ****   {
 2105              		.loc 1 1064 3 is_stmt 0 view .LVU699
 2106 006e 0020     		movs	r0, #0
 2107              	.LVL174:
1064:libraries/drivers/src/at32f403a_407_can.c ****   {
 2108              		.loc 1 1064 3 view .LVU700
 2109 0070 7047     		bx	lr
 2110              	.LVL175:
 2111              	.L149:
1064:libraries/drivers/src/at32f403a_407_can.c ****   {
 2112              		.loc 1 1064 3 view .LVU701
 2113 0072 0D29     		cmp	r1, #13
 2114 0074 03D1     		bne	.L168
1113:libraries/drivers/src/at32f403a_407_can.c ****     case CAN_RF1MN_FLAG:
1114:libraries/drivers/src/at32f403a_407_can.c ****       if(can_x->rf1_bit.rf1mn != 0)
1115:libraries/drivers/src/at32f403a_407_can.c ****       {
1116:libraries/drivers/src/at32f403a_407_can.c ****         bit_status = SET;
1117:libraries/drivers/src/at32f403a_407_can.c ****       }
1118:libraries/drivers/src/at32f403a_407_can.c ****       else
1119:libraries/drivers/src/at32f403a_407_can.c ****       {
1120:libraries/drivers/src/at32f403a_407_can.c ****         bit_status = RESET;
1121:libraries/drivers/src/at32f403a_407_can.c ****       }
1122:libraries/drivers/src/at32f403a_407_can.c ****       break;
1123:libraries/drivers/src/at32f403a_407_can.c ****     case CAN_RF1FF_FLAG:
1124:libraries/drivers/src/at32f403a_407_can.c ****       bit_status = (flag_status)can_x->rf1_bit.rf1ff;
 2115              		.loc 1 1124 7 is_stmt 1 view .LVU702
 2116              		.loc 1 1124 47 is_stmt 0 view .LVU703
 2117 0076 0069     		ldr	r0, [r0, #16]
 2118              	.LVL176:
 2119              		.loc 1 1124 47 view .LVU704
 2120 0078 C0F3C000 		ubfx	r0, r0, #3, #1
 2121              	.LVL177:
1125:libraries/drivers/src/at32f403a_407_can.c ****       break;
 2122              		.loc 1 1125 7 is_stmt 1 view .LVU705
 2123 007c 7047     		bx	lr
 2124              	.LVL178:
ARM GAS  C:\Users\10963\AppData\Local\Temp\ccZn7T5h.s 			page 61


 2125              	.L168:
1064:libraries/drivers/src/at32f403a_407_can.c ****   {
 2126              		.loc 1 1064 3 is_stmt 0 view .LVU706
 2127 007e 0020     		movs	r0, #0
 2128              	.LVL179:
1064:libraries/drivers/src/at32f403a_407_can.c ****   {
 2129              		.loc 1 1064 3 view .LVU707
 2130 0080 7047     		bx	lr
 2131              	.LVL180:
 2132              	.L147:
1064:libraries/drivers/src/at32f403a_407_can.c ****   {
 2133              		.loc 1 1064 3 view .LVU708
 2134 0082 1029     		cmp	r1, #16
 2135 0084 31D0     		beq	.L153
 2136 0086 1129     		cmp	r1, #17
 2137 0088 39D0     		beq	.L154
 2138 008a 0F29     		cmp	r1, #15
 2139 008c 03D1     		bne	.L169
1126:libraries/drivers/src/at32f403a_407_can.c ****     case CAN_RF1OF_FLAG:
1127:libraries/drivers/src/at32f403a_407_can.c ****       bit_status = (flag_status)can_x->rf1_bit.rf1of;
1128:libraries/drivers/src/at32f403a_407_can.c ****       break;
1129:libraries/drivers/src/at32f403a_407_can.c ****     case CAN_QDZIF_FLAG:
1130:libraries/drivers/src/at32f403a_407_can.c ****       bit_status = (flag_status)can_x->msts_bit.qdzif;
 2140              		.loc 1 1130 7 is_stmt 1 view .LVU709
 2141              		.loc 1 1130 48 is_stmt 0 view .LVU710
 2142 008e 4068     		ldr	r0, [r0, #4]
 2143              	.LVL181:
 2144              		.loc 1 1130 48 view .LVU711
 2145 0090 C0F3C000 		ubfx	r0, r0, #3, #1
 2146              	.LVL182:
1131:libraries/drivers/src/at32f403a_407_can.c ****       break;
 2147              		.loc 1 1131 7 is_stmt 1 view .LVU712
 2148 0094 7047     		bx	lr
 2149              	.LVL183:
 2150              	.L169:
1064:libraries/drivers/src/at32f403a_407_can.c ****   {
 2151              		.loc 1 1064 3 is_stmt 0 view .LVU713
 2152 0096 0020     		movs	r0, #0
 2153              	.LVL184:
1064:libraries/drivers/src/at32f403a_407_can.c ****   {
 2154              		.loc 1 1064 3 view .LVU714
 2155 0098 7047     		bx	lr
 2156              	.LVL185:
 2157              	.L139:
1067:libraries/drivers/src/at32f403a_407_can.c ****       break;
 2158              		.loc 1 1067 7 is_stmt 1 view .LVU715
1067:libraries/drivers/src/at32f403a_407_can.c ****       break;
 2159              		.loc 1 1067 48 is_stmt 0 view .LVU716
 2160 009a 8069     		ldr	r0, [r0, #24]
 2161              	.LVL186:
1067:libraries/drivers/src/at32f403a_407_can.c ****       break;
 2162              		.loc 1 1067 48 view .LVU717
 2163 009c 00F00100 		and	r0, r0, #1
 2164              	.LVL187:
1068:libraries/drivers/src/at32f403a_407_can.c ****     case CAN_EPF_FLAG:
 2165              		.loc 1 1068 7 is_stmt 1 view .LVU718
 2166 00a0 7047     		bx	lr
ARM GAS  C:\Users\10963\AppData\Local\Temp\ccZn7T5h.s 			page 62


 2167              	.LVL188:
 2168              	.L137:
1073:libraries/drivers/src/at32f403a_407_can.c ****       break;
 2169              		.loc 1 1073 7 view .LVU719
1073:libraries/drivers/src/at32f403a_407_can.c ****       break;
 2170              		.loc 1 1073 48 is_stmt 0 view .LVU720
 2171 00a2 8069     		ldr	r0, [r0, #24]
 2172              	.LVL189:
1073:libraries/drivers/src/at32f403a_407_can.c ****       break;
 2173              		.loc 1 1073 48 view .LVU721
 2174 00a4 C0F38000 		ubfx	r0, r0, #2, #1
 2175              	.LVL190:
1074:libraries/drivers/src/at32f403a_407_can.c ****     case CAN_ETR_FLAG:
 2176              		.loc 1 1074 7 is_stmt 1 view .LVU722
 2177 00a8 7047     		bx	lr
 2178              	.LVL191:
 2179              	.L135:
1086:libraries/drivers/src/at32f403a_407_can.c ****       break;
 2180              		.loc 1 1086 7 view .LVU723
1086:libraries/drivers/src/at32f403a_407_can.c ****       break;
 2181              		.loc 1 1086 48 is_stmt 0 view .LVU724
 2182 00aa 4068     		ldr	r0, [r0, #4]
 2183              	.LVL192:
1086:libraries/drivers/src/at32f403a_407_can.c ****       break;
 2184              		.loc 1 1086 48 view .LVU725
 2185 00ac C0F38000 		ubfx	r0, r0, #2, #1
 2186              	.LVL193:
1087:libraries/drivers/src/at32f403a_407_can.c ****     case CAN_TM0TCF_FLAG:
 2187              		.loc 1 1087 7 is_stmt 1 view .LVU726
 2188 00b0 7047     		bx	lr
 2189              	.LVL194:
 2190              	.L143:
1092:libraries/drivers/src/at32f403a_407_can.c ****       break;
 2191              		.loc 1 1092 7 view .LVU727
1092:libraries/drivers/src/at32f403a_407_can.c ****       break;
 2192              		.loc 1 1092 48 is_stmt 0 view .LVU728
 2193 00b2 8068     		ldr	r0, [r0, #8]
 2194              	.LVL195:
1092:libraries/drivers/src/at32f403a_407_can.c ****       break;
 2195              		.loc 1 1092 48 view .LVU729
 2196 00b4 C0F30020 		ubfx	r0, r0, #8, #1
 2197              	.LVL196:
1093:libraries/drivers/src/at32f403a_407_can.c ****     case CAN_TM2TCF_FLAG:
 2198              		.loc 1 1093 7 is_stmt 1 view .LVU730
 2199 00b8 7047     		bx	lr
 2200              	.LVL197:
 2201              	.L144:
1095:libraries/drivers/src/at32f403a_407_can.c ****       break;
 2202              		.loc 1 1095 7 view .LVU731
1095:libraries/drivers/src/at32f403a_407_can.c ****       break;
 2203              		.loc 1 1095 48 is_stmt 0 view .LVU732
 2204 00ba 8068     		ldr	r0, [r0, #8]
 2205              	.LVL198:
1095:libraries/drivers/src/at32f403a_407_can.c ****       break;
 2206              		.loc 1 1095 48 view .LVU733
 2207 00bc C0F30040 		ubfx	r0, r0, #16, #1
 2208              	.LVL199:
ARM GAS  C:\Users\10963\AppData\Local\Temp\ccZn7T5h.s 			page 63


1096:libraries/drivers/src/at32f403a_407_can.c ****     case CAN_RF0MN_FLAG:
 2209              		.loc 1 1096 7 is_stmt 1 view .LVU734
 2210 00c0 7047     		bx	lr
 2211              	.LVL200:
 2212              	.L133:
1098:libraries/drivers/src/at32f403a_407_can.c ****       {
 2213              		.loc 1 1098 7 view .LVU735
1098:libraries/drivers/src/at32f403a_407_can.c ****       {
 2214              		.loc 1 1098 24 is_stmt 0 view .LVU736
 2215 00c2 C368     		ldr	r3, [r0, #12]
1098:libraries/drivers/src/at32f403a_407_can.c ****       {
 2216              		.loc 1 1098 9 view .LVU737
 2217 00c4 13F0030F 		tst	r3, #3
 2218 00c8 29D0     		beq	.L157
1100:libraries/drivers/src/at32f403a_407_can.c ****       }
 2219              		.loc 1 1100 20 view .LVU738
 2220 00ca 0120     		movs	r0, #1
 2221              	.LVL201:
1100:libraries/drivers/src/at32f403a_407_can.c ****       }
 2222              		.loc 1 1100 20 view .LVU739
 2223 00cc 7047     		bx	lr
 2224              	.LVL202:
 2225              	.L150:
1108:libraries/drivers/src/at32f403a_407_can.c ****       break;
 2226              		.loc 1 1108 7 is_stmt 1 view .LVU740
1108:libraries/drivers/src/at32f403a_407_can.c ****       break;
 2227              		.loc 1 1108 47 is_stmt 0 view .LVU741
 2228 00ce C068     		ldr	r0, [r0, #12]
 2229              	.LVL203:
1108:libraries/drivers/src/at32f403a_407_can.c ****       break;
 2230              		.loc 1 1108 47 view .LVU742
 2231 00d0 C0F3C000 		ubfx	r0, r0, #3, #1
 2232              	.LVL204:
1109:libraries/drivers/src/at32f403a_407_can.c ****     case CAN_RF0OF_FLAG:
 2233              		.loc 1 1109 7 is_stmt 1 view .LVU743
 2234 00d4 7047     		bx	lr
 2235              	.LVL205:
 2236              	.L148:
1114:libraries/drivers/src/at32f403a_407_can.c ****       {
 2237              		.loc 1 1114 7 view .LVU744
1114:libraries/drivers/src/at32f403a_407_can.c ****       {
 2238              		.loc 1 1114 24 is_stmt 0 view .LVU745
 2239 00d6 0369     		ldr	r3, [r0, #16]
1114:libraries/drivers/src/at32f403a_407_can.c ****       {
 2240              		.loc 1 1114 9 view .LVU746
 2241 00d8 13F0030F 		tst	r3, #3
 2242 00dc 21D0     		beq	.L158
1116:libraries/drivers/src/at32f403a_407_can.c ****       }
 2243              		.loc 1 1116 20 view .LVU747
 2244 00de 0120     		movs	r0, #1
 2245              	.LVL206:
1116:libraries/drivers/src/at32f403a_407_can.c ****       }
 2246              		.loc 1 1116 20 view .LVU748
 2247 00e0 7047     		bx	lr
 2248              	.LVL207:
 2249              	.L146:
1127:libraries/drivers/src/at32f403a_407_can.c ****       break;
ARM GAS  C:\Users\10963\AppData\Local\Temp\ccZn7T5h.s 			page 64


 2250              		.loc 1 1127 7 is_stmt 1 view .LVU749
1127:libraries/drivers/src/at32f403a_407_can.c ****       break;
 2251              		.loc 1 1127 47 is_stmt 0 view .LVU750
 2252 00e2 0069     		ldr	r0, [r0, #16]
 2253              	.LVL208:
1127:libraries/drivers/src/at32f403a_407_can.c ****       break;
 2254              		.loc 1 1127 47 view .LVU751
 2255 00e4 C0F30010 		ubfx	r0, r0, #4, #1
 2256              	.LVL209:
1128:libraries/drivers/src/at32f403a_407_can.c ****     case CAN_QDZIF_FLAG:
 2257              		.loc 1 1128 7 is_stmt 1 view .LVU752
 2258 00e8 7047     		bx	lr
 2259              	.LVL210:
 2260              	.L153:
1132:libraries/drivers/src/at32f403a_407_can.c ****     case CAN_EDZC_FLAG:
1133:libraries/drivers/src/at32f403a_407_can.c ****       if((can_x->msts_bit.dzc != RESET) ||(can_x->msts_bit.edzif != RESET))
 2261              		.loc 1 1133 7 view .LVU753
 2262              		.loc 1 1133 26 is_stmt 0 view .LVU754
 2263 00ea 4368     		ldr	r3, [r0, #4]
 2264              		.loc 1 1133 9 view .LVU755
 2265 00ec 13F0020F 		tst	r3, #2
 2266 00f0 19D1     		bne	.L159
 2267              		.loc 1 1133 59 discriminator 1 view .LVU756
 2268 00f2 4368     		ldr	r3, [r0, #4]
 2269              		.loc 1 1133 41 discriminator 1 view .LVU757
 2270 00f4 13F0100F 		tst	r3, #16
 2271 00f8 17D0     		beq	.L160
1134:libraries/drivers/src/at32f403a_407_can.c ****       {
1135:libraries/drivers/src/at32f403a_407_can.c ****         bit_status = SET;
 2272              		.loc 1 1135 20 view .LVU758
 2273 00fa 0120     		movs	r0, #1
 2274              	.LVL211:
 2275              		.loc 1 1135 20 view .LVU759
 2276 00fc 7047     		bx	lr
 2277              	.LVL212:
 2278              	.L154:
1136:libraries/drivers/src/at32f403a_407_can.c ****       }
1137:libraries/drivers/src/at32f403a_407_can.c ****       else
1138:libraries/drivers/src/at32f403a_407_can.c ****       {
1139:libraries/drivers/src/at32f403a_407_can.c ****         bit_status = RESET;
1140:libraries/drivers/src/at32f403a_407_can.c ****       }
1141:libraries/drivers/src/at32f403a_407_can.c ****       break;
1142:libraries/drivers/src/at32f403a_407_can.c ****     case CAN_TMEF_FLAG:
1143:libraries/drivers/src/at32f403a_407_can.c ****       if((can_x->tsts_bit.tm0ef != RESET) || (can_x->tsts_bit.tm1ef != RESET) || (can_x->tsts_bit.t
 2279              		.loc 1 1143 7 is_stmt 1 view .LVU760
 2280              		.loc 1 1143 26 is_stmt 0 view .LVU761
 2281 00fe 8368     		ldr	r3, [r0, #8]
 2282              		.loc 1 1143 9 view .LVU762
 2283 0100 13F0806F 		tst	r3, #67108864
 2284 0104 13D1     		bne	.L161
 2285              		.loc 1 1143 62 discriminator 1 view .LVU763
 2286 0106 8368     		ldr	r3, [r0, #8]
 2287              		.loc 1 1143 43 discriminator 1 view .LVU764
 2288 0108 13F0006F 		tst	r3, #134217728
 2289 010c 11D1     		bne	.L162
 2290              		.loc 1 1143 98 discriminator 2 view .LVU765
 2291 010e 8368     		ldr	r3, [r0, #8]
ARM GAS  C:\Users\10963\AppData\Local\Temp\ccZn7T5h.s 			page 65


 2292              		.loc 1 1143 79 discriminator 2 view .LVU766
 2293 0110 13F0805F 		tst	r3, #268435456
 2294 0114 0FD0     		beq	.L163
1144:libraries/drivers/src/at32f403a_407_can.c ****       {
1145:libraries/drivers/src/at32f403a_407_can.c ****         bit_status = SET;
 2295              		.loc 1 1145 20 view .LVU767
 2296 0116 0120     		movs	r0, #1
 2297              	.LVL213:
 2298              		.loc 1 1145 20 view .LVU768
 2299 0118 7047     		bx	lr
 2300              	.LVL214:
 2301              	.L156:
1082:libraries/drivers/src/at32f403a_407_can.c ****       }
 2302              		.loc 1 1082 20 view .LVU769
 2303 011a 0020     		movs	r0, #0
 2304              	.LVL215:
1082:libraries/drivers/src/at32f403a_407_can.c ****       }
 2305              		.loc 1 1082 20 view .LVU770
 2306 011c 7047     		bx	lr
 2307              	.LVL216:
 2308              	.L157:
1104:libraries/drivers/src/at32f403a_407_can.c ****       }
 2309              		.loc 1 1104 20 view .LVU771
 2310 011e 0020     		movs	r0, #0
 2311              	.LVL217:
1104:libraries/drivers/src/at32f403a_407_can.c ****       }
 2312              		.loc 1 1104 20 view .LVU772
 2313 0120 7047     		bx	lr
 2314              	.LVL218:
 2315              	.L158:
1120:libraries/drivers/src/at32f403a_407_can.c ****       }
 2316              		.loc 1 1120 20 view .LVU773
 2317 0122 0020     		movs	r0, #0
 2318              	.LVL219:
1120:libraries/drivers/src/at32f403a_407_can.c ****       }
 2319              		.loc 1 1120 20 view .LVU774
 2320 0124 7047     		bx	lr
 2321              	.LVL220:
 2322              	.L159:
1135:libraries/drivers/src/at32f403a_407_can.c ****       }
 2323              		.loc 1 1135 20 view .LVU775
 2324 0126 0120     		movs	r0, #1
 2325              	.LVL221:
1135:libraries/drivers/src/at32f403a_407_can.c ****       }
 2326              		.loc 1 1135 20 view .LVU776
 2327 0128 7047     		bx	lr
 2328              	.LVL222:
 2329              	.L160:
1139:libraries/drivers/src/at32f403a_407_can.c ****       }
 2330              		.loc 1 1139 20 view .LVU777
 2331 012a 0020     		movs	r0, #0
 2332              	.LVL223:
1139:libraries/drivers/src/at32f403a_407_can.c ****       }
 2333              		.loc 1 1139 20 view .LVU778
 2334 012c 7047     		bx	lr
 2335              	.LVL224:
 2336              	.L161:
ARM GAS  C:\Users\10963\AppData\Local\Temp\ccZn7T5h.s 			page 66


 2337              		.loc 1 1145 20 view .LVU779
 2338 012e 0120     		movs	r0, #1
 2339              	.LVL225:
 2340              		.loc 1 1145 20 view .LVU780
 2341 0130 7047     		bx	lr
 2342              	.LVL226:
 2343              	.L162:
 2344              		.loc 1 1145 20 view .LVU781
 2345 0132 0120     		movs	r0, #1
 2346              	.LVL227:
 2347              		.loc 1 1145 20 view .LVU782
 2348 0134 7047     		bx	lr
 2349              	.LVL228:
 2350              	.L163:
1146:libraries/drivers/src/at32f403a_407_can.c ****       }
1147:libraries/drivers/src/at32f403a_407_can.c ****       else
1148:libraries/drivers/src/at32f403a_407_can.c ****       {
1149:libraries/drivers/src/at32f403a_407_can.c ****         bit_status = RESET;
 2351              		.loc 1 1149 20 view .LVU783
 2352 0136 0020     		movs	r0, #0
 2353              	.LVL229:
1150:libraries/drivers/src/at32f403a_407_can.c ****       }
1151:libraries/drivers/src/at32f403a_407_can.c ****       break;
1152:libraries/drivers/src/at32f403a_407_can.c ****     default:
1153:libraries/drivers/src/at32f403a_407_can.c ****       bit_status = RESET;
1154:libraries/drivers/src/at32f403a_407_can.c ****       break;
1155:libraries/drivers/src/at32f403a_407_can.c ****   }
1156:libraries/drivers/src/at32f403a_407_can.c ****   return bit_status;
 2354              		.loc 1 1156 3 is_stmt 1 view .LVU784
1157:libraries/drivers/src/at32f403a_407_can.c **** }
 2355              		.loc 1 1157 1 is_stmt 0 view .LVU785
 2356 0138 7047     		bx	lr
 2357              		.cfi_endproc
 2358              	.LFE157:
 2360              		.section	.text.can_interrupt_flag_get,"ax",%progbits
 2361              		.align	1
 2362              		.global	can_interrupt_flag_get
 2363              		.syntax unified
 2364              		.thumb
 2365              		.thumb_func
 2367              	can_interrupt_flag_get:
 2368              	.LVL230:
 2369              	.LFB156:
 966:libraries/drivers/src/at32f403a_407_can.c ****   flag_status bit_status = RESET;
 2370              		.loc 1 966 1 is_stmt 1 view -0
 2371              		.cfi_startproc
 2372              		@ args = 0, pretend = 0, frame = 0
 2373              		@ frame_needed = 0, uses_anonymous_args = 0
 966:libraries/drivers/src/at32f403a_407_can.c ****   flag_status bit_status = RESET;
 2374              		.loc 1 966 1 is_stmt 0 view .LVU787
 2375 0000 08B5     		push	{r3, lr}
 2376              	.LCFI7:
 2377              		.cfi_def_cfa_offset 8
 2378              		.cfi_offset 3, -8
 2379              		.cfi_offset 14, -4
 967:libraries/drivers/src/at32f403a_407_can.c ****   flag_status int_status = RESET;
 2380              		.loc 1 967 3 is_stmt 1 view .LVU788
ARM GAS  C:\Users\10963\AppData\Local\Temp\ccZn7T5h.s 			page 67


 2381              	.LVL231:
 968:libraries/drivers/src/at32f403a_407_can.c **** 
 2382              		.loc 1 968 3 view .LVU789
 970:libraries/drivers/src/at32f403a_407_can.c ****   {
 2383              		.loc 1 970 3 view .LVU790
 2384 0002 0A29     		cmp	r1, #10
 2385 0004 6AD0     		beq	.L171
 2386 0006 2CD8     		bhi	.L172
 2387 0008 0429     		cmp	r1, #4
 2388 000a 59D0     		beq	.L173
 2389 000c 11D8     		bhi	.L174
 2390 000e 0229     		cmp	r1, #2
 2391 0010 42D0     		beq	.L175
 2392 0012 0329     		cmp	r1, #3
 2393 0014 4AD0     		beq	.L176
 2394 0016 0129     		cmp	r1, #1
 2395 0018 09D1     		bne	.L199
 973:libraries/drivers/src/at32f403a_407_can.c ****       break;
 2396              		.loc 1 973 7 view .LVU791
 973:libraries/drivers/src/at32f403a_407_can.c ****       break;
 2397              		.loc 1 973 50 is_stmt 0 view .LVU792
 2398 001a 4369     		ldr	r3, [r0, #20]
 973:libraries/drivers/src/at32f403a_407_can.c ****       break;
 2399              		.loc 1 973 57 view .LVU793
 2400 001c 13F4004F 		tst	r3, #32768
 2401 0020 74D0     		beq	.L193
 973:libraries/drivers/src/at32f403a_407_can.c ****       break;
 2402              		.loc 1 973 76 discriminator 1 view .LVU794
 2403 0022 4369     		ldr	r3, [r0, #20]
 973:libraries/drivers/src/at32f403a_407_can.c ****       break;
 2404              		.loc 1 973 57 discriminator 1 view .LVU795
 2405 0024 13F4807F 		tst	r3, #256
 2406 0028 0ED1     		bne	.L191
1026:libraries/drivers/src/at32f403a_407_can.c ****   }
 2407              		.loc 1 1026 12 view .LVU796
 2408 002a 0020     		movs	r0, #0
 2409              	.LVL232:
1026:libraries/drivers/src/at32f403a_407_can.c ****   }
 2410              		.loc 1 1026 12 view .LVU797
 2411 002c 0EE0     		b	.L178
 2412              	.LVL233:
 2413              	.L199:
 970:libraries/drivers/src/at32f403a_407_can.c ****   {
 2414              		.loc 1 970 3 view .LVU798
 2415 002e 0020     		movs	r0, #0
 2416              	.LVL234:
 970:libraries/drivers/src/at32f403a_407_can.c ****   {
 2417              		.loc 1 970 3 view .LVU799
 2418 0030 0CE0     		b	.L178
 2419              	.LVL235:
 2420              	.L174:
 970:libraries/drivers/src/at32f403a_407_can.c ****   {
 2421              		.loc 1 970 3 view .LVU800
 2422 0032 0829     		cmp	r1, #8
 2423 0034 0DD8     		bhi	.L179
 2424 0036 0629     		cmp	r1, #6
 2425 0038 4CD2     		bcs	.L180
ARM GAS  C:\Users\10963\AppData\Local\Temp\ccZn7T5h.s 			page 68


 2426 003a 0529     		cmp	r1, #5
 2427 003c 07D1     		bne	.L200
 985:libraries/drivers/src/at32f403a_407_can.c ****       break;
 2428              		.loc 1 985 7 is_stmt 1 view .LVU801
 985:libraries/drivers/src/at32f403a_407_can.c ****       break;
 2429              		.loc 1 985 49 is_stmt 0 view .LVU802
 2430 003e 4369     		ldr	r3, [r0, #20]
 2431 0040 C3F3C033 		ubfx	r3, r3, #15, #1
 2432              	.LVL236:
 986:libraries/drivers/src/at32f403a_407_can.c ****     case CAN_TM0TCF_FLAG:
 2433              		.loc 1 986 7 is_stmt 1 view .LVU803
 2434              	.L192:
1024:libraries/drivers/src/at32f403a_407_can.c ****   {
 2435              		.loc 1 1024 3 view .LVU804
1024:libraries/drivers/src/at32f403a_407_can.c ****   {
 2436              		.loc 1 1024 5 is_stmt 0 view .LVU805
 2437 0044 002B     		cmp	r3, #0
 2438 0046 69D0     		beq	.L197
 2439              	.LVL237:
 2440              	.L191:
1028:libraries/drivers/src/at32f403a_407_can.c **** 
 2441              		.loc 1 1028 3 is_stmt 1 view .LVU806
1028:libraries/drivers/src/at32f403a_407_can.c **** 
 2442              		.loc 1 1028 16 is_stmt 0 view .LVU807
 2443 0048 FFF7FEFF 		bl	can_flag_get
 2444              	.LVL238:
1030:libraries/drivers/src/at32f403a_407_can.c **** }
 2445              		.loc 1 1030 3 is_stmt 1 view .LVU808
 2446              	.L178:
1031:libraries/drivers/src/at32f403a_407_can.c **** 
 2447              		.loc 1 1031 1 is_stmt 0 view .LVU809
 2448 004c 08BD     		pop	{r3, pc}
 2449              	.LVL239:
 2450              	.L200:
 970:libraries/drivers/src/at32f403a_407_can.c ****   {
 2451              		.loc 1 970 3 view .LVU810
 2452 004e 0020     		movs	r0, #0
 2453              	.LVL240:
 970:libraries/drivers/src/at32f403a_407_can.c ****   {
 2454              		.loc 1 970 3 view .LVU811
 2455 0050 FCE7     		b	.L178
 2456              	.LVL241:
 2457              	.L179:
 970:libraries/drivers/src/at32f403a_407_can.c ****   {
 2458              		.loc 1 970 3 view .LVU812
 2459 0052 0929     		cmp	r1, #9
 2460 0054 03D1     		bne	.L201
 993:libraries/drivers/src/at32f403a_407_can.c ****       break;
 2461              		.loc 1 993 7 is_stmt 1 view .LVU813
 993:libraries/drivers/src/at32f403a_407_can.c ****       break;
 2462              		.loc 1 993 49 is_stmt 0 view .LVU814
 2463 0056 4369     		ldr	r3, [r0, #20]
 2464 0058 C3F34003 		ubfx	r3, r3, #1, #1
 2465              	.LVL242:
 994:libraries/drivers/src/at32f403a_407_can.c ****     case CAN_RF0FF_FLAG:
 2466              		.loc 1 994 7 is_stmt 1 view .LVU815
 2467 005c F2E7     		b	.L192
ARM GAS  C:\Users\10963\AppData\Local\Temp\ccZn7T5h.s 			page 69


 2468              	.LVL243:
 2469              	.L201:
 970:libraries/drivers/src/at32f403a_407_can.c ****   {
 2470              		.loc 1 970 3 is_stmt 0 view .LVU816
 2471 005e 0020     		movs	r0, #0
 2472              	.LVL244:
 970:libraries/drivers/src/at32f403a_407_can.c ****   {
 2473              		.loc 1 970 3 view .LVU817
 2474 0060 F4E7     		b	.L178
 2475              	.LVL245:
 2476              	.L172:
 970:libraries/drivers/src/at32f403a_407_can.c ****   {
 2477              		.loc 1 970 3 view .LVU818
 2478 0062 0E29     		cmp	r1, #14
 2479 0064 46D0     		beq	.L183
 2480 0066 0BD8     		bhi	.L184
 2481 0068 0C29     		cmp	r1, #12
 2482 006a 3BD0     		beq	.L185
 2483 006c 0D29     		cmp	r1, #13
 2484 006e 3DD0     		beq	.L186
 2485 0070 0B29     		cmp	r1, #11
 2486 0072 03D1     		bne	.L202
 999:libraries/drivers/src/at32f403a_407_can.c ****       break;
 2487              		.loc 1 999 7 is_stmt 1 view .LVU819
 999:libraries/drivers/src/at32f403a_407_can.c ****       break;
 2488              		.loc 1 999 49 is_stmt 0 view .LVU820
 2489 0074 4369     		ldr	r3, [r0, #20]
 2490 0076 C3F3C003 		ubfx	r3, r3, #3, #1
 2491              	.LVL246:
1000:libraries/drivers/src/at32f403a_407_can.c ****     case CAN_RF1MN_FLAG:
 2492              		.loc 1 1000 7 is_stmt 1 view .LVU821
 2493 007a E3E7     		b	.L192
 2494              	.LVL247:
 2495              	.L202:
 970:libraries/drivers/src/at32f403a_407_can.c ****   {
 2496              		.loc 1 970 3 is_stmt 0 view .LVU822
 2497 007c 0020     		movs	r0, #0
 2498              	.LVL248:
 970:libraries/drivers/src/at32f403a_407_can.c ****   {
 2499              		.loc 1 970 3 view .LVU823
 2500 007e E5E7     		b	.L178
 2501              	.LVL249:
 2502              	.L184:
 970:libraries/drivers/src/at32f403a_407_can.c ****   {
 2503              		.loc 1 970 3 view .LVU824
 2504 0080 1029     		cmp	r1, #16
 2505 0082 3BD0     		beq	.L188
 2506 0084 1129     		cmp	r1, #17
 2507 0086 3DD0     		beq	.L189
 2508 0088 0F29     		cmp	r1, #15
 2509 008a 03D1     		bne	.L203
1011:libraries/drivers/src/at32f403a_407_can.c ****       break;
 2510              		.loc 1 1011 7 is_stmt 1 view .LVU825
1011:libraries/drivers/src/at32f403a_407_can.c ****       break;
 2511              		.loc 1 1011 49 is_stmt 0 view .LVU826
 2512 008c 4369     		ldr	r3, [r0, #20]
 2513 008e C3F30043 		ubfx	r3, r3, #16, #1
ARM GAS  C:\Users\10963\AppData\Local\Temp\ccZn7T5h.s 			page 70


 2514              	.LVL250:
1012:libraries/drivers/src/at32f403a_407_can.c ****     case CAN_EDZC_FLAG:
 2515              		.loc 1 1012 7 is_stmt 1 view .LVU827
 2516 0092 D7E7     		b	.L192
 2517              	.LVL251:
 2518              	.L203:
 970:libraries/drivers/src/at32f403a_407_can.c ****   {
 2519              		.loc 1 970 3 is_stmt 0 view .LVU828
 2520 0094 0020     		movs	r0, #0
 2521              	.LVL252:
 970:libraries/drivers/src/at32f403a_407_can.c ****   {
 2522              		.loc 1 970 3 view .LVU829
 2523 0096 D9E7     		b	.L178
 2524              	.LVL253:
 2525              	.L175:
 976:libraries/drivers/src/at32f403a_407_can.c ****       break;
 2526              		.loc 1 976 7 is_stmt 1 view .LVU830
 976:libraries/drivers/src/at32f403a_407_can.c ****       break;
 2527              		.loc 1 976 50 is_stmt 0 view .LVU831
 2528 0098 4369     		ldr	r3, [r0, #20]
 976:libraries/drivers/src/at32f403a_407_can.c ****       break;
 2529              		.loc 1 976 57 view .LVU832
 2530 009a 13F4004F 		tst	r3, #32768
 2531 009e 37D0     		beq	.L194
 976:libraries/drivers/src/at32f403a_407_can.c ****       break;
 2532              		.loc 1 976 76 discriminator 1 view .LVU833
 2533 00a0 4369     		ldr	r3, [r0, #20]
 976:libraries/drivers/src/at32f403a_407_can.c ****       break;
 2534              		.loc 1 976 57 discriminator 1 view .LVU834
 2535 00a2 13F4007F 		tst	r3, #512
 2536 00a6 CFD1     		bne	.L191
1026:libraries/drivers/src/at32f403a_407_can.c ****   }
 2537              		.loc 1 1026 12 view .LVU835
 2538 00a8 0020     		movs	r0, #0
 2539              	.LVL254:
1026:libraries/drivers/src/at32f403a_407_can.c ****   }
 2540              		.loc 1 1026 12 view .LVU836
 2541 00aa CFE7     		b	.L178
 2542              	.LVL255:
 2543              	.L176:
 979:libraries/drivers/src/at32f403a_407_can.c ****       break;
 2544              		.loc 1 979 7 is_stmt 1 view .LVU837
 979:libraries/drivers/src/at32f403a_407_can.c ****       break;
 2545              		.loc 1 979 50 is_stmt 0 view .LVU838
 2546 00ac 4369     		ldr	r3, [r0, #20]
 979:libraries/drivers/src/at32f403a_407_can.c ****       break;
 2547              		.loc 1 979 57 view .LVU839
 2548 00ae 13F4004F 		tst	r3, #32768
 2549 00b2 2FD0     		beq	.L195
 979:libraries/drivers/src/at32f403a_407_can.c ****       break;
 2550              		.loc 1 979 76 discriminator 1 view .LVU840
 2551 00b4 4369     		ldr	r3, [r0, #20]
 979:libraries/drivers/src/at32f403a_407_can.c ****       break;
 2552              		.loc 1 979 57 discriminator 1 view .LVU841
 2553 00b6 13F4806F 		tst	r3, #1024
 2554 00ba C5D1     		bne	.L191
1026:libraries/drivers/src/at32f403a_407_can.c ****   }
ARM GAS  C:\Users\10963\AppData\Local\Temp\ccZn7T5h.s 			page 71


 2555              		.loc 1 1026 12 view .LVU842
 2556 00bc 0020     		movs	r0, #0
 2557              	.LVL256:
1026:libraries/drivers/src/at32f403a_407_can.c ****   }
 2558              		.loc 1 1026 12 view .LVU843
 2559 00be C5E7     		b	.L178
 2560              	.LVL257:
 2561              	.L173:
 982:libraries/drivers/src/at32f403a_407_can.c ****       break;
 2562              		.loc 1 982 7 is_stmt 1 view .LVU844
 982:libraries/drivers/src/at32f403a_407_can.c ****       break;
 2563              		.loc 1 982 50 is_stmt 0 view .LVU845
 2564 00c0 4369     		ldr	r3, [r0, #20]
 982:libraries/drivers/src/at32f403a_407_can.c ****       break;
 2565              		.loc 1 982 57 view .LVU846
 2566 00c2 13F4004F 		tst	r3, #32768
 2567 00c6 27D0     		beq	.L196
 982:libraries/drivers/src/at32f403a_407_can.c ****       break;
 2568              		.loc 1 982 76 discriminator 1 view .LVU847
 2569 00c8 4369     		ldr	r3, [r0, #20]
 982:libraries/drivers/src/at32f403a_407_can.c ****       break;
 2570              		.loc 1 982 57 discriminator 1 view .LVU848
 2571 00ca 13F4006F 		tst	r3, #2048
 2572 00ce BBD1     		bne	.L191
1026:libraries/drivers/src/at32f403a_407_can.c ****   }
 2573              		.loc 1 1026 12 view .LVU849
 2574 00d0 0020     		movs	r0, #0
 2575              	.LVL258:
1026:libraries/drivers/src/at32f403a_407_can.c ****   }
 2576              		.loc 1 1026 12 view .LVU850
 2577 00d2 BBE7     		b	.L178
 2578              	.LVL259:
 2579              	.L180:
 990:libraries/drivers/src/at32f403a_407_can.c ****       break;
 2580              		.loc 1 990 7 is_stmt 1 view .LVU851
 990:libraries/drivers/src/at32f403a_407_can.c ****       break;
 2581              		.loc 1 990 49 is_stmt 0 view .LVU852
 2582 00d4 4369     		ldr	r3, [r0, #20]
 2583 00d6 03F00103 		and	r3, r3, #1
 2584              	.LVL260:
 991:libraries/drivers/src/at32f403a_407_can.c ****     case CAN_RF0MN_FLAG:
 2585              		.loc 1 991 7 is_stmt 1 view .LVU853
 2586 00da B3E7     		b	.L192
 2587              	.LVL261:
 2588              	.L171:
 996:libraries/drivers/src/at32f403a_407_can.c ****       break;
 2589              		.loc 1 996 7 view .LVU854
 996:libraries/drivers/src/at32f403a_407_can.c ****       break;
 2590              		.loc 1 996 49 is_stmt 0 view .LVU855
 2591 00dc 4369     		ldr	r3, [r0, #20]
 2592 00de C3F38003 		ubfx	r3, r3, #2, #1
 2593              	.LVL262:
 997:libraries/drivers/src/at32f403a_407_can.c ****     case CAN_RF0OF_FLAG:
 2594              		.loc 1 997 7 is_stmt 1 view .LVU856
 2595 00e2 AFE7     		b	.L192
 2596              	.LVL263:
 2597              	.L185:
ARM GAS  C:\Users\10963\AppData\Local\Temp\ccZn7T5h.s 			page 72


1002:libraries/drivers/src/at32f403a_407_can.c ****       break;
 2598              		.loc 1 1002 7 view .LVU857
1002:libraries/drivers/src/at32f403a_407_can.c ****       break;
 2599              		.loc 1 1002 49 is_stmt 0 view .LVU858
 2600 00e4 4369     		ldr	r3, [r0, #20]
 2601 00e6 C3F30013 		ubfx	r3, r3, #4, #1
 2602              	.LVL264:
1003:libraries/drivers/src/at32f403a_407_can.c ****     case CAN_RF1FF_FLAG:
 2603              		.loc 1 1003 7 is_stmt 1 view .LVU859
 2604 00ea ABE7     		b	.L192
 2605              	.LVL265:
 2606              	.L186:
1005:libraries/drivers/src/at32f403a_407_can.c ****       break;
 2607              		.loc 1 1005 7 view .LVU860
1005:libraries/drivers/src/at32f403a_407_can.c ****       break;
 2608              		.loc 1 1005 49 is_stmt 0 view .LVU861
 2609 00ec 4369     		ldr	r3, [r0, #20]
 2610 00ee C3F34013 		ubfx	r3, r3, #5, #1
 2611              	.LVL266:
1006:libraries/drivers/src/at32f403a_407_can.c ****     case CAN_RF1OF_FLAG:
 2612              		.loc 1 1006 7 is_stmt 1 view .LVU862
 2613 00f2 A7E7     		b	.L192
 2614              	.LVL267:
 2615              	.L183:
1008:libraries/drivers/src/at32f403a_407_can.c ****       break;
 2616              		.loc 1 1008 7 view .LVU863
1008:libraries/drivers/src/at32f403a_407_can.c ****       break;
 2617              		.loc 1 1008 49 is_stmt 0 view .LVU864
 2618 00f4 4369     		ldr	r3, [r0, #20]
 2619 00f6 C3F38013 		ubfx	r3, r3, #6, #1
 2620              	.LVL268:
1009:libraries/drivers/src/at32f403a_407_can.c ****     case CAN_QDZIF_FLAG:
 2621              		.loc 1 1009 7 is_stmt 1 view .LVU865
 2622 00fa A3E7     		b	.L192
 2623              	.LVL269:
 2624              	.L188:
1014:libraries/drivers/src/at32f403a_407_can.c ****       break;
 2625              		.loc 1 1014 7 view .LVU866
1014:libraries/drivers/src/at32f403a_407_can.c ****       break;
 2626              		.loc 1 1014 49 is_stmt 0 view .LVU867
 2627 00fc 4369     		ldr	r3, [r0, #20]
 2628 00fe C3F34043 		ubfx	r3, r3, #17, #1
 2629              	.LVL270:
1015:libraries/drivers/src/at32f403a_407_can.c ****     case CAN_TMEF_FLAG:
 2630              		.loc 1 1015 7 is_stmt 1 view .LVU868
 2631 0102 9FE7     		b	.L192
 2632              	.LVL271:
 2633              	.L189:
1017:libraries/drivers/src/at32f403a_407_can.c ****       break;
 2634              		.loc 1 1017 7 view .LVU869
1017:libraries/drivers/src/at32f403a_407_can.c ****       break;
 2635              		.loc 1 1017 49 is_stmt 0 view .LVU870
 2636 0104 4369     		ldr	r3, [r0, #20]
 2637 0106 03F00103 		and	r3, r3, #1
 2638              	.LVL272:
1018:libraries/drivers/src/at32f403a_407_can.c ****     default:
 2639              		.loc 1 1018 7 is_stmt 1 view .LVU871
ARM GAS  C:\Users\10963\AppData\Local\Temp\ccZn7T5h.s 			page 73


 2640 010a 9BE7     		b	.L192
 2641              	.LVL273:
 2642              	.L193:
1026:libraries/drivers/src/at32f403a_407_can.c ****   }
 2643              		.loc 1 1026 12 is_stmt 0 view .LVU872
 2644 010c 0020     		movs	r0, #0
 2645              	.LVL274:
1026:libraries/drivers/src/at32f403a_407_can.c ****   }
 2646              		.loc 1 1026 12 view .LVU873
 2647 010e 9DE7     		b	.L178
 2648              	.LVL275:
 2649              	.L194:
1026:libraries/drivers/src/at32f403a_407_can.c ****   }
 2650              		.loc 1 1026 12 view .LVU874
 2651 0110 0020     		movs	r0, #0
 2652              	.LVL276:
1026:libraries/drivers/src/at32f403a_407_can.c ****   }
 2653              		.loc 1 1026 12 view .LVU875
 2654 0112 9BE7     		b	.L178
 2655              	.LVL277:
 2656              	.L195:
1026:libraries/drivers/src/at32f403a_407_can.c ****   }
 2657              		.loc 1 1026 12 view .LVU876
 2658 0114 0020     		movs	r0, #0
 2659              	.LVL278:
1026:libraries/drivers/src/at32f403a_407_can.c ****   }
 2660              		.loc 1 1026 12 view .LVU877
 2661 0116 99E7     		b	.L178
 2662              	.LVL279:
 2663              	.L196:
1026:libraries/drivers/src/at32f403a_407_can.c ****   }
 2664              		.loc 1 1026 12 view .LVU878
 2665 0118 0020     		movs	r0, #0
 2666              	.LVL280:
1026:libraries/drivers/src/at32f403a_407_can.c ****   }
 2667              		.loc 1 1026 12 view .LVU879
 2668 011a 97E7     		b	.L178
 2669              	.LVL281:
 2670              	.L197:
1026:libraries/drivers/src/at32f403a_407_can.c ****   }
 2671              		.loc 1 1026 12 view .LVU880
 2672 011c 1846     		mov	r0, r3
 2673              	.LVL282:
1026:libraries/drivers/src/at32f403a_407_can.c ****   }
 2674              		.loc 1 1026 12 view .LVU881
 2675 011e 95E7     		b	.L178
 2676              		.cfi_endproc
 2677              	.LFE156:
 2679              		.section	.text.can_flag_clear,"ax",%progbits
 2680              		.align	1
 2681              		.global	can_flag_clear
 2682              		.syntax unified
 2683              		.thumb
 2684              		.thumb_func
 2686              	can_flag_clear:
 2687              	.LVL283:
 2688              	.LFB158:
ARM GAS  C:\Users\10963\AppData\Local\Temp\ccZn7T5h.s 			page 74


1158:libraries/drivers/src/at32f403a_407_can.c **** 
1159:libraries/drivers/src/at32f403a_407_can.c **** /**
1160:libraries/drivers/src/at32f403a_407_can.c ****   * @brief  clear flag of the specified can peripheral.
1161:libraries/drivers/src/at32f403a_407_can.c ****   * @param  can_x: select the can peripheral.
1162:libraries/drivers/src/at32f403a_407_can.c ****   *         this parameter can be one of the following values:
1163:libraries/drivers/src/at32f403a_407_can.c ****   *         CAN1,CAN2.
1164:libraries/drivers/src/at32f403a_407_can.c ****   * @param  can_flag: select the flag.
1165:libraries/drivers/src/at32f403a_407_can.c ****   *         this parameter can be one of the following flags:
1166:libraries/drivers/src/at32f403a_407_can.c ****   *         - CAN_EAF_FLAG
1167:libraries/drivers/src/at32f403a_407_can.c ****   *         - CAN_EPF_FLAG
1168:libraries/drivers/src/at32f403a_407_can.c ****   *         - CAN_BOF_FLAG
1169:libraries/drivers/src/at32f403a_407_can.c ****   *         - CAN_ETR_FLAG
1170:libraries/drivers/src/at32f403a_407_can.c ****   *         - CAN_EOIF_FLAG
1171:libraries/drivers/src/at32f403a_407_can.c ****   *         - CAN_TM0TCF_FLAG
1172:libraries/drivers/src/at32f403a_407_can.c ****   *         - CAN_TM1TCF_FLAG
1173:libraries/drivers/src/at32f403a_407_can.c ****   *         - CAN_TM2TCF_FLAG
1174:libraries/drivers/src/at32f403a_407_can.c ****   *         - CAN_RF0FF_FLAG
1175:libraries/drivers/src/at32f403a_407_can.c ****   *         - CAN_RF0OF_FLAG
1176:libraries/drivers/src/at32f403a_407_can.c ****   *         - CAN_RF1FF_FLAG
1177:libraries/drivers/src/at32f403a_407_can.c ****   *         - CAN_RF1OF_FLAG
1178:libraries/drivers/src/at32f403a_407_can.c ****   *         - CAN_QDZIF_FLAG
1179:libraries/drivers/src/at32f403a_407_can.c ****   *         - CAN_EDZC_FLAG
1180:libraries/drivers/src/at32f403a_407_can.c ****   *         - CAN_TMEF_FLAG
1181:libraries/drivers/src/at32f403a_407_can.c ****   *         note:CAN_RF0MN_FLAG and CAN_RF1MN_FLAG can not clear by this function
1182:libraries/drivers/src/at32f403a_407_can.c ****   * @retval none.
1183:libraries/drivers/src/at32f403a_407_can.c ****   */
1184:libraries/drivers/src/at32f403a_407_can.c **** void can_flag_clear(can_type* can_x, uint32_t can_flag)
1185:libraries/drivers/src/at32f403a_407_can.c **** {
 2689              		.loc 1 1185 1 is_stmt 1 view -0
 2690              		.cfi_startproc
 2691              		@ args = 0, pretend = 0, frame = 0
 2692              		@ frame_needed = 0, uses_anonymous_args = 0
 2693              		@ link register save eliminated.
1186:libraries/drivers/src/at32f403a_407_can.c ****   switch(can_flag)
 2694              		.loc 1 1186 3 view .LVU883
 2695 0000 0A29     		cmp	r1, #10
 2696 0002 3AD0     		beq	.L205
 2697 0004 0BD9     		bls	.L222
 2698 0006 0F29     		cmp	r1, #15
 2699 0008 40D0     		beq	.L215
 2700 000a 22D8     		bhi	.L216
 2701 000c 0D29     		cmp	r1, #13
 2702 000e 37D0     		beq	.L217
 2703 0010 0E29     		cmp	r1, #14
 2704 0012 38D0     		beq	.L218
 2705 0014 0B29     		cmp	r1, #11
 2706 0016 1BD1     		bne	.L223
1187:libraries/drivers/src/at32f403a_407_can.c ****   {
1188:libraries/drivers/src/at32f403a_407_can.c ****     case CAN_EAF_FLAG:
1189:libraries/drivers/src/at32f403a_407_can.c ****     case CAN_EPF_FLAG:
1190:libraries/drivers/src/at32f403a_407_can.c ****     case CAN_BOF_FLAG:
1191:libraries/drivers/src/at32f403a_407_can.c ****     case CAN_EOIF_FLAG:
1192:libraries/drivers/src/at32f403a_407_can.c ****       can_x->msts = CAN_MSTS_EOIF_VAL;
1193:libraries/drivers/src/at32f403a_407_can.c ****       break;
1194:libraries/drivers/src/at32f403a_407_can.c ****     case CAN_ETR_FLAG:
1195:libraries/drivers/src/at32f403a_407_can.c ****       can_x->msts = CAN_MSTS_EOIF_VAL;
1196:libraries/drivers/src/at32f403a_407_can.c ****       can_x->ests = 0;
ARM GAS  C:\Users\10963\AppData\Local\Temp\ccZn7T5h.s 			page 75


1197:libraries/drivers/src/at32f403a_407_can.c ****       break;
1198:libraries/drivers/src/at32f403a_407_can.c ****     case CAN_TM0TCF_FLAG:
1199:libraries/drivers/src/at32f403a_407_can.c ****       can_x->tsts = CAN_TSTS_TM0TCF_VAL;
1200:libraries/drivers/src/at32f403a_407_can.c ****       break;
1201:libraries/drivers/src/at32f403a_407_can.c ****     case CAN_TM1TCF_FLAG:
1202:libraries/drivers/src/at32f403a_407_can.c ****       can_x->tsts = CAN_TSTS_TM1TCF_VAL;
1203:libraries/drivers/src/at32f403a_407_can.c ****       break;
1204:libraries/drivers/src/at32f403a_407_can.c ****     case CAN_TM2TCF_FLAG:
1205:libraries/drivers/src/at32f403a_407_can.c ****       can_x->tsts = CAN_TSTS_TM2TCF_VAL;
1206:libraries/drivers/src/at32f403a_407_can.c ****       break;
1207:libraries/drivers/src/at32f403a_407_can.c ****     case CAN_RF0FF_FLAG:
1208:libraries/drivers/src/at32f403a_407_can.c ****       can_x->rf0 = CAN_RF0_RF0FF_VAL;
1209:libraries/drivers/src/at32f403a_407_can.c ****       break;
1210:libraries/drivers/src/at32f403a_407_can.c ****     case CAN_RF0OF_FLAG:
1211:libraries/drivers/src/at32f403a_407_can.c ****       can_x->rf0 = CAN_RF0_RF0OF_VAL;
 2707              		.loc 1 1211 7 view .LVU884
 2708              		.loc 1 1211 18 is_stmt 0 view .LVU885
 2709 0018 1023     		movs	r3, #16
 2710 001a C360     		str	r3, [r0, #12]
1212:libraries/drivers/src/at32f403a_407_can.c ****       break;
 2711              		.loc 1 1212 7 is_stmt 1 view .LVU886
 2712 001c 7047     		bx	lr
 2713              	.L222:
1186:libraries/drivers/src/at32f403a_407_can.c ****   switch(can_flag)
 2714              		.loc 1 1186 3 is_stmt 0 view .LVU887
 2715 001e 0629     		cmp	r1, #6
 2716 0020 24D0     		beq	.L207
 2717 0022 0CD8     		bhi	.L208
 2718 0024 0429     		cmp	r1, #4
 2719 0026 1CD0     		beq	.L209
 2720 0028 04D9     		bls	.L224
 2721 002a 0529     		cmp	r1, #5
 2722 002c 06D1     		bne	.L225
 2723              	.LVL284:
 2724              	.L212:
1192:libraries/drivers/src/at32f403a_407_can.c ****       break;
 2725              		.loc 1 1192 7 is_stmt 1 view .LVU888
1192:libraries/drivers/src/at32f403a_407_can.c ****       break;
 2726              		.loc 1 1192 19 is_stmt 0 view .LVU889
 2727 002e 0423     		movs	r3, #4
 2728 0030 4360     		str	r3, [r0, #4]
1193:libraries/drivers/src/at32f403a_407_can.c ****     case CAN_ETR_FLAG:
 2729              		.loc 1 1193 7 is_stmt 1 view .LVU890
 2730 0032 7047     		bx	lr
 2731              	.LVL285:
 2732              	.L224:
1186:libraries/drivers/src/at32f403a_407_can.c ****   {
 2733              		.loc 1 1186 3 is_stmt 0 view .LVU891
 2734 0034 0139     		subs	r1, r1, #1
 2735              	.LVL286:
1186:libraries/drivers/src/at32f403a_407_can.c ****   {
 2736              		.loc 1 1186 3 view .LVU892
 2737 0036 0229     		cmp	r1, #2
 2738 0038 F9D9     		bls	.L212
 2739 003a 7047     		bx	lr
 2740              	.LVL287:
 2741              	.L225:
ARM GAS  C:\Users\10963\AppData\Local\Temp\ccZn7T5h.s 			page 76


1186:libraries/drivers/src/at32f403a_407_can.c ****   {
 2742              		.loc 1 1186 3 view .LVU893
 2743 003c 7047     		bx	lr
 2744              	.L208:
 2745 003e 0729     		cmp	r1, #7
 2746 0040 17D0     		beq	.L213
 2747 0042 0829     		cmp	r1, #8
 2748 0044 03D1     		bne	.L226
1205:libraries/drivers/src/at32f403a_407_can.c ****       break;
 2749              		.loc 1 1205 7 is_stmt 1 view .LVU894
1205:libraries/drivers/src/at32f403a_407_can.c ****       break;
 2750              		.loc 1 1205 19 is_stmt 0 view .LVU895
 2751 0046 4FF48033 		mov	r3, #65536
 2752 004a 8360     		str	r3, [r0, #8]
1206:libraries/drivers/src/at32f403a_407_can.c ****     case CAN_RF0FF_FLAG:
 2753              		.loc 1 1206 7 is_stmt 1 view .LVU896
 2754 004c 7047     		bx	lr
 2755              	.L226:
1206:libraries/drivers/src/at32f403a_407_can.c ****     case CAN_RF0FF_FLAG:
 2756              		.loc 1 1206 7 is_stmt 0 view .LVU897
 2757 004e 7047     		bx	lr
 2758              	.L223:
1206:libraries/drivers/src/at32f403a_407_can.c ****     case CAN_RF0FF_FLAG:
 2759              		.loc 1 1206 7 view .LVU898
 2760 0050 7047     		bx	lr
 2761              	.L216:
1186:libraries/drivers/src/at32f403a_407_can.c ****   {
 2762              		.loc 1 1186 3 view .LVU899
 2763 0052 1029     		cmp	r1, #16
 2764 0054 1DD0     		beq	.L220
 2765 0056 1129     		cmp	r1, #17
 2766 0058 02D1     		bne	.L227
1213:libraries/drivers/src/at32f403a_407_can.c ****     case CAN_RF1FF_FLAG:
1214:libraries/drivers/src/at32f403a_407_can.c ****       can_x->rf1 = CAN_RF1_RF1FF_VAL;
1215:libraries/drivers/src/at32f403a_407_can.c ****       break;
1216:libraries/drivers/src/at32f403a_407_can.c ****     case CAN_RF1OF_FLAG:
1217:libraries/drivers/src/at32f403a_407_can.c ****       can_x->rf1 = CAN_RF1_RF1OF_VAL;
1218:libraries/drivers/src/at32f403a_407_can.c ****       break;
1219:libraries/drivers/src/at32f403a_407_can.c ****     case CAN_QDZIF_FLAG:
1220:libraries/drivers/src/at32f403a_407_can.c ****       can_x->msts = CAN_MSTS_QDZIF_VAL;
1221:libraries/drivers/src/at32f403a_407_can.c ****       break;
1222:libraries/drivers/src/at32f403a_407_can.c ****     case CAN_EDZC_FLAG:
1223:libraries/drivers/src/at32f403a_407_can.c ****       can_x->msts = CAN_MSTS_EDZIF_VAL;
1224:libraries/drivers/src/at32f403a_407_can.c ****       break;
1225:libraries/drivers/src/at32f403a_407_can.c ****     case CAN_TMEF_FLAG:
1226:libraries/drivers/src/at32f403a_407_can.c ****       can_x->tsts = CAN_TSTS_TM0TCF_VAL | CAN_TSTS_TM1TCF_VAL | CAN_TSTS_TM2TCF_VAL;
 2767              		.loc 1 1226 7 is_stmt 1 view .LVU900
 2768              		.loc 1 1226 19 is_stmt 0 view .LVU901
 2769 005a 0F4B     		ldr	r3, .L228
 2770 005c 8360     		str	r3, [r0, #8]
1227:libraries/drivers/src/at32f403a_407_can.c ****       break;
 2771              		.loc 1 1227 7 is_stmt 1 view .LVU902
1228:libraries/drivers/src/at32f403a_407_can.c ****     default:
1229:libraries/drivers/src/at32f403a_407_can.c ****       break;
1230:libraries/drivers/src/at32f403a_407_can.c ****   }
1231:libraries/drivers/src/at32f403a_407_can.c **** }
 2772              		.loc 1 1231 1 is_stmt 0 view .LVU903
ARM GAS  C:\Users\10963\AppData\Local\Temp\ccZn7T5h.s 			page 77


 2773 005e 7047     		bx	lr
 2774              	.L227:
 2775              		.loc 1 1231 1 view .LVU904
 2776 0060 7047     		bx	lr
 2777              	.L209:
1195:libraries/drivers/src/at32f403a_407_can.c ****       can_x->ests = 0;
 2778              		.loc 1 1195 7 is_stmt 1 view .LVU905
1195:libraries/drivers/src/at32f403a_407_can.c ****       can_x->ests = 0;
 2779              		.loc 1 1195 19 is_stmt 0 view .LVU906
 2780 0062 0423     		movs	r3, #4
 2781 0064 4360     		str	r3, [r0, #4]
1196:libraries/drivers/src/at32f403a_407_can.c ****       break;
 2782              		.loc 1 1196 7 is_stmt 1 view .LVU907
1196:libraries/drivers/src/at32f403a_407_can.c ****       break;
 2783              		.loc 1 1196 19 is_stmt 0 view .LVU908
 2784 0066 0023     		movs	r3, #0
 2785 0068 8361     		str	r3, [r0, #24]
1197:libraries/drivers/src/at32f403a_407_can.c ****     case CAN_TM0TCF_FLAG:
 2786              		.loc 1 1197 7 is_stmt 1 view .LVU909
 2787 006a 7047     		bx	lr
 2788              	.L207:
1199:libraries/drivers/src/at32f403a_407_can.c ****       break;
 2789              		.loc 1 1199 7 view .LVU910
1199:libraries/drivers/src/at32f403a_407_can.c ****       break;
 2790              		.loc 1 1199 19 is_stmt 0 view .LVU911
 2791 006c 0123     		movs	r3, #1
 2792 006e 8360     		str	r3, [r0, #8]
1200:libraries/drivers/src/at32f403a_407_can.c ****     case CAN_TM1TCF_FLAG:
 2793              		.loc 1 1200 7 is_stmt 1 view .LVU912
 2794 0070 7047     		bx	lr
 2795              	.L213:
1202:libraries/drivers/src/at32f403a_407_can.c ****       break;
 2796              		.loc 1 1202 7 view .LVU913
1202:libraries/drivers/src/at32f403a_407_can.c ****       break;
 2797              		.loc 1 1202 19 is_stmt 0 view .LVU914
 2798 0072 4FF48073 		mov	r3, #256
 2799 0076 8360     		str	r3, [r0, #8]
1203:libraries/drivers/src/at32f403a_407_can.c ****     case CAN_TM2TCF_FLAG:
 2800              		.loc 1 1203 7 is_stmt 1 view .LVU915
 2801 0078 7047     		bx	lr
 2802              	.L205:
1208:libraries/drivers/src/at32f403a_407_can.c ****       break;
 2803              		.loc 1 1208 7 view .LVU916
1208:libraries/drivers/src/at32f403a_407_can.c ****       break;
 2804              		.loc 1 1208 18 is_stmt 0 view .LVU917
 2805 007a 0823     		movs	r3, #8
 2806 007c C360     		str	r3, [r0, #12]
1209:libraries/drivers/src/at32f403a_407_can.c ****     case CAN_RF0OF_FLAG:
 2807              		.loc 1 1209 7 is_stmt 1 view .LVU918
 2808 007e 7047     		bx	lr
 2809              	.L217:
1214:libraries/drivers/src/at32f403a_407_can.c ****       break;
 2810              		.loc 1 1214 7 view .LVU919
1214:libraries/drivers/src/at32f403a_407_can.c ****       break;
 2811              		.loc 1 1214 18 is_stmt 0 view .LVU920
 2812 0080 0823     		movs	r3, #8
 2813 0082 0361     		str	r3, [r0, #16]
ARM GAS  C:\Users\10963\AppData\Local\Temp\ccZn7T5h.s 			page 78


1215:libraries/drivers/src/at32f403a_407_can.c ****     case CAN_RF1OF_FLAG:
 2814              		.loc 1 1215 7 is_stmt 1 view .LVU921
 2815 0084 7047     		bx	lr
 2816              	.L218:
1217:libraries/drivers/src/at32f403a_407_can.c ****       break;
 2817              		.loc 1 1217 7 view .LVU922
1217:libraries/drivers/src/at32f403a_407_can.c ****       break;
 2818              		.loc 1 1217 18 is_stmt 0 view .LVU923
 2819 0086 1023     		movs	r3, #16
