ARM GAS  C:\Users\10963\AppData\Local\Temp\cccaKiKB.s 			page 1


   1              		.cpu cortex-m4
   2              		.arch armv7e-m
   3              		.fpu fpv4-sp-d16
   4              		.eabi_attribute 27, 1
   5              		.eabi_attribute 28, 1
   6              		.eabi_attribute 20, 1
   7              		.eabi_attribute 21, 1
   8              		.eabi_attribute 23, 3
   9              		.eabi_attribute 24, 1
  10              		.eabi_attribute 25, 1
  11              		.eabi_attribute 26, 1
  12              		.eabi_attribute 30, 1
  13              		.eabi_attribute 34, 1
  14              		.eabi_attribute 18, 4
  15              		.file	"at32f403a_407_dac.c"
  16              		.text
  17              	.Ltext0:
  18              		.cfi_sections	.debug_frame
  19              		.file 1 "libraries/drivers/src/at32f403a_407_dac.c"
  20              		.section	.text.dac_reset,"ax",%progbits
  21              		.align	1
  22              		.global	dac_reset
  23              		.syntax unified
  24              		.thumb
  25              		.thumb_func
  27              	dac_reset:
  28              	.LFB134:
   1:libraries/drivers/src/at32f403a_407_dac.c **** /**
   2:libraries/drivers/src/at32f403a_407_dac.c ****   **************************************************************************
   3:libraries/drivers/src/at32f403a_407_dac.c ****   * @file     at32f403a_407_dac.c
   4:libraries/drivers/src/at32f403a_407_dac.c ****   * @brief    contains all the functions for the dac firmware library
   5:libraries/drivers/src/at32f403a_407_dac.c ****   **************************************************************************
   6:libraries/drivers/src/at32f403a_407_dac.c ****   *
   7:libraries/drivers/src/at32f403a_407_dac.c ****   * Copyright (c) 2025, Artery Technology, All rights reserved.
   8:libraries/drivers/src/at32f403a_407_dac.c ****   *
   9:libraries/drivers/src/at32f403a_407_dac.c ****   * The software Board Support Package (BSP) that is made available to
  10:libraries/drivers/src/at32f403a_407_dac.c ****   * download from Artery official website is the copyrighted work of Artery.
  11:libraries/drivers/src/at32f403a_407_dac.c ****   * Artery authorizes customers to use, copy, and distribute the BSP
  12:libraries/drivers/src/at32f403a_407_dac.c ****   * software and its related documentation for the purpose of design and
  13:libraries/drivers/src/at32f403a_407_dac.c ****   * development in conjunction with Artery microcontrollers. Use of the
  14:libraries/drivers/src/at32f403a_407_dac.c ****   * software is governed by this copyright notice and the following disclaimer.
  15:libraries/drivers/src/at32f403a_407_dac.c ****   *
  16:libraries/drivers/src/at32f403a_407_dac.c ****   * THIS SOFTWARE IS PROVIDED ON "AS IS" BASIS WITHOUT WARRANTIES,
  17:libraries/drivers/src/at32f403a_407_dac.c ****   * GUARANTEES OR REPRESENTATIONS OF ANY KIND. ARTERY EXPRESSLY DISCLAIMS,
  18:libraries/drivers/src/at32f403a_407_dac.c ****   * TO THE FULLEST EXTENT PERMITTED BY LAW, ALL EXPRESS, IMPLIED OR
  19:libraries/drivers/src/at32f403a_407_dac.c ****   * STATUTORY OR OTHER WARRANTIES, GUARANTEES OR REPRESENTATIONS,
  20:libraries/drivers/src/at32f403a_407_dac.c ****   * INCLUDING BUT NOT LIMITED TO, THE IMPLIED WARRANTIES OF MERCHANTABILITY,
  21:libraries/drivers/src/at32f403a_407_dac.c ****   * FITNESS FOR A PARTICULAR PURPOSE, OR NON-INFRINGEMENT.
  22:libraries/drivers/src/at32f403a_407_dac.c ****   *
  23:libraries/drivers/src/at32f403a_407_dac.c ****   **************************************************************************
  24:libraries/drivers/src/at32f403a_407_dac.c ****   */
  25:libraries/drivers/src/at32f403a_407_dac.c **** 
  26:libraries/drivers/src/at32f403a_407_dac.c **** #include "at32f403a_407_conf.h"
  27:libraries/drivers/src/at32f403a_407_dac.c **** 
  28:libraries/drivers/src/at32f403a_407_dac.c **** /** @addtogroup AT32F403A_407_periph_driver
  29:libraries/drivers/src/at32f403a_407_dac.c ****   * @{
  30:libraries/drivers/src/at32f403a_407_dac.c ****   */
ARM GAS  C:\Users\10963\AppData\Local\Temp\cccaKiKB.s 			page 2


  31:libraries/drivers/src/at32f403a_407_dac.c **** 
  32:libraries/drivers/src/at32f403a_407_dac.c **** /** @defgroup DAC
  33:libraries/drivers/src/at32f403a_407_dac.c ****   * @brief DAC driver modules
  34:libraries/drivers/src/at32f403a_407_dac.c ****   * @{
  35:libraries/drivers/src/at32f403a_407_dac.c ****   */
  36:libraries/drivers/src/at32f403a_407_dac.c **** 
  37:libraries/drivers/src/at32f403a_407_dac.c **** #ifdef DAC_MODULE_ENABLED
  38:libraries/drivers/src/at32f403a_407_dac.c **** 
  39:libraries/drivers/src/at32f403a_407_dac.c **** /** @defgroup DAC_private_functions
  40:libraries/drivers/src/at32f403a_407_dac.c ****   * @{
  41:libraries/drivers/src/at32f403a_407_dac.c ****   */
  42:libraries/drivers/src/at32f403a_407_dac.c **** 
  43:libraries/drivers/src/at32f403a_407_dac.c **** /**
  44:libraries/drivers/src/at32f403a_407_dac.c ****   * @brief  dac reset
  45:libraries/drivers/src/at32f403a_407_dac.c ****   * @param  none
  46:libraries/drivers/src/at32f403a_407_dac.c ****   * @retval none
  47:libraries/drivers/src/at32f403a_407_dac.c ****   */
  48:libraries/drivers/src/at32f403a_407_dac.c **** void dac_reset(void)
  49:libraries/drivers/src/at32f403a_407_dac.c **** {
  29              		.loc 1 49 1 view -0
  30              		.cfi_startproc
  31              		@ args = 0, pretend = 0, frame = 0
  32              		@ frame_needed = 0, uses_anonymous_args = 0
  33 0000 10B5     		push	{r4, lr}
  34              	.LCFI0:
  35              		.cfi_def_cfa_offset 8
  36              		.cfi_offset 4, -8
  37              		.cfi_offset 14, -4
  50:libraries/drivers/src/at32f403a_407_dac.c ****   crm_periph_reset(CRM_DAC_PERIPH_RESET, TRUE);
  38              		.loc 1 50 3 view .LVU1
  39 0002 054C     		ldr	r4, .L3
  40 0004 0121     		movs	r1, #1
  41 0006 2046     		mov	r0, r4
  42 0008 FFF7FEFF 		bl	crm_periph_reset
  43              	.LVL0:
  51:libraries/drivers/src/at32f403a_407_dac.c ****   crm_periph_reset(CRM_DAC_PERIPH_RESET, FALSE);
  44              		.loc 1 51 3 view .LVU2
  45 000c 0021     		movs	r1, #0
  46 000e 2046     		mov	r0, r4
  47 0010 FFF7FEFF 		bl	crm_periph_reset
  48              	.LVL1:
  52:libraries/drivers/src/at32f403a_407_dac.c **** }
  49              		.loc 1 52 1 is_stmt 0 view .LVU3
  50 0014 10BD     		pop	{r4, pc}
  51              	.L4:
  52 0016 00BF     		.align	2
  53              	.L3:
  54 0018 1D001000 		.word	1048605
  55              		.cfi_endproc
  56              	.LFE134:
  58              		.section	.text.dac_enable,"ax",%progbits
  59              		.align	1
  60              		.global	dac_enable
  61              		.syntax unified
  62              		.thumb
  63              		.thumb_func
  65              	dac_enable:
ARM GAS  C:\Users\10963\AppData\Local\Temp\cccaKiKB.s 			page 3


  66              	.LVL2:
  67              	.LFB135:
  53:libraries/drivers/src/at32f403a_407_dac.c **** 
  54:libraries/drivers/src/at32f403a_407_dac.c **** /**
  55:libraries/drivers/src/at32f403a_407_dac.c ****   * @brief  enable or disable dac
  56:libraries/drivers/src/at32f403a_407_dac.c ****   * @param  dac_select
  57:libraries/drivers/src/at32f403a_407_dac.c ****   *         this parameter can be one of the following values:
  58:libraries/drivers/src/at32f403a_407_dac.c ****   *         - DAC1_SELECT
  59:libraries/drivers/src/at32f403a_407_dac.c ****   *         - DAC2_SELECT
  60:libraries/drivers/src/at32f403a_407_dac.c ****   * @param  new_state (TRUE or FALSE)
  61:libraries/drivers/src/at32f403a_407_dac.c ****   * @retval none
  62:libraries/drivers/src/at32f403a_407_dac.c ****   */
  63:libraries/drivers/src/at32f403a_407_dac.c **** void dac_enable(dac_select_type dac_select, confirm_state new_state)
  64:libraries/drivers/src/at32f403a_407_dac.c **** {
  68              		.loc 1 64 1 is_stmt 1 view -0
  69              		.cfi_startproc
  70              		@ args = 0, pretend = 0, frame = 0
  71              		@ frame_needed = 0, uses_anonymous_args = 0
  72              		@ link register save eliminated.
  65:libraries/drivers/src/at32f403a_407_dac.c ****   switch(dac_select)
  73              		.loc 1 65 3 view .LVU5
  74 0000 0128     		cmp	r0, #1
  75 0002 02D0     		beq	.L6
  76 0004 0228     		cmp	r0, #2
  77 0006 06D0     		beq	.L7
  78 0008 7047     		bx	lr
  79              	.L6:
  66:libraries/drivers/src/at32f403a_407_dac.c ****   {
  67:libraries/drivers/src/at32f403a_407_dac.c ****     case DAC1_SELECT:
  68:libraries/drivers/src/at32f403a_407_dac.c ****       DAC->ctrl_bit.d1en = new_state;
  80              		.loc 1 68 7 view .LVU6
  81              		.loc 1 68 26 is_stmt 0 view .LVU7
  82 000a 064B     		ldr	r3, .L9
  83 000c 1A68     		ldr	r2, [r3]
  84 000e 61F30002 		bfi	r2, r1, #0, #1
  85 0012 1A60     		str	r2, [r3]
  69:libraries/drivers/src/at32f403a_407_dac.c ****       break;
  86              		.loc 1 69 7 is_stmt 1 view .LVU8
  87 0014 7047     		bx	lr
  88              	.L7:
  70:libraries/drivers/src/at32f403a_407_dac.c ****     case DAC2_SELECT:
  71:libraries/drivers/src/at32f403a_407_dac.c ****       DAC->ctrl_bit.d2en = new_state;
  89              		.loc 1 71 7 view .LVU9
  90              		.loc 1 71 26 is_stmt 0 view .LVU10
  91 0016 034B     		ldr	r3, .L9
  92 0018 1A68     		ldr	r2, [r3]
  93 001a 61F31042 		bfi	r2, r1, #16, #1
  94 001e 1A60     		str	r2, [r3]
  72:libraries/drivers/src/at32f403a_407_dac.c ****       break;
  95              		.loc 1 72 7 is_stmt 1 view .LVU11
  73:libraries/drivers/src/at32f403a_407_dac.c ****     default:
  74:libraries/drivers/src/at32f403a_407_dac.c ****       break;
  75:libraries/drivers/src/at32f403a_407_dac.c ****   }
  76:libraries/drivers/src/at32f403a_407_dac.c **** }
  96              		.loc 1 76 1 is_stmt 0 view .LVU12
  97 0020 7047     		bx	lr
  98              	.L10:
ARM GAS  C:\Users\10963\AppData\Local\Temp\cccaKiKB.s 			page 4


  99 0022 00BF     		.align	2
 100              	.L9:
 101 0024 00740040 		.word	1073771520
 102              		.cfi_endproc
 103              	.LFE135:
 105              		.section	.text.dac_output_buffer_enable,"ax",%progbits
 106              		.align	1
 107              		.global	dac_output_buffer_enable
 108              		.syntax unified
 109              		.thumb
 110              		.thumb_func
 112              	dac_output_buffer_enable:
 113              	.LVL3:
 114              	.LFB136:
  77:libraries/drivers/src/at32f403a_407_dac.c **** 
  78:libraries/drivers/src/at32f403a_407_dac.c **** /**
  79:libraries/drivers/src/at32f403a_407_dac.c ****   * @brief  enable or disable dac output buffer
  80:libraries/drivers/src/at32f403a_407_dac.c ****   * @param  dac_select
  81:libraries/drivers/src/at32f403a_407_dac.c ****   *         this parameter can be one of the following values:
  82:libraries/drivers/src/at32f403a_407_dac.c ****   *         - DAC1_SELECT
  83:libraries/drivers/src/at32f403a_407_dac.c ****   *         - DAC2_SELECT
  84:libraries/drivers/src/at32f403a_407_dac.c ****   * @param  new_state (TRUE or FALSE)
  85:libraries/drivers/src/at32f403a_407_dac.c ****   * @retval none
  86:libraries/drivers/src/at32f403a_407_dac.c ****   */
  87:libraries/drivers/src/at32f403a_407_dac.c **** void dac_output_buffer_enable(dac_select_type dac_select, confirm_state new_state)
  88:libraries/drivers/src/at32f403a_407_dac.c **** {
 115              		.loc 1 88 1 is_stmt 1 view -0
 116              		.cfi_startproc
 117              		@ args = 0, pretend = 0, frame = 0
 118              		@ frame_needed = 0, uses_anonymous_args = 0
 119              		@ link register save eliminated.
  89:libraries/drivers/src/at32f403a_407_dac.c ****   new_state = (confirm_state)!new_state;
 120              		.loc 1 89 3 view .LVU14
 121              		.loc 1 89 15 is_stmt 0 view .LVU15
 122 0000 B1FA81F1 		clz	r1, r1
 123              	.LVL4:
 124              		.loc 1 89 15 view .LVU16
 125 0004 4909     		lsrs	r1, r1, #5
 126              	.LVL5:
  90:libraries/drivers/src/at32f403a_407_dac.c ****   switch(dac_select)
 127              		.loc 1 90 3 is_stmt 1 view .LVU17
 128 0006 0128     		cmp	r0, #1
 129 0008 02D0     		beq	.L12
 130 000a 0228     		cmp	r0, #2
 131 000c 06D0     		beq	.L13
 132 000e 7047     		bx	lr
 133              	.L12:
  91:libraries/drivers/src/at32f403a_407_dac.c ****   {
  92:libraries/drivers/src/at32f403a_407_dac.c ****     case DAC1_SELECT:
  93:libraries/drivers/src/at32f403a_407_dac.c ****       DAC->ctrl_bit.d1obdis = new_state;
 134              		.loc 1 93 7 view .LVU18
 135              		.loc 1 93 29 is_stmt 0 view .LVU19
 136 0010 054B     		ldr	r3, .L15
 137 0012 1A68     		ldr	r2, [r3]
 138 0014 61F34102 		bfi	r2, r1, #1, #1
 139 0018 1A60     		str	r2, [r3]
  94:libraries/drivers/src/at32f403a_407_dac.c ****       break;
ARM GAS  C:\Users\10963\AppData\Local\Temp\cccaKiKB.s 			page 5


 140              		.loc 1 94 7 is_stmt 1 view .LVU20
 141 001a 7047     		bx	lr
 142              	.L13:
  95:libraries/drivers/src/at32f403a_407_dac.c ****     case DAC2_SELECT:
  96:libraries/drivers/src/at32f403a_407_dac.c ****       DAC->ctrl_bit.d2obdis = new_state;
 143              		.loc 1 96 7 view .LVU21
 144              		.loc 1 96 29 is_stmt 0 view .LVU22
 145 001c 024B     		ldr	r3, .L15
 146 001e 1A68     		ldr	r2, [r3]
 147 0020 61F35142 		bfi	r2, r1, #17, #1
 148 0024 1A60     		str	r2, [r3]
  97:libraries/drivers/src/at32f403a_407_dac.c ****       break;
 149              		.loc 1 97 7 is_stmt 1 view .LVU23
  98:libraries/drivers/src/at32f403a_407_dac.c ****     default:
  99:libraries/drivers/src/at32f403a_407_dac.c ****       break;
 100:libraries/drivers/src/at32f403a_407_dac.c ****   }
 101:libraries/drivers/src/at32f403a_407_dac.c **** }
 150              		.loc 1 101 1 is_stmt 0 view .LVU24
 151 0026 7047     		bx	lr
 152              	.L16:
 153              		.align	2
 154              	.L15:
 155 0028 00740040 		.word	1073771520
 156              		.cfi_endproc
 157              	.LFE136:
 159              		.section	.text.dac_trigger_enable,"ax",%progbits
 160              		.align	1
 161              		.global	dac_trigger_enable
 162              		.syntax unified
 163              		.thumb
 164              		.thumb_func
 166              	dac_trigger_enable:
 167              	.LVL6:
 168              	.LFB137:
 102:libraries/drivers/src/at32f403a_407_dac.c **** 
 103:libraries/drivers/src/at32f403a_407_dac.c **** /**
 104:libraries/drivers/src/at32f403a_407_dac.c ****   * @brief  enable or disable dac trigger
 105:libraries/drivers/src/at32f403a_407_dac.c ****   * @param  dac_select
 106:libraries/drivers/src/at32f403a_407_dac.c ****   *         this parameter can be one of the following values:
 107:libraries/drivers/src/at32f403a_407_dac.c ****   *         - DAC1_SELECT
 108:libraries/drivers/src/at32f403a_407_dac.c ****   *         - DAC2_SELECT
 109:libraries/drivers/src/at32f403a_407_dac.c ****   * @param  new_state (TRUE or FALSE)
 110:libraries/drivers/src/at32f403a_407_dac.c ****   * @retval none
 111:libraries/drivers/src/at32f403a_407_dac.c ****   */
 112:libraries/drivers/src/at32f403a_407_dac.c **** void dac_trigger_enable(dac_select_type dac_select, confirm_state new_state)
 113:libraries/drivers/src/at32f403a_407_dac.c **** {
 169              		.loc 1 113 1 is_stmt 1 view -0
 170              		.cfi_startproc
 171              		@ args = 0, pretend = 0, frame = 0
 172              		@ frame_needed = 0, uses_anonymous_args = 0
 173              		@ link register save eliminated.
 114:libraries/drivers/src/at32f403a_407_dac.c ****   switch(dac_select)
 174              		.loc 1 114 3 view .LVU26
 175 0000 0128     		cmp	r0, #1
 176 0002 02D0     		beq	.L18
 177 0004 0228     		cmp	r0, #2
 178 0006 06D0     		beq	.L19
ARM GAS  C:\Users\10963\AppData\Local\Temp\cccaKiKB.s 			page 6


 179 0008 7047     		bx	lr
 180              	.L18:
 115:libraries/drivers/src/at32f403a_407_dac.c ****   {
 116:libraries/drivers/src/at32f403a_407_dac.c ****     case DAC1_SELECT:
 117:libraries/drivers/src/at32f403a_407_dac.c ****       DAC->ctrl_bit.d1trgen = new_state;
 181              		.loc 1 117 7 view .LVU27
 182              		.loc 1 117 29 is_stmt 0 view .LVU28
 183 000a 064B     		ldr	r3, .L21
 184 000c 1A68     		ldr	r2, [r3]
 185 000e 61F38202 		bfi	r2, r1, #2, #1
 186 0012 1A60     		str	r2, [r3]
 118:libraries/drivers/src/at32f403a_407_dac.c ****       break;
 187              		.loc 1 118 7 is_stmt 1 view .LVU29
 188 0014 7047     		bx	lr
 189              	.L19:
 119:libraries/drivers/src/at32f403a_407_dac.c ****     case DAC2_SELECT:
 120:libraries/drivers/src/at32f403a_407_dac.c ****       DAC->ctrl_bit.d2trgen = new_state;
 190              		.loc 1 120 7 view .LVU30
 191              		.loc 1 120 29 is_stmt 0 view .LVU31
 192 0016 034B     		ldr	r3, .L21
 193 0018 1A68     		ldr	r2, [r3]
 194 001a 61F39242 		bfi	r2, r1, #18, #1
 195 001e 1A60     		str	r2, [r3]
 121:libraries/drivers/src/at32f403a_407_dac.c ****       break;
 196              		.loc 1 121 7 is_stmt 1 view .LVU32
 122:libraries/drivers/src/at32f403a_407_dac.c ****     default:
 123:libraries/drivers/src/at32f403a_407_dac.c ****       break;
 124:libraries/drivers/src/at32f403a_407_dac.c ****   }
 125:libraries/drivers/src/at32f403a_407_dac.c **** }
 197              		.loc 1 125 1 is_stmt 0 view .LVU33
 198 0020 7047     		bx	lr
 199              	.L22:
 200 0022 00BF     		.align	2
 201              	.L21:
 202 0024 00740040 		.word	1073771520
 203              		.cfi_endproc
 204              	.LFE137:
 206              		.section	.text.dac_trigger_select,"ax",%progbits
 207              		.align	1
 208              		.global	dac_trigger_select
 209              		.syntax unified
 210              		.thumb
 211              		.thumb_func
 213              	dac_trigger_select:
 214              	.LVL7:
 215              	.LFB138:
 126:libraries/drivers/src/at32f403a_407_dac.c **** 
 127:libraries/drivers/src/at32f403a_407_dac.c **** /**
 128:libraries/drivers/src/at32f403a_407_dac.c ****   * @brief  select dac trigger
 129:libraries/drivers/src/at32f403a_407_dac.c ****   * @param  dac_select
 130:libraries/drivers/src/at32f403a_407_dac.c ****   *         this parameter can be one of the following values:
 131:libraries/drivers/src/at32f403a_407_dac.c ****   *         - DAC1_SELECT
 132:libraries/drivers/src/at32f403a_407_dac.c ****   *         - DAC2_SELECT
 133:libraries/drivers/src/at32f403a_407_dac.c ****   * @param  dac_trigger_source
 134:libraries/drivers/src/at32f403a_407_dac.c ****   *         this parameter can be one of the following values:
 135:libraries/drivers/src/at32f403a_407_dac.c ****   *         - DAC_TMR6_TRGOUT_EVENT
 136:libraries/drivers/src/at32f403a_407_dac.c ****   *         - DAC_TMR8_TRGOUT_EVENT
ARM GAS  C:\Users\10963\AppData\Local\Temp\cccaKiKB.s 			page 7


 137:libraries/drivers/src/at32f403a_407_dac.c ****   *         - DAC_TMR7_TRGOUT_EVENT
 138:libraries/drivers/src/at32f403a_407_dac.c ****   *         - DAC_TMR5_TRGOUT_EVENT
 139:libraries/drivers/src/at32f403a_407_dac.c ****   *         - DAC_TMR2_TRGOUT_EVENT
 140:libraries/drivers/src/at32f403a_407_dac.c ****   *         - DAC_TMR4_TRGOUT_EVENT
 141:libraries/drivers/src/at32f403a_407_dac.c ****   *         - DAC_EXTERNAL_INTERRUPT_LINE_9
 142:libraries/drivers/src/at32f403a_407_dac.c ****   *         - DAC_SOFTWARE_TRIGGER
 143:libraries/drivers/src/at32f403a_407_dac.c ****   * @retval none
 144:libraries/drivers/src/at32f403a_407_dac.c ****   */
 145:libraries/drivers/src/at32f403a_407_dac.c **** void dac_trigger_select(dac_select_type dac_select, dac_trigger_type dac_trigger_source)
 146:libraries/drivers/src/at32f403a_407_dac.c **** {
 216              		.loc 1 146 1 is_stmt 1 view -0
 217              		.cfi_startproc
 218              		@ args = 0, pretend = 0, frame = 0
 219              		@ frame_needed = 0, uses_anonymous_args = 0
 220              		@ link register save eliminated.
 147:libraries/drivers/src/at32f403a_407_dac.c ****   switch(dac_select)
 221              		.loc 1 147 3 view .LVU35
 222 0000 0128     		cmp	r0, #1
 223 0002 02D0     		beq	.L24
 224 0004 0228     		cmp	r0, #2
 225 0006 06D0     		beq	.L25
 226 0008 7047     		bx	lr
 227              	.L24:
 148:libraries/drivers/src/at32f403a_407_dac.c ****   {
 149:libraries/drivers/src/at32f403a_407_dac.c ****     case DAC1_SELECT:
 150:libraries/drivers/src/at32f403a_407_dac.c ****       DAC->ctrl_bit.d1trgsel = dac_trigger_source;
 228              		.loc 1 150 7 view .LVU36
 229              		.loc 1 150 30 is_stmt 0 view .LVU37
 230 000a 064B     		ldr	r3, .L27
 231 000c 1A68     		ldr	r2, [r3]
 232 000e 61F3C502 		bfi	r2, r1, #3, #3
 233 0012 1A60     		str	r2, [r3]
 151:libraries/drivers/src/at32f403a_407_dac.c ****       break;
 234              		.loc 1 151 7 is_stmt 1 view .LVU38
 235 0014 7047     		bx	lr
 236              	.L25:
 152:libraries/drivers/src/at32f403a_407_dac.c ****     case DAC2_SELECT:
 153:libraries/drivers/src/at32f403a_407_dac.c ****       DAC->ctrl_bit.d2trgsel = dac_trigger_source;
 237              		.loc 1 153 7 view .LVU39
 238              		.loc 1 153 30 is_stmt 0 view .LVU40
 239 0016 034B     		ldr	r3, .L27
 240 0018 1A68     		ldr	r2, [r3]
 241 001a 61F3D542 		bfi	r2, r1, #19, #3
 242 001e 1A60     		str	r2, [r3]
 154:libraries/drivers/src/at32f403a_407_dac.c ****       break;
 243              		.loc 1 154 7 is_stmt 1 view .LVU41
 155:libraries/drivers/src/at32f403a_407_dac.c ****     default:
 156:libraries/drivers/src/at32f403a_407_dac.c ****       break;
 157:libraries/drivers/src/at32f403a_407_dac.c ****   }
 158:libraries/drivers/src/at32f403a_407_dac.c **** }
 244              		.loc 1 158 1 is_stmt 0 view .LVU42
 245 0020 7047     		bx	lr
 246              	.L28:
 247 0022 00BF     		.align	2
 248              	.L27:
 249 0024 00740040 		.word	1073771520
 250              		.cfi_endproc
ARM GAS  C:\Users\10963\AppData\Local\Temp\cccaKiKB.s 			page 8


 251              	.LFE138:
 253              		.section	.text.dac_software_trigger_generate,"ax",%progbits
 254              		.align	1
 255              		.global	dac_software_trigger_generate
 256              		.syntax unified
 257              		.thumb
 258              		.thumb_func
 260              	dac_software_trigger_generate:
 261              	.LVL8:
 262              	.LFB139:
 159:libraries/drivers/src/at32f403a_407_dac.c **** 
 160:libraries/drivers/src/at32f403a_407_dac.c **** /**
 161:libraries/drivers/src/at32f403a_407_dac.c ****   * @brief  generate dac software trigger
 162:libraries/drivers/src/at32f403a_407_dac.c ****   * @param  dac_select
 163:libraries/drivers/src/at32f403a_407_dac.c ****   *         this parameter can be one of the following values:
 164:libraries/drivers/src/at32f403a_407_dac.c ****   *         - DAC1_SELECT
 165:libraries/drivers/src/at32f403a_407_dac.c ****   *         - DAC2_SELECT
 166:libraries/drivers/src/at32f403a_407_dac.c ****   * @retval none
 167:libraries/drivers/src/at32f403a_407_dac.c ****   */
 168:libraries/drivers/src/at32f403a_407_dac.c **** void dac_software_trigger_generate(dac_select_type dac_select)
 169:libraries/drivers/src/at32f403a_407_dac.c **** {
 263              		.loc 1 169 1 is_stmt 1 view -0
 264              		.cfi_startproc
 265              		@ args = 0, pretend = 0, frame = 0
 266              		@ frame_needed = 0, uses_anonymous_args = 0
 267              		@ link register save eliminated.
 170:libraries/drivers/src/at32f403a_407_dac.c ****   switch(dac_select)
 268              		.loc 1 170 3 view .LVU44
 269 0000 0128     		cmp	r0, #1
 270 0002 02D0     		beq	.L30
 271 0004 0228     		cmp	r0, #2
 272 0006 06D0     		beq	.L31
 273 0008 7047     		bx	lr
 274              	.L30:
 171:libraries/drivers/src/at32f403a_407_dac.c ****   {
 172:libraries/drivers/src/at32f403a_407_dac.c ****     case DAC1_SELECT:
 173:libraries/drivers/src/at32f403a_407_dac.c ****       DAC->swtrg_bit.d1swtrg = TRUE;
 275              		.loc 1 173 7 view .LVU45
 276              		.loc 1 173 30 is_stmt 0 view .LVU46
 277 000a 064A     		ldr	r2, .L33
 278 000c 5368     		ldr	r3, [r2, #4]
 279 000e 43F00103 		orr	r3, r3, #1
 280 0012 5360     		str	r3, [r2, #4]
 174:libraries/drivers/src/at32f403a_407_dac.c ****       break;
 281              		.loc 1 174 7 is_stmt 1 view .LVU47
 282 0014 7047     		bx	lr
 283              	.L31:
 175:libraries/drivers/src/at32f403a_407_dac.c ****     case DAC2_SELECT:
 176:libraries/drivers/src/at32f403a_407_dac.c ****       DAC->swtrg_bit.d2swtrg = TRUE;
 284              		.loc 1 176 7 view .LVU48
 285              		.loc 1 176 30 is_stmt 0 view .LVU49
 286 0016 034A     		ldr	r2, .L33
 287 0018 5368     		ldr	r3, [r2, #4]
 288 001a 43F00203 		orr	r3, r3, #2
 289 001e 5360     		str	r3, [r2, #4]
 177:libraries/drivers/src/at32f403a_407_dac.c ****       break;
 290              		.loc 1 177 7 is_stmt 1 view .LVU50
ARM GAS  C:\Users\10963\AppData\Local\Temp\cccaKiKB.s 			page 9


 178:libraries/drivers/src/at32f403a_407_dac.c ****     default:
 179:libraries/drivers/src/at32f403a_407_dac.c ****       break;
 180:libraries/drivers/src/at32f403a_407_dac.c ****   }
 181:libraries/drivers/src/at32f403a_407_dac.c **** }
 291              		.loc 1 181 1 is_stmt 0 view .LVU51
 292 0020 7047     		bx	lr
 293              	.L34:
 294 0022 00BF     		.align	2
 295              	.L33:
 296 0024 00740040 		.word	1073771520
 297              		.cfi_endproc
 298              	.LFE139:
 300              		.section	.text.dac_dual_software_trigger_generate,"ax",%progbits
 301              		.align	1
 302              		.global	dac_dual_software_trigger_generate
 303              		.syntax unified
 304              		.thumb
 305              		.thumb_func
 307              	dac_dual_software_trigger_generate:
 308              	.LFB140:
 182:libraries/drivers/src/at32f403a_407_dac.c **** 
 183:libraries/drivers/src/at32f403a_407_dac.c **** /**
 184:libraries/drivers/src/at32f403a_407_dac.c ****   * @brief  generate dac dual software trigger synchronously
 185:libraries/drivers/src/at32f403a_407_dac.c ****   * @param  none
 186:libraries/drivers/src/at32f403a_407_dac.c ****   * @retval none
 187:libraries/drivers/src/at32f403a_407_dac.c ****   */
 188:libraries/drivers/src/at32f403a_407_dac.c **** void dac_dual_software_trigger_generate(void)
 189:libraries/drivers/src/at32f403a_407_dac.c **** {
 309              		.loc 1 189 1 is_stmt 1 view -0
 310              		.cfi_startproc
 311              		@ args = 0, pretend = 0, frame = 0
 312              		@ frame_needed = 0, uses_anonymous_args = 0
 313              		@ link register save eliminated.
 190:libraries/drivers/src/at32f403a_407_dac.c ****   DAC->swtrg |= 0x03;
 314              		.loc 1 190 3 view .LVU53
 315              		.loc 1 190 6 is_stmt 0 view .LVU54
 316 0000 024A     		ldr	r2, .L36
 317 0002 5368     		ldr	r3, [r2, #4]
 318              		.loc 1 190 14 view .LVU55
 319 0004 43F00303 		orr	r3, r3, #3
 320 0008 5360     		str	r3, [r2, #4]
 191:libraries/drivers/src/at32f403a_407_dac.c **** }
 321              		.loc 1 191 1 view .LVU56
 322 000a 7047     		bx	lr
 323              	.L37:
 324              		.align	2
 325              	.L36:
 326 000c 00740040 		.word	1073771520
 327              		.cfi_endproc
 328              	.LFE140:
 330              		.section	.text.dac_wave_generate,"ax",%progbits
 331              		.align	1
 332              		.global	dac_wave_generate
 333              		.syntax unified
 334              		.thumb
 335              		.thumb_func
 337              	dac_wave_generate:
ARM GAS  C:\Users\10963\AppData\Local\Temp\cccaKiKB.s 			page 10


 338              	.LVL9:
 339              	.LFB141:
 192:libraries/drivers/src/at32f403a_407_dac.c **** 
 193:libraries/drivers/src/at32f403a_407_dac.c **** /**
 194:libraries/drivers/src/at32f403a_407_dac.c ****   * @brief  generate dac wave
 195:libraries/drivers/src/at32f403a_407_dac.c ****   * @param  dac_select
 196:libraries/drivers/src/at32f403a_407_dac.c ****   *         this parameter can be one of the following values:
 197:libraries/drivers/src/at32f403a_407_dac.c ****   *         - DAC1_SELECT
 198:libraries/drivers/src/at32f403a_407_dac.c ****   *         - DAC2_SELECT
 199:libraries/drivers/src/at32f403a_407_dac.c ****   * @param  dac_wave
 200:libraries/drivers/src/at32f403a_407_dac.c ****   *         this parameter can be one of the following values:
 201:libraries/drivers/src/at32f403a_407_dac.c ****   *         - DAC_WAVE_GENERATE_NONE
 202:libraries/drivers/src/at32f403a_407_dac.c ****   *         - DAC_WAVE_GENERATE_NOISE
 203:libraries/drivers/src/at32f403a_407_dac.c ****   *         - DAC_WAVE_GENERATE_TRIANGLE
 204:libraries/drivers/src/at32f403a_407_dac.c ****   * @retval none
 205:libraries/drivers/src/at32f403a_407_dac.c ****   */
 206:libraries/drivers/src/at32f403a_407_dac.c **** void dac_wave_generate(dac_select_type dac_select, dac_wave_type dac_wave)
 207:libraries/drivers/src/at32f403a_407_dac.c **** {
 340              		.loc 1 207 1 is_stmt 1 view -0
 341              		.cfi_startproc
 342              		@ args = 0, pretend = 0, frame = 0
 343              		@ frame_needed = 0, uses_anonymous_args = 0
 344              		@ link register save eliminated.
 208:libraries/drivers/src/at32f403a_407_dac.c ****   switch(dac_select)
 345              		.loc 1 208 3 view .LVU58
 346 0000 0128     		cmp	r0, #1
 347 0002 02D0     		beq	.L39
 348 0004 0228     		cmp	r0, #2
 349 0006 06D0     		beq	.L40
 350 0008 7047     		bx	lr
 351              	.L39:
 209:libraries/drivers/src/at32f403a_407_dac.c ****   {
 210:libraries/drivers/src/at32f403a_407_dac.c ****     case DAC1_SELECT:
 211:libraries/drivers/src/at32f403a_407_dac.c ****       DAC->ctrl_bit.d1nm = dac_wave;
 352              		.loc 1 211 7 view .LVU59
 353              		.loc 1 211 26 is_stmt 0 view .LVU60
 354 000a 064B     		ldr	r3, .L42
 355 000c 1A68     		ldr	r2, [r3]
 356 000e 61F38712 		bfi	r2, r1, #6, #2
 357 0012 1A60     		str	r2, [r3]
 212:libraries/drivers/src/at32f403a_407_dac.c ****       break;
 358              		.loc 1 212 7 is_stmt 1 view .LVU61
 359 0014 7047     		bx	lr
 360              	.L40:
 213:libraries/drivers/src/at32f403a_407_dac.c ****     case DAC2_SELECT:
 214:libraries/drivers/src/at32f403a_407_dac.c ****       DAC->ctrl_bit.d2nm = dac_wave;
 361              		.loc 1 214 7 view .LVU62
 362              		.loc 1 214 26 is_stmt 0 view .LVU63
 363 0016 034B     		ldr	r3, .L42
 364 0018 1A68     		ldr	r2, [r3]
 365 001a 61F39752 		bfi	r2, r1, #22, #2
 366 001e 1A60     		str	r2, [r3]
 215:libraries/drivers/src/at32f403a_407_dac.c ****       break;
 367              		.loc 1 215 7 is_stmt 1 view .LVU64
 216:libraries/drivers/src/at32f403a_407_dac.c ****     default:
 217:libraries/drivers/src/at32f403a_407_dac.c ****       break;
 218:libraries/drivers/src/at32f403a_407_dac.c ****   }
ARM GAS  C:\Users\10963\AppData\Local\Temp\cccaKiKB.s 			page 11


 219:libraries/drivers/src/at32f403a_407_dac.c **** }
 368              		.loc 1 219 1 is_stmt 0 view .LVU65
 369 0020 7047     		bx	lr
 370              	.L43:
 371 0022 00BF     		.align	2
 372              	.L42:
 373 0024 00740040 		.word	1073771520
 374              		.cfi_endproc
 375              	.LFE141:
 377              		.section	.text.dac_mask_amplitude_select,"ax",%progbits
 378              		.align	1
 379              		.global	dac_mask_amplitude_select
 380              		.syntax unified
 381              		.thumb
 382              		.thumb_func
 384              	dac_mask_amplitude_select:
 385              	.LVL10:
 386              	.LFB142:
 220:libraries/drivers/src/at32f403a_407_dac.c **** 
 221:libraries/drivers/src/at32f403a_407_dac.c **** /**
 222:libraries/drivers/src/at32f403a_407_dac.c ****   * @brief  select dac mask amplitude
 223:libraries/drivers/src/at32f403a_407_dac.c ****   * @param  dac_select
 224:libraries/drivers/src/at32f403a_407_dac.c ****   *         this parameter can be one of the following values:
 225:libraries/drivers/src/at32f403a_407_dac.c ****   *         - DAC1_SELECT
 226:libraries/drivers/src/at32f403a_407_dac.c ****   *         - DAC2_SELECT
 227:libraries/drivers/src/at32f403a_407_dac.c ****   * @param  dac_mask_amplitude
 228:libraries/drivers/src/at32f403a_407_dac.c ****   *         this parameter can be one of the following values:
 229:libraries/drivers/src/at32f403a_407_dac.c ****   *         - DAC_LSFR_BIT0_AMPLITUDE_1
 230:libraries/drivers/src/at32f403a_407_dac.c ****   *         - DAC_LSFR_BIT10_AMPLITUDE_3
 231:libraries/drivers/src/at32f403a_407_dac.c ****   *         - DAC_LSFR_BIT20_AMPLITUDE_7
 232:libraries/drivers/src/at32f403a_407_dac.c ****   *         - DAC_LSFR_BIT30_AMPLITUDE_15
 233:libraries/drivers/src/at32f403a_407_dac.c ****   *         - DAC_LSFR_BIT40_AMPLITUDE_31
 234:libraries/drivers/src/at32f403a_407_dac.c ****   *         - DAC_LSFR_BIT50_AMPLITUDE_63
 235:libraries/drivers/src/at32f403a_407_dac.c ****   *         - DAC_LSFR_BIT60_AMPLITUDE_127
 236:libraries/drivers/src/at32f403a_407_dac.c ****   *         - DAC_LSFR_BIT70_AMPLITUDE_255
 237:libraries/drivers/src/at32f403a_407_dac.c ****   *         - DAC_LSFR_BIT80_AMPLITUDE_511
 238:libraries/drivers/src/at32f403a_407_dac.c ****   *         - DAC_LSFR_BIT90_AMPLITUDE_1023
 239:libraries/drivers/src/at32f403a_407_dac.c ****   *         - DAC_LSFR_BITA0_AMPLITUDE_2047
 240:libraries/drivers/src/at32f403a_407_dac.c ****   *         - DAC_LSFR_BITB0_AMPLITUDE_4095
 241:libraries/drivers/src/at32f403a_407_dac.c ****   * @retval none
 242:libraries/drivers/src/at32f403a_407_dac.c ****   */
 243:libraries/drivers/src/at32f403a_407_dac.c **** void dac_mask_amplitude_select(dac_select_type dac_select, dac_mask_amplitude_type dac_mask_amplitu
 244:libraries/drivers/src/at32f403a_407_dac.c **** {
 387              		.loc 1 244 1 is_stmt 1 view -0
 388              		.cfi_startproc
 389              		@ args = 0, pretend = 0, frame = 0
 390              		@ frame_needed = 0, uses_anonymous_args = 0
 391              		@ link register save eliminated.
 245:libraries/drivers/src/at32f403a_407_dac.c ****   switch(dac_select)
 392              		.loc 1 245 3 view .LVU67
 393 0000 0128     		cmp	r0, #1
 394 0002 02D0     		beq	.L45
 395 0004 0228     		cmp	r0, #2
 396 0006 06D0     		beq	.L46
 397 0008 7047     		bx	lr
 398              	.L45:
 246:libraries/drivers/src/at32f403a_407_dac.c ****   {
ARM GAS  C:\Users\10963\AppData\Local\Temp\cccaKiKB.s 			page 12


 247:libraries/drivers/src/at32f403a_407_dac.c ****     case DAC1_SELECT:
 248:libraries/drivers/src/at32f403a_407_dac.c ****       DAC->ctrl_bit.d1nbsel = dac_mask_amplitude;
 399              		.loc 1 248 7 view .LVU68
 400              		.loc 1 248 29 is_stmt 0 view .LVU69
 401 000a 064B     		ldr	r3, .L48
 402 000c 1A68     		ldr	r2, [r3]
 403 000e 61F30B22 		bfi	r2, r1, #8, #4
 404 0012 1A60     		str	r2, [r3]
 249:libraries/drivers/src/at32f403a_407_dac.c ****       break;
 405              		.loc 1 249 7 is_stmt 1 view .LVU70
 406 0014 7047     		bx	lr
 407              	.L46:
 250:libraries/drivers/src/at32f403a_407_dac.c ****     case DAC2_SELECT:
 251:libraries/drivers/src/at32f403a_407_dac.c ****       DAC->ctrl_bit.d2nbsel = dac_mask_amplitude;
 408              		.loc 1 251 7 view .LVU71
 409              		.loc 1 251 29 is_stmt 0 view .LVU72
 410 0016 034B     		ldr	r3, .L48
 411 0018 1A68     		ldr	r2, [r3]
 412 001a 61F31B62 		bfi	r2, r1, #24, #4
 413 001e 1A60     		str	r2, [r3]
 252:libraries/drivers/src/at32f403a_407_dac.c ****       break;
 414              		.loc 1 252 7 is_stmt 1 view .LVU73
 253:libraries/drivers/src/at32f403a_407_dac.c ****     default:
 254:libraries/drivers/src/at32f403a_407_dac.c ****       break;
 255:libraries/drivers/src/at32f403a_407_dac.c ****   }
 256:libraries/drivers/src/at32f403a_407_dac.c **** }
 415              		.loc 1 256 1 is_stmt 0 view .LVU74
 416 0020 7047     		bx	lr
 417              	.L49:
 418 0022 00BF     		.align	2
 419              	.L48:
 420 0024 00740040 		.word	1073771520
 421              		.cfi_endproc
 422              	.LFE142:
 424              		.section	.text.dac_dma_enable,"ax",%progbits
 425              		.align	1
 426              		.global	dac_dma_enable
 427              		.syntax unified
 428              		.thumb
 429              		.thumb_func
 431              	dac_dma_enable:
 432              	.LVL11:
 433              	.LFB143:
 257:libraries/drivers/src/at32f403a_407_dac.c **** 
 258:libraries/drivers/src/at32f403a_407_dac.c **** /**
 259:libraries/drivers/src/at32f403a_407_dac.c ****   * @brief  enable or disable dac dma
 260:libraries/drivers/src/at32f403a_407_dac.c ****   * @param  dac_select
 261:libraries/drivers/src/at32f403a_407_dac.c ****   *         this parameter can be one of the following values:
 262:libraries/drivers/src/at32f403a_407_dac.c ****   *         - DAC1_SELECT
 263:libraries/drivers/src/at32f403a_407_dac.c ****   *         - DAC2_SELECT
 264:libraries/drivers/src/at32f403a_407_dac.c ****   * @param  new_state (TRUE or FALSE)
 265:libraries/drivers/src/at32f403a_407_dac.c ****   * @retval none
 266:libraries/drivers/src/at32f403a_407_dac.c ****   */
 267:libraries/drivers/src/at32f403a_407_dac.c **** void dac_dma_enable(dac_select_type dac_select, confirm_state new_state)
 268:libraries/drivers/src/at32f403a_407_dac.c **** {
 434              		.loc 1 268 1 is_stmt 1 view -0
 435              		.cfi_startproc
ARM GAS  C:\Users\10963\AppData\Local\Temp\cccaKiKB.s 			page 13


 436              		@ args = 0, pretend = 0, frame = 0
 437              		@ frame_needed = 0, uses_anonymous_args = 0
 438              		@ link register save eliminated.
 269:libraries/drivers/src/at32f403a_407_dac.c ****   switch(dac_select)
 439              		.loc 1 269 3 view .LVU76
 440 0000 0128     		cmp	r0, #1
 441 0002 02D0     		beq	.L51
 442 0004 0228     		cmp	r0, #2
 443 0006 06D0     		beq	.L52
 444 0008 7047     		bx	lr
 445              	.L51:
 270:libraries/drivers/src/at32f403a_407_dac.c ****   {
 271:libraries/drivers/src/at32f403a_407_dac.c ****     case DAC1_SELECT:
 272:libraries/drivers/src/at32f403a_407_dac.c ****       DAC->ctrl_bit.d1dmaen = new_state;
 446              		.loc 1 272 7 view .LVU77
 447              		.loc 1 272 29 is_stmt 0 view .LVU78
 448 000a 064B     		ldr	r3, .L54
 449 000c 1A68     		ldr	r2, [r3]
 450 000e 61F30C32 		bfi	r2, r1, #12, #1
 451 0012 1A60     		str	r2, [r3]
 273:libraries/drivers/src/at32f403a_407_dac.c ****       break;
 452              		.loc 1 273 7 is_stmt 1 view .LVU79
 453 0014 7047     		bx	lr
 454              	.L52:
 274:libraries/drivers/src/at32f403a_407_dac.c ****     case DAC2_SELECT:
 275:libraries/drivers/src/at32f403a_407_dac.c ****       DAC->ctrl_bit.d2dmaen = new_state;
 455              		.loc 1 275 7 view .LVU80
 456              		.loc 1 275 29 is_stmt 0 view .LVU81
 457 0016 034B     		ldr	r3, .L54
 458 0018 1A68     		ldr	r2, [r3]
 459 001a 61F31C72 		bfi	r2, r1, #28, #1
 460 001e 1A60     		str	r2, [r3]
 276:libraries/drivers/src/at32f403a_407_dac.c ****       break;
 461              		.loc 1 276 7 is_stmt 1 view .LVU82
 277:libraries/drivers/src/at32f403a_407_dac.c ****     default:
 278:libraries/drivers/src/at32f403a_407_dac.c ****       break;
 279:libraries/drivers/src/at32f403a_407_dac.c ****   }
 280:libraries/drivers/src/at32f403a_407_dac.c **** }
 462              		.loc 1 280 1 is_stmt 0 view .LVU83
 463 0020 7047     		bx	lr
 464              	.L55:
 465 0022 00BF     		.align	2
 466              	.L54:
 467 0024 00740040 		.word	1073771520
 468              		.cfi_endproc
 469              	.LFE143:
 471              		.section	.text.dac_data_output_get,"ax",%progbits
 472              		.align	1
 473              		.global	dac_data_output_get
 474              		.syntax unified
 475              		.thumb
 476              		.thumb_func
 478              	dac_data_output_get:
 479              	.LVL12:
 480              	.LFB144:
 281:libraries/drivers/src/at32f403a_407_dac.c **** 
 282:libraries/drivers/src/at32f403a_407_dac.c **** /**
ARM GAS  C:\Users\10963\AppData\Local\Temp\cccaKiKB.s 			page 14


 283:libraries/drivers/src/at32f403a_407_dac.c ****   * @brief  get dac data output
 284:libraries/drivers/src/at32f403a_407_dac.c ****   * @param  dac_select
 285:libraries/drivers/src/at32f403a_407_dac.c ****   *         this parameter can be one of the following values:
 286:libraries/drivers/src/at32f403a_407_dac.c ****   *         - DAC1_SELECT
 287:libraries/drivers/src/at32f403a_407_dac.c ****   *         - DAC2_SELECT
 288:libraries/drivers/src/at32f403a_407_dac.c ****   * @retval dac channel data output
 289:libraries/drivers/src/at32f403a_407_dac.c ****   */
 290:libraries/drivers/src/at32f403a_407_dac.c **** uint16_t dac_data_output_get(dac_select_type dac_select)
 291:libraries/drivers/src/at32f403a_407_dac.c **** {
 481              		.loc 1 291 1 is_stmt 1 view -0
 482              		.cfi_startproc
 483              		@ args = 0, pretend = 0, frame = 0
 484              		@ frame_needed = 0, uses_anonymous_args = 0
 485              		@ link register save eliminated.
 292:libraries/drivers/src/at32f403a_407_dac.c ****   uint16_t data_output =0 ;
 486              		.loc 1 292 3 view .LVU85
 293:libraries/drivers/src/at32f403a_407_dac.c ****   switch(dac_select)
 487              		.loc 1 293 3 view .LVU86
 488 0000 0128     		cmp	r0, #1
 489 0002 03D0     		beq	.L57
 490 0004 0228     		cmp	r0, #2
 491 0006 06D0     		beq	.L58
 492 0008 0020     		movs	r0, #0
 493              	.LVL13:
 494              		.loc 1 293 3 is_stmt 0 view .LVU87
 495 000a 7047     		bx	lr
 496              	.LVL14:
 497              	.L57:
 294:libraries/drivers/src/at32f403a_407_dac.c ****   {
 295:libraries/drivers/src/at32f403a_407_dac.c ****     case DAC1_SELECT:
 296:libraries/drivers/src/at32f403a_407_dac.c ****       data_output = DAC->d1odt_bit.d1odt;
 498              		.loc 1 296 7 is_stmt 1 view .LVU88
 499              		.loc 1 296 35 is_stmt 0 view .LVU89
 500 000c 044B     		ldr	r3, .L60
 501 000e D86A     		ldr	r0, [r3, #44]
 502              	.LVL15:
 503              		.loc 1 296 35 view .LVU90
 504 0010 C0F30B00 		ubfx	r0, r0, #0, #12
 505              	.LVL16:
 297:libraries/drivers/src/at32f403a_407_dac.c ****       break;
 506              		.loc 1 297 7 is_stmt 1 view .LVU91
 507 0014 7047     		bx	lr
 508              	.LVL17:
 509              	.L58:
 298:libraries/drivers/src/at32f403a_407_dac.c ****     case DAC2_SELECT:
 299:libraries/drivers/src/at32f403a_407_dac.c ****       data_output = DAC->d2odt_bit.d2odt;
 510              		.loc 1 299 7 view .LVU92
 511              		.loc 1 299 35 is_stmt 0 view .LVU93
 512 0016 024B     		ldr	r3, .L60
 513 0018 186B     		ldr	r0, [r3, #48]
 514              	.LVL18:
 515              		.loc 1 299 35 view .LVU94
 516 001a C0F30B00 		ubfx	r0, r0, #0, #12
 517              	.LVL19:
 300:libraries/drivers/src/at32f403a_407_dac.c ****       break;
 518              		.loc 1 300 7 is_stmt 1 view .LVU95
 301:libraries/drivers/src/at32f403a_407_dac.c ****     default:
ARM GAS  C:\Users\10963\AppData\Local\Temp\cccaKiKB.s 			page 15


 302:libraries/drivers/src/at32f403a_407_dac.c ****       break;
 303:libraries/drivers/src/at32f403a_407_dac.c ****   }
 304:libraries/drivers/src/at32f403a_407_dac.c ****   return data_output;
 519              		.loc 1 304 3 view .LVU96
 305:libraries/drivers/src/at32f403a_407_dac.c **** }
 520              		.loc 1 305 1 is_stmt 0 view .LVU97
 521 001e 7047     		bx	lr
 522              	.L61:
 523              		.align	2
 524              	.L60:
 525 0020 00740040 		.word	1073771520
 526              		.cfi_endproc
 527              	.LFE144:
 529              		.section	.text.dac_1_data_set,"ax",%progbits
 530              		.align	1
 531              		.global	dac_1_data_set
 532              		.syntax unified
 533              		.thumb
 534              		.thumb_func
 536              	dac_1_data_set:
 537              	.LVL20:
 538              	.LFB145:
 306:libraries/drivers/src/at32f403a_407_dac.c **** 
 307:libraries/drivers/src/at32f403a_407_dac.c **** /**
 308:libraries/drivers/src/at32f403a_407_dac.c ****   * @brief  set dac1 data
 309:libraries/drivers/src/at32f403a_407_dac.c ****   * @param  dac1_aligned
 310:libraries/drivers/src/at32f403a_407_dac.c ****   *         this parameter can be one of the following values:
 311:libraries/drivers/src/at32f403a_407_dac.c ****   *         DAC1_12BIT_RIGHT
 312:libraries/drivers/src/at32f403a_407_dac.c ****   *         DAC1_12BIT_LEFT
 313:libraries/drivers/src/at32f403a_407_dac.c ****   *         DAC1_8BIT_RIGHT
 314:libraries/drivers/src/at32f403a_407_dac.c ****   * @param  dac1_data :indecate from selected data holding register
 315:libraries/drivers/src/at32f403a_407_dac.c ****   * @retval none
 316:libraries/drivers/src/at32f403a_407_dac.c ****   */
 317:libraries/drivers/src/at32f403a_407_dac.c **** void dac_1_data_set(dac1_aligned_data_type dac1_aligned, uint16_t dac1_data)
 318:libraries/drivers/src/at32f403a_407_dac.c **** {
 539              		.loc 1 318 1 is_stmt 1 view -0
 540              		.cfi_startproc
 541              		@ args = 0, pretend = 0, frame = 0
 542              		@ frame_needed = 0, uses_anonymous_args = 0
 543              		@ link register save eliminated.
 319:libraries/drivers/src/at32f403a_407_dac.c ****   *(__IO uint32_t *) dac1_aligned = dac1_data;
 544              		.loc 1 319 3 view .LVU99
 545              		.loc 1 319 35 is_stmt 0 view .LVU100
 546 0000 0160     		str	r1, [r0]
 320:libraries/drivers/src/at32f403a_407_dac.c **** }
 547              		.loc 1 320 1 view .LVU101
 548 0002 7047     		bx	lr
 549              		.cfi_endproc
 550              	.LFE145:
 552              		.section	.text.dac_2_data_set,"ax",%progbits
 553              		.align	1
 554              		.global	dac_2_data_set
 555              		.syntax unified
 556              		.thumb
 557              		.thumb_func
 559              	dac_2_data_set:
 560              	.LVL21:
ARM GAS  C:\Users\10963\AppData\Local\Temp\cccaKiKB.s 			page 16


 561              	.LFB146:
 321:libraries/drivers/src/at32f403a_407_dac.c **** 
 322:libraries/drivers/src/at32f403a_407_dac.c **** /**
 323:libraries/drivers/src/at32f403a_407_dac.c ****   * @brief  set dac2 data
 324:libraries/drivers/src/at32f403a_407_dac.c ****   * @param  dac2_aligned
 325:libraries/drivers/src/at32f403a_407_dac.c ****   *         this parameter can be one of the following values:
 326:libraries/drivers/src/at32f403a_407_dac.c ****   *         DAC2_12BIT_RIGHT
 327:libraries/drivers/src/at32f403a_407_dac.c ****   *         DAC2_12BIT_LEFT
 328:libraries/drivers/src/at32f403a_407_dac.c ****   *         DAC2_8BIT_RIGHT
 329:libraries/drivers/src/at32f403a_407_dac.c ****   * @param  dac2_data :indecate from selected data holding register
 330:libraries/drivers/src/at32f403a_407_dac.c ****   * @retval none
 331:libraries/drivers/src/at32f403a_407_dac.c ****   */
 332:libraries/drivers/src/at32f403a_407_dac.c **** void dac_2_data_set(dac2_aligned_data_type dac2_aligned, uint16_t dac2_data)
 333:libraries/drivers/src/at32f403a_407_dac.c **** {
 562              		.loc 1 333 1 is_stmt 1 view -0
 563              		.cfi_startproc
 564              		@ args = 0, pretend = 0, frame = 0
 565              		@ frame_needed = 0, uses_anonymous_args = 0
 566              		@ link register save eliminated.
 334:libraries/drivers/src/at32f403a_407_dac.c ****   *(__IO uint32_t *) dac2_aligned = dac2_data;
 567              		.loc 1 334 3 view .LVU103
 568              		.loc 1 334 35 is_stmt 0 view .LVU104
 569 0000 0160     		str	r1, [r0]
 335:libraries/drivers/src/at32f403a_407_dac.c **** }
 570              		.loc 1 335 1 view .LVU105
 571 0002 7047     		bx	lr
 572              		.cfi_endproc
 573              	.LFE146:
 575              		.section	.text.dac_dual_data_set,"ax",%progbits
 576              		.align	1
 577              		.global	dac_dual_data_set
 578              		.syntax unified
 579              		.thumb
 580              		.thumb_func
 582              	dac_dual_data_set:
 583              	.LVL22:
 584              	.LFB147:
 336:libraries/drivers/src/at32f403a_407_dac.c **** 
 337:libraries/drivers/src/at32f403a_407_dac.c **** /**
 338:libraries/drivers/src/at32f403a_407_dac.c ****   * @brief  set dac dual data
 339:libraries/drivers/src/at32f403a_407_dac.c ****   * @param  dac_dual
 340:libraries/drivers/src/at32f403a_407_dac.c ****   *         this parameter can be one of the following values:
 341:libraries/drivers/src/at32f403a_407_dac.c ****   *         DAC_DUAL_12BIT_RIGHT
 342:libraries/drivers/src/at32f403a_407_dac.c ****   *         DAC_DUAL_12BIT_LEFT
 343:libraries/drivers/src/at32f403a_407_dac.c ****   *         DAC_DUAL_8BIT_RIGHT
 344:libraries/drivers/src/at32f403a_407_dac.c ****   * @param  data1 :dac1 channel indecate from selected data holding register
 345:libraries/drivers/src/at32f403a_407_dac.c ****   * @param  data2 :dac1 channel indecate from selected data holding register
 346:libraries/drivers/src/at32f403a_407_dac.c ****   * @retval none
 347:libraries/drivers/src/at32f403a_407_dac.c ****   */
 348:libraries/drivers/src/at32f403a_407_dac.c **** void dac_dual_data_set(dac_dual_data_type dac_dual, uint16_t data1, uint16_t data2)
 349:libraries/drivers/src/at32f403a_407_dac.c **** {
 585              		.loc 1 349 1 is_stmt 1 view -0
 586              		.cfi_startproc
 587              		@ args = 0, pretend = 0, frame = 0
 588              		@ frame_needed = 0, uses_anonymous_args = 0
 589              		@ link register save eliminated.
 350:libraries/drivers/src/at32f403a_407_dac.c ****   switch(dac_dual)
ARM GAS  C:\Users\10963\AppData\Local\Temp\cccaKiKB.s 			page 17


 590              		.loc 1 350 3 view .LVU107
 591 0000 0A4B     		ldr	r3, .L68
 592 0002 9842     		cmp	r0, r3
 593 0004 09D0     		beq	.L65
 594 0006 0433     		adds	r3, r3, #4
 595 0008 9842     		cmp	r0, r3
 596 000a 0AD0     		beq	.L66
 597 000c 083B     		subs	r3, r3, #8
 598 000e 9842     		cmp	r0, r3
 599 0010 0AD1     		bne	.L64
 351:libraries/drivers/src/at32f403a_407_dac.c ****   {
 352:libraries/drivers/src/at32f403a_407_dac.c ****     case DAC_DUAL_12BIT_RIGHT:
 353:libraries/drivers/src/at32f403a_407_dac.c ****       *(__IO uint32_t *) dac_dual = (uint32_t)(data1 | (data2 << 16));
 600              		.loc 1 353 7 view .LVU108
 601              		.loc 1 353 54 is_stmt 0 view .LVU109
 602 0012 41EA0241 		orr	r1, r1, r2, lsl #16
 603              	.LVL23:
 604              		.loc 1 353 35 view .LVU110
 605 0016 0160     		str	r1, [r0]
 354:libraries/drivers/src/at32f403a_407_dac.c ****       break;
 606              		.loc 1 354 7 is_stmt 1 view .LVU111
 607 0018 7047     		bx	lr
 608              	.LVL24:
 609              	.L65:
 355:libraries/drivers/src/at32f403a_407_dac.c ****     case DAC_DUAL_12BIT_LEFT:
 356:libraries/drivers/src/at32f403a_407_dac.c ****       *(__IO uint32_t *) dac_dual = (uint32_t)(data1 | (data2 << 16));
 610              		.loc 1 356 7 view .LVU112
 611              		.loc 1 356 54 is_stmt 0 view .LVU113
 612 001a 41EA0241 		orr	r1, r1, r2, lsl #16
 613              	.LVL25:
 614              		.loc 1 356 35 view .LVU114
 615 001e 0160     		str	r1, [r0]
 357:libraries/drivers/src/at32f403a_407_dac.c ****       break;
 616              		.loc 1 357 7 is_stmt 1 view .LVU115
 617 0020 7047     		bx	lr
 618              	.LVL26:
 619              	.L66:
 358:libraries/drivers/src/at32f403a_407_dac.c ****     case DAC_DUAL_8BIT_RIGHT:
 359:libraries/drivers/src/at32f403a_407_dac.c ****       *(__IO uint32_t *) dac_dual = (uint32_t)(data1 | (data2 << 8));
 620              		.loc 1 359 7 view .LVU116
 621              		.loc 1 359 54 is_stmt 0 view .LVU117
 622 0022 41EA0221 		orr	r1, r1, r2, lsl #8
 623              	.LVL27:
 624              		.loc 1 359 35 view .LVU118
 625 0026 0160     		str	r1, [r0]
 360:libraries/drivers/src/at32f403a_407_dac.c ****       break;
 626              		.loc 1 360 7 is_stmt 1 view .LVU119
 627              	.L64:
 361:libraries/drivers/src/at32f403a_407_dac.c ****     default:
 362:libraries/drivers/src/at32f403a_407_dac.c ****       break;
 363:libraries/drivers/src/at32f403a_407_dac.c ****   }
 364:libraries/drivers/src/at32f403a_407_dac.c **** }
 628              		.loc 1 364 1 is_stmt 0 view .LVU120
 629 0028 7047     		bx	lr
 630              	.L69:
 631 002a 00BF     		.align	2
 632              	.L68:
ARM GAS  C:\Users\10963\AppData\Local\Temp\cccaKiKB.s 			page 18


 633 002c 24740040 		.word	1073771556
 634              		.cfi_endproc
 635              	.LFE147:
 637              		.text
 638              	.Letext0:
 639              		.file 2 "C:/Program Files (x86)/Arm/GNU Toolchain mingw-w64-i686-arm-none-eabi/arm-none-eabi/inclu
 640              		.file 3 "C:/Program Files (x86)/Arm/GNU Toolchain mingw-w64-i686-arm-none-eabi/arm-none-eabi/inclu
 641              		.file 4 "libraries/cmsis/cm4/device_support/at32f403a_407.h"
 642              		.file 5 "libraries/drivers/inc/at32f403a_407_crm.h"
 643              		.file 6 "libraries/drivers/inc/at32f403a_407_dac.h"
ARM GAS  C:\Users\10963\AppData\Local\Temp\cccaKiKB.s 			page 19

