ARM GAS  C:\Users\10963\AppData\Local\Temp\ccRdY5VJ.s 			page 1


   1              		.cpu cortex-m4
   2              		.arch armv7e-m
   3              		.fpu fpv4-sp-d16
   4              		.eabi_attribute 27, 1
   5              		.eabi_attribute 28, 1
   6              		.eabi_attribute 20, 1
   7              		.eabi_attribute 21, 1
   8              		.eabi_attribute 23, 3
   9              		.eabi_attribute 24, 1
  10              		.eabi_attribute 25, 1
  11              		.eabi_attribute 26, 1
  12              		.eabi_attribute 30, 1
  13              		.eabi_attribute 34, 1
  14              		.eabi_attribute 18, 4
  15              		.file	"at32f403a_407_wdt.c"
  16              		.text
  17              	.Ltext0:
  18              		.cfi_sections	.debug_frame
  19              		.file 1 "libraries/drivers/src/at32f403a_407_wdt.c"
  20              		.section	.text.wdt_enable,"ax",%progbits
  21              		.align	1
  22              		.global	wdt_enable
  23              		.syntax unified
  24              		.thumb
  25              		.thumb_func
  27              	wdt_enable:
  28              	.LFB134:
   1:libraries/drivers/src/at32f403a_407_wdt.c **** /**
   2:libraries/drivers/src/at32f403a_407_wdt.c ****   **************************************************************************
   3:libraries/drivers/src/at32f403a_407_wdt.c ****   * @file     at32f403a_407_wdt.c
   4:libraries/drivers/src/at32f403a_407_wdt.c ****   * @brief    contains all the functions for the wdt firmware library
   5:libraries/drivers/src/at32f403a_407_wdt.c ****   **************************************************************************
   6:libraries/drivers/src/at32f403a_407_wdt.c ****   *
   7:libraries/drivers/src/at32f403a_407_wdt.c ****   * Copyright (c) 2025, Artery Technology, All rights reserved.
   8:libraries/drivers/src/at32f403a_407_wdt.c ****   *
   9:libraries/drivers/src/at32f403a_407_wdt.c ****   * The software Board Support Package (BSP) that is made available to
  10:libraries/drivers/src/at32f403a_407_wdt.c ****   * download from Artery official website is the copyrighted work of Artery.
  11:libraries/drivers/src/at32f403a_407_wdt.c ****   * Artery authorizes customers to use, copy, and distribute the BSP
  12:libraries/drivers/src/at32f403a_407_wdt.c ****   * software and its related documentation for the purpose of design and
  13:libraries/drivers/src/at32f403a_407_wdt.c ****   * development in conjunction with Artery microcontrollers. Use of the
  14:libraries/drivers/src/at32f403a_407_wdt.c ****   * software is governed by this copyright notice and the following disclaimer.
  15:libraries/drivers/src/at32f403a_407_wdt.c ****   *
  16:libraries/drivers/src/at32f403a_407_wdt.c ****   * THIS SOFTWARE IS PROVIDED ON "AS IS" BASIS WITHOUT WARRANTIES,
  17:libraries/drivers/src/at32f403a_407_wdt.c ****   * GUARANTEES OR REPRESENTATIONS OF ANY KIND. ARTERY EXPRESSLY DISCLAIMS,
  18:libraries/drivers/src/at32f403a_407_wdt.c ****   * TO THE FULLEST EXTENT PERMITTED BY LAW, ALL EXPRESS, IMPLIED OR
  19:libraries/drivers/src/at32f403a_407_wdt.c ****   * STATUTORY OR OTHER WARRANTIES, GUARANTEES OR REPRESENTATIONS,
  20:libraries/drivers/src/at32f403a_407_wdt.c ****   * INCLUDING BUT NOT LIMITED TO, THE IMPLIED WARRANTIES OF MERCHANTABILITY,
  21:libraries/drivers/src/at32f403a_407_wdt.c ****   * FITNESS FOR A PARTICULAR PURPOSE, OR NON-INFRINGEMENT.
  22:libraries/drivers/src/at32f403a_407_wdt.c ****   *
  23:libraries/drivers/src/at32f403a_407_wdt.c ****   **************************************************************************
  24:libraries/drivers/src/at32f403a_407_wdt.c ****   */
  25:libraries/drivers/src/at32f403a_407_wdt.c **** 
  26:libraries/drivers/src/at32f403a_407_wdt.c **** #include "at32f403a_407_conf.h"
  27:libraries/drivers/src/at32f403a_407_wdt.c **** 
  28:libraries/drivers/src/at32f403a_407_wdt.c **** /** @addtogroup AT32F403A_407_periph_driver
  29:libraries/drivers/src/at32f403a_407_wdt.c ****   * @{
  30:libraries/drivers/src/at32f403a_407_wdt.c ****   */
ARM GAS  C:\Users\10963\AppData\Local\Temp\ccRdY5VJ.s 			page 2


  31:libraries/drivers/src/at32f403a_407_wdt.c **** 
  32:libraries/drivers/src/at32f403a_407_wdt.c **** /** @defgroup WDT
  33:libraries/drivers/src/at32f403a_407_wdt.c ****   * @brief WDT driver modules
  34:libraries/drivers/src/at32f403a_407_wdt.c ****   * @{
  35:libraries/drivers/src/at32f403a_407_wdt.c ****   */
  36:libraries/drivers/src/at32f403a_407_wdt.c **** 
  37:libraries/drivers/src/at32f403a_407_wdt.c **** #ifdef WDT_MODULE_ENABLED
  38:libraries/drivers/src/at32f403a_407_wdt.c **** 
  39:libraries/drivers/src/at32f403a_407_wdt.c **** /** @defgroup WDT_private_functions
  40:libraries/drivers/src/at32f403a_407_wdt.c ****   * @{
  41:libraries/drivers/src/at32f403a_407_wdt.c ****   */
  42:libraries/drivers/src/at32f403a_407_wdt.c **** 
  43:libraries/drivers/src/at32f403a_407_wdt.c **** /**
  44:libraries/drivers/src/at32f403a_407_wdt.c ****   * @brief  wdt enable ,the reload value will be sent to the counter
  45:libraries/drivers/src/at32f403a_407_wdt.c ****   * @param  none
  46:libraries/drivers/src/at32f403a_407_wdt.c ****   * @retval none
  47:libraries/drivers/src/at32f403a_407_wdt.c ****   */
  48:libraries/drivers/src/at32f403a_407_wdt.c **** void wdt_enable(void)
  49:libraries/drivers/src/at32f403a_407_wdt.c **** {
  29              		.loc 1 49 1 view -0
  30              		.cfi_startproc
  31              		@ args = 0, pretend = 0, frame = 0
  32              		@ frame_needed = 0, uses_anonymous_args = 0
  33              		@ link register save eliminated.
  50:libraries/drivers/src/at32f403a_407_wdt.c ****   WDT->cmd = WDT_CMD_ENABLE;
  34              		.loc 1 50 3 view .LVU1
  35              		.loc 1 50 12 is_stmt 0 view .LVU2
  36 0000 024B     		ldr	r3, .L2
  37 0002 4CF6CC42 		movw	r2, #52428
  38 0006 1A60     		str	r2, [r3]
  51:libraries/drivers/src/at32f403a_407_wdt.c **** }
  39              		.loc 1 51 1 view .LVU3
  40 0008 7047     		bx	lr
  41              	.L3:
  42 000a 00BF     		.align	2
  43              	.L2:
  44 000c 00300040 		.word	1073754112
  45              		.cfi_endproc
  46              	.LFE134:
  48              		.section	.text.wdt_counter_reload,"ax",%progbits
  49              		.align	1
  50              		.global	wdt_counter_reload
  51              		.syntax unified
  52              		.thumb
  53              		.thumb_func
  55              	wdt_counter_reload:
  56              	.LFB135:
  52:libraries/drivers/src/at32f403a_407_wdt.c **** 
  53:libraries/drivers/src/at32f403a_407_wdt.c **** /**
  54:libraries/drivers/src/at32f403a_407_wdt.c ****   * @brief  reload wdt counter
  55:libraries/drivers/src/at32f403a_407_wdt.c ****   * @param  none
  56:libraries/drivers/src/at32f403a_407_wdt.c ****   * @retval none
  57:libraries/drivers/src/at32f403a_407_wdt.c ****   */
  58:libraries/drivers/src/at32f403a_407_wdt.c **** void wdt_counter_reload(void)
  59:libraries/drivers/src/at32f403a_407_wdt.c **** {
  57              		.loc 1 59 1 is_stmt 1 view -0
  58              		.cfi_startproc
ARM GAS  C:\Users\10963\AppData\Local\Temp\ccRdY5VJ.s 			page 3


  59              		@ args = 0, pretend = 0, frame = 0
  60              		@ frame_needed = 0, uses_anonymous_args = 0
  61              		@ link register save eliminated.
  60:libraries/drivers/src/at32f403a_407_wdt.c ****   WDT->cmd = WDT_CMD_RELOAD;
  62              		.loc 1 60 3 view .LVU5
  63              		.loc 1 60 12 is_stmt 0 view .LVU6
  64 0000 024B     		ldr	r3, .L5
  65 0002 4AF6AA22 		movw	r2, #43690
  66 0006 1A60     		str	r2, [r3]
  61:libraries/drivers/src/at32f403a_407_wdt.c **** }
  67              		.loc 1 61 1 view .LVU7
  68 0008 7047     		bx	lr
  69              	.L6:
  70 000a 00BF     		.align	2
  71              	.L5:
  72 000c 00300040 		.word	1073754112
  73              		.cfi_endproc
  74              	.LFE135:
  76              		.section	.text.wdt_reload_value_set,"ax",%progbits
  77              		.align	1
  78              		.global	wdt_reload_value_set
  79              		.syntax unified
  80              		.thumb
  81              		.thumb_func
  83              	wdt_reload_value_set:
  84              	.LVL0:
  85              	.LFB136:
  62:libraries/drivers/src/at32f403a_407_wdt.c **** 
  63:libraries/drivers/src/at32f403a_407_wdt.c **** /**
  64:libraries/drivers/src/at32f403a_407_wdt.c ****   * @brief  set wdt counter reload value
  65:libraries/drivers/src/at32f403a_407_wdt.c ****   * @param  reload_value (0x0000~0x0FFF)
  66:libraries/drivers/src/at32f403a_407_wdt.c ****   * @retval none
  67:libraries/drivers/src/at32f403a_407_wdt.c ****   */
  68:libraries/drivers/src/at32f403a_407_wdt.c **** void wdt_reload_value_set(uint16_t reload_value)
  69:libraries/drivers/src/at32f403a_407_wdt.c **** {
  86              		.loc 1 69 1 is_stmt 1 view -0
  87              		.cfi_startproc
  88              		@ args = 0, pretend = 0, frame = 0
  89              		@ frame_needed = 0, uses_anonymous_args = 0
  90              		@ link register save eliminated.
  70:libraries/drivers/src/at32f403a_407_wdt.c ****   WDT->rld = reload_value;
  91              		.loc 1 70 3 view .LVU9
  92              		.loc 1 70 12 is_stmt 0 view .LVU10
  93 0000 014B     		ldr	r3, .L8
  94 0002 9860     		str	r0, [r3, #8]
  71:libraries/drivers/src/at32f403a_407_wdt.c **** }
  95              		.loc 1 71 1 view .LVU11
  96 0004 7047     		bx	lr
  97              	.L9:
  98 0006 00BF     		.align	2
  99              	.L8:
 100 0008 00300040 		.word	1073754112
 101              		.cfi_endproc
 102              	.LFE136:
 104              		.section	.text.wdt_divider_set,"ax",%progbits
 105              		.align	1
 106              		.global	wdt_divider_set
ARM GAS  C:\Users\10963\AppData\Local\Temp\ccRdY5VJ.s 			page 4


 107              		.syntax unified
 108              		.thumb
 109              		.thumb_func
 111              	wdt_divider_set:
 112              	.LVL1:
 113              	.LFB137:
  72:libraries/drivers/src/at32f403a_407_wdt.c **** 
  73:libraries/drivers/src/at32f403a_407_wdt.c **** /**
  74:libraries/drivers/src/at32f403a_407_wdt.c ****   * @brief  set wdt division divider
  75:libraries/drivers/src/at32f403a_407_wdt.c ****   * @param  division
  76:libraries/drivers/src/at32f403a_407_wdt.c ****   *         this parameter can be one of the following values:
  77:libraries/drivers/src/at32f403a_407_wdt.c ****   *         - WDT_CLK_DIV_4
  78:libraries/drivers/src/at32f403a_407_wdt.c ****   *         - WDT_CLK_DIV_8
  79:libraries/drivers/src/at32f403a_407_wdt.c ****   *         - WDT_CLK_DIV_16
  80:libraries/drivers/src/at32f403a_407_wdt.c ****   *         - WDT_CLK_DIV_32
  81:libraries/drivers/src/at32f403a_407_wdt.c ****   *         - WDT_CLK_DIV_64
  82:libraries/drivers/src/at32f403a_407_wdt.c ****   *         - WDT_CLK_DIV_128
  83:libraries/drivers/src/at32f403a_407_wdt.c ****   *         - WDT_CLK_DIV_256
  84:libraries/drivers/src/at32f403a_407_wdt.c ****   * @retval none
  85:libraries/drivers/src/at32f403a_407_wdt.c ****   */
  86:libraries/drivers/src/at32f403a_407_wdt.c **** void wdt_divider_set(wdt_division_type division)
  87:libraries/drivers/src/at32f403a_407_wdt.c **** {
 114              		.loc 1 87 1 is_stmt 1 view -0
 115              		.cfi_startproc
 116              		@ args = 0, pretend = 0, frame = 0
 117              		@ frame_needed = 0, uses_anonymous_args = 0
 118              		@ link register save eliminated.
  88:libraries/drivers/src/at32f403a_407_wdt.c ****   WDT->div_bit.div = division;
 119              		.loc 1 88 3 view .LVU13
 120              		.loc 1 88 20 is_stmt 0 view .LVU14
 121 0000 024B     		ldr	r3, .L11
 122 0002 5A68     		ldr	r2, [r3, #4]
 123 0004 60F30202 		bfi	r2, r0, #0, #3
 124 0008 5A60     		str	r2, [r3, #4]
  89:libraries/drivers/src/at32f403a_407_wdt.c **** }
 125              		.loc 1 89 1 view .LVU15
 126 000a 7047     		bx	lr
 127              	.L12:
 128              		.align	2
 129              	.L11:
 130 000c 00300040 		.word	1073754112
 131              		.cfi_endproc
 132              	.LFE137:
 134              		.section	.text.wdt_register_write_enable,"ax",%progbits
 135              		.align	1
 136              		.global	wdt_register_write_enable
 137              		.syntax unified
 138              		.thumb
 139              		.thumb_func
 141              	wdt_register_write_enable:
 142              	.LVL2:
 143              	.LFB138:
  90:libraries/drivers/src/at32f403a_407_wdt.c **** 
  91:libraries/drivers/src/at32f403a_407_wdt.c **** /**
  92:libraries/drivers/src/at32f403a_407_wdt.c ****   * @brief  enable or disable wdt cmd register write
  93:libraries/drivers/src/at32f403a_407_wdt.c ****   * @param  new_state (TRUE or FALSE)
  94:libraries/drivers/src/at32f403a_407_wdt.c ****   * @retval none
ARM GAS  C:\Users\10963\AppData\Local\Temp\ccRdY5VJ.s 			page 5


  95:libraries/drivers/src/at32f403a_407_wdt.c ****   */
  96:libraries/drivers/src/at32f403a_407_wdt.c **** void wdt_register_write_enable( confirm_state new_state)
  97:libraries/drivers/src/at32f403a_407_wdt.c **** {
 144              		.loc 1 97 1 is_stmt 1 view -0
 145              		.cfi_startproc
 146              		@ args = 0, pretend = 0, frame = 0
 147              		@ frame_needed = 0, uses_anonymous_args = 0
 148              		@ link register save eliminated.
  98:libraries/drivers/src/at32f403a_407_wdt.c ****   if(new_state == FALSE)
 149              		.loc 1 98 3 view .LVU17
 150              		.loc 1 98 5 is_stmt 0 view .LVU18
 151 0000 10B9     		cbnz	r0, .L14
  99:libraries/drivers/src/at32f403a_407_wdt.c ****   {
 100:libraries/drivers/src/at32f403a_407_wdt.c ****     WDT->cmd = WDT_CMD_LOCK;
 152              		.loc 1 100 5 is_stmt 1 view .LVU19
 153              		.loc 1 100 14 is_stmt 0 view .LVU20
 154 0002 044B     		ldr	r3, .L16
 155 0004 1860     		str	r0, [r3]
 156 0006 7047     		bx	lr
 157              	.L14:
 101:libraries/drivers/src/at32f403a_407_wdt.c ****   }
 102:libraries/drivers/src/at32f403a_407_wdt.c ****   else
 103:libraries/drivers/src/at32f403a_407_wdt.c ****   {
 104:libraries/drivers/src/at32f403a_407_wdt.c ****     WDT->cmd = WDT_CMD_UNLOCK;
 158              		.loc 1 104 5 is_stmt 1 view .LVU21
 159              		.loc 1 104 14 is_stmt 0 view .LVU22
 160 0008 024B     		ldr	r3, .L16
 161 000a 45F25552 		movw	r2, #21845
 162 000e 1A60     		str	r2, [r3]
 105:libraries/drivers/src/at32f403a_407_wdt.c ****   }
 106:libraries/drivers/src/at32f403a_407_wdt.c **** }
 163              		.loc 1 106 1 view .LVU23
 164 0010 7047     		bx	lr
 165              	.L17:
 166 0012 00BF     		.align	2
 167              	.L16:
 168 0014 00300040 		.word	1073754112
 169              		.cfi_endproc
 170              	.LFE138:
 172              		.section	.text.wdt_flag_get,"ax",%progbits
 173              		.align	1
 174              		.global	wdt_flag_get
 175              		.syntax unified
 176              		.thumb
 177              		.thumb_func
 179              	wdt_flag_get:
 180              	.LVL3:
 181              	.LFB139:
 107:libraries/drivers/src/at32f403a_407_wdt.c **** 
 108:libraries/drivers/src/at32f403a_407_wdt.c **** /**
 109:libraries/drivers/src/at32f403a_407_wdt.c ****   * @brief  get wdt flag
 110:libraries/drivers/src/at32f403a_407_wdt.c ****   * @param  wdt_flag
 111:libraries/drivers/src/at32f403a_407_wdt.c ****   *         this parameter can be one of the following values:
 112:libraries/drivers/src/at32f403a_407_wdt.c ****   *         - WDT_DIVF_UPDATE_FLAG: division value update complete flag.
 113:libraries/drivers/src/at32f403a_407_wdt.c ****   *         - WDT_RLDF_UPDATE_FLAG: reload value update complete flag.
 114:libraries/drivers/src/at32f403a_407_wdt.c ****   * @retval state of wdt flag
 115:libraries/drivers/src/at32f403a_407_wdt.c ****   */
ARM GAS  C:\Users\10963\AppData\Local\Temp\ccRdY5VJ.s 			page 6


 116:libraries/drivers/src/at32f403a_407_wdt.c **** flag_status wdt_flag_get(uint16_t wdt_flag)
 117:libraries/drivers/src/at32f403a_407_wdt.c **** {
 182              		.loc 1 117 1 is_stmt 1 view -0
 183              		.cfi_startproc
 184              		@ args = 0, pretend = 0, frame = 0
 185              		@ frame_needed = 0, uses_anonymous_args = 0
 186              		@ link register save eliminated.
 118:libraries/drivers/src/at32f403a_407_wdt.c ****   flag_status status = RESET;
 187              		.loc 1 118 3 view .LVU25
 119:libraries/drivers/src/at32f403a_407_wdt.c **** 
 120:libraries/drivers/src/at32f403a_407_wdt.c ****   if ((WDT->sts & wdt_flag) != (uint16_t)RESET)
 188              		.loc 1 120 3 view .LVU26
 189              		.loc 1 120 11 is_stmt 0 view .LVU27
 190 0000 034B     		ldr	r3, .L21
 191 0002 DB68     		ldr	r3, [r3, #12]
 192              		.loc 1 120 6 view .LVU28
 193 0004 1842     		tst	r0, r3
 194 0006 01D0     		beq	.L20
 121:libraries/drivers/src/at32f403a_407_wdt.c ****   {
 122:libraries/drivers/src/at32f403a_407_wdt.c ****     status = SET;
 195              		.loc 1 122 12 view .LVU29
 196 0008 0120     		movs	r0, #1
 197              	.LVL4:
 198              		.loc 1 122 12 view .LVU30
 199 000a 7047     		bx	lr
 200              	.LVL5:
 201              	.L20:
 123:libraries/drivers/src/at32f403a_407_wdt.c ****   }
 124:libraries/drivers/src/at32f403a_407_wdt.c ****   else
 125:libraries/drivers/src/at32f403a_407_wdt.c ****   {
 126:libraries/drivers/src/at32f403a_407_wdt.c ****     status = RESET;
 202              		.loc 1 126 12 view .LVU31
 203 000c 0020     		movs	r0, #0
 204              	.LVL6:
 127:libraries/drivers/src/at32f403a_407_wdt.c ****   }
 128:libraries/drivers/src/at32f403a_407_wdt.c **** 
 129:libraries/drivers/src/at32f403a_407_wdt.c ****   return status;
 205              		.loc 1 129 3 is_stmt 1 view .LVU32
 130:libraries/drivers/src/at32f403a_407_wdt.c **** }
 206              		.loc 1 130 1 is_stmt 0 view .LVU33
 207 000e 7047     		bx	lr
 208              	.L22:
 209              		.align	2
 210              	.L21:
 211 0010 00300040 		.word	1073754112
 212              		.cfi_endproc
 213              	.LFE139:
 215              		.text
 216              	.Letext0:
 217              		.file 2 "C:/Program Files (x86)/Arm/GNU Toolchain mingw-w64-i686-arm-none-eabi/arm-none-eabi/inclu
 218              		.file 3 "C:/Program Files (x86)/Arm/GNU Toolchain mingw-w64-i686-arm-none-eabi/arm-none-eabi/inclu
 219              		.file 4 "libraries/cmsis/cm4/device_support/at32f403a_407.h"
 220              		.file 5 "libraries/drivers/inc/at32f403a_407_wdt.h"
ARM GAS  C:\Users\10963\AppData\Local\Temp\ccRdY5VJ.s 			page 7

