ARM GAS  C:\Users\10963\AppData\Local\Temp\cc0r6Qhy.s 			page 1


   1              		.cpu cortex-m4
   2              		.arch armv7e-m
   3              		.fpu fpv4-sp-d16
   4              		.eabi_attribute 27, 1
   5              		.eabi_attribute 28, 1
   6              		.eabi_attribute 20, 1
   7              		.eabi_attribute 21, 1
   8              		.eabi_attribute 23, 3
   9              		.eabi_attribute 24, 1
  10              		.eabi_attribute 25, 1
  11              		.eabi_attribute 26, 1
  12              		.eabi_attribute 30, 1
  13              		.eabi_attribute 34, 1
  14              		.eabi_attribute 18, 4
  15              		.file	"can_cia402.c"
  16              		.text
  17              	.Ltext0:
  18              		.cfi_sections	.debug_frame
  19              		.file 1 "../Core/src/can_cia402.c"
  20              		.section	.text.cia402_init,"ax",%progbits
  21              		.align	1
  22              		.global	cia402_init
  23              		.syntax unified
  24              		.thumb
  25              		.thumb_func
  27              	cia402_init:
  28              	.LVL0:
  29              	.LFB134:
   1:../Core/src/can_cia402.c **** /* CAN总线通信Cia402协议模块 */
   2:../Core/src/can_cia402.c **** #include "can_cia402.h"
   3:../Core/src/can_cia402.c **** #include "motor_params.h"
   4:../Core/src/can_cia402.c **** #include <stddef.h>
   5:../Core/src/can_cia402.c **** 
   6:../Core/src/can_cia402.c **** /**
   7:../Core/src/can_cia402.c ****   * @brief  初始化CIA402设备
   8:../Core/src/can_cia402.c ****   * @param  device: CIA402设备结构体指针
   9:../Core/src/can_cia402.c ****   * @retval none
  10:../Core/src/can_cia402.c ****   */
  11:../Core/src/can_cia402.c **** void cia402_init(motor_ds402_params_t *device)
  12:../Core/src/can_cia402.c **** {
  30              		.loc 1 12 1 view -0
  31              		.cfi_startproc
  32              		@ args = 0, pretend = 0, frame = 0
  33              		@ frame_needed = 0, uses_anonymous_args = 0
  34              		@ link register save eliminated.
  13:../Core/src/can_cia402.c ****     if (device == NULL) return;
  35              		.loc 1 13 5 view .LVU1
  36              		.loc 1 13 8 is_stmt 0 view .LVU2
  37 0000 78B1     		cbz	r0, .L1
  14:../Core/src/can_cia402.c ****     
  15:../Core/src/can_cia402.c ****     /* 初始化DS402参数 */
  16:../Core/src/can_cia402.c ****     device->control_word = 0;
  38              		.loc 1 16 5 is_stmt 1 view .LVU3
  39              		.loc 1 16 26 is_stmt 0 view .LVU4
  40 0002 0022     		movs	r2, #0
  41 0004 4FF00001 		mov	r1, #0	@ movhi
  42 0008 8281     		strh	r2, [r0, #12]	@ movhi
ARM GAS  C:\Users\10963\AppData\Local\Temp\cc0r6Qhy.s 			page 2


  17:../Core/src/can_cia402.c ****     device->status_word = 0;
  43              		.loc 1 17 5 is_stmt 1 view .LVU5
  44              		.loc 1 17 25 is_stmt 0 view .LVU6
  45 000a C281     		strh	r2, [r0, #14]	@ movhi
  18:../Core/src/can_cia402.c ****     device->target_position = 0;
  46              		.loc 1 18 5 is_stmt 1 view .LVU7
  47              		.loc 1 18 29 is_stmt 0 view .LVU8
  48 000c 8264     		str	r2, [r0, #72]
  19:../Core/src/can_cia402.c ****     device->target_velocity = 0;
  49              		.loc 1 19 5 is_stmt 1 view .LVU9
  50              		.loc 1 19 29 is_stmt 0 view .LVU10
  51 000e C0F86023 		str	r2, [r0, #864]
  20:../Core/src/can_cia402.c ****     device->target_torque_percent = 0;
  52              		.loc 1 20 5 is_stmt 1 view .LVU11
  53              		.loc 1 20 35 is_stmt 0 view .LVU12
  54 0012 0287     		strh	r2, [r0, #56]	@ movhi
  21:../Core/src/can_cia402.c ****     device->actual_position_inc = 0;
  55              		.loc 1 21 5 is_stmt 1 view .LVU13
  56              		.loc 1 21 33 is_stmt 0 view .LVU14
  57 0014 C261     		str	r2, [r0, #28]
  22:../Core/src/can_cia402.c ****     device->actual_velocity = 0;
  58              		.loc 1 22 5 is_stmt 1 view .LVU15
  59              		.loc 1 22 29 is_stmt 0 view .LVU16
  60 0016 4263     		str	r2, [r0, #52]
  23:../Core/src/can_cia402.c ****     device->actual_torque = 0;
  61              		.loc 1 23 5 is_stmt 1 view .LVU17
  62              		.loc 1 23 27 is_stmt 0 view .LVU18
  63 0018 A0F84220 		strh	r2, [r0, #66]	@ movhi
  24:../Core/src/can_cia402.c ****     device->error_code = 0;
  64              		.loc 1 24 5 is_stmt 1 view .LVU19
  65              		.loc 1 24 24 is_stmt 0 view .LVU20
  66 001c 8260     		str	r2, [r0, #8]
  25:../Core/src/can_cia402.c ****     
  26:../Core/src/can_cia402.c ****     /* 初始化控制模式 */
  27:../Core/src/can_cia402.c ****     device->operation_mode = CIA402_MODE_NO_MODE;
  67              		.loc 1 27 5 is_stmt 1 view .LVU21
  68              		.loc 1 27 28 is_stmt 0 view .LVU22
  69 001e 4175     		strb	r1, [r0, #21]
  28:../Core/src/can_cia402.c ****     
  29:../Core/src/can_cia402.c ****     /* 初始化状态机状态 */
  30:../Core/src/can_cia402.c ****     device->current_state = CIA402_STATE_START;
  70              		.loc 1 30 5 is_stmt 1 view .LVU23
  71              		.loc 1 30 27 is_stmt 0 view .LVU24
  72 0020 8175     		strb	r1, [r0, #22]
  73              	.L1:
  31:../Core/src/can_cia402.c **** }
  74              		.loc 1 31 1 view .LVU25
  75 0022 7047     		bx	lr
  76              		.cfi_endproc
  77              	.LFE134:
  79              		.section	.text.cia402_process_state_machine,"ax",%progbits
  80              		.align	1
  81              		.global	cia402_process_state_machine
  82              		.syntax unified
  83              		.thumb
  84              		.thumb_func
  86              	cia402_process_state_machine:
ARM GAS  C:\Users\10963\AppData\Local\Temp\cc0r6Qhy.s 			page 3


  87              	.LVL1:
  88              	.LFB135:
  32:../Core/src/can_cia402.c **** 
  33:../Core/src/can_cia402.c **** /**
  34:../Core/src/can_cia402.c ****   * @brief  处理CIA402状态机
  35:../Core/src/can_cia402.c ****   * @param  device: CIA402设备结构体指针
  36:../Core/src/can_cia402.c ****   * @retval none
  37:../Core/src/can_cia402.c ****   */
  38:../Core/src/can_cia402.c **** void cia402_process_state_machine(motor_ds402_params_t *device)
  39:../Core/src/can_cia402.c **** {
  89              		.loc 1 39 1 is_stmt 1 view -0
  90              		.cfi_startproc
  91              		@ args = 0, pretend = 0, frame = 0
  92              		@ frame_needed = 0, uses_anonymous_args = 0
  93              		@ link register save eliminated.
  40:../Core/src/can_cia402.c ****     if (device == NULL) return;
  94              		.loc 1 40 5 view .LVU27
  95              		.loc 1 40 8 is_stmt 0 view .LVU28
  96 0000 0346     		mov	r3, r0
  97 0002 0028     		cmp	r0, #0
  98 0004 00F08680 		beq	.L3
  41:../Core/src/can_cia402.c ****     
  42:../Core/src/can_cia402.c ****     /* 根据当前状态和控制字更新状态 */
  43:../Core/src/can_cia402.c ****     switch ((cia402_state_t)device->current_state)
  99              		.loc 1 43 5 is_stmt 1 view .LVU29
 100              		.loc 1 43 35 is_stmt 0 view .LVU30
 101 0008 827D     		ldrb	r2, [r0, #22]	@ zero_extendqisi2
 102              		.loc 1 43 5 view .LVU31
 103 000a 042A     		cmp	r2, #4
 104 000c 5ED0     		beq	.L5
 105 000e 21D8     		bhi	.L6
 106 0010 022A     		cmp	r2, #2
 107 0012 3DD0     		beq	.L7
 108 0014 0FD8     		bhi	.L8
 109 0016 52B3     		cbz	r2, .L9
 110 0018 012A     		cmp	r2, #1
 111 001a 2AD1     		bne	.L11
  44:../Core/src/can_cia402.c ****     {
  45:../Core/src/can_cia402.c ****         case CIA402_STATE_START:
  46:../Core/src/can_cia402.c ****             device->current_state = (uint8_t)CIA402_STATE_NOT_READY_TO_SWITCH_ON;
  47:../Core/src/can_cia402.c ****             break;
  48:../Core/src/can_cia402.c ****             
  49:../Core/src/can_cia402.c ****         case CIA402_STATE_NOT_READY_TO_SWITCH_ON:
  50:../Core/src/can_cia402.c ****             if ((device->control_word & CIA402_CTRLWORD_SWITCH_ON) == 0 &&
 112              		.loc 1 50 13 is_stmt 1 view .LVU32
 113              		.loc 1 50 24 is_stmt 0 view .LVU33
 114 001c 8289     		ldrh	r2, [r0, #12]
 115              		.loc 1 50 16 view .LVU34
 116 001e 12F0010F 		tst	r2, #1
 117 0022 26D1     		bne	.L11
 118              		.loc 1 50 73 discriminator 1 view .LVU35
 119 0024 12F0020F 		tst	r2, #2
 120 0028 23D1     		bne	.L11
  51:../Core/src/can_cia402.c ****                 (device->control_word & CIA402_CTRLWORD_ENABLE_OPERATION) == 0 &&
 121              		.loc 1 51 80 view .LVU36
 122 002a 12F0040F 		tst	r2, #4
 123 002e 20D0     		beq	.L11
ARM GAS  C:\Users\10963\AppData\Local\Temp\cc0r6Qhy.s 			page 4


  52:../Core/src/can_cia402.c ****                 (device->control_word & CIA402_CTRLWORD_QUICK_STOP) != 0)
  53:../Core/src/can_cia402.c ****             {
  54:../Core/src/can_cia402.c ****                 device->current_state = (uint8_t)CIA402_STATE_SWITCH_ON_DISABLED;
 124              		.loc 1 54 17 is_stmt 1 view .LVU37
 125              		.loc 1 54 39 is_stmt 0 view .LVU38
 126 0030 0222     		movs	r2, #2
 127 0032 8275     		strb	r2, [r0, #22]
 128 0034 1DE0     		b	.L11
 129              	.L8:
  43:../Core/src/can_cia402.c ****     {
 130              		.loc 1 43 5 view .LVU39
 131 0036 032A     		cmp	r2, #3
 132 0038 1BD1     		bne	.L11
  55:../Core/src/can_cia402.c ****             }
  56:../Core/src/can_cia402.c ****             break;
  57:../Core/src/can_cia402.c ****             
  58:../Core/src/can_cia402.c ****         case CIA402_STATE_SWITCH_ON_DISABLED:
  59:../Core/src/can_cia402.c ****             if ((device->control_word & CIA402_CTRLWORD_SWITCH_ON) != 0 &&
  60:../Core/src/can_cia402.c ****                 (device->control_word & CIA402_CTRLWORD_ENABLE_OPERATION) == 0 &&
  61:../Core/src/can_cia402.c ****                 (device->control_word & CIA402_CTRLWORD_QUICK_STOP) != 0)
  62:../Core/src/can_cia402.c ****             {
  63:../Core/src/can_cia402.c ****                 device->current_state = (uint8_t)CIA402_STATE_READY_TO_SWITCH_ON;
  64:../Core/src/can_cia402.c ****             }
  65:../Core/src/can_cia402.c ****             break;
  66:../Core/src/can_cia402.c ****             
  67:../Core/src/can_cia402.c ****         case CIA402_STATE_READY_TO_SWITCH_ON:
  68:../Core/src/can_cia402.c ****             if ((device->control_word & CIA402_CTRLWORD_SWITCH_ON) != 0 &&
 133              		.loc 1 68 13 is_stmt 1 view .LVU40
 134              		.loc 1 68 24 is_stmt 0 view .LVU41
 135 003a 8289     		ldrh	r2, [r0, #12]
 136              		.loc 1 68 16 view .LVU42
 137 003c 12F00101 		ands	r1, r2, #1
 138 0040 33D0     		beq	.L16
 139              		.loc 1 68 73 discriminator 1 view .LVU43
 140 0042 12F0020F 		tst	r2, #2
 141 0046 30D0     		beq	.L16
  69:../Core/src/can_cia402.c ****                 (device->control_word & CIA402_CTRLWORD_ENABLE_OPERATION) != 0 &&
 142              		.loc 1 69 80 view .LVU44
 143 0048 12F0040F 		tst	r2, #4
 144 004c 2DD0     		beq	.L16
  70:../Core/src/can_cia402.c ****                 (device->control_word & CIA402_CTRLWORD_QUICK_STOP) != 0)
  71:../Core/src/can_cia402.c ****             {
  72:../Core/src/can_cia402.c ****                 device->current_state = (uint8_t)CIA402_STATE_OPERATION_ENABLED;
 145              		.loc 1 72 17 is_stmt 1 view .LVU45
 146              		.loc 1 72 39 is_stmt 0 view .LVU46
 147 004e 0522     		movs	r2, #5
 148 0050 8275     		strb	r2, [r0, #22]
 149 0052 0EE0     		b	.L11
 150              	.L6:
  43:../Core/src/can_cia402.c ****     {
 151              		.loc 1 43 5 view .LVU47
 152 0054 062A     		cmp	r2, #6
 153 0056 46D0     		beq	.L13
 154 0058 082A     		cmp	r2, #8
 155 005a 4BD0     		beq	.L14
 156 005c 052A     		cmp	r2, #5
 157 005e 08D1     		bne	.L11
ARM GAS  C:\Users\10963\AppData\Local\Temp\cc0r6Qhy.s 			page 5


  73:../Core/src/can_cia402.c ****             }
  74:../Core/src/can_cia402.c ****             else if ((device->control_word & CIA402_CTRLWORD_SWITCH_ON) == 0 &&
  75:../Core/src/can_cia402.c ****                      (device->control_word & CIA402_CTRLWORD_ENABLE_OPERATION) == 0 &&
  76:../Core/src/can_cia402.c ****                      (device->control_word & CIA402_CTRLWORD_QUICK_STOP) != 0)
  77:../Core/src/can_cia402.c ****             {
  78:../Core/src/can_cia402.c ****                 device->current_state = (uint8_t)CIA402_STATE_SWITCH_ON_DISABLED;
  79:../Core/src/can_cia402.c ****             }
  80:../Core/src/can_cia402.c ****             break;
  81:../Core/src/can_cia402.c ****             
  82:../Core/src/can_cia402.c ****         case CIA402_STATE_OPERATION_ENABLED:
  83:../Core/src/can_cia402.c ****             if ((device->control_word & CIA402_CTRLWORD_QUICK_STOP) == 0)
 158              		.loc 1 83 13 is_stmt 1 view .LVU48
 159              		.loc 1 83 24 is_stmt 0 view .LVU49
 160 0060 8289     		ldrh	r2, [r0, #12]
 161              		.loc 1 83 16 view .LVU50
 162 0062 12F0040F 		tst	r2, #4
 163 0066 2BD1     		bne	.L17
  84:../Core/src/can_cia402.c ****             {
  85:../Core/src/can_cia402.c ****                 device->current_state = (uint8_t)CIA402_STATE_QUICK_STOP_ACTIVE;
 164              		.loc 1 85 17 is_stmt 1 view .LVU51
 165              		.loc 1 85 39 is_stmt 0 view .LVU52
 166 0068 0622     		movs	r2, #6
 167 006a 8275     		strb	r2, [r0, #22]
 168 006c 01E0     		b	.L11
 169              	.L9:
  46:../Core/src/can_cia402.c ****             break;
 170              		.loc 1 46 13 is_stmt 1 view .LVU53
  46:../Core/src/can_cia402.c ****             break;
 171              		.loc 1 46 35 is_stmt 0 view .LVU54
 172 006e 0122     		movs	r2, #1
 173 0070 8275     		strb	r2, [r0, #22]
  47:../Core/src/can_cia402.c ****             
 174              		.loc 1 47 13 is_stmt 1 view .LVU55
 175              	.L11:
  86:../Core/src/can_cia402.c ****             }
  87:../Core/src/can_cia402.c ****             else if ((device->control_word & CIA402_CTRLWORD_SWITCH_ON) == 0)
  88:../Core/src/can_cia402.c ****             {
  89:../Core/src/can_cia402.c ****                 device->current_state = (uint8_t)CIA402_STATE_SWITCHED_ON;
  90:../Core/src/can_cia402.c ****             }
  91:../Core/src/can_cia402.c ****             break;
  92:../Core/src/can_cia402.c ****             
  93:../Core/src/can_cia402.c ****         case CIA402_STATE_SWITCHED_ON:
  94:../Core/src/can_cia402.c ****             if ((device->control_word & CIA402_CTRLWORD_ENABLE_OPERATION) != 0)
  95:../Core/src/can_cia402.c ****             {
  96:../Core/src/can_cia402.c ****                 device->current_state = (uint8_t)CIA402_STATE_OPERATION_ENABLED;
  97:../Core/src/can_cia402.c ****             }
  98:../Core/src/can_cia402.c ****             else if ((device->control_word & CIA402_CTRLWORD_SWITCH_ON) == 0)
  99:../Core/src/can_cia402.c ****             {
 100:../Core/src/can_cia402.c ****                 device->current_state = (uint8_t)CIA402_STATE_READY_TO_SWITCH_ON;
 101:../Core/src/can_cia402.c ****             }
 102:../Core/src/can_cia402.c ****             break;
 103:../Core/src/can_cia402.c ****             
 104:../Core/src/can_cia402.c ****         case CIA402_STATE_QUICK_STOP_ACTIVE:
 105:../Core/src/can_cia402.c ****             if ((device->control_word & CIA402_CTRLWORD_QUICK_STOP) != 0)
 106:../Core/src/can_cia402.c ****             {
 107:../Core/src/can_cia402.c ****                 device->current_state = (uint8_t)CIA402_STATE_READY_TO_SWITCH_ON;
 108:../Core/src/can_cia402.c ****             }
ARM GAS  C:\Users\10963\AppData\Local\Temp\cc0r6Qhy.s 			page 6


 109:../Core/src/can_cia402.c ****             break;
 110:../Core/src/can_cia402.c ****             
 111:../Core/src/can_cia402.c ****         case CIA402_STATE_FAULT:
 112:../Core/src/can_cia402.c ****             if ((device->control_word & CIA402_CTRLWORD_FAULT_RESET) != 0)
 113:../Core/src/can_cia402.c ****             {
 114:../Core/src/can_cia402.c ****                 device->current_state = (uint8_t)CIA402_STATE_SWITCH_ON_DISABLED;
 115:../Core/src/can_cia402.c ****                 device->error_code = 0;
 116:../Core/src/can_cia402.c ****             }
 117:../Core/src/can_cia402.c ****             break;
 118:../Core/src/can_cia402.c ****             
 119:../Core/src/can_cia402.c ****         default:
 120:../Core/src/can_cia402.c ****             break;
 121:../Core/src/can_cia402.c ****     }
 122:../Core/src/can_cia402.c ****     
 123:../Core/src/can_cia402.c ****     /* 更新状态字 */
 124:../Core/src/can_cia402.c ****     device->status_word = 0;
 176              		.loc 1 124 5 view .LVU56
 177              		.loc 1 124 25 is_stmt 0 view .LVU57
 178 0072 0022     		movs	r2, #0
 179 0074 DA81     		strh	r2, [r3, #14]	@ movhi
 125:../Core/src/can_cia402.c ****     switch ((cia402_state_t)device->current_state)
 180              		.loc 1 125 5 is_stmt 1 view .LVU58
 181              		.loc 1 125 35 is_stmt 0 view .LVU59
 182 0076 9A7D     		ldrb	r2, [r3, #22]	@ zero_extendqisi2
 183              		.loc 1 125 5 view .LVU60
 184 0078 052A     		cmp	r2, #5
 185 007a 57D0     		beq	.L19
 186 007c 44D8     		bhi	.L20
 187 007e 032A     		cmp	r2, #3
 188 0080 4AD0     		beq	.L21
 189 0082 042A     		cmp	r2, #4
 190 0084 4DD0     		beq	.L22
 191 0086 022A     		cmp	r2, #2
 192 0088 3DD1     		bne	.L26
 126:../Core/src/can_cia402.c ****     {
 127:../Core/src/can_cia402.c ****         case CIA402_STATE_NOT_READY_TO_SWITCH_ON:
 128:../Core/src/can_cia402.c ****             break;
 129:../Core/src/can_cia402.c ****             
 130:../Core/src/can_cia402.c ****         case CIA402_STATE_SWITCH_ON_DISABLED:
 131:../Core/src/can_cia402.c ****             device->status_word |= CIA402_STATUSWORD_SWITCH_ON_DISABLED;
 193              		.loc 1 131 13 is_stmt 1 view .LVU61
 194              		.loc 1 131 33 is_stmt 0 view .LVU62
 195 008a 4022     		movs	r2, #64
 196 008c DA81     		strh	r2, [r3, #14]	@ movhi
 132:../Core/src/can_cia402.c ****             break;
 197              		.loc 1 132 13 is_stmt 1 view .LVU63
 198 008e 7047     		bx	lr
 199              	.L7:
  59:../Core/src/can_cia402.c ****                 (device->control_word & CIA402_CTRLWORD_ENABLE_OPERATION) == 0 &&
 200              		.loc 1 59 13 view .LVU64
  59:../Core/src/can_cia402.c ****                 (device->control_word & CIA402_CTRLWORD_ENABLE_OPERATION) == 0 &&
 201              		.loc 1 59 24 is_stmt 0 view .LVU65
 202 0090 8289     		ldrh	r2, [r0, #12]
  59:../Core/src/can_cia402.c ****                 (device->control_word & CIA402_CTRLWORD_ENABLE_OPERATION) == 0 &&
 203              		.loc 1 59 16 view .LVU66
 204 0092 12F0010F 		tst	r2, #1
 205 0096 ECD0     		beq	.L11
ARM GAS  C:\Users\10963\AppData\Local\Temp\cc0r6Qhy.s 			page 7


  59:../Core/src/can_cia402.c ****                 (device->control_word & CIA402_CTRLWORD_ENABLE_OPERATION) == 0 &&
 206              		.loc 1 59 73 discriminator 1 view .LVU67
 207 0098 12F0020F 		tst	r2, #2
 208 009c E9D1     		bne	.L11
  60:../Core/src/can_cia402.c ****                 (device->control_word & CIA402_CTRLWORD_QUICK_STOP) != 0)
 209              		.loc 1 60 80 view .LVU68
 210 009e 12F0040F 		tst	r2, #4
 211 00a2 E6D0     		beq	.L11
  63:../Core/src/can_cia402.c ****             }
 212              		.loc 1 63 17 is_stmt 1 view .LVU69
  63:../Core/src/can_cia402.c ****             }
 213              		.loc 1 63 39 is_stmt 0 view .LVU70
 214 00a4 0322     		movs	r2, #3
 215 00a6 8275     		strb	r2, [r0, #22]
 216 00a8 E3E7     		b	.L11
 217              	.L16:
  74:../Core/src/can_cia402.c ****                      (device->control_word & CIA402_CTRLWORD_ENABLE_OPERATION) == 0 &&
 218              		.loc 1 74 18 is_stmt 1 view .LVU71
  74:../Core/src/can_cia402.c ****                      (device->control_word & CIA402_CTRLWORD_ENABLE_OPERATION) == 0 &&
 219              		.loc 1 74 21 is_stmt 0 view .LVU72
 220 00aa 0029     		cmp	r1, #0
 221 00ac E1D1     		bne	.L11
  74:../Core/src/can_cia402.c ****                      (device->control_word & CIA402_CTRLWORD_ENABLE_OPERATION) == 0 &&
 222              		.loc 1 74 78 discriminator 1 view .LVU73
 223 00ae 12F0020F 		tst	r2, #2
 224 00b2 DED1     		bne	.L11
  75:../Core/src/can_cia402.c ****                      (device->control_word & CIA402_CTRLWORD_QUICK_STOP) != 0)
 225              		.loc 1 75 85 view .LVU74
 226 00b4 12F0040F 		tst	r2, #4
 227 00b8 DBD0     		beq	.L11
  78:../Core/src/can_cia402.c ****             }
 228              		.loc 1 78 17 is_stmt 1 view .LVU75
  78:../Core/src/can_cia402.c ****             }
 229              		.loc 1 78 39 is_stmt 0 view .LVU76
 230 00ba 0222     		movs	r2, #2
 231 00bc 9A75     		strb	r2, [r3, #22]
 232 00be D8E7     		b	.L11
 233              	.L17:
  87:../Core/src/can_cia402.c ****             {
 234              		.loc 1 87 18 is_stmt 1 view .LVU77
  87:../Core/src/can_cia402.c ****             {
 235              		.loc 1 87 21 is_stmt 0 view .LVU78
 236 00c0 12F0010F 		tst	r2, #1
 237 00c4 D5D1     		bne	.L11
  89:../Core/src/can_cia402.c ****             }
 238              		.loc 1 89 17 is_stmt 1 view .LVU79
  89:../Core/src/can_cia402.c ****             }
 239              		.loc 1 89 39 is_stmt 0 view .LVU80
 240 00c6 0422     		movs	r2, #4
 241 00c8 8275     		strb	r2, [r0, #22]
 242 00ca D2E7     		b	.L11
 243              	.L5:
  94:../Core/src/can_cia402.c ****             {
 244              		.loc 1 94 13 is_stmt 1 view .LVU81
  94:../Core/src/can_cia402.c ****             {
 245              		.loc 1 94 24 is_stmt 0 view .LVU82
 246 00cc 8289     		ldrh	r2, [r0, #12]
ARM GAS  C:\Users\10963\AppData\Local\Temp\cc0r6Qhy.s 			page 8


  94:../Core/src/can_cia402.c ****             {
 247              		.loc 1 94 16 view .LVU83
 248 00ce 12F0020F 		tst	r2, #2
 249 00d2 02D0     		beq	.L18
  96:../Core/src/can_cia402.c ****             }
 250              		.loc 1 96 17 is_stmt 1 view .LVU84
  96:../Core/src/can_cia402.c ****             }
 251              		.loc 1 96 39 is_stmt 0 view .LVU85
 252 00d4 0522     		movs	r2, #5
 253 00d6 8275     		strb	r2, [r0, #22]
 254 00d8 CBE7     		b	.L11
 255              	.L18:
  98:../Core/src/can_cia402.c ****             {
 256              		.loc 1 98 18 is_stmt 1 view .LVU86
  98:../Core/src/can_cia402.c ****             {
 257              		.loc 1 98 21 is_stmt 0 view .LVU87
 258 00da 12F0010F 		tst	r2, #1
 259 00de C8D1     		bne	.L11
 100:../Core/src/can_cia402.c ****             }
 260              		.loc 1 100 17 is_stmt 1 view .LVU88
 100:../Core/src/can_cia402.c ****             }
 261              		.loc 1 100 39 is_stmt 0 view .LVU89
 262 00e0 0322     		movs	r2, #3
 263 00e2 8275     		strb	r2, [r0, #22]
 264 00e4 C5E7     		b	.L11
 265              	.L13:
 105:../Core/src/can_cia402.c ****             {
 266              		.loc 1 105 13 is_stmt 1 view .LVU90
 105:../Core/src/can_cia402.c ****             {
 267              		.loc 1 105 24 is_stmt 0 view .LVU91
 268 00e6 8289     		ldrh	r2, [r0, #12]
 105:../Core/src/can_cia402.c ****             {
 269              		.loc 1 105 16 view .LVU92
 270 00e8 12F0040F 		tst	r2, #4
 271 00ec C1D0     		beq	.L11
 107:../Core/src/can_cia402.c ****             }
 272              		.loc 1 107 17 is_stmt 1 view .LVU93
 107:../Core/src/can_cia402.c ****             }
 273              		.loc 1 107 39 is_stmt 0 view .LVU94
 274 00ee 0322     		movs	r2, #3
 275 00f0 8275     		strb	r2, [r0, #22]
 276 00f2 BEE7     		b	.L11
 277              	.L14:
 112:../Core/src/can_cia402.c ****             {
 278              		.loc 1 112 13 is_stmt 1 view .LVU95
 112:../Core/src/can_cia402.c ****             {
 279              		.loc 1 112 24 is_stmt 0 view .LVU96
 280 00f4 8289     		ldrh	r2, [r0, #12]
 112:../Core/src/can_cia402.c ****             {
 281              		.loc 1 112 16 view .LVU97
 282 00f6 12F0800F 		tst	r2, #128
 283 00fa BAD0     		beq	.L11
 114:../Core/src/can_cia402.c ****                 device->error_code = 0;
 284              		.loc 1 114 17 is_stmt 1 view .LVU98
 114:../Core/src/can_cia402.c ****                 device->error_code = 0;
 285              		.loc 1 114 39 is_stmt 0 view .LVU99
 286 00fc 0222     		movs	r2, #2
ARM GAS  C:\Users\10963\AppData\Local\Temp\cc0r6Qhy.s 			page 9


 287 00fe 8275     		strb	r2, [r0, #22]
 115:../Core/src/can_cia402.c ****             }
 288              		.loc 1 115 17 is_stmt 1 view .LVU100
 115:../Core/src/can_cia402.c ****             }
 289              		.loc 1 115 36 is_stmt 0 view .LVU101
 290 0100 0022     		movs	r2, #0
 291 0102 8260     		str	r2, [r0, #8]
 292 0104 B5E7     		b	.L11
 293              	.L26:
 115:../Core/src/can_cia402.c ****             }
 294              		.loc 1 115 36 view .LVU102
 295 0106 7047     		bx	lr
 296              	.L20:
 125:../Core/src/can_cia402.c ****     {
 297              		.loc 1 125 5 view .LVU103
 298 0108 062A     		cmp	r2, #6
 299 010a 18D0     		beq	.L24
 300 010c 082A     		cmp	r2, #8
 301 010e 02D1     		bne	.L27
 133:../Core/src/can_cia402.c ****             
 134:../Core/src/can_cia402.c ****         case CIA402_STATE_READY_TO_SWITCH_ON:
 135:../Core/src/can_cia402.c ****             device->status_word |= CIA402_STATUSWORD_READY_TO_SWITCH_ON;
 136:../Core/src/can_cia402.c ****             device->status_word |= CIA402_STATUSWORD_VOLTAGE_ENABLED;
 137:../Core/src/can_cia402.c ****             break;
 138:../Core/src/can_cia402.c ****             
 139:../Core/src/can_cia402.c ****         case CIA402_STATE_SWITCHED_ON:
 140:../Core/src/can_cia402.c ****             device->status_word |= CIA402_STATUSWORD_SWITCHED_ON;
 141:../Core/src/can_cia402.c ****             device->status_word |= CIA402_STATUSWORD_VOLTAGE_ENABLED;
 142:../Core/src/can_cia402.c ****             break;
 143:../Core/src/can_cia402.c ****             
 144:../Core/src/can_cia402.c ****         case CIA402_STATE_OPERATION_ENABLED:
 145:../Core/src/can_cia402.c ****             device->status_word |= CIA402_STATUSWORD_READY_TO_SWITCH_ON;
 146:../Core/src/can_cia402.c ****             device->status_word |= CIA402_STATUSWORD_SWITCHED_ON;
 147:../Core/src/can_cia402.c ****             device->status_word |= CIA402_STATUSWORD_OPERATION_ENABLED;
 148:../Core/src/can_cia402.c ****             device->status_word |= CIA402_STATUSWORD_VOLTAGE_ENABLED;
 149:../Core/src/can_cia402.c ****             break;
 150:../Core/src/can_cia402.c ****             
 151:../Core/src/can_cia402.c ****         case CIA402_STATE_QUICK_STOP_ACTIVE:
 152:../Core/src/can_cia402.c ****             device->status_word |= CIA402_STATUSWORD_QUICK_STOP;
 153:../Core/src/can_cia402.c ****             device->status_word |= CIA402_STATUSWORD_VOLTAGE_ENABLED;
 154:../Core/src/can_cia402.c ****             break;
 155:../Core/src/can_cia402.c ****             
 156:../Core/src/can_cia402.c ****         case CIA402_STATE_FAULT:
 157:../Core/src/can_cia402.c ****             device->status_word |= CIA402_STATUSWORD_FAULT;
 302              		.loc 1 157 13 is_stmt 1 view .LVU104
 303              		.loc 1 157 33 is_stmt 0 view .LVU105
 304 0110 0822     		movs	r2, #8
 305 0112 DA81     		strh	r2, [r3, #14]	@ movhi
 158:../Core/src/can_cia402.c ****             break;
 306              		.loc 1 158 13 is_stmt 1 view .LVU106
 307              	.L3:
 159:../Core/src/can_cia402.c ****             
 160:../Core/src/can_cia402.c ****         default:
 161:../Core/src/can_cia402.c ****             break;
 162:../Core/src/can_cia402.c ****     }
 163:../Core/src/can_cia402.c **** }
 308              		.loc 1 163 1 is_stmt 0 view .LVU107
ARM GAS  C:\Users\10963\AppData\Local\Temp\cc0r6Qhy.s 			page 10


 309 0114 7047     		bx	lr
 310              	.L27:
 311              		.loc 1 163 1 view .LVU108
 312 0116 7047     		bx	lr
 313              	.L21:
 135:../Core/src/can_cia402.c ****             device->status_word |= CIA402_STATUSWORD_VOLTAGE_ENABLED;
 314              		.loc 1 135 13 is_stmt 1 view .LVU109
 135:../Core/src/can_cia402.c ****             device->status_word |= CIA402_STATUSWORD_VOLTAGE_ENABLED;
 315              		.loc 1 135 33 is_stmt 0 view .LVU110
 316 0118 0122     		movs	r2, #1
 317 011a DA81     		strh	r2, [r3, #14]	@ movhi
 136:../Core/src/can_cia402.c ****             break;
 318              		.loc 1 136 13 is_stmt 1 view .LVU111
 136:../Core/src/can_cia402.c ****             break;
 319              		.loc 1 136 33 is_stmt 0 view .LVU112
 320 011c 1122     		movs	r2, #17
 321 011e DA81     		strh	r2, [r3, #14]	@ movhi
 137:../Core/src/can_cia402.c ****             
 322              		.loc 1 137 13 is_stmt 1 view .LVU113
 323 0120 7047     		bx	lr
 324              	.L22:
 140:../Core/src/can_cia402.c ****             device->status_word |= CIA402_STATUSWORD_VOLTAGE_ENABLED;
 325              		.loc 1 140 13 view .LVU114
 140:../Core/src/can_cia402.c ****             device->status_word |= CIA402_STATUSWORD_VOLTAGE_ENABLED;
 326              		.loc 1 140 33 is_stmt 0 view .LVU115
 327 0122 0222     		movs	r2, #2
 328 0124 DA81     		strh	r2, [r3, #14]	@ movhi
 141:../Core/src/can_cia402.c ****             break;
 329              		.loc 1 141 13 is_stmt 1 view .LVU116
 141:../Core/src/can_cia402.c ****             break;
 330              		.loc 1 141 33 is_stmt 0 view .LVU117
 331 0126 1222     		movs	r2, #18
 332 0128 DA81     		strh	r2, [r3, #14]	@ movhi
 142:../Core/src/can_cia402.c ****             
 333              		.loc 1 142 13 is_stmt 1 view .LVU118
 334 012a 7047     		bx	lr
 335              	.L19:
 145:../Core/src/can_cia402.c ****             device->status_word |= CIA402_STATUSWORD_SWITCHED_ON;
 336              		.loc 1 145 13 view .LVU119
 145:../Core/src/can_cia402.c ****             device->status_word |= CIA402_STATUSWORD_SWITCHED_ON;
 337              		.loc 1 145 33 is_stmt 0 view .LVU120
 338 012c 0122     		movs	r2, #1
 339 012e DA81     		strh	r2, [r3, #14]	@ movhi
 146:../Core/src/can_cia402.c ****             device->status_word |= CIA402_STATUSWORD_OPERATION_ENABLED;
 340              		.loc 1 146 13 is_stmt 1 view .LVU121
 146:../Core/src/can_cia402.c ****             device->status_word |= CIA402_STATUSWORD_OPERATION_ENABLED;
 341              		.loc 1 146 33 is_stmt 0 view .LVU122
 342 0130 0322     		movs	r2, #3
 343 0132 DA81     		strh	r2, [r3, #14]	@ movhi
 147:../Core/src/can_cia402.c ****             device->status_word |= CIA402_STATUSWORD_VOLTAGE_ENABLED;
 344              		.loc 1 147 13 is_stmt 1 view .LVU123
 147:../Core/src/can_cia402.c ****             device->status_word |= CIA402_STATUSWORD_VOLTAGE_ENABLED;
 345              		.loc 1 147 33 is_stmt 0 view .LVU124
 346 0134 0722     		movs	r2, #7
 347 0136 DA81     		strh	r2, [r3, #14]	@ movhi
 148:../Core/src/can_cia402.c ****             break;
 348              		.loc 1 148 13 is_stmt 1 view .LVU125
ARM GAS  C:\Users\10963\AppData\Local\Temp\cc0r6Qhy.s 			page 11


 148:../Core/src/can_cia402.c ****             break;
 349              		.loc 1 148 33 is_stmt 0 view .LVU126
 350 0138 1722     		movs	r2, #23
 351 013a DA81     		strh	r2, [r3, #14]	@ movhi
 149:../Core/src/can_cia402.c ****             
 352              		.loc 1 149 13 is_stmt 1 view .LVU127
 353 013c 7047     		bx	lr
 354              	.L24:
 152:../Core/src/can_cia402.c ****             device->status_word |= CIA402_STATUSWORD_VOLTAGE_ENABLED;
 355              		.loc 1 152 13 view .LVU128
 152:../Core/src/can_cia402.c ****             device->status_word |= CIA402_STATUSWORD_VOLTAGE_ENABLED;
 356              		.loc 1 152 33 is_stmt 0 view .LVU129
 357 013e 2022     		movs	r2, #32
 358 0140 DA81     		strh	r2, [r3, #14]	@ movhi
 153:../Core/src/can_cia402.c ****             break;
 359              		.loc 1 153 13 is_stmt 1 view .LVU130
 153:../Core/src/can_cia402.c ****             break;
 360              		.loc 1 153 33 is_stmt 0 view .LVU131
 361 0142 3022     		movs	r2, #48
 362 0144 DA81     		strh	r2, [r3, #14]	@ movhi
 154:../Core/src/can_cia402.c ****             
 363              		.loc 1 154 13 is_stmt 1 view .LVU132
 364 0146 7047     		bx	lr
 365              		.cfi_endproc
 366              	.LFE135:
 368              		.section	.text.cia402_set_control_word,"ax",%progbits
 369              		.align	1
 370              		.global	cia402_set_control_word
 371              		.syntax unified
 372              		.thumb
 373              		.thumb_func
 375              	cia402_set_control_word:
 376              	.LVL2:
 377              	.LFB136:
 164:../Core/src/can_cia402.c **** 
 165:../Core/src/can_cia402.c **** /**
 166:../Core/src/can_cia402.c ****   * @brief  设置控制字
 167:../Core/src/can_cia402.c ****   * @param  device: CIA402设备结构体指针
 168:../Core/src/can_cia402.c ****   * @param  control_word: 控制字
 169:../Core/src/can_cia402.c ****   * @retval none
 170:../Core/src/can_cia402.c ****   */
 171:../Core/src/can_cia402.c **** void cia402_set_control_word(motor_ds402_params_t *device, uint16_t control_word)
 172:../Core/src/can_cia402.c **** {
 378              		.loc 1 172 1 view -0
 379              		.cfi_startproc
 380              		@ args = 0, pretend = 0, frame = 0
 381              		@ frame_needed = 0, uses_anonymous_args = 0
 382              		@ link register save eliminated.
 173:../Core/src/can_cia402.c ****     if (device == NULL) return;
 383              		.loc 1 173 5 view .LVU134
 384              		.loc 1 173 8 is_stmt 0 view .LVU135
 385 0000 00B1     		cbz	r0, .L28
 174:../Core/src/can_cia402.c ****     device->control_word = control_word;
 386              		.loc 1 174 5 is_stmt 1 view .LVU136
 387              		.loc 1 174 26 is_stmt 0 view .LVU137
 388 0002 8181     		strh	r1, [r0, #12]	@ movhi
 389              	.L28:
ARM GAS  C:\Users\10963\AppData\Local\Temp\cc0r6Qhy.s 			page 12


 175:../Core/src/can_cia402.c **** }
 390              		.loc 1 175 1 view .LVU138
 391 0004 7047     		bx	lr
 392              		.cfi_endproc
 393              	.LFE136:
 395              		.section	.text.cia402_get_status_word,"ax",%progbits
 396              		.align	1
 397              		.global	cia402_get_status_word
 398              		.syntax unified
 399              		.thumb
 400              		.thumb_func
 402              	cia402_get_status_word:
 403              	.LVL3:
 404              	.LFB137:
 176:../Core/src/can_cia402.c **** 
 177:../Core/src/can_cia402.c **** /**
 178:../Core/src/can_cia402.c ****   * @brief  获取状态字
 179:../Core/src/can_cia402.c ****   * @param  device: CIA402设备结构体指针
 180:../Core/src/can_cia402.c ****   * @retval 状态字
 181:../Core/src/can_cia402.c ****   */
 182:../Core/src/can_cia402.c **** uint16_t cia402_get_status_word(motor_ds402_params_t *device)
 183:../Core/src/can_cia402.c **** {
 405              		.loc 1 183 1 is_stmt 1 view -0
 406              		.cfi_startproc
 407              		@ args = 0, pretend = 0, frame = 0
 408              		@ frame_needed = 0, uses_anonymous_args = 0
 409              		@ link register save eliminated.
 184:../Core/src/can_cia402.c ****     if (device == NULL) return 0;
 410              		.loc 1 184 5 view .LVU140
 411              		.loc 1 184 8 is_stmt 0 view .LVU141
 412 0000 00B1     		cbz	r0, .L31
 185:../Core/src/can_cia402.c ****     return device->status_word;
 413              		.loc 1 185 5 is_stmt 1 view .LVU142
 414              		.loc 1 185 18 is_stmt 0 view .LVU143
 415 0002 C089     		ldrh	r0, [r0, #14]
 416              	.LVL4:
 417              	.L31:
 186:../Core/src/can_cia402.c **** }
 418              		.loc 1 186 1 view .LVU144
 419 0004 7047     		bx	lr
 420              		.cfi_endproc
 421              	.LFE137:
 423              		.section	.text.cia402_set_target_position,"ax",%progbits
 424              		.align	1
 425              		.global	cia402_set_target_position
 426              		.syntax unified
 427              		.thumb
 428              		.thumb_func
 430              	cia402_set_target_position:
 431              	.LVL5:
 432              	.LFB138:
 187:../Core/src/can_cia402.c **** 
 188:../Core/src/can_cia402.c **** /**
 189:../Core/src/can_cia402.c ****   * @brief  设置目标位置
 190:../Core/src/can_cia402.c ****   * @param  device: CIA402设备结构体指针
 191:../Core/src/can_cia402.c ****   * @param  position: 目标位置
 192:../Core/src/can_cia402.c ****   * @retval none
ARM GAS  C:\Users\10963\AppData\Local\Temp\cc0r6Qhy.s 			page 13


 193:../Core/src/can_cia402.c ****   */
 194:../Core/src/can_cia402.c **** void cia402_set_target_position(motor_ds402_params_t *device, int32_t position)
 195:../Core/src/can_cia402.c **** {
 433              		.loc 1 195 1 is_stmt 1 view -0
 434              		.cfi_startproc
 435              		@ args = 0, pretend = 0, frame = 0
 436              		@ frame_needed = 0, uses_anonymous_args = 0
 437              		@ link register save eliminated.
 196:../Core/src/can_cia402.c ****     if (device == NULL) return;
 438              		.loc 1 196 5 view .LVU146
 439              		.loc 1 196 8 is_stmt 0 view .LVU147
 440 0000 00B1     		cbz	r0, .L33
 197:../Core/src/can_cia402.c ****     device->target_position = position;
 441              		.loc 1 197 5 is_stmt 1 view .LVU148
 442              		.loc 1 197 29 is_stmt 0 view .LVU149
 443 0002 8164     		str	r1, [r0, #72]
 444              	.L33:
 198:../Core/src/can_cia402.c **** }
 445              		.loc 1 198 1 view .LVU150
 446 0004 7047     		bx	lr
 447              		.cfi_endproc
 448              	.LFE138:
 450              		.section	.text.cia402_set_target_velocity,"ax",%progbits
 451              		.align	1
 452              		.global	cia402_set_target_velocity
 453              		.syntax unified
 454              		.thumb
 455              		.thumb_func
 457              	cia402_set_target_velocity:
 458              	.LVL6:
 459              	.LFB139:
 199:../Core/src/can_cia402.c **** 
 200:../Core/src/can_cia402.c **** /**
 201:../Core/src/can_cia402.c ****   * @brief  设置目标速度
 202:../Core/src/can_cia402.c ****   * @param  device: CIA402设备结构体指针
 203:../Core/src/can_cia402.c ****   * @param  velocity: 目标速度
 204:../Core/src/can_cia402.c ****   * @retval none
 205:../Core/src/can_cia402.c ****   */
 206:../Core/src/can_cia402.c **** void cia402_set_target_velocity(motor_ds402_params_t *device, int32_t velocity)
 207:../Core/src/can_cia402.c **** {
 460              		.loc 1 207 1 is_stmt 1 view -0
 461              		.cfi_startproc
 462              		@ args = 0, pretend = 0, frame = 0
 463              		@ frame_needed = 0, uses_anonymous_args = 0
 464              		@ link register save eliminated.
 208:../Core/src/can_cia402.c ****     if (device == NULL) return;
 465              		.loc 1 208 5 view .LVU152
 466              		.loc 1 208 8 is_stmt 0 view .LVU153
 467 0000 08B1     		cbz	r0, .L35
 209:../Core/src/can_cia402.c ****     device->target_velocity = velocity;
 468              		.loc 1 209 5 is_stmt 1 view .LVU154
 469              		.loc 1 209 29 is_stmt 0 view .LVU155
 470 0002 C0F86013 		str	r1, [r0, #864]
 471              	.L35:
 210:../Core/src/can_cia402.c **** }
 472              		.loc 1 210 1 view .LVU156
 473 0006 7047     		bx	lr
ARM GAS  C:\Users\10963\AppData\Local\Temp\cc0r6Qhy.s 			page 14


 474              		.cfi_endproc
 475              	.LFE139:
 477              		.section	.text.cia402_set_target_torque,"ax",%progbits
 478              		.align	1
 479              		.global	cia402_set_target_torque
 480              		.syntax unified
 481              		.thumb
 482              		.thumb_func
 484              	cia402_set_target_torque:
 485              	.LVL7:
 486              	.LFB140:
 211:../Core/src/can_cia402.c **** 
 212:../Core/src/can_cia402.c **** /**
 213:../Core/src/can_cia402.c ****   * @brief  设置目标转矩
 214:../Core/src/can_cia402.c ****   * @param  device: CIA402设备结构体指针
 215:../Core/src/can_cia402.c ****   * @param  torque: 目标转矩
 216:../Core/src/can_cia402.c ****   * @retval none
 217:../Core/src/can_cia402.c ****   */
 218:../Core/src/can_cia402.c **** void cia402_set_target_torque(motor_ds402_params_t *device, int16_t torque)
 219:../Core/src/can_cia402.c **** {
 487              		.loc 1 219 1 is_stmt 1 view -0
 488              		.cfi_startproc
 489              		@ args = 0, pretend = 0, frame = 0
 490              		@ frame_needed = 0, uses_anonymous_args = 0
 491              		@ link register save eliminated.
 220:../Core/src/can_cia402.c ****     if (device == NULL) return;
 492              		.loc 1 220 5 view .LVU158
 493              		.loc 1 220 8 is_stmt 0 view .LVU159
 494 0000 00B1     		cbz	r0, .L37
 221:../Core/src/can_cia402.c ****     device->target_torque_percent = torque;
 495              		.loc 1 221 5 is_stmt 1 view .LVU160
 496              		.loc 1 221 35 is_stmt 0 view .LVU161
 497 0002 0187     		strh	r1, [r0, #56]	@ movhi
 498              	.L37:
 222:../Core/src/can_cia402.c **** }
 499              		.loc 1 222 1 view .LVU162
 500 0004 7047     		bx	lr
 501              		.cfi_endproc
 502              	.LFE140:
 504              		.section	.text.cia402_set_control_mode,"ax",%progbits
 505              		.align	1
 506              		.global	cia402_set_control_mode
 507              		.syntax unified
 508              		.thumb
 509              		.thumb_func
 511              	cia402_set_control_mode:
 512              	.LVL8:
 513              	.LFB141:
 223:../Core/src/can_cia402.c **** 
 224:../Core/src/can_cia402.c **** /**
 225:../Core/src/can_cia402.c ****   * @brief  设置控制模式
 226:../Core/src/can_cia402.c ****   * @param  device: CIA402设备结构体指针
 227:../Core/src/can_cia402.c ****   * @param  mode: 控制模式
 228:../Core/src/can_cia402.c ****   * @retval none
 229:../Core/src/can_cia402.c ****   */
 230:../Core/src/can_cia402.c **** void cia402_set_control_mode(motor_ds402_params_t *device, cia402_mode_t mode)
 231:../Core/src/can_cia402.c **** {
ARM GAS  C:\Users\10963\AppData\Local\Temp\cc0r6Qhy.s 			page 15


 514              		.loc 1 231 1 is_stmt 1 view -0
 515              		.cfi_startproc
 516              		@ args = 0, pretend = 0, frame = 0
 517              		@ frame_needed = 0, uses_anonymous_args = 0
 518              		@ link register save eliminated.
 232:../Core/src/can_cia402.c ****     if (device == NULL) return;
 519              		.loc 1 232 5 view .LVU164
 520              		.loc 1 232 8 is_stmt 0 view .LVU165
 521 0000 00B1     		cbz	r0, .L39
 233:../Core/src/can_cia402.c ****     device->operation_mode = mode;
 522              		.loc 1 233 5 is_stmt 1 view .LVU166
 523              		.loc 1 233 28 is_stmt 0 view .LVU167
 524 0002 4175     		strb	r1, [r0, #21]
 525              	.L39:
 234:../Core/src/can_cia402.c **** }
 526              		.loc 1 234 1 view .LVU168
 527 0004 7047     		bx	lr
 528              		.cfi_endproc
 529              	.LFE141:
 531              		.section	.text.cia402_get_control_mode,"ax",%progbits
 532              		.align	1
 533              		.global	cia402_get_control_mode
 534              		.syntax unified
 535              		.thumb
 536              		.thumb_func
 538              	cia402_get_control_mode:
 539              	.LVL9:
 540              	.LFB142:
 235:../Core/src/can_cia402.c **** 
 236:../Core/src/can_cia402.c **** /**
 237:../Core/src/can_cia402.c ****   * @brief  获取控制模式
 238:../Core/src/can_cia402.c ****   * @param  device: CIA402设备结构体指针
 239:../Core/src/can_cia402.c ****   * @retval 控制模式
 240:../Core/src/can_cia402.c ****   */
 241:../Core/src/can_cia402.c **** cia402_mode_t cia402_get_control_mode(motor_ds402_params_t *device)
 242:../Core/src/can_cia402.c **** {
 541              		.loc 1 242 1 is_stmt 1 view -0
 542              		.cfi_startproc
 543              		@ args = 0, pretend = 0, frame = 0
 544              		@ frame_needed = 0, uses_anonymous_args = 0
 545              		@ link register save eliminated.
 243:../Core/src/can_cia402.c ****     if (device == NULL) return CIA402_MODE_NO_MODE;
 546              		.loc 1 243 5 view .LVU170
 547              		.loc 1 243 8 is_stmt 0 view .LVU171
 548 0000 00B1     		cbz	r0, .L42
 244:../Core/src/can_cia402.c ****     return (cia402_mode_t)device->operation_mode;
 549              		.loc 1 244 5 is_stmt 1 view .LVU172
 550              		.loc 1 244 12 is_stmt 0 view .LVU173
 551 0002 407D     		ldrb	r0, [r0, #21]	@ zero_extendqisi2
 552              	.LVL10:
 553              	.L42:
 245:../Core/src/can_cia402.c **** }
 554              		.loc 1 245 1 view .LVU174
 555 0004 7047     		bx	lr
 556              		.cfi_endproc
 557              	.LFE142:
 559              		.section	.text.cia402_process,"ax",%progbits
ARM GAS  C:\Users\10963\AppData\Local\Temp\cc0r6Qhy.s 			page 16


 560              		.align	1
 561              		.global	cia402_process
 562              		.syntax unified
 563              		.thumb
 564              		.thumb_func
 566              	cia402_process:
 567              	.LVL11:
 568              	.LFB143:
 246:../Core/src/can_cia402.c **** 
 247:../Core/src/can_cia402.c **** /**
 248:../Core/src/can_cia402.c ****   * @brief  处理CIA402协议
 249:../Core/src/can_cia402.c ****   * @param  device: CIA402设备结构体指针
 250:../Core/src/can_cia402.c ****   * @retval none
 251:../Core/src/can_cia402.c ****   */
 252:../Core/src/can_cia402.c **** void cia402_process(motor_ds402_params_t *device)
 253:../Core/src/can_cia402.c **** {
 569              		.loc 1 253 1 is_stmt 1 view -0
 570              		.cfi_startproc
 571              		@ args = 0, pretend = 0, frame = 0
 572              		@ frame_needed = 0, uses_anonymous_args = 0
 254:../Core/src/can_cia402.c ****     if (device == NULL) return;
 573              		.loc 1 254 5 view .LVU176
 574              		.loc 1 254 8 is_stmt 0 view .LVU177
 575 0000 18B1     		cbz	r0, .L47
 253:../Core/src/can_cia402.c ****     if (device == NULL) return;
 576              		.loc 1 253 1 view .LVU178
 577 0002 08B5     		push	{r3, lr}
 578              	.LCFI0:
 579              		.cfi_def_cfa_offset 8
 580              		.cfi_offset 3, -8
 581              		.cfi_offset 14, -4
 255:../Core/src/can_cia402.c ****     cia402_process_state_machine(device);
 582              		.loc 1 255 5 is_stmt 1 view .LVU179
 583 0004 FFF7FEFF 		bl	cia402_process_state_machine
 584              	.LVL12:
 256:../Core/src/can_cia402.c **** }
 585              		.loc 1 256 1 is_stmt 0 view .LVU180
 586 0008 08BD     		pop	{r3, pc}
 587              	.LVL13:
 588              	.L47:
 589              	.LCFI1:
 590              		.cfi_def_cfa_offset 0
 591              		.cfi_restore 3
 592              		.cfi_restore 14
 593              		.loc 1 256 1 view .LVU181
 594 000a 7047     		bx	lr
 595              		.cfi_endproc
 596              	.LFE143:
 598              		.section	.text.cia402_get_state,"ax",%progbits
 599              		.align	1
 600              		.global	cia402_get_state
 601              		.syntax unified
 602              		.thumb
 603              		.thumb_func
 605              	cia402_get_state:
 606              	.LVL14:
 607              	.LFB144:
ARM GAS  C:\Users\10963\AppData\Local\Temp\cc0r6Qhy.s 			page 17


 257:../Core/src/can_cia402.c **** 
 258:../Core/src/can_cia402.c **** /**
 259:../Core/src/can_cia402.c ****   * @brief  获取当前状态
 260:../Core/src/can_cia402.c ****   * @param  device: CIA402设备结构体指针
 261:../Core/src/can_cia402.c ****   * @retval 当前状态
 262:../Core/src/can_cia402.c ****   */
 263:../Core/src/can_cia402.c **** cia402_state_t cia402_get_state(motor_ds402_params_t *device)
 264:../Core/src/can_cia402.c **** {
 608              		.loc 1 264 1 is_stmt 1 view -0
 609              		.cfi_startproc
 610              		@ args = 0, pretend = 0, frame = 0
 611              		@ frame_needed = 0, uses_anonymous_args = 0
 612              		@ link register save eliminated.
 265:../Core/src/can_cia402.c ****     if (device == NULL) return CIA402_STATE_START;
 613              		.loc 1 265 5 view .LVU183
 614              		.loc 1 265 8 is_stmt 0 view .LVU184
 615 0000 00B1     		cbz	r0, .L51
 266:../Core/src/can_cia402.c ****     return (cia402_state_t)device->current_state;
 616              		.loc 1 266 5 is_stmt 1 view .LVU185
 617              		.loc 1 266 12 is_stmt 0 view .LVU186
 618 0002 807D     		ldrb	r0, [r0, #22]	@ zero_extendqisi2
 619              	.LVL15:
 620              	.L51:
 267:../Core/src/can_cia402.c **** }...
 621              		.loc 1 267 1 view .LVU187
 622 0004 7047     		bx	lr
 623              		.cfi_endproc
 624              	.LFE144:
 626              		.text
 627              	.Letext0:
 628              		.file 2 "C:/Program Files (x86)/Arm/GNU Toolchain mingw-w64-i686-arm-none-eabi/arm-none-eabi/inclu
 629              		.file 3 "C:/Program Files (x86)/Arm/GNU Toolchain mingw-w64-i686-arm-none-eabi/arm-none-eabi/inclu
 630              		.file 4 "../Core/inc/can_cia402.h"
 631              		.file 5 "../Core/inc/motor_params.h"
ARM GAS  C:\Users\10963\AppData\Local\Temp\cc0r6Qhy.s 			page 18

