ARM GAS  C:\Users\10963\AppData\Local\Temp\cc0PXrIj.s 			page 1


   1              		.cpu cortex-m4
   2              		.arch armv7e-m
   3              		.fpu fpv4-sp-d16
   4              		.eabi_attribute 27, 1
   5              		.eabi_attribute 28, 1
   6              		.eabi_attribute 20, 1
   7              		.eabi_attribute 21, 1
   8              		.eabi_attribute 23, 3
   9              		.eabi_attribute 24, 1
  10              		.eabi_attribute 25, 1
  11              		.eabi_attribute 26, 1
  12              		.eabi_attribute 30, 1
  13              		.eabi_attribute 34, 1
  14              		.eabi_attribute 18, 4
  15              		.file	"cdc_class.c"
  16              		.text
  17              	.Ltext0:
  18              		.cfi_sections	.debug_frame
  19              		.file 1 "project/src/cdc_class.c"
  20              		.section	.text.class_ept0_tx_handler,"ax",%progbits
  21              		.align	1
  22              		.syntax unified
  23              		.thumb
  24              		.thumb_func
  26              	class_ept0_tx_handler:
  27              	.LVL0:
  28              	.LFB140:
   1:project/src/cdc_class.c **** /**
   2:project/src/cdc_class.c ****   **************************************************************************
   3:project/src/cdc_class.c ****   * @file     cdc_class.c
   4:project/src/cdc_class.c ****   * @brief    usb cdc class type
   5:project/src/cdc_class.c ****   **************************************************************************
   6:project/src/cdc_class.c ****   *
   7:project/src/cdc_class.c ****   * Copyright (c) 2025, Artery Technology, All rights reserved.
   8:project/src/cdc_class.c ****   *
   9:project/src/cdc_class.c ****   * The software Board Support Package (BSP) that is made available to
  10:project/src/cdc_class.c ****   * download from Artery official website is the copyrighted work of Artery.
  11:project/src/cdc_class.c ****   * Artery authorizes customers to use, copy, and distribute the BSP
  12:project/src/cdc_class.c ****   * software and its related documentation for the purpose of design and
  13:project/src/cdc_class.c ****   * development in conjunction with Artery microcontrollers. Use of the
  14:project/src/cdc_class.c ****   * software is governed by this copyright notice and the following disclaimer.
  15:project/src/cdc_class.c ****   *
  16:project/src/cdc_class.c ****   * THIS SOFTWARE IS PROVIDED ON "AS IS" BASIS WITHOUT WARRANTIES,
  17:project/src/cdc_class.c ****   * GUARANTEES OR REPRESENTATIONS OF ANY KIND. ARTERY EXPRESSLY DISCLAIMS,
  18:project/src/cdc_class.c ****   * TO THE FULLEST EXTENT PERMITTED BY LAW, ALL EXPRESS, IMPLIED OR
  19:project/src/cdc_class.c ****   * STATUTORY OR OTHER WARRANTIES, GUARANTEES OR REPRESENTATIONS,
  20:project/src/cdc_class.c ****   * INCLUDING BUT NOT LIMITED TO, THE IMPLIED WARRANTIES OF MERCHANTABILITY,
  21:project/src/cdc_class.c ****   * FITNESS FOR A PARTICULAR PURPOSE, OR NON-INFRINGEMENT.
  22:project/src/cdc_class.c ****   *
  23:project/src/cdc_class.c ****   **************************************************************************
  24:project/src/cdc_class.c ****   */
  25:project/src/cdc_class.c **** #include "usbd_core.h"
  26:project/src/cdc_class.c **** #include "cdc_class.h"
  27:project/src/cdc_class.c **** #include "cdc_desc.h"
  28:project/src/cdc_class.c **** 
  29:project/src/cdc_class.c **** /** @addtogroup AT32F403A_407_middlewares_usbd_class
  30:project/src/cdc_class.c ****   * @{
ARM GAS  C:\Users\10963\AppData\Local\Temp\cc0PXrIj.s 			page 2


  31:project/src/cdc_class.c ****   */
  32:project/src/cdc_class.c **** 
  33:project/src/cdc_class.c **** /** @defgroup USB_cdc_class
  34:project/src/cdc_class.c ****   * @brief usb device class cdc demo
  35:project/src/cdc_class.c ****   * @{
  36:project/src/cdc_class.c ****   */
  37:project/src/cdc_class.c **** 
  38:project/src/cdc_class.c **** /** @defgroup USB_cdc_class_private_functions
  39:project/src/cdc_class.c ****   * @{
  40:project/src/cdc_class.c ****   */
  41:project/src/cdc_class.c **** 
  42:project/src/cdc_class.c **** static usb_sts_type class_init_handler(void *udev);
  43:project/src/cdc_class.c **** static usb_sts_type class_clear_handler(void *udev);
  44:project/src/cdc_class.c **** static usb_sts_type class_setup_handler(void *udev, usb_setup_type *setup);
  45:project/src/cdc_class.c **** static usb_sts_type class_ept0_tx_handler(void *udev);
  46:project/src/cdc_class.c **** static usb_sts_type class_ept0_rx_handler(void *udev);
  47:project/src/cdc_class.c **** static usb_sts_type class_in_handler(void *udev, uint8_t ept_num);
  48:project/src/cdc_class.c **** static usb_sts_type class_out_handler(void *udev, uint8_t ept_num);
  49:project/src/cdc_class.c **** static usb_sts_type class_sof_handler(void *udev);
  50:project/src/cdc_class.c **** static usb_sts_type class_event_handler(void *udev, usbd_event_type event);
  51:project/src/cdc_class.c **** 
  52:project/src/cdc_class.c **** static usb_sts_type cdc_struct_init(cdc_struct_type *pcdc);
  53:project/src/cdc_class.c **** extern void usb_usart_config( linecoding_type linecoding);
  54:project/src/cdc_class.c **** static void usb_vcp_cmd_process(void *udev, uint8_t cmd, uint8_t *buff, uint16_t len);
  55:project/src/cdc_class.c **** 
  56:project/src/cdc_class.c **** linecoding_type linecoding =
  57:project/src/cdc_class.c **** {
  58:project/src/cdc_class.c ****   115200,
  59:project/src/cdc_class.c ****   0,
  60:project/src/cdc_class.c ****   0,
  61:project/src/cdc_class.c ****   8
  62:project/src/cdc_class.c **** };
  63:project/src/cdc_class.c **** 
  64:project/src/cdc_class.c **** /* cdc data struct */
  65:project/src/cdc_class.c **** cdc_struct_type cdc_struct;
  66:project/src/cdc_class.c **** 
  67:project/src/cdc_class.c **** /* usb device class handler */
  68:project/src/cdc_class.c **** usbd_class_handler cdc_class_handler =
  69:project/src/cdc_class.c **** {
  70:project/src/cdc_class.c ****   class_init_handler,
  71:project/src/cdc_class.c ****   class_clear_handler,
  72:project/src/cdc_class.c ****   class_setup_handler,
  73:project/src/cdc_class.c ****   class_ept0_tx_handler,
  74:project/src/cdc_class.c ****   class_ept0_rx_handler,
  75:project/src/cdc_class.c ****   class_in_handler,
  76:project/src/cdc_class.c ****   class_out_handler,
  77:project/src/cdc_class.c ****   class_sof_handler,
  78:project/src/cdc_class.c ****   class_event_handler,
  79:project/src/cdc_class.c ****   &cdc_struct
  80:project/src/cdc_class.c **** };
  81:project/src/cdc_class.c **** 
  82:project/src/cdc_class.c **** /**
  83:project/src/cdc_class.c ****   * @brief  initialize usb endpoint
  84:project/src/cdc_class.c ****   * @param  udev: to the structure of usbd_core_type
  85:project/src/cdc_class.c ****   * @retval status of usb_sts_type
  86:project/src/cdc_class.c ****   */
  87:project/src/cdc_class.c **** static usb_sts_type class_init_handler(void *udev)
ARM GAS  C:\Users\10963\AppData\Local\Temp\cc0PXrIj.s 			page 3


  88:project/src/cdc_class.c **** {
  89:project/src/cdc_class.c ****   usb_sts_type status = USB_OK;
  90:project/src/cdc_class.c ****   usbd_core_type *pudev = (usbd_core_type *)udev;
  91:project/src/cdc_class.c ****   cdc_struct_type *pcdc = (cdc_struct_type *)pudev->class_handler->pdata;
  92:project/src/cdc_class.c **** 
  93:project/src/cdc_class.c **** #ifndef USB_EPT_AUTO_MALLOC_BUFFER
  94:project/src/cdc_class.c ****   /* use user define buffer address */
  95:project/src/cdc_class.c ****   usbd_ept_buf_custom_define(pudev, USBD_CDC_INT_EPT, EPT2_TX_ADDR);
  96:project/src/cdc_class.c ****   usbd_ept_buf_custom_define(pudev, USBD_CDC_BULK_IN_EPT, EPT1_TX_ADDR);
  97:project/src/cdc_class.c ****   usbd_ept_buf_custom_define(pudev, USBD_CDC_BULK_OUT_EPT, EPT1_RX_ADDR);
  98:project/src/cdc_class.c **** #endif
  99:project/src/cdc_class.c **** 
 100:project/src/cdc_class.c ****   /* open in endpoint */
 101:project/src/cdc_class.c ****   usbd_ept_open(pudev, USBD_CDC_INT_EPT, EPT_INT_TYPE, USBD_CDC_CMD_MAXPACKET_SIZE);
 102:project/src/cdc_class.c **** 
 103:project/src/cdc_class.c ****   /* open in endpoint */
 104:project/src/cdc_class.c ****   usbd_ept_open(pudev, USBD_CDC_BULK_IN_EPT, EPT_BULK_TYPE, USBD_CDC_IN_MAXPACKET_SIZE);
 105:project/src/cdc_class.c **** 
 106:project/src/cdc_class.c ****   /* open out endpoint */
 107:project/src/cdc_class.c ****   usbd_ept_open(pudev, USBD_CDC_BULK_OUT_EPT, EPT_BULK_TYPE, USBD_CDC_OUT_MAXPACKET_SIZE);
 108:project/src/cdc_class.c **** 
 109:project/src/cdc_class.c ****   /* set out endpoint to receive status */
 110:project/src/cdc_class.c ****   usbd_ept_recv(pudev, USBD_CDC_BULK_OUT_EPT, pcdc->g_rx_buff, USBD_CDC_OUT_MAXPACKET_SIZE);
 111:project/src/cdc_class.c **** 
 112:project/src/cdc_class.c ****   cdc_struct_init(pcdc);
 113:project/src/cdc_class.c **** 
 114:project/src/cdc_class.c ****   return status;
 115:project/src/cdc_class.c **** }
 116:project/src/cdc_class.c **** 
 117:project/src/cdc_class.c **** /**
 118:project/src/cdc_class.c ****   * @brief  clear endpoint or other state
 119:project/src/cdc_class.c ****   * @param  udev: to the structure of usbd_core_type
 120:project/src/cdc_class.c ****   * @retval status of usb_sts_type
 121:project/src/cdc_class.c ****   */
 122:project/src/cdc_class.c **** static usb_sts_type class_clear_handler(void *udev)
 123:project/src/cdc_class.c **** {
 124:project/src/cdc_class.c ****   usb_sts_type status = USB_OK;
 125:project/src/cdc_class.c ****   usbd_core_type *pudev = (usbd_core_type *)udev;
 126:project/src/cdc_class.c **** 
 127:project/src/cdc_class.c ****   /* close in endpoint */
 128:project/src/cdc_class.c ****   usbd_ept_close(pudev, USBD_CDC_INT_EPT);
 129:project/src/cdc_class.c **** 
 130:project/src/cdc_class.c ****   /* close in endpoint */
 131:project/src/cdc_class.c ****   usbd_ept_close(pudev, USBD_CDC_BULK_IN_EPT);
 132:project/src/cdc_class.c **** 
 133:project/src/cdc_class.c ****   /* close out endpoint */
 134:project/src/cdc_class.c ****   usbd_ept_close(pudev, USBD_CDC_BULK_OUT_EPT);
 135:project/src/cdc_class.c **** 
 136:project/src/cdc_class.c ****   return status;
 137:project/src/cdc_class.c **** }
 138:project/src/cdc_class.c **** 
 139:project/src/cdc_class.c **** /**
 140:project/src/cdc_class.c ****   * @brief  usb device class setup request handler
 141:project/src/cdc_class.c ****   * @param  udev: to the structure of usbd_core_type
 142:project/src/cdc_class.c ****   * @param  setup: setup packet
 143:project/src/cdc_class.c ****   * @retval status of usb_sts_type
 144:project/src/cdc_class.c ****   */
ARM GAS  C:\Users\10963\AppData\Local\Temp\cc0PXrIj.s 			page 4


 145:project/src/cdc_class.c **** static usb_sts_type class_setup_handler(void *udev, usb_setup_type *setup)
 146:project/src/cdc_class.c **** {
 147:project/src/cdc_class.c ****   usb_sts_type status = USB_OK;
 148:project/src/cdc_class.c ****   usbd_core_type *pudev = (usbd_core_type *)udev;
 149:project/src/cdc_class.c ****   cdc_struct_type *pcdc = (cdc_struct_type *)pudev->class_handler->pdata;
 150:project/src/cdc_class.c **** 
 151:project/src/cdc_class.c ****   switch(setup->bmRequestType & USB_REQ_TYPE_RESERVED)
 152:project/src/cdc_class.c ****   {
 153:project/src/cdc_class.c ****     /* class request */
 154:project/src/cdc_class.c ****     case USB_REQ_TYPE_CLASS:
 155:project/src/cdc_class.c ****       if(setup->wLength)
 156:project/src/cdc_class.c ****       {
 157:project/src/cdc_class.c ****         if(setup->bmRequestType & USB_REQ_DIR_DTH)
 158:project/src/cdc_class.c ****         {
 159:project/src/cdc_class.c ****           usb_vcp_cmd_process(udev, setup->bRequest, pcdc->g_cmd, setup->wLength);
 160:project/src/cdc_class.c ****           usbd_ctrl_send(pudev, pcdc->g_cmd, setup->wLength);
 161:project/src/cdc_class.c ****         }
 162:project/src/cdc_class.c ****         else
 163:project/src/cdc_class.c ****         {
 164:project/src/cdc_class.c ****           pcdc->g_req = setup->bRequest;
 165:project/src/cdc_class.c ****           pcdc->g_len = setup->wLength;
 166:project/src/cdc_class.c ****           usbd_ctrl_recv(pudev, pcdc->g_cmd, pcdc->g_len);
 167:project/src/cdc_class.c **** 
 168:project/src/cdc_class.c ****         }
 169:project/src/cdc_class.c ****       }
 170:project/src/cdc_class.c ****       break;
 171:project/src/cdc_class.c ****     /* standard request */
 172:project/src/cdc_class.c ****     case USB_REQ_TYPE_STANDARD:
 173:project/src/cdc_class.c ****       switch(setup->bRequest)
 174:project/src/cdc_class.c ****       {
 175:project/src/cdc_class.c ****         case USB_STD_REQ_GET_DESCRIPTOR:
 176:project/src/cdc_class.c ****           usbd_ctrl_unsupport(pudev);
 177:project/src/cdc_class.c ****           break;
 178:project/src/cdc_class.c ****         case USB_STD_REQ_GET_INTERFACE:
 179:project/src/cdc_class.c ****           usbd_ctrl_send(pudev, (uint8_t *)&pcdc->alt_setting, 1);
 180:project/src/cdc_class.c ****           break;
 181:project/src/cdc_class.c ****         case USB_STD_REQ_SET_INTERFACE:
 182:project/src/cdc_class.c ****           pcdc->alt_setting = setup->wValue;
 183:project/src/cdc_class.c ****           break;
 184:project/src/cdc_class.c ****         case USB_STD_REQ_CLEAR_FEATURE:
 185:project/src/cdc_class.c ****           break;
 186:project/src/cdc_class.c ****         case USB_STD_REQ_SET_FEATURE:
 187:project/src/cdc_class.c ****           break;
 188:project/src/cdc_class.c ****         default:
 189:project/src/cdc_class.c ****           usbd_ctrl_unsupport(pudev);
 190:project/src/cdc_class.c ****           break;
 191:project/src/cdc_class.c ****       }
 192:project/src/cdc_class.c ****       break;
 193:project/src/cdc_class.c ****     default:
 194:project/src/cdc_class.c ****       usbd_ctrl_unsupport(pudev);
 195:project/src/cdc_class.c ****       break;
 196:project/src/cdc_class.c ****   }
 197:project/src/cdc_class.c ****   return status;
 198:project/src/cdc_class.c **** }
 199:project/src/cdc_class.c **** 
 200:project/src/cdc_class.c **** /**
 201:project/src/cdc_class.c ****   * @brief  usb device class endpoint 0 in status stage complete
ARM GAS  C:\Users\10963\AppData\Local\Temp\cc0PXrIj.s 			page 5


 202:project/src/cdc_class.c ****   * @param  udev: to the structure of usbd_core_type
 203:project/src/cdc_class.c ****   * @retval status of usb_sts_type
 204:project/src/cdc_class.c ****   */
 205:project/src/cdc_class.c **** static usb_sts_type class_ept0_tx_handler(void *udev)
 206:project/src/cdc_class.c **** {
  29              		.loc 1 206 1 view -0
  30              		.cfi_startproc
  31              		@ args = 0, pretend = 0, frame = 0
  32              		@ frame_needed = 0, uses_anonymous_args = 0
  33              		@ link register save eliminated.
 207:project/src/cdc_class.c ****   usb_sts_type status = USB_OK;
  34              		.loc 1 207 3 view .LVU1
 208:project/src/cdc_class.c **** 
 209:project/src/cdc_class.c ****   /* ...user code... */
 210:project/src/cdc_class.c **** 
 211:project/src/cdc_class.c ****   return status;
  35              		.loc 1 211 3 view .LVU2
 212:project/src/cdc_class.c **** }
  36              		.loc 1 212 1 is_stmt 0 view .LVU3
  37 0000 0020     		movs	r0, #0
  38              	.LVL1:
  39              		.loc 1 212 1 view .LVU4
  40 0002 7047     		bx	lr
  41              		.cfi_endproc
  42              	.LFE140:
  44              		.section	.text.class_in_handler,"ax",%progbits
  45              		.align	1
  46              		.syntax unified
  47              		.thumb
  48              		.thumb_func
  50              	class_in_handler:
  51              	.LVL2:
  52              	.LFB142:
 213:project/src/cdc_class.c **** 
 214:project/src/cdc_class.c **** /**
 215:project/src/cdc_class.c ****   * @brief  usb device class endpoint 0 out status stage complete
 216:project/src/cdc_class.c ****   * @param  udev: to the structure of usbd_core_type
 217:project/src/cdc_class.c ****   * @retval status of usb_sts_type
 218:project/src/cdc_class.c ****   */
 219:project/src/cdc_class.c **** static usb_sts_type class_ept0_rx_handler(void *udev)
 220:project/src/cdc_class.c **** {
 221:project/src/cdc_class.c ****   usb_sts_type status = USB_OK;
 222:project/src/cdc_class.c ****   usbd_core_type *pudev = (usbd_core_type *)udev;
 223:project/src/cdc_class.c ****   cdc_struct_type *pcdc = (cdc_struct_type *)pudev->class_handler->pdata;
 224:project/src/cdc_class.c ****   uint32_t recv_len = usbd_get_recv_len(pudev, 0);
 225:project/src/cdc_class.c ****   /* ...user code... */
 226:project/src/cdc_class.c ****   if( pcdc->g_req == SET_LINE_CODING)
 227:project/src/cdc_class.c ****   {
 228:project/src/cdc_class.c ****     /* class process */
 229:project/src/cdc_class.c ****     usb_vcp_cmd_process(udev, pcdc->g_req, pcdc->g_cmd, recv_len);
 230:project/src/cdc_class.c ****   }
 231:project/src/cdc_class.c **** 
 232:project/src/cdc_class.c ****   return status;
 233:project/src/cdc_class.c **** }
 234:project/src/cdc_class.c **** 
 235:project/src/cdc_class.c **** /**
 236:project/src/cdc_class.c ****   * @brief  usb device class transmision complete handler
ARM GAS  C:\Users\10963\AppData\Local\Temp\cc0PXrIj.s 			page 6


 237:project/src/cdc_class.c ****   * @param  udev: to the structure of usbd_core_type
 238:project/src/cdc_class.c ****   * @param  ept_num: endpoint number
 239:project/src/cdc_class.c ****   * @retval status of usb_sts_type
 240:project/src/cdc_class.c ****   */
 241:project/src/cdc_class.c **** static usb_sts_type class_in_handler(void *udev, uint8_t ept_num)
 242:project/src/cdc_class.c **** {
  53              		.loc 1 242 1 is_stmt 1 view -0
  54              		.cfi_startproc
  55              		@ args = 0, pretend = 0, frame = 0
  56              		@ frame_needed = 0, uses_anonymous_args = 0
  57              		@ link register save eliminated.
 243:project/src/cdc_class.c ****   usbd_core_type *pudev = (usbd_core_type *)udev;
  58              		.loc 1 243 3 view .LVU6
 244:project/src/cdc_class.c ****   cdc_struct_type *pcdc = (cdc_struct_type *)pudev->class_handler->pdata;
  59              		.loc 1 244 3 view .LVU7
  60              		.loc 1 244 51 is_stmt 0 view .LVU8
  61 0000 4368     		ldr	r3, [r0, #4]
  62              		.loc 1 244 20 view .LVU9
  63 0002 5B6A     		ldr	r3, [r3, #36]
  64              	.LVL3:
 245:project/src/cdc_class.c ****   usb_sts_type status = USB_OK;
  65              		.loc 1 245 3 is_stmt 1 view .LVU10
 246:project/src/cdc_class.c **** 
 247:project/src/cdc_class.c ****   /* ...user code...
 248:project/src/cdc_class.c ****     trans next packet data
 249:project/src/cdc_class.c ****   */
 250:project/src/cdc_class.c ****   pcdc->g_tx_completed = 1;
  66              		.loc 1 250 3 view .LVU11
  67              		.loc 1 250 24 is_stmt 0 view .LVU12
  68 0004 0122     		movs	r2, #1
  69 0006 83F85220 		strb	r2, [r3, #82]
 251:project/src/cdc_class.c **** 
 252:project/src/cdc_class.c ****   return status;
  70              		.loc 1 252 3 is_stmt 1 view .LVU13
 253:project/src/cdc_class.c **** }
  71              		.loc 1 253 1 is_stmt 0 view .LVU14
  72 000a 0020     		movs	r0, #0
  73              	.LVL4:
  74              		.loc 1 253 1 view .LVU15
  75 000c 7047     		bx	lr
  76              		.cfi_endproc
  77              	.LFE142:
  79              		.section	.text.class_sof_handler,"ax",%progbits
  80              		.align	1
  81              		.syntax unified
  82              		.thumb
  83              		.thumb_func
  85              	class_sof_handler:
  86              	.LVL5:
  87              	.LFB144:
 254:project/src/cdc_class.c **** 
 255:project/src/cdc_class.c **** /**
 256:project/src/cdc_class.c ****   * @brief  usb device class endpoint receive data
 257:project/src/cdc_class.c ****   * @param  udev: to the structure of usbd_core_type
 258:project/src/cdc_class.c ****   * @param  ept_num: endpoint number
 259:project/src/cdc_class.c ****   * @retval status of usb_sts_type
 260:project/src/cdc_class.c ****   */
ARM GAS  C:\Users\10963\AppData\Local\Temp\cc0PXrIj.s 			page 7


 261:project/src/cdc_class.c **** static usb_sts_type class_out_handler(void *udev, uint8_t ept_num)
 262:project/src/cdc_class.c **** {
 263:project/src/cdc_class.c ****   usb_sts_type status = USB_OK;
 264:project/src/cdc_class.c ****   usbd_core_type *pudev = (usbd_core_type *)udev;
 265:project/src/cdc_class.c ****   cdc_struct_type *pcdc = (cdc_struct_type *)pudev->class_handler->pdata;
 266:project/src/cdc_class.c **** 
 267:project/src/cdc_class.c ****   /* get endpoint receive data length  */
 268:project/src/cdc_class.c ****   pcdc->g_rxlen = usbd_get_recv_len(pudev, ept_num);
 269:project/src/cdc_class.c **** 
 270:project/src/cdc_class.c ****   /*set recv flag*/
 271:project/src/cdc_class.c ****   pcdc->g_rx_completed = 1;
 272:project/src/cdc_class.c **** 
 273:project/src/cdc_class.c ****   return status;
 274:project/src/cdc_class.c **** }
 275:project/src/cdc_class.c **** 
 276:project/src/cdc_class.c **** /**
 277:project/src/cdc_class.c ****   * @brief  usb device class sof handler
 278:project/src/cdc_class.c ****   * @param  udev: to the structure of usbd_core_type
 279:project/src/cdc_class.c ****   * @retval status of usb_sts_type
 280:project/src/cdc_class.c ****   */
 281:project/src/cdc_class.c **** static usb_sts_type class_sof_handler(void *udev)
 282:project/src/cdc_class.c **** {
  88              		.loc 1 282 1 is_stmt 1 view -0
  89              		.cfi_startproc
  90              		@ args = 0, pretend = 0, frame = 0
  91              		@ frame_needed = 0, uses_anonymous_args = 0
  92              		@ link register save eliminated.
 283:project/src/cdc_class.c ****   usb_sts_type status = USB_OK;
  93              		.loc 1 283 3 view .LVU17
 284:project/src/cdc_class.c **** 
 285:project/src/cdc_class.c ****   /* ...user code... */
 286:project/src/cdc_class.c **** 
 287:project/src/cdc_class.c ****   return status;
  94              		.loc 1 287 3 view .LVU18
 288:project/src/cdc_class.c **** }
  95              		.loc 1 288 1 is_stmt 0 view .LVU19
  96 0000 0020     		movs	r0, #0
  97              	.LVL6:
  98              		.loc 1 288 1 view .LVU20
  99 0002 7047     		bx	lr
 100              		.cfi_endproc
 101              	.LFE144:
 103              		.section	.text.class_event_handler,"ax",%progbits
 104              		.align	1
 105              		.syntax unified
 106              		.thumb
 107              		.thumb_func
 109              	class_event_handler:
 110              	.LVL7:
 111              	.LFB145:
 289:project/src/cdc_class.c **** 
 290:project/src/cdc_class.c **** /**
 291:project/src/cdc_class.c ****   * @brief  usb device class event handler
 292:project/src/cdc_class.c ****   * @param  udev: to the structure of usbd_core_type
 293:project/src/cdc_class.c ****   * @param  event: usb device event
 294:project/src/cdc_class.c ****   * @retval status of usb_sts_type
 295:project/src/cdc_class.c ****   */
ARM GAS  C:\Users\10963\AppData\Local\Temp\cc0PXrIj.s 			page 8


 296:project/src/cdc_class.c **** static usb_sts_type class_event_handler(void *udev, usbd_event_type event)
 297:project/src/cdc_class.c **** {
 112              		.loc 1 297 1 is_stmt 1 view -0
 113              		.cfi_startproc
 114              		@ args = 0, pretend = 0, frame = 0
 115              		@ frame_needed = 0, uses_anonymous_args = 0
 116              		@ link register save eliminated.
 298:project/src/cdc_class.c ****   usb_sts_type status = USB_OK;
 117              		.loc 1 298 3 view .LVU22
 299:project/src/cdc_class.c ****   switch(event)
 118              		.loc 1 299 3 view .LVU23
 300:project/src/cdc_class.c ****   {
 301:project/src/cdc_class.c ****     case USBD_RESET_EVENT:
 302:project/src/cdc_class.c **** 
 303:project/src/cdc_class.c ****       /* ...user code... */
 304:project/src/cdc_class.c **** 
 305:project/src/cdc_class.c ****       break;
 306:project/src/cdc_class.c ****     case USBD_SUSPEND_EVENT:
 307:project/src/cdc_class.c **** 
 308:project/src/cdc_class.c ****       /* ...user code... */
 309:project/src/cdc_class.c **** 
 310:project/src/cdc_class.c ****       break;
 311:project/src/cdc_class.c ****     case USBD_WAKEUP_EVENT:
 312:project/src/cdc_class.c ****       /* ...user code... */
 313:project/src/cdc_class.c **** 
 314:project/src/cdc_class.c ****       break;
 315:project/src/cdc_class.c ****     default:
 316:project/src/cdc_class.c ****       break;
 119              		.loc 1 316 7 view .LVU24
 317:project/src/cdc_class.c ****   }
 318:project/src/cdc_class.c ****   return status;
 120              		.loc 1 318 3 view .LVU25
 319:project/src/cdc_class.c **** }
 121              		.loc 1 319 1 is_stmt 0 view .LVU26
 122 0000 0020     		movs	r0, #0
 123              	.LVL8:
 124              		.loc 1 319 1 view .LVU27
 125 0002 7047     		bx	lr
 126              		.cfi_endproc
 127              	.LFE145:
 129              		.section	.text.cdc_struct_init,"ax",%progbits
 130              		.align	1
 131              		.syntax unified
 132              		.thumb
 133              		.thumb_func
 135              	cdc_struct_init:
 136              	.LVL9:
 137              	.LFB146:
 320:project/src/cdc_class.c **** 
 321:project/src/cdc_class.c **** /**
 322:project/src/cdc_class.c ****   * @brief  usb device cdc init
 323:project/src/cdc_class.c ****   * @param  pcdc: to the structure of cdc_struct
 324:project/src/cdc_class.c ****   * @retval status of usb_sts_type
 325:project/src/cdc_class.c ****   */
 326:project/src/cdc_class.c **** static usb_sts_type cdc_struct_init(cdc_struct_type *pcdc)
 327:project/src/cdc_class.c **** {
 138              		.loc 1 327 1 is_stmt 1 view -0
ARM GAS  C:\Users\10963\AppData\Local\Temp\cc0PXrIj.s 			page 9


 139              		.cfi_startproc
 140              		@ args = 0, pretend = 0, frame = 0
 141              		@ frame_needed = 0, uses_anonymous_args = 0
 142              		@ link register save eliminated.
 143              		.loc 1 327 1 is_stmt 0 view .LVU29
 144 0000 0346     		mov	r3, r0
 328:project/src/cdc_class.c ****   pcdc->g_tx_completed = 1;
 145              		.loc 1 328 3 is_stmt 1 view .LVU30
 146              		.loc 1 328 24 is_stmt 0 view .LVU31
 147 0002 0122     		movs	r2, #1
 148 0004 80F85220 		strb	r2, [r0, #82]
 329:project/src/cdc_class.c ****   pcdc->g_rx_completed = 0;
 149              		.loc 1 329 3 is_stmt 1 view .LVU32
 150              		.loc 1 329 24 is_stmt 0 view .LVU33
 151 0008 0020     		movs	r0, #0
 152              	.LVL10:
 153              		.loc 1 329 24 view .LVU34
 154 000a 83F85300 		strb	r0, [r3, #83]
 330:project/src/cdc_class.c ****   pcdc->alt_setting = 0;
 155              		.loc 1 330 3 is_stmt 1 view .LVU35
 156              		.loc 1 330 21 is_stmt 0 view .LVU36
 157 000e 1860     		str	r0, [r3]
 331:project/src/cdc_class.c ****   pcdc->linecoding.bitrate = linecoding.bitrate;
 158              		.loc 1 331 3 is_stmt 1 view .LVU37
 159              		.loc 1 331 40 is_stmt 0 view .LVU38
 160 0010 064A     		ldr	r2, .L6
 161 0012 1168     		ldr	r1, [r2]
 162              		.loc 1 331 28 view .LVU39
 163 0014 5965     		str	r1, [r3, #84]
 332:project/src/cdc_class.c ****   pcdc->linecoding.data = linecoding.data;
 164              		.loc 1 332 3 is_stmt 1 view .LVU40
 165              		.loc 1 332 37 is_stmt 0 view .LVU41
 166 0016 9179     		ldrb	r1, [r2, #6]	@ zero_extendqisi2
 167              		.loc 1 332 25 view .LVU42
 168 0018 83F85A10 		strb	r1, [r3, #90]
 333:project/src/cdc_class.c ****   pcdc->linecoding.format = linecoding.format;
 169              		.loc 1 333 3 is_stmt 1 view .LVU43
 170              		.loc 1 333 39 is_stmt 0 view .LVU44
 171 001c 1179     		ldrb	r1, [r2, #4]	@ zero_extendqisi2
 172              		.loc 1 333 27 view .LVU45
 173 001e 83F85810 		strb	r1, [r3, #88]
 334:project/src/cdc_class.c ****   pcdc->linecoding.parity = linecoding.parity;
 174              		.loc 1 334 3 is_stmt 1 view .LVU46
 175              		.loc 1 334 39 is_stmt 0 view .LVU47
 176 0022 5279     		ldrb	r2, [r2, #5]	@ zero_extendqisi2
 177              		.loc 1 334 27 view .LVU48
 178 0024 83F85920 		strb	r2, [r3, #89]
 335:project/src/cdc_class.c ****   return USB_OK;
 179              		.loc 1 335 3 is_stmt 1 view .LVU49
 336:project/src/cdc_class.c **** }
 180              		.loc 1 336 1 is_stmt 0 view .LVU50
 181 0028 7047     		bx	lr
 182              	.L7:
 183 002a 00BF     		.align	2
 184              	.L6:
 185 002c 00000000 		.word	linecoding
 186              		.cfi_endproc
ARM GAS  C:\Users\10963\AppData\Local\Temp\cc0PXrIj.s 			page 10


 187              	.LFE146:
 189              		.section	.text.usb_vcp_cmd_process,"ax",%progbits
 190              		.align	1
 191              		.syntax unified
 192              		.thumb
 193              		.thumb_func
 195              	usb_vcp_cmd_process:
 196              	.LVL11:
 197              	.LFB149:
 337:project/src/cdc_class.c **** 
 338:project/src/cdc_class.c **** /**
 339:project/src/cdc_class.c ****   * @brief  usb device class rx data process
 340:project/src/cdc_class.c ****   * @param  udev: to the structure of usbd_core_type
 341:project/src/cdc_class.c ****   * @param  recv_data: receive buffer
 342:project/src/cdc_class.c ****   * @retval receive data len
 343:project/src/cdc_class.c ****   */
 344:project/src/cdc_class.c **** uint16_t usb_vcp_get_rxdata(void *udev, uint8_t *recv_data)
 345:project/src/cdc_class.c **** {
 346:project/src/cdc_class.c ****   uint16_t i_index = 0;
 347:project/src/cdc_class.c ****   uint16_t tmp_len = 0;
 348:project/src/cdc_class.c ****   usbd_core_type *pudev = (usbd_core_type *)udev;
 349:project/src/cdc_class.c ****   cdc_struct_type *pcdc = (cdc_struct_type *)pudev->class_handler->pdata;
 350:project/src/cdc_class.c **** 
 351:project/src/cdc_class.c ****   if(pcdc->g_rx_completed == 0)
 352:project/src/cdc_class.c ****   {
 353:project/src/cdc_class.c ****     return 0;
 354:project/src/cdc_class.c ****   }
 355:project/src/cdc_class.c ****   pcdc->g_rx_completed = 0;
 356:project/src/cdc_class.c ****   tmp_len = pcdc->g_rxlen;
 357:project/src/cdc_class.c ****   for(i_index = 0; i_index < pcdc->g_rxlen; i_index ++)
 358:project/src/cdc_class.c ****   {
 359:project/src/cdc_class.c ****     recv_data[i_index] = pcdc->g_rx_buff[i_index];
 360:project/src/cdc_class.c ****   }
 361:project/src/cdc_class.c **** 
 362:project/src/cdc_class.c ****   usbd_ept_recv(pudev, USBD_CDC_BULK_OUT_EPT, pcdc->g_rx_buff, USBD_CDC_OUT_MAXPACKET_SIZE);
 363:project/src/cdc_class.c **** 
 364:project/src/cdc_class.c ****   return tmp_len;
 365:project/src/cdc_class.c **** }
 366:project/src/cdc_class.c **** 
 367:project/src/cdc_class.c **** /**
 368:project/src/cdc_class.c ****   * @brief  usb device class send data
 369:project/src/cdc_class.c ****   * @param  udev: to the structure of usbd_core_type
 370:project/src/cdc_class.c ****   * @param  send_data: send data buffer
 371:project/src/cdc_class.c ****   * @param  len: send length
 372:project/src/cdc_class.c ****   * @retval error status
 373:project/src/cdc_class.c ****   */
 374:project/src/cdc_class.c **** error_status usb_vcp_send_data(void *udev, uint8_t *send_data, uint16_t len)
 375:project/src/cdc_class.c **** {
 376:project/src/cdc_class.c ****   error_status status = SUCCESS;
 377:project/src/cdc_class.c ****   usbd_core_type *pudev = (usbd_core_type *)udev;
 378:project/src/cdc_class.c ****   cdc_struct_type *pcdc = (cdc_struct_type *)pudev->class_handler->pdata;
 379:project/src/cdc_class.c ****   if(pcdc->g_tx_completed)
 380:project/src/cdc_class.c ****   {
 381:project/src/cdc_class.c ****     pcdc->g_tx_completed = 0;
 382:project/src/cdc_class.c ****     usbd_ept_send(pudev, USBD_CDC_BULK_IN_EPT, send_data, len);
 383:project/src/cdc_class.c ****   }
 384:project/src/cdc_class.c ****   else
ARM GAS  C:\Users\10963\AppData\Local\Temp\cc0PXrIj.s 			page 11


 385:project/src/cdc_class.c ****   {
 386:project/src/cdc_class.c ****     status = ERROR;
 387:project/src/cdc_class.c ****   }
 388:project/src/cdc_class.c ****   return status;
 389:project/src/cdc_class.c **** }
 390:project/src/cdc_class.c **** 
 391:project/src/cdc_class.c **** 
 392:project/src/cdc_class.c **** /**
 393:project/src/cdc_class.c ****   * @brief  usb device class request function
 394:project/src/cdc_class.c ****   * @param  udev: to the structure of usbd_core_type
 395:project/src/cdc_class.c ****   * @param  cmd: request number
 396:project/src/cdc_class.c ****   * @param  buff: request buffer
 397:project/src/cdc_class.c ****   * @param  len: buffer length
 398:project/src/cdc_class.c ****   * @retval none
 399:project/src/cdc_class.c ****   */
 400:project/src/cdc_class.c **** static void usb_vcp_cmd_process(void *udev, uint8_t cmd, uint8_t *buff, uint16_t len)
 401:project/src/cdc_class.c **** {
 198              		.loc 1 401 1 is_stmt 1 view -0
 199              		.cfi_startproc
 200              		@ args = 0, pretend = 0, frame = 0
 201              		@ frame_needed = 0, uses_anonymous_args = 0
 202              		@ link register save eliminated.
 402:project/src/cdc_class.c ****   usbd_core_type *pudev = (usbd_core_type *)udev;
 203              		.loc 1 402 3 view .LVU52
 403:project/src/cdc_class.c ****   cdc_struct_type *pcdc = (cdc_struct_type *)pudev->class_handler->pdata;
 204              		.loc 1 403 3 view .LVU53
 205              		.loc 1 403 51 is_stmt 0 view .LVU54
 206 0000 4368     		ldr	r3, [r0, #4]
 207              	.LVL12:
 208              		.loc 1 403 20 view .LVU55
 209 0002 5B6A     		ldr	r3, [r3, #36]
 210              	.LVL13:
 404:project/src/cdc_class.c ****   switch(cmd)
 211              		.loc 1 404 3 is_stmt 1 view .LVU56
 212 0004 2029     		cmp	r1, #32
 213 0006 02D0     		beq	.L9
 214 0008 2129     		cmp	r1, #33
 215 000a 15D0     		beq	.L10
 216 000c 7047     		bx	lr
 217              	.L9:
 405:project/src/cdc_class.c ****   {
 406:project/src/cdc_class.c ****     case SET_LINE_CODING:
 407:project/src/cdc_class.c ****       pcdc->linecoding.bitrate = (uint32_t)(buff[0] | (buff[1] << 8) | (buff[2] << 16) | (buff[3] <
 218              		.loc 1 407 7 view .LVU57
 219              		.loc 1 407 49 is_stmt 0 view .LVU58
 220 000e 1178     		ldrb	r1, [r2]	@ zero_extendqisi2
 221              	.LVL14:
 222              		.loc 1 407 60 view .LVU59
 223 0010 5078     		ldrb	r0, [r2, #1]	@ zero_extendqisi2
 224              	.LVL15:
 225              		.loc 1 407 53 view .LVU60
 226 0012 41EA0021 		orr	r1, r1, r0, lsl #8
 227              		.loc 1 407 77 view .LVU61
 228 0016 9078     		ldrb	r0, [r2, #2]	@ zero_extendqisi2
 229              		.loc 1 407 70 view .LVU62
 230 0018 41EA0041 		orr	r1, r1, r0, lsl #16
 231              		.loc 1 407 95 view .LVU63
ARM GAS  C:\Users\10963\AppData\Local\Temp\cc0PXrIj.s 			page 12


 232 001c D078     		ldrb	r0, [r2, #3]	@ zero_extendqisi2
 233              		.loc 1 407 88 view .LVU64
 234 001e 41EA0061 		orr	r1, r1, r0, lsl #24
 235              		.loc 1 407 32 view .LVU65
 236 0022 5965     		str	r1, [r3, #84]
 408:project/src/cdc_class.c ****       pcdc->linecoding.format = buff[4];
 237              		.loc 1 408 7 is_stmt 1 view .LVU66
 238              		.loc 1 408 31 is_stmt 0 view .LVU67
 239 0024 1179     		ldrb	r1, [r2, #4]	@ zero_extendqisi2
 240 0026 83F85810 		strb	r1, [r3, #88]
 409:project/src/cdc_class.c ****       pcdc->linecoding.parity = buff[5];
 241              		.loc 1 409 7 is_stmt 1 view .LVU68
 242              		.loc 1 409 31 is_stmt 0 view .LVU69
 243 002a 5179     		ldrb	r1, [r2, #5]	@ zero_extendqisi2
 244 002c 83F85910 		strb	r1, [r3, #89]
 410:project/src/cdc_class.c ****       pcdc->linecoding.data = buff[6];
 245              		.loc 1 410 7 is_stmt 1 view .LVU70
 246              		.loc 1 410 29 is_stmt 0 view .LVU71
 247 0030 9279     		ldrb	r2, [r2, #6]	@ zero_extendqisi2
 248              	.LVL16:
 249              		.loc 1 410 29 view .LVU72
 250 0032 83F85A20 		strb	r2, [r3, #90]
 411:project/src/cdc_class.c **** #ifdef USB_VIRTUAL_COMPORT
 412:project/src/cdc_class.c ****       /* set hardware usart */
 413:project/src/cdc_class.c ****       usb_usart_config(pcdc->linecoding);
 414:project/src/cdc_class.c **** #endif
 415:project/src/cdc_class.c ****       break;
 251              		.loc 1 415 7 is_stmt 1 view .LVU73
 252 0036 7047     		bx	lr
 253              	.LVL17:
 254              	.L10:
 416:project/src/cdc_class.c **** 
 417:project/src/cdc_class.c ****     case GET_LINE_CODING:
 418:project/src/cdc_class.c ****       buff[0] = (uint8_t)pcdc->linecoding.bitrate;
 255              		.loc 1 418 7 view .LVU74
 256              		.loc 1 418 17 is_stmt 0 view .LVU75
 257 0038 93F85410 		ldrb	r1, [r3, #84]	@ zero_extendqisi2
 258              	.LVL18:
 259              		.loc 1 418 15 view .LVU76
 260 003c 1170     		strb	r1, [r2]
 419:project/src/cdc_class.c ****       buff[1] = (uint8_t)(pcdc->linecoding.bitrate >> 8);
 261              		.loc 1 419 7 is_stmt 1 view .LVU77
 262              		.loc 1 419 17 is_stmt 0 view .LVU78
 263 003e 93F85510 		ldrb	r1, [r3, #85]	@ zero_extendqisi2
 264              		.loc 1 419 15 view .LVU79
 265 0042 5170     		strb	r1, [r2, #1]
 420:project/src/cdc_class.c ****       buff[2] = (uint8_t)(pcdc->linecoding.bitrate >> 16);
 266              		.loc 1 420 7 is_stmt 1 view .LVU80
 267              		.loc 1 420 17 is_stmt 0 view .LVU81
 268 0044 93F85610 		ldrb	r1, [r3, #86]	@ zero_extendqisi2
 269              		.loc 1 420 15 view .LVU82
 270 0048 9170     		strb	r1, [r2, #2]
 421:project/src/cdc_class.c ****       buff[3] = (uint8_t)(pcdc->linecoding.bitrate >> 24);
 271              		.loc 1 421 7 is_stmt 1 view .LVU83
 272              		.loc 1 421 17 is_stmt 0 view .LVU84
 273 004a 93F85710 		ldrb	r1, [r3, #87]	@ zero_extendqisi2
 274              		.loc 1 421 15 view .LVU85
ARM GAS  C:\Users\10963\AppData\Local\Temp\cc0PXrIj.s 			page 13


 275 004e D170     		strb	r1, [r2, #3]
 422:project/src/cdc_class.c ****       buff[4] = (uint8_t)(pcdc->linecoding.format);
 276              		.loc 1 422 7 is_stmt 1 view .LVU86
 277              		.loc 1 422 43 is_stmt 0 view .LVU87
 278 0050 93F85810 		ldrb	r1, [r3, #88]	@ zero_extendqisi2
 279              		.loc 1 422 15 view .LVU88
 280 0054 1171     		strb	r1, [r2, #4]
 423:project/src/cdc_class.c ****       buff[5] = (uint8_t)(pcdc->linecoding.parity);
 281              		.loc 1 423 7 is_stmt 1 view .LVU89
 282              		.loc 1 423 43 is_stmt 0 view .LVU90
 283 0056 93F85910 		ldrb	r1, [r3, #89]	@ zero_extendqisi2
 284              		.loc 1 423 15 view .LVU91
 285 005a 5171     		strb	r1, [r2, #5]
 424:project/src/cdc_class.c ****       buff[6] = (uint8_t)(pcdc->linecoding.data);
 286              		.loc 1 424 7 is_stmt 1 view .LVU92
 287              		.loc 1 424 43 is_stmt 0 view .LVU93
 288 005c 93F85A30 		ldrb	r3, [r3, #90]	@ zero_extendqisi2
 289              	.LVL19:
 290              		.loc 1 424 15 view .LVU94
 291 0060 9371     		strb	r3, [r2, #6]
 425:project/src/cdc_class.c ****       break;
 292              		.loc 1 425 7 is_stmt 1 view .LVU95
 426:project/src/cdc_class.c **** 
 427:project/src/cdc_class.c ****     default:
 428:project/src/cdc_class.c ****       break;
 429:project/src/cdc_class.c ****   }
 430:project/src/cdc_class.c **** }
 293              		.loc 1 430 1 is_stmt 0 view .LVU96
 294 0062 7047     		bx	lr
 295              		.cfi_endproc
 296              	.LFE149:
 298              		.section	.text.class_out_handler,"ax",%progbits
 299              		.align	1
 300              		.syntax unified
 301              		.thumb
 302              		.thumb_func
 304              	class_out_handler:
 305              	.LVL20:
 306              	.LFB143:
 262:project/src/cdc_class.c ****   usb_sts_type status = USB_OK;
 307              		.loc 1 262 1 is_stmt 1 view -0
 308              		.cfi_startproc
 309              		@ args = 0, pretend = 0, frame = 0
 310              		@ frame_needed = 0, uses_anonymous_args = 0
 262:project/src/cdc_class.c ****   usb_sts_type status = USB_OK;
 311              		.loc 1 262 1 is_stmt 0 view .LVU98
 312 0000 10B5     		push	{r4, lr}
 313              	.LCFI0:
 314              		.cfi_def_cfa_offset 8
 315              		.cfi_offset 4, -8
 316              		.cfi_offset 14, -4
 263:project/src/cdc_class.c ****   usbd_core_type *pudev = (usbd_core_type *)udev;
 317              		.loc 1 263 3 is_stmt 1 view .LVU99
 318              	.LVL21:
 264:project/src/cdc_class.c ****   cdc_struct_type *pcdc = (cdc_struct_type *)pudev->class_handler->pdata;
 319              		.loc 1 264 3 view .LVU100
 265:project/src/cdc_class.c **** 
ARM GAS  C:\Users\10963\AppData\Local\Temp\cc0PXrIj.s 			page 14


 320              		.loc 1 265 3 view .LVU101
 265:project/src/cdc_class.c **** 
 321              		.loc 1 265 51 is_stmt 0 view .LVU102
 322 0002 4368     		ldr	r3, [r0, #4]
 265:project/src/cdc_class.c **** 
 323              		.loc 1 265 20 view .LVU103
 324 0004 5C6A     		ldr	r4, [r3, #36]
 325              	.LVL22:
 268:project/src/cdc_class.c **** 
 326              		.loc 1 268 3 is_stmt 1 view .LVU104
 268:project/src/cdc_class.c **** 
 327              		.loc 1 268 19 is_stmt 0 view .LVU105
 328 0006 FFF7FEFF 		bl	usbd_get_recv_len
 329              	.LVL23:
 268:project/src/cdc_class.c **** 
 330              		.loc 1 268 17 discriminator 1 view .LVU106
 331 000a A4F85000 		strh	r0, [r4, #80]	@ movhi
 271:project/src/cdc_class.c **** 
 332              		.loc 1 271 3 is_stmt 1 view .LVU107
 271:project/src/cdc_class.c **** 
 333              		.loc 1 271 24 is_stmt 0 view .LVU108
 334 000e 0123     		movs	r3, #1
 335 0010 84F85330 		strb	r3, [r4, #83]
 273:project/src/cdc_class.c **** }
 336              		.loc 1 273 3 is_stmt 1 view .LVU109
 274:project/src/cdc_class.c **** 
 337              		.loc 1 274 1 is_stmt 0 view .LVU110
 338 0014 0020     		movs	r0, #0
 339 0016 10BD     		pop	{r4, pc}
 274:project/src/cdc_class.c **** 
 340              		.loc 1 274 1 view .LVU111
 341              		.cfi_endproc
 342              	.LFE143:
 344              		.section	.text.class_ept0_rx_handler,"ax",%progbits
 345              		.align	1
 346              		.syntax unified
 347              		.thumb
 348              		.thumb_func
 350              	class_ept0_rx_handler:
 351              	.LVL24:
 352              	.LFB141:
 220:project/src/cdc_class.c ****   usb_sts_type status = USB_OK;
 353              		.loc 1 220 1 is_stmt 1 view -0
 354              		.cfi_startproc
 355              		@ args = 0, pretend = 0, frame = 0
 356              		@ frame_needed = 0, uses_anonymous_args = 0
 220:project/src/cdc_class.c ****   usb_sts_type status = USB_OK;
 357              		.loc 1 220 1 is_stmt 0 view .LVU113
 358 0000 38B5     		push	{r3, r4, r5, lr}
 359              	.LCFI1:
 360              		.cfi_def_cfa_offset 16
 361              		.cfi_offset 3, -16
 362              		.cfi_offset 4, -12
 363              		.cfi_offset 5, -8
 364              		.cfi_offset 14, -4
 365 0002 0446     		mov	r4, r0
 221:project/src/cdc_class.c ****   usbd_core_type *pudev = (usbd_core_type *)udev;
ARM GAS  C:\Users\10963\AppData\Local\Temp\cc0PXrIj.s 			page 15


 366              		.loc 1 221 3 is_stmt 1 view .LVU114
 367              	.LVL25:
 222:project/src/cdc_class.c ****   cdc_struct_type *pcdc = (cdc_struct_type *)pudev->class_handler->pdata;
 368              		.loc 1 222 3 view .LVU115
 223:project/src/cdc_class.c ****   uint32_t recv_len = usbd_get_recv_len(pudev, 0);
 369              		.loc 1 223 3 view .LVU116
 223:project/src/cdc_class.c ****   uint32_t recv_len = usbd_get_recv_len(pudev, 0);
 370              		.loc 1 223 51 is_stmt 0 view .LVU117
 371 0004 4368     		ldr	r3, [r0, #4]
 223:project/src/cdc_class.c ****   uint32_t recv_len = usbd_get_recv_len(pudev, 0);
 372              		.loc 1 223 20 view .LVU118
 373 0006 5D6A     		ldr	r5, [r3, #36]
 374              	.LVL26:
 224:project/src/cdc_class.c ****   /* ...user code... */
 375              		.loc 1 224 3 is_stmt 1 view .LVU119
 224:project/src/cdc_class.c ****   /* ...user code... */
 376              		.loc 1 224 23 is_stmt 0 view .LVU120
 377 0008 0021     		movs	r1, #0
 378 000a FFF7FEFF 		bl	usbd_get_recv_len
 379              	.LVL27:
 226:project/src/cdc_class.c ****   {
 380              		.loc 1 226 3 is_stmt 1 view .LVU121
 226:project/src/cdc_class.c ****   {
 381              		.loc 1 226 11 is_stmt 0 view .LVU122
 382 000e 95F84C10 		ldrb	r1, [r5, #76]	@ zero_extendqisi2
 226:project/src/cdc_class.c ****   {
 383              		.loc 1 226 5 view .LVU123
 384 0012 2029     		cmp	r1, #32
 385 0014 01D0     		beq	.L17
 386              	.LVL28:
 387              	.L15:
 232:project/src/cdc_class.c **** }
 388              		.loc 1 232 3 is_stmt 1 view .LVU124
 233:project/src/cdc_class.c **** 
 389              		.loc 1 233 1 is_stmt 0 view .LVU125
 390 0016 0020     		movs	r0, #0
 391 0018 38BD     		pop	{r3, r4, r5, pc}
 392              	.LVL29:
 393              	.L17:
 229:project/src/cdc_class.c ****   }
 394              		.loc 1 229 5 is_stmt 1 view .LVU126
 395 001a 83B2     		uxth	r3, r0
 396 001c 05F14402 		add	r2, r5, #68
 397 0020 2046     		mov	r0, r4
 398              	.LVL30:
 229:project/src/cdc_class.c ****   }
 399              		.loc 1 229 5 is_stmt 0 view .LVU127
 400 0022 FFF7FEFF 		bl	usb_vcp_cmd_process
 401              	.LVL31:
 402 0026 F6E7     		b	.L15
 403              		.cfi_endproc
 404              	.LFE141:
 406              		.section	.text.class_setup_handler,"ax",%progbits
 407              		.align	1
 408              		.syntax unified
 409              		.thumb
 410              		.thumb_func
ARM GAS  C:\Users\10963\AppData\Local\Temp\cc0PXrIj.s 			page 16


 412              	class_setup_handler:
 413              	.LVL32:
 414              	.LFB139:
 146:project/src/cdc_class.c ****   usb_sts_type status = USB_OK;
 415              		.loc 1 146 1 is_stmt 1 view -0
 416              		.cfi_startproc
 417              		@ args = 0, pretend = 0, frame = 0
 418              		@ frame_needed = 0, uses_anonymous_args = 0
 146:project/src/cdc_class.c ****   usb_sts_type status = USB_OK;
 419              		.loc 1 146 1 is_stmt 0 view .LVU129
 420 0000 70B5     		push	{r4, r5, r6, lr}
 421              	.LCFI2:
 422              		.cfi_def_cfa_offset 16
 423              		.cfi_offset 4, -16
 424              		.cfi_offset 5, -12
 425              		.cfi_offset 6, -8
 426              		.cfi_offset 14, -4
 427 0002 0546     		mov	r5, r0
 428 0004 0C46     		mov	r4, r1
 147:project/src/cdc_class.c ****   usbd_core_type *pudev = (usbd_core_type *)udev;
 429              		.loc 1 147 3 is_stmt 1 view .LVU130
 430              	.LVL33:
 148:project/src/cdc_class.c ****   cdc_struct_type *pcdc = (cdc_struct_type *)pudev->class_handler->pdata;
 431              		.loc 1 148 3 view .LVU131
 149:project/src/cdc_class.c **** 
 432              		.loc 1 149 3 view .LVU132
 149:project/src/cdc_class.c **** 
 433              		.loc 1 149 51 is_stmt 0 view .LVU133
 434 0006 4368     		ldr	r3, [r0, #4]
 149:project/src/cdc_class.c **** 
 435              		.loc 1 149 20 view .LVU134
 436 0008 596A     		ldr	r1, [r3, #36]
 437              	.LVL34:
 151:project/src/cdc_class.c ****   {
 438              		.loc 1 151 3 is_stmt 1 view .LVU135
 151:project/src/cdc_class.c ****   {
 439              		.loc 1 151 15 is_stmt 0 view .LVU136
 440 000a 94F800C0 		ldrb	ip, [r4]	@ zero_extendqisi2
 151:project/src/cdc_class.c ****   {
 441              		.loc 1 151 3 view .LVU137
 442 000e 1CF06003 		ands	r3, ip, #96
 443 0012 1CD0     		beq	.L19
 444 0014 202B     		cmp	r3, #32
 445 0016 35D1     		bne	.L20
 155:project/src/cdc_class.c ****       {
 446              		.loc 1 155 7 is_stmt 1 view .LVU138
 155:project/src/cdc_class.c ****       {
 447              		.loc 1 155 15 is_stmt 0 view .LVU139
 448 0018 E388     		ldrh	r3, [r4, #6]
 155:project/src/cdc_class.c ****       {
 449              		.loc 1 155 9 view .LVU140
 450 001a ABB3     		cbz	r3, .L21
 157:project/src/cdc_class.c ****         {
 451              		.loc 1 157 9 is_stmt 1 view .LVU141
 157:project/src/cdc_class.c ****         {
 452              		.loc 1 157 11 is_stmt 0 view .LVU142
 453 001c 1CF0800F 		tst	ip, #128
ARM GAS  C:\Users\10963\AppData\Local\Temp\cc0PXrIj.s 			page 17


 454 0020 09D1     		bne	.L29
 164:project/src/cdc_class.c ****           pcdc->g_len = setup->wLength;
 455              		.loc 1 164 11 is_stmt 1 view .LVU143
 164:project/src/cdc_class.c ****           pcdc->g_len = setup->wLength;
 456              		.loc 1 164 30 is_stmt 0 view .LVU144
 457 0022 6378     		ldrb	r3, [r4, #1]	@ zero_extendqisi2
 164:project/src/cdc_class.c ****           pcdc->g_len = setup->wLength;
 458              		.loc 1 164 23 view .LVU145
 459 0024 81F84C30 		strb	r3, [r1, #76]
 165:project/src/cdc_class.c ****           usbd_ctrl_recv(pudev, pcdc->g_cmd, pcdc->g_len);
 460              		.loc 1 165 11 is_stmt 1 view .LVU146
 165:project/src/cdc_class.c ****           usbd_ctrl_recv(pudev, pcdc->g_cmd, pcdc->g_len);
 461              		.loc 1 165 30 is_stmt 0 view .LVU147
 462 0028 E288     		ldrh	r2, [r4, #6]
 165:project/src/cdc_class.c ****           usbd_ctrl_recv(pudev, pcdc->g_cmd, pcdc->g_len);
 463              		.loc 1 165 23 view .LVU148
 464 002a A1F84E20 		strh	r2, [r1, #78]	@ movhi
 166:project/src/cdc_class.c **** 
 465              		.loc 1 166 11 is_stmt 1 view .LVU149
 466 002e 4431     		adds	r1, r1, #68
 467              	.LVL35:
 166:project/src/cdc_class.c **** 
 468              		.loc 1 166 11 is_stmt 0 view .LVU150
 469 0030 FFF7FEFF 		bl	usbd_ctrl_recv
 470              	.LVL36:
 166:project/src/cdc_class.c **** 
 471              		.loc 1 166 11 view .LVU151
 472 0034 28E0     		b	.L21
 473              	.LVL37:
 474              	.L29:
 159:project/src/cdc_class.c ****           usbd_ctrl_send(pudev, pcdc->g_cmd, setup->wLength);
 475              		.loc 1 159 11 is_stmt 1 view .LVU152
 159:project/src/cdc_class.c ****           usbd_ctrl_send(pudev, pcdc->g_cmd, setup->wLength);
 476              		.loc 1 159 58 is_stmt 0 view .LVU153
 477 0036 01F14402 		add	r2, r1, #68
 478 003a 1646     		mov	r6, r2
 159:project/src/cdc_class.c ****           usbd_ctrl_send(pudev, pcdc->g_cmd, setup->wLength);
 479              		.loc 1 159 11 view .LVU154
 480 003c 6178     		ldrb	r1, [r4, #1]	@ zero_extendqisi2
 481              	.LVL38:
 159:project/src/cdc_class.c ****           usbd_ctrl_send(pudev, pcdc->g_cmd, setup->wLength);
 482              		.loc 1 159 11 view .LVU155
 483 003e FFF7FEFF 		bl	usb_vcp_cmd_process
 484              	.LVL39:
 160:project/src/cdc_class.c ****         }
 485              		.loc 1 160 11 is_stmt 1 view .LVU156
 486 0042 E288     		ldrh	r2, [r4, #6]
 487 0044 3146     		mov	r1, r6
 488 0046 2846     		mov	r0, r5
 489 0048 FFF7FEFF 		bl	usbd_ctrl_send
 490              	.LVL40:
 491 004c 1CE0     		b	.L21
 492              	.LVL41:
 493              	.L19:
 173:project/src/cdc_class.c ****       {
 494              		.loc 1 173 7 view .LVU157
 173:project/src/cdc_class.c ****       {
ARM GAS  C:\Users\10963\AppData\Local\Temp\cc0PXrIj.s 			page 18


 495              		.loc 1 173 19 is_stmt 0 view .LVU158
 496 004e 6378     		ldrb	r3, [r4, #1]	@ zero_extendqisi2
 173:project/src/cdc_class.c ****       {
 497              		.loc 1 173 7 view .LVU159
 498 0050 0A2B     		cmp	r3, #10
 499 0052 13D0     		beq	.L23
 500 0054 0AD8     		bhi	.L24
 501 0056 062B     		cmp	r3, #6
 502 0058 0DD0     		beq	.L25
 503 005a 03D8     		bhi	.L26
 504 005c 012B     		cmp	r3, #1
 505 005e 13D0     		beq	.L21
 506 0060 032B     		cmp	r3, #3
 507 0062 11D0     		beq	.L21
 508              	.L26:
 189:project/src/cdc_class.c ****           break;
 509              		.loc 1 189 11 is_stmt 1 view .LVU160
 510 0064 2846     		mov	r0, r5
 511              	.LVL42:
 189:project/src/cdc_class.c ****           break;
 512              		.loc 1 189 11 is_stmt 0 view .LVU161
 513 0066 FFF7FEFF 		bl	usbd_ctrl_unsupport
 514              	.LVL43:
 190:project/src/cdc_class.c ****       }
 515              		.loc 1 190 11 is_stmt 1 view .LVU162
 516 006a 0DE0     		b	.L21
 517              	.LVL44:
 518              	.L24:
 173:project/src/cdc_class.c ****       {
 519              		.loc 1 173 7 is_stmt 0 view .LVU163
 520 006c 0B2B     		cmp	r3, #11
 521 006e F9D1     		bne	.L26
 182:project/src/cdc_class.c ****           break;
 522              		.loc 1 182 11 is_stmt 1 view .LVU164
 182:project/src/cdc_class.c ****           break;
 523              		.loc 1 182 36 is_stmt 0 view .LVU165
 524 0070 6388     		ldrh	r3, [r4, #2]
 182:project/src/cdc_class.c ****           break;
 525              		.loc 1 182 29 view .LVU166
 526 0072 0B60     		str	r3, [r1]
 183:project/src/cdc_class.c ****         case USB_STD_REQ_CLEAR_FEATURE:
 527              		.loc 1 183 11 is_stmt 1 view .LVU167
 528 0074 08E0     		b	.L21
 529              	.L25:
 176:project/src/cdc_class.c ****           break;
 530              		.loc 1 176 11 view .LVU168
 531 0076 FFF7FEFF 		bl	usbd_ctrl_unsupport
 532              	.LVL45:
 177:project/src/cdc_class.c ****         case USB_STD_REQ_GET_INTERFACE:
 533              		.loc 1 177 11 view .LVU169
 534 007a 05E0     		b	.L21
 535              	.LVL46:
 536              	.L23:
 179:project/src/cdc_class.c ****           break;
 537              		.loc 1 179 11 view .LVU170
 538 007c 0122     		movs	r2, #1
 539 007e FFF7FEFF 		bl	usbd_ctrl_send
ARM GAS  C:\Users\10963\AppData\Local\Temp\cc0PXrIj.s 			page 19


 540              	.LVL47:
 180:project/src/cdc_class.c ****         case USB_STD_REQ_SET_INTERFACE:
 541              		.loc 1 180 11 view .LVU171
 542 0082 01E0     		b	.L21
 543              	.LVL48:
 544              	.L20:
 194:project/src/cdc_class.c ****       break;
 545              		.loc 1 194 7 view .LVU172
 546 0084 FFF7FEFF 		bl	usbd_ctrl_unsupport
 547              	.LVL49:
 195:project/src/cdc_class.c ****   }
 548              		.loc 1 195 7 view .LVU173
 549              	.L21:
 197:project/src/cdc_class.c **** }
 550              		.loc 1 197 3 view .LVU174
 198:project/src/cdc_class.c **** 
 551              		.loc 1 198 1 is_stmt 0 view .LVU175
 552 0088 0020     		movs	r0, #0
 553 008a 70BD     		pop	{r4, r5, r6, pc}
 198:project/src/cdc_class.c **** 
 554              		.loc 1 198 1 view .LVU176
 555              		.cfi_endproc
 556              	.LFE139:
 558              		.section	.text.class_clear_handler,"ax",%progbits
 559              		.align	1
 560              		.syntax unified
 561              		.thumb
 562              		.thumb_func
 564              	class_clear_handler:
 565              	.LVL50:
 566              	.LFB138:
 123:project/src/cdc_class.c ****   usb_sts_type status = USB_OK;
 567              		.loc 1 123 1 is_stmt 1 view -0
 568              		.cfi_startproc
 569              		@ args = 0, pretend = 0, frame = 0
 570              		@ frame_needed = 0, uses_anonymous_args = 0
 123:project/src/cdc_class.c ****   usb_sts_type status = USB_OK;
 571              		.loc 1 123 1 is_stmt 0 view .LVU178
 572 0000 10B5     		push	{r4, lr}
 573              	.LCFI3:
 574              		.cfi_def_cfa_offset 8
 575              		.cfi_offset 4, -8
 576              		.cfi_offset 14, -4
 577 0002 0446     		mov	r4, r0
 124:project/src/cdc_class.c ****   usbd_core_type *pudev = (usbd_core_type *)udev;
 578              		.loc 1 124 3 is_stmt 1 view .LVU179
 579              	.LVL51:
 125:project/src/cdc_class.c **** 
 580              		.loc 1 125 3 view .LVU180
 128:project/src/cdc_class.c **** 
 581              		.loc 1 128 3 view .LVU181
 582 0004 8221     		movs	r1, #130
 583 0006 FFF7FEFF 		bl	usbd_ept_close
 584              	.LVL52:
 131:project/src/cdc_class.c **** 
 585              		.loc 1 131 3 view .LVU182
 586 000a 8121     		movs	r1, #129
ARM GAS  C:\Users\10963\AppData\Local\Temp\cc0PXrIj.s 			page 20


 587 000c 2046     		mov	r0, r4
 588 000e FFF7FEFF 		bl	usbd_ept_close
 589              	.LVL53:
 134:project/src/cdc_class.c **** 
 590              		.loc 1 134 3 view .LVU183
 591 0012 0121     		movs	r1, #1
 592 0014 2046     		mov	r0, r4
 593 0016 FFF7FEFF 		bl	usbd_ept_close
 594              	.LVL54:
 136:project/src/cdc_class.c **** }
 595              		.loc 1 136 3 view .LVU184
 137:project/src/cdc_class.c **** 
 596              		.loc 1 137 1 is_stmt 0 view .LVU185
 597 001a 0020     		movs	r0, #0
 598 001c 10BD     		pop	{r4, pc}
 137:project/src/cdc_class.c **** 
 599              		.loc 1 137 1 view .LVU186
 600              		.cfi_endproc
 601              	.LFE138:
 603              		.section	.text.class_init_handler,"ax",%progbits
 604              		.align	1
 605              		.syntax unified
 606              		.thumb
 607              		.thumb_func
 609              	class_init_handler:
 610              	.LVL55:
 611              	.LFB137:
  88:project/src/cdc_class.c ****   usb_sts_type status = USB_OK;
 612              		.loc 1 88 1 is_stmt 1 view -0
 613              		.cfi_startproc
 614              		@ args = 0, pretend = 0, frame = 0
 615              		@ frame_needed = 0, uses_anonymous_args = 0
  88:project/src/cdc_class.c ****   usb_sts_type status = USB_OK;
 616              		.loc 1 88 1 is_stmt 0 view .LVU188
 617 0000 38B5     		push	{r3, r4, r5, lr}
 618              	.LCFI4:
 619              		.cfi_def_cfa_offset 16
 620              		.cfi_offset 3, -16
 621              		.cfi_offset 4, -12
 622              		.cfi_offset 5, -8
 623              		.cfi_offset 14, -4
 624 0002 0446     		mov	r4, r0
  89:project/src/cdc_class.c ****   usbd_core_type *pudev = (usbd_core_type *)udev;
 625              		.loc 1 89 3 is_stmt 1 view .LVU189
 626              	.LVL56:
  90:project/src/cdc_class.c ****   cdc_struct_type *pcdc = (cdc_struct_type *)pudev->class_handler->pdata;
 627              		.loc 1 90 3 view .LVU190
  91:project/src/cdc_class.c **** 
 628              		.loc 1 91 3 view .LVU191
  91:project/src/cdc_class.c **** 
 629              		.loc 1 91 51 is_stmt 0 view .LVU192
 630 0004 4368     		ldr	r3, [r0, #4]
  91:project/src/cdc_class.c **** 
 631              		.loc 1 91 20 view .LVU193
 632 0006 5D6A     		ldr	r5, [r3, #36]
 633              	.LVL57:
 101:project/src/cdc_class.c **** 
ARM GAS  C:\Users\10963\AppData\Local\Temp\cc0PXrIj.s 			page 21


 634              		.loc 1 101 3 is_stmt 1 view .LVU194
 635 0008 0823     		movs	r3, #8
 636 000a 0322     		movs	r2, #3
 637 000c 8221     		movs	r1, #130
 638 000e FFF7FEFF 		bl	usbd_ept_open
 639              	.LVL58:
 104:project/src/cdc_class.c **** 
 640              		.loc 1 104 3 view .LVU195
 641 0012 4023     		movs	r3, #64
 642 0014 0222     		movs	r2, #2
 643 0016 8121     		movs	r1, #129
 644 0018 2046     		mov	r0, r4
 645 001a FFF7FEFF 		bl	usbd_ept_open
 646              	.LVL59:
 107:project/src/cdc_class.c **** 
 647              		.loc 1 107 3 view .LVU196
 648 001e 4023     		movs	r3, #64
 649 0020 0222     		movs	r2, #2
 650 0022 0121     		movs	r1, #1
 651 0024 2046     		mov	r0, r4
 652 0026 FFF7FEFF 		bl	usbd_ept_open
 653              	.LVL60:
 110:project/src/cdc_class.c **** 
 654              		.loc 1 110 3 view .LVU197
 655 002a 4023     		movs	r3, #64
 656 002c 2A1D     		adds	r2, r5, #4
 657 002e 0121     		movs	r1, #1
 658 0030 2046     		mov	r0, r4
 659 0032 FFF7FEFF 		bl	usbd_ept_recv
 660              	.LVL61:
 112:project/src/cdc_class.c **** 
 661              		.loc 1 112 3 view .LVU198
 662 0036 2846     		mov	r0, r5
 663 0038 FFF7FEFF 		bl	cdc_struct_init
 664              	.LVL62:
 114:project/src/cdc_class.c **** }
 665              		.loc 1 114 3 view .LVU199
 115:project/src/cdc_class.c **** 
 666              		.loc 1 115 1 is_stmt 0 view .LVU200
 667 003c 0020     		movs	r0, #0
 668 003e 38BD     		pop	{r3, r4, r5, pc}
 115:project/src/cdc_class.c **** 
 669              		.loc 1 115 1 view .LVU201
 670              		.cfi_endproc
 671              	.LFE137:
 673              		.section	.text.usb_vcp_get_rxdata,"ax",%progbits
 674              		.align	1
 675              		.global	usb_vcp_get_rxdata
 676              		.syntax unified
 677              		.thumb
 678              		.thumb_func
 680              	usb_vcp_get_rxdata:
 681              	.LVL63:
 682              	.LFB147:
 345:project/src/cdc_class.c ****   uint16_t i_index = 0;
 683              		.loc 1 345 1 is_stmt 1 view -0
 684              		.cfi_startproc
ARM GAS  C:\Users\10963\AppData\Local\Temp\cc0PXrIj.s 			page 22


 685              		@ args = 0, pretend = 0, frame = 0
 686              		@ frame_needed = 0, uses_anonymous_args = 0
 345:project/src/cdc_class.c ****   uint16_t i_index = 0;
 687              		.loc 1 345 1 is_stmt 0 view .LVU203
 688 0000 10B5     		push	{r4, lr}
 689              	.LCFI5:
 690              		.cfi_def_cfa_offset 8
 691              		.cfi_offset 4, -8
 692              		.cfi_offset 14, -4
 346:project/src/cdc_class.c ****   uint16_t tmp_len = 0;
 693              		.loc 1 346 3 is_stmt 1 view .LVU204
 694              	.LVL64:
 347:project/src/cdc_class.c ****   usbd_core_type *pudev = (usbd_core_type *)udev;
 695              		.loc 1 347 3 view .LVU205
 348:project/src/cdc_class.c ****   cdc_struct_type *pcdc = (cdc_struct_type *)pudev->class_handler->pdata;
 696              		.loc 1 348 3 view .LVU206
 349:project/src/cdc_class.c **** 
 697              		.loc 1 349 3 view .LVU207
 349:project/src/cdc_class.c **** 
 698              		.loc 1 349 51 is_stmt 0 view .LVU208
 699 0002 4368     		ldr	r3, [r0, #4]
 349:project/src/cdc_class.c **** 
 700              		.loc 1 349 20 view .LVU209
 701 0004 5A6A     		ldr	r2, [r3, #36]
 702              	.LVL65:
 351:project/src/cdc_class.c ****   {
 703              		.loc 1 351 3 is_stmt 1 view .LVU210
 351:project/src/cdc_class.c ****   {
 704              		.loc 1 351 10 is_stmt 0 view .LVU211
 705 0006 92F85330 		ldrb	r3, [r2, #83]	@ zero_extendqisi2
 351:project/src/cdc_class.c ****   {
 706              		.loc 1 351 5 view .LVU212
 707 000a C3B1     		cbz	r3, .L38
 355:project/src/cdc_class.c ****   tmp_len = pcdc->g_rxlen;
 708              		.loc 1 355 3 is_stmt 1 view .LVU213
 355:project/src/cdc_class.c ****   tmp_len = pcdc->g_rxlen;
 709              		.loc 1 355 24 is_stmt 0 view .LVU214
 710 000c 0023     		movs	r3, #0
 711 000e 82F85330 		strb	r3, [r2, #83]
 356:project/src/cdc_class.c ****   for(i_index = 0; i_index < pcdc->g_rxlen; i_index ++)
 712              		.loc 1 356 3 is_stmt 1 view .LVU215
 356:project/src/cdc_class.c ****   for(i_index = 0; i_index < pcdc->g_rxlen; i_index ++)
 713              		.loc 1 356 11 is_stmt 0 view .LVU216
 714 0012 B2F85040 		ldrh	r4, [r2, #80]
 715              	.LVL66:
 357:project/src/cdc_class.c ****   {
 716              		.loc 1 357 3 is_stmt 1 view .LVU217
 357:project/src/cdc_class.c ****   {
 717              		.loc 1 357 3 is_stmt 0 view .LVU218
 718 0016 07E0     		b	.L36
 719              	.LVL67:
 720              	.L37:
 359:project/src/cdc_class.c ****   }
 721              		.loc 1 359 5 is_stmt 1 view .LVU219
 359:project/src/cdc_class.c ****   }
 722              		.loc 1 359 41 is_stmt 0 view .LVU220
 723 0018 02EB030C 		add	ip, r2, r3
ARM GAS  C:\Users\10963\AppData\Local\Temp\cc0PXrIj.s 			page 23


 724 001c 9CF804C0 		ldrb	ip, [ip, #4]	@ zero_extendqisi2
 359:project/src/cdc_class.c ****   }
 725              		.loc 1 359 24 view .LVU221
 726 0020 01F803C0 		strb	ip, [r1, r3]
 357:project/src/cdc_class.c ****   {
 727              		.loc 1 357 53 is_stmt 1 discriminator 3 view .LVU222
 728 0024 0133     		adds	r3, r3, #1
 729              	.LVL68:
 357:project/src/cdc_class.c ****   {
 730              		.loc 1 357 53 is_stmt 0 discriminator 3 view .LVU223
 731 0026 9BB2     		uxth	r3, r3
 732              	.LVL69:
 733              	.L36:
 357:project/src/cdc_class.c ****   {
 734              		.loc 1 357 28 is_stmt 1 discriminator 1 view .LVU224
 357:project/src/cdc_class.c ****   {
 735              		.loc 1 357 34 is_stmt 0 discriminator 1 view .LVU225
 736 0028 B2F850C0 		ldrh	ip, [r2, #80]
 357:project/src/cdc_class.c ****   {
 737              		.loc 1 357 28 discriminator 1 view .LVU226
 738 002c 9C45     		cmp	ip, r3
 739 002e F3D8     		bhi	.L37
 362:project/src/cdc_class.c **** 
 740              		.loc 1 362 3 is_stmt 1 view .LVU227
 741 0030 4023     		movs	r3, #64
 742              	.LVL70:
 362:project/src/cdc_class.c **** 
 743              		.loc 1 362 3 is_stmt 0 view .LVU228
 744 0032 0432     		adds	r2, r2, #4
 745              	.LVL71:
 362:project/src/cdc_class.c **** 
 746              		.loc 1 362 3 view .LVU229
 747 0034 0121     		movs	r1, #1
 748              	.LVL72:
 362:project/src/cdc_class.c **** 
 749              		.loc 1 362 3 view .LVU230
 750 0036 FFF7FEFF 		bl	usbd_ept_recv
 751              	.LVL73:
 364:project/src/cdc_class.c **** }
 752              		.loc 1 364 3 is_stmt 1 view .LVU231
 753              	.L35:
 365:project/src/cdc_class.c **** 
 754              		.loc 1 365 1 is_stmt 0 view .LVU232
 755 003a 2046     		mov	r0, r4
 756 003c 10BD     		pop	{r4, pc}
 757              	.LVL74:
 758              	.L38:
 353:project/src/cdc_class.c ****   }
 759              		.loc 1 353 12 view .LVU233
 760 003e 1C46     		mov	r4, r3
 761 0040 FBE7     		b	.L35
 762              		.cfi_endproc
 763              	.LFE147:
 765              		.section	.text.usb_vcp_send_data,"ax",%progbits
 766              		.align	1
 767              		.global	usb_vcp_send_data
 768              		.syntax unified
ARM GAS  C:\Users\10963\AppData\Local\Temp\cc0PXrIj.s 			page 24


 769              		.thumb
 770              		.thumb_func
 772              	usb_vcp_send_data:
 773              	.LVL75:
 774              	.LFB148:
 375:project/src/cdc_class.c ****   error_status status = SUCCESS;
 775              		.loc 1 375 1 is_stmt 1 view -0
 776              		.cfi_startproc
 777              		@ args = 0, pretend = 0, frame = 0
 778              		@ frame_needed = 0, uses_anonymous_args = 0
 375:project/src/cdc_class.c ****   error_status status = SUCCESS;
 779              		.loc 1 375 1 is_stmt 0 view .LVU235
 780 0000 08B5     		push	{r3, lr}
 781              	.LCFI6:
 782              		.cfi_def_cfa_offset 8
 783              		.cfi_offset 3, -8
 784              		.cfi_offset 14, -4
 785 0002 8446     		mov	ip, r0
 376:project/src/cdc_class.c ****   usbd_core_type *pudev = (usbd_core_type *)udev;
 786              		.loc 1 376 3 is_stmt 1 view .LVU236
 787              	.LVL76:
 377:project/src/cdc_class.c ****   cdc_struct_type *pcdc = (cdc_struct_type *)pudev->class_handler->pdata;
 788              		.loc 1 377 3 view .LVU237
 378:project/src/cdc_class.c ****   if(pcdc->g_tx_completed)
 789              		.loc 1 378 3 view .LVU238
 378:project/src/cdc_class.c ****   if(pcdc->g_tx_completed)
 790              		.loc 1 378 51 is_stmt 0 view .LVU239
 791 0004 4368     		ldr	r3, [r0, #4]
 378:project/src/cdc_class.c ****   if(pcdc->g_tx_completed)
 792              		.loc 1 378 20 view .LVU240
 793 0006 D3F824E0 		ldr	lr, [r3, #36]
 794              	.LVL77:
 379:project/src/cdc_class.c ****   {
 795              		.loc 1 379 3 is_stmt 1 view .LVU241
 379:project/src/cdc_class.c ****   {
 796              		.loc 1 379 10 is_stmt 0 view .LVU242
 797 000a 9EF85230 		ldrb	r3, [lr, #82]	@ zero_extendqisi2
 379:project/src/cdc_class.c ****   {
 798              		.loc 1 379 5 view .LVU243
 799 000e 03F0FF00 		and	r0, r3, #255
 800              	.LVL78:
 379:project/src/cdc_class.c ****   {
 801              		.loc 1 379 5 view .LVU244
 802 0012 03B9     		cbnz	r3, .L43
 803              	.LVL79:
 804              	.L41:
 388:project/src/cdc_class.c **** }
 805              		.loc 1 388 3 is_stmt 1 view .LVU245
 389:project/src/cdc_class.c **** 
 806              		.loc 1 389 1 is_stmt 0 view .LVU246
 807 0014 08BD     		pop	{r3, pc}
 808              	.LVL80:
 809              	.L43:
 381:project/src/cdc_class.c ****     usbd_ept_send(pudev, USBD_CDC_BULK_IN_EPT, send_data, len);
 810              		.loc 1 381 5 is_stmt 1 view .LVU247
 381:project/src/cdc_class.c ****     usbd_ept_send(pudev, USBD_CDC_BULK_IN_EPT, send_data, len);
 811              		.loc 1 381 26 is_stmt 0 view .LVU248
ARM GAS  C:\Users\10963\AppData\Local\Temp\cc0PXrIj.s 			page 25


 812 0016 0023     		movs	r3, #0
 813 0018 8EF85230 		strb	r3, [lr, #82]
 382:project/src/cdc_class.c ****   }
 814              		.loc 1 382 5 is_stmt 1 view .LVU249
 815 001c 1346     		mov	r3, r2
 816 001e 0A46     		mov	r2, r1
 817              	.LVL81:
 382:project/src/cdc_class.c ****   }
 818              		.loc 1 382 5 is_stmt 0 view .LVU250
 819 0020 8121     		movs	r1, #129
 820              	.LVL82:
 382:project/src/cdc_class.c ****   }
 821              		.loc 1 382 5 view .LVU251
 822 0022 6046     		mov	r0, ip
 823 0024 FFF7FEFF 		bl	usbd_ept_send
 824              	.LVL83:
 376:project/src/cdc_class.c ****   usbd_core_type *pudev = (usbd_core_type *)udev;
 825              		.loc 1 376 16 view .LVU252
 826 0028 0120     		movs	r0, #1
 827 002a F3E7     		b	.L41
 828              		.cfi_endproc
 829              	.LFE148:
 831              		.global	cdc_class_handler
 832              		.section	.data.cdc_class_handler,"aw"
 833              		.align	2
 836              	cdc_class_handler:
 837 0000 00000000 		.word	class_init_handler
 838 0004 00000000 		.word	class_clear_handler
 839 0008 00000000 		.word	class_setup_handler
 840 000c 00000000 		.word	class_ept0_tx_handler
 841 0010 00000000 		.word	class_ept0_rx_handler
 842 0014 00000000 		.word	class_in_handler
 843 0018 00000000 		.word	class_out_handler
 844 001c 00000000 		.word	class_sof_handler
 845 0020 00000000 		.word	class_event_handler
 846 0024 00000000 		.word	cdc_struct
 847              		.global	cdc_struct
 848              		.section	.bss.cdc_struct,"aw",%nobits
 849              		.align	2
 852              	cdc_struct:
 853 0000 00000000 		.space	92
 853      00000000 
 853      00000000 
 853      00000000 
 853      00000000 
 854              		.global	linecoding
 855              		.section	.data.linecoding,"aw"
 856              		.align	2
 859              	linecoding:
 860 0000 00C20100 		.word	115200
 861 0004 00       		.byte	0
 862 0005 00       		.byte	0
 863 0006 08       		.byte	8
 864 0007 00       		.space	1
 865              		.text
 866              	.Letext0:
 867              		.file 2 "C:/Program Files (x86)/Arm/GNU Toolchain mingw-w64-i686-arm-none-eabi/arm-none-eabi/inclu
ARM GAS  C:\Users\10963\AppData\Local\Temp\cc0PXrIj.s 			page 26


 868              		.file 3 "C:/Program Files (x86)/Arm/GNU Toolchain mingw-w64-i686-arm-none-eabi/arm-none-eabi/inclu
 869              		.file 4 "libraries/cmsis/cm4/device_support/at32f403a_407.h"
 870              		.file 5 "libraries/drivers/inc/at32f403a_407_tmr.h"
 871              		.file 6 "libraries/drivers/inc/at32f403a_407_usb.h"
 872              		.file 7 "middlewares/usbd_drivers/inc/usb_std.h"
 873              		.file 8 "middlewares/usbd_drivers/inc/usbd_core.h"
 874              		.file 9 "project/inc/cdc_class.h"
ARM GAS  C:\Users\10963\AppData\Local\Temp\cc0PXrIj.s 			page 27

