ARM GAS  C:\Users\10963\AppData\Local\Temp\ccWrPHre.s 			page 1


   1              		.cpu cortex-m4
   2              		.arch armv7e-m
   3              		.fpu fpv4-sp-d16
   4              		.eabi_attribute 27, 1
   5              		.eabi_attribute 28, 1
   6              		.eabi_attribute 20, 1
   7              		.eabi_attribute 21, 1
   8              		.eabi_attribute 23, 3
   9              		.eabi_attribute 24, 1
  10              		.eabi_attribute 25, 1
  11              		.eabi_attribute 26, 1
  12              		.eabi_attribute 30, 1
  13              		.eabi_attribute 34, 1
  14              		.eabi_attribute 18, 4
  15              		.file	"cdc_desc.c"
  16              		.text
  17              	.Ltext0:
  18              		.cfi_sections	.debug_frame
  19              		.file 1 "project/src/cdc_desc.c"
  20              		.section	.text.usbd_unicode_convert,"ax",%progbits
  21              		.align	1
  22              		.syntax unified
  23              		.thumb
  24              		.thumb_func
  26              	usbd_unicode_convert:
  27              	.LVL0:
  28              	.LFB137:
   1:project/src/cdc_desc.c **** /**
   2:project/src/cdc_desc.c ****   **************************************************************************
   3:project/src/cdc_desc.c ****   * @file     cdc_desc.c
   4:project/src/cdc_desc.c ****   * @brief    usb cdc device descriptor
   5:project/src/cdc_desc.c ****   **************************************************************************
   6:project/src/cdc_desc.c ****   *
   7:project/src/cdc_desc.c ****   * Copyright (c) 2025, Artery Technology, All rights reserved.
   8:project/src/cdc_desc.c ****   *
   9:project/src/cdc_desc.c ****   * The software Board Support Package (BSP) that is made available to
  10:project/src/cdc_desc.c ****   * download from Artery official website is the copyrighted work of Artery.
  11:project/src/cdc_desc.c ****   * Artery authorizes customers to use, copy, and distribute the BSP
  12:project/src/cdc_desc.c ****   * software and its related documentation for the purpose of design and
  13:project/src/cdc_desc.c ****   * development in conjunction with Artery microcontrollers. Use of the
  14:project/src/cdc_desc.c ****   * software is governed by this copyright notice and the following disclaimer.
  15:project/src/cdc_desc.c ****   *
  16:project/src/cdc_desc.c ****   * THIS SOFTWARE IS PROVIDED ON "AS IS" BASIS WITHOUT WARRANTIES,
  17:project/src/cdc_desc.c ****   * GUARANTEES OR REPRESENTATIONS OF ANY KIND. ARTERY EXPRESSLY DISCLAIMS,
  18:project/src/cdc_desc.c ****   * TO THE FULLEST EXTENT PERMITTED BY LAW, ALL EXPRESS, IMPLIED OR
  19:project/src/cdc_desc.c ****   * STATUTORY OR OTHER WARRANTIES, GUARANTEES OR REPRESENTATIONS,
  20:project/src/cdc_desc.c ****   * INCLUDING BUT NOT LIMITED TO, THE IMPLIED WARRANTIES OF MERCHANTABILITY,
  21:project/src/cdc_desc.c ****   * FITNESS FOR A PARTICULAR PURPOSE, OR NON-INFRINGEMENT.
  22:project/src/cdc_desc.c ****   *
  23:project/src/cdc_desc.c ****   **************************************************************************
  24:project/src/cdc_desc.c ****   */
  25:project/src/cdc_desc.c **** #include "usb_std.h"
  26:project/src/cdc_desc.c **** #include "usbd_sdr.h"
  27:project/src/cdc_desc.c **** #include "usbd_core.h"
  28:project/src/cdc_desc.c **** #include "cdc_desc.h"
  29:project/src/cdc_desc.c **** 
  30:project/src/cdc_desc.c **** /** @addtogroup AT32F403A_407_middlewares_usbd_class
ARM GAS  C:\Users\10963\AppData\Local\Temp\ccWrPHre.s 			page 2


  31:project/src/cdc_desc.c ****   * @{
  32:project/src/cdc_desc.c ****   */
  33:project/src/cdc_desc.c **** 
  34:project/src/cdc_desc.c **** /** @defgroup USB_cdc_desc
  35:project/src/cdc_desc.c ****   * @brief usb device cdc descriptor
  36:project/src/cdc_desc.c ****   * @{
  37:project/src/cdc_desc.c ****   */
  38:project/src/cdc_desc.c **** 
  39:project/src/cdc_desc.c **** /** @defgroup USB_cdc_desc_private_functions
  40:project/src/cdc_desc.c ****   * @{
  41:project/src/cdc_desc.c ****   */
  42:project/src/cdc_desc.c **** 
  43:project/src/cdc_desc.c **** static usbd_desc_t *get_device_descriptor(void);
  44:project/src/cdc_desc.c **** static usbd_desc_t *get_device_qualifier(void);
  45:project/src/cdc_desc.c **** static usbd_desc_t *get_device_configuration(void);
  46:project/src/cdc_desc.c **** static usbd_desc_t *get_device_other_speed(void);
  47:project/src/cdc_desc.c **** static usbd_desc_t *get_device_lang_id(void);
  48:project/src/cdc_desc.c **** static usbd_desc_t *get_device_manufacturer_string(void);
  49:project/src/cdc_desc.c **** static usbd_desc_t *get_device_product_string(void);
  50:project/src/cdc_desc.c **** static usbd_desc_t *get_device_serial_string(void);
  51:project/src/cdc_desc.c **** static usbd_desc_t *get_device_interface_string(void);
  52:project/src/cdc_desc.c **** static usbd_desc_t *get_device_config_string(void);
  53:project/src/cdc_desc.c **** 
  54:project/src/cdc_desc.c **** static uint16_t usbd_unicode_convert(uint8_t *string, uint8_t *unicode_buf);
  55:project/src/cdc_desc.c **** static void usbd_int_to_unicode (uint32_t value , uint8_t *pbuf , uint8_t len);
  56:project/src/cdc_desc.c **** static void get_serial_num(void);
  57:project/src/cdc_desc.c **** #if defined ( __ICCARM__ ) /* iar compiler */
  58:project/src/cdc_desc.c ****   #pragma data_alignment=4
  59:project/src/cdc_desc.c **** #endif
  60:project/src/cdc_desc.c **** ALIGNED_HEAD static uint8_t g_usbd_desc_buffer[256] ALIGNED_TAIL;
  61:project/src/cdc_desc.c **** 
  62:project/src/cdc_desc.c **** /**
  63:project/src/cdc_desc.c ****   * @brief device descriptor handler structure
  64:project/src/cdc_desc.c ****   */
  65:project/src/cdc_desc.c **** usbd_desc_handler cdc_desc_handler =
  66:project/src/cdc_desc.c **** {
  67:project/src/cdc_desc.c ****   get_device_descriptor,
  68:project/src/cdc_desc.c ****   get_device_qualifier,
  69:project/src/cdc_desc.c ****   get_device_configuration,
  70:project/src/cdc_desc.c ****   get_device_other_speed,
  71:project/src/cdc_desc.c ****   get_device_lang_id,
  72:project/src/cdc_desc.c ****   get_device_manufacturer_string,
  73:project/src/cdc_desc.c ****   get_device_product_string,
  74:project/src/cdc_desc.c ****   get_device_serial_string,
  75:project/src/cdc_desc.c ****   get_device_interface_string,
  76:project/src/cdc_desc.c ****   get_device_config_string,
  77:project/src/cdc_desc.c **** };
  78:project/src/cdc_desc.c **** 
  79:project/src/cdc_desc.c **** /**
  80:project/src/cdc_desc.c ****   * @brief usb device standard descriptor
  81:project/src/cdc_desc.c ****   */
  82:project/src/cdc_desc.c **** #if defined ( __ICCARM__ ) /* iar compiler */
  83:project/src/cdc_desc.c ****   #pragma data_alignment=4
  84:project/src/cdc_desc.c **** #endif
  85:project/src/cdc_desc.c **** ALIGNED_HEAD static uint8_t g_usbd_descriptor[USB_DEVICE_DESC_LEN] ALIGNED_TAIL =
  86:project/src/cdc_desc.c **** {
  87:project/src/cdc_desc.c ****   USB_DEVICE_DESC_LEN,                   /* bLength */
ARM GAS  C:\Users\10963\AppData\Local\Temp\ccWrPHre.s 			page 3


  88:project/src/cdc_desc.c ****   USB_DESCIPTOR_TYPE_DEVICE,             /* bDescriptorType */
  89:project/src/cdc_desc.c ****   0x00,                                  /* bcdUSB */
  90:project/src/cdc_desc.c ****   0x02,
  91:project/src/cdc_desc.c ****   0x02,                                  /* bDeviceClass */
  92:project/src/cdc_desc.c ****   0x00,                                  /* bDeviceSubClass */
  93:project/src/cdc_desc.c ****   0x00,                                  /* bDeviceProtocol */
  94:project/src/cdc_desc.c ****   USB_MAX_EP0_SIZE,                      /* bMaxPacketSize */
  95:project/src/cdc_desc.c ****   LBYTE(USBD_CDC_VENDOR_ID),             /* idVendor */
  96:project/src/cdc_desc.c ****   HBYTE(USBD_CDC_VENDOR_ID),             /* idVendor */
  97:project/src/cdc_desc.c ****   LBYTE(USBD_CDC_PRODUCT_ID),            /* idProduct */
  98:project/src/cdc_desc.c ****   HBYTE(USBD_CDC_PRODUCT_ID),            /* idProduct */
  99:project/src/cdc_desc.c ****   0x00,                                  /* bcdDevice rel. 2.00 */
 100:project/src/cdc_desc.c ****   0x02,
 101:project/src/cdc_desc.c ****   USB_MFC_STRING,                        /* Index of manufacturer string */
 102:project/src/cdc_desc.c ****   USB_PRODUCT_STRING,                    /* Index of product string */
 103:project/src/cdc_desc.c ****   USB_SERIAL_STRING,                     /* Index of serial number string */
 104:project/src/cdc_desc.c ****   1                                      /* bNumConfigurations */
 105:project/src/cdc_desc.c **** };
 106:project/src/cdc_desc.c **** 
 107:project/src/cdc_desc.c **** /**
 108:project/src/cdc_desc.c ****   * @brief usb configuration standard descriptor
 109:project/src/cdc_desc.c ****   */
 110:project/src/cdc_desc.c **** #if defined ( __ICCARM__ ) /* iar compiler */
 111:project/src/cdc_desc.c ****   #pragma data_alignment=4
 112:project/src/cdc_desc.c **** #endif
 113:project/src/cdc_desc.c **** ALIGNED_HEAD static uint8_t g_usbd_configuration[USBD_CDC_CONFIG_DESC_SIZE] ALIGNED_TAIL =
 114:project/src/cdc_desc.c **** {
 115:project/src/cdc_desc.c ****   USB_DEVICE_CFG_DESC_LEN,               /* bLength: configuration descriptor size */
 116:project/src/cdc_desc.c ****   USB_DESCIPTOR_TYPE_CONFIGURATION,      /* bDescriptorType: configuration */
 117:project/src/cdc_desc.c ****   LBYTE(USBD_CDC_CONFIG_DESC_SIZE),          /* wTotalLength: bytes returned */
 118:project/src/cdc_desc.c ****   HBYTE(USBD_CDC_CONFIG_DESC_SIZE),          /* wTotalLength: bytes returned */
 119:project/src/cdc_desc.c ****   0x02,                                  /* bNumInterfaces: 2 interface */
 120:project/src/cdc_desc.c ****   0x01,                                  /* bConfigurationValue: configuration value */
 121:project/src/cdc_desc.c ****   0x00,                                  /* iConfiguration: index of string descriptor describing
 122:project/src/cdc_desc.c ****                                             the configuration */
 123:project/src/cdc_desc.c ****   0xC0,                                  /* bmAttributes: self powered */
 124:project/src/cdc_desc.c ****   0x32,                                  /* MaxPower 100 mA: this current is used for detecting vbu
 125:project/src/cdc_desc.c **** 
 126:project/src/cdc_desc.c ****   USB_DEVICE_IF_DESC_LEN,                /* bLength: interface descriptor size */
 127:project/src/cdc_desc.c ****   USB_DESCIPTOR_TYPE_INTERFACE,          /* bDescriptorType: interface descriptor type */
 128:project/src/cdc_desc.c ****   0x00,                                  /* bInterfaceNumber: number of interface */
 129:project/src/cdc_desc.c ****   0x00,                                  /* bAlternateSetting: alternate set */
 130:project/src/cdc_desc.c ****   0x01,                                  /* bNumEndpoints: number of endpoints */
 131:project/src/cdc_desc.c ****   USB_CLASS_CODE_CDC,                    /* bInterfaceClass: CDC class code */
 132:project/src/cdc_desc.c ****   0x02,                                  /* bInterfaceSubClass: subclass code, Abstract Control Mod
 133:project/src/cdc_desc.c ****   0x01,                                  /* bInterfaceProtocol: protocol code, AT Command */
 134:project/src/cdc_desc.c ****   0x00,                                  /* iInterface: index of string descriptor */
 135:project/src/cdc_desc.c **** 
 136:project/src/cdc_desc.c ****   0x05,                                  /* bFunctionLength: size of this descriptor in bytes */
 137:project/src/cdc_desc.c ****   USBD_CDC_CS_INTERFACE,                 /* bDescriptorType: CDC interface descriptor type */
 138:project/src/cdc_desc.c ****   USBD_CDC_SUBTYPE_HEADER,               /* bDescriptorSubtype: Header function Descriptor 0x00*/
 139:project/src/cdc_desc.c ****   LBYTE(CDC_BCD_NUM),
 140:project/src/cdc_desc.c ****   HBYTE(CDC_BCD_NUM),                    /* bcdCDC: USB class definitions for communications */
 141:project/src/cdc_desc.c **** 
 142:project/src/cdc_desc.c ****   0x05,                                  /* bFunctionLength: size of this descriptor in bytes */
 143:project/src/cdc_desc.c ****   USBD_CDC_CS_INTERFACE,                 /* bDescriptorType: CDC interface descriptor type */
 144:project/src/cdc_desc.c ****   USBD_CDC_SUBTYPE_CMF,                  /* bDescriptorSubtype: Call Management function descriptor
ARM GAS  C:\Users\10963\AppData\Local\Temp\ccWrPHre.s 			page 4


 145:project/src/cdc_desc.c ****   0x00,                                  /* bmCapabilities: 0x00*/
 146:project/src/cdc_desc.c ****   0x01,                                  /* bDataInterface: interface number of data class interfac
 147:project/src/cdc_desc.c **** 
 148:project/src/cdc_desc.c ****   0x04,                                  /* bFunctionLength: size of this descriptor in bytes */
 149:project/src/cdc_desc.c ****   USBD_CDC_CS_INTERFACE,                 /* bDescriptorType: CDC interface descriptor type */
 150:project/src/cdc_desc.c ****   USBD_CDC_SUBTYPE_ACM,                  /* bDescriptorSubtype: Abstract Control Management functio
 151:project/src/cdc_desc.c ****   0x02,                                  /* bmCapabilities: Support Set_Line_Coding and Get_Line_Co
 152:project/src/cdc_desc.c **** 
 153:project/src/cdc_desc.c ****   0x05,                                  /* bFunctionLength: size of this descriptor in bytes */
 154:project/src/cdc_desc.c ****   USBD_CDC_CS_INTERFACE,                 /* bDescriptorType: CDC interface descriptor type */
 155:project/src/cdc_desc.c ****   USBD_CDC_SUBTYPE_UFD,                  /* bDescriptorSubtype: Union Function Descriptor subtype 0
 156:project/src/cdc_desc.c ****   0x00,                                  /* bControlInterface: The interface number of the communic
 157:project/src/cdc_desc.c ****   0x01,                                  /* bSubordinateInterface0: interface number of first subor
 158:project/src/cdc_desc.c **** 
 159:project/src/cdc_desc.c ****   USB_DEVICE_EPT_LEN,                    /* bLength: size of endpoint descriptor in bytes */
 160:project/src/cdc_desc.c ****   USB_DESCIPTOR_TYPE_ENDPOINT,           /* bDescriptorType: endpoint descriptor type */
 161:project/src/cdc_desc.c ****   USBD_CDC_INT_EPT,                       /* bEndpointAddress: the address of endpoint on usb devic
 162:project/src/cdc_desc.c ****   USB_EPT_DESC_INTERRUPT,                /* bmAttributes: endpoint attributes */
 163:project/src/cdc_desc.c ****   LBYTE(USBD_CDC_CMD_MAXPACKET_SIZE),
 164:project/src/cdc_desc.c ****   HBYTE(USBD_CDC_CMD_MAXPACKET_SIZE),    /* wMaxPacketSize: maximum packe size this endpoint */
 165:project/src/cdc_desc.c ****   CDC_HID_BINTERVAL_TIME,                    /* bInterval: interval for polling endpoint for data t
 166:project/src/cdc_desc.c **** 
 167:project/src/cdc_desc.c **** 
 168:project/src/cdc_desc.c ****   USB_DEVICE_IF_DESC_LEN,                /* bLength: interface descriptor size */
 169:project/src/cdc_desc.c ****   USB_DESCIPTOR_TYPE_INTERFACE,          /* bDescriptorType: interface descriptor type */
 170:project/src/cdc_desc.c ****   0x01,                                  /* bInterfaceNumber: number of interface */
 171:project/src/cdc_desc.c ****   0x00,                                  /* bAlternateSetting: alternate set */
 172:project/src/cdc_desc.c ****   0x02,                                  /* bNumEndpoints: number of endpoints */
 173:project/src/cdc_desc.c ****   USB_CLASS_CODE_CDCDATA,                /* bInterfaceClass: CDC-data class code */
 174:project/src/cdc_desc.c ****   0x00,                                  /* bInterfaceSubClass: Data interface subclass code 0x00*/
 175:project/src/cdc_desc.c ****   0x00,                                  /* bInterfaceProtocol: data class protocol code 0x00 */
 176:project/src/cdc_desc.c ****   0x00,                                  /* iInterface: index of string descriptor */
 177:project/src/cdc_desc.c **** 
 178:project/src/cdc_desc.c ****   USB_DEVICE_EPT_LEN,                    /* bLength: size of endpoint descriptor in bytes */
 179:project/src/cdc_desc.c ****   USB_DESCIPTOR_TYPE_ENDPOINT,           /* bDescriptorType: endpoint descriptor type */
 180:project/src/cdc_desc.c ****   USBD_CDC_BULK_IN_EPT,                  /* bEndpointAddress: the address of endpoint on usb device
 181:project/src/cdc_desc.c ****   USB_EPT_DESC_BULK,                     /* bmAttributes: endpoint attributes */
 182:project/src/cdc_desc.c ****   LBYTE(USBD_CDC_IN_MAXPACKET_SIZE),
 183:project/src/cdc_desc.c ****   HBYTE(USBD_CDC_IN_MAXPACKET_SIZE),         /* wMaxPacketSize: maximum packe size this endpoint */
 184:project/src/cdc_desc.c ****   0x00,                                  /* bInterval: interval for polling endpoint for data trans
 185:project/src/cdc_desc.c **** 
 186:project/src/cdc_desc.c ****   USB_DEVICE_EPT_LEN,                    /* bLength: size of endpoint descriptor in bytes */
 187:project/src/cdc_desc.c ****   USB_DESCIPTOR_TYPE_ENDPOINT,           /* bDescriptorType: endpoint descriptor type */
 188:project/src/cdc_desc.c ****   USBD_CDC_BULK_OUT_EPT,                 /* bEndpointAddress: the address of endpoint on usb device
 189:project/src/cdc_desc.c ****   USB_EPT_DESC_BULK,                     /* bmAttributes: endpoint attributes */
 190:project/src/cdc_desc.c ****   LBYTE(USBD_CDC_OUT_MAXPACKET_SIZE),
 191:project/src/cdc_desc.c ****   HBYTE(USBD_CDC_OUT_MAXPACKET_SIZE),        /* wMaxPacketSize: maximum packe size this endpoint */
 192:project/src/cdc_desc.c ****   0x00,                                  /* bInterval: interval for polling endpoint for data trans
 193:project/src/cdc_desc.c **** };
 194:project/src/cdc_desc.c **** 
 195:project/src/cdc_desc.c **** /**
 196:project/src/cdc_desc.c ****   * @brief usb string lang id
 197:project/src/cdc_desc.c ****   */
 198:project/src/cdc_desc.c **** #if defined ( __ICCARM__ ) /* iar compiler */
 199:project/src/cdc_desc.c ****   #pragma data_alignment=4
 200:project/src/cdc_desc.c **** #endif
 201:project/src/cdc_desc.c **** ALIGNED_HEAD static uint8_t g_string_lang_id[USBD_CDC_SIZ_STRING_LANGID] ALIGNED_TAIL =
ARM GAS  C:\Users\10963\AppData\Local\Temp\ccWrPHre.s 			page 5


 202:project/src/cdc_desc.c **** {
 203:project/src/cdc_desc.c ****   USBD_CDC_SIZ_STRING_LANGID,
 204:project/src/cdc_desc.c ****   USB_DESCIPTOR_TYPE_STRING,
 205:project/src/cdc_desc.c ****   0x09,
 206:project/src/cdc_desc.c ****   0x04,
 207:project/src/cdc_desc.c **** };
 208:project/src/cdc_desc.c **** 
 209:project/src/cdc_desc.c **** /**
 210:project/src/cdc_desc.c ****   * @brief usb string serial
 211:project/src/cdc_desc.c ****   */
 212:project/src/cdc_desc.c **** #if defined ( __ICCARM__ ) /* iar compiler */
 213:project/src/cdc_desc.c ****   #pragma data_alignment=4
 214:project/src/cdc_desc.c **** #endif
 215:project/src/cdc_desc.c **** ALIGNED_HEAD static uint8_t g_string_serial[USBD_CDC_SIZ_STRING_SERIAL] ALIGNED_TAIL =
 216:project/src/cdc_desc.c **** {
 217:project/src/cdc_desc.c ****   USBD_CDC_SIZ_STRING_SERIAL,
 218:project/src/cdc_desc.c ****   USB_DESCIPTOR_TYPE_STRING,
 219:project/src/cdc_desc.c **** };
 220:project/src/cdc_desc.c **** 
 221:project/src/cdc_desc.c **** 
 222:project/src/cdc_desc.c **** /* device descriptor */
 223:project/src/cdc_desc.c **** static usbd_desc_t device_descriptor =
 224:project/src/cdc_desc.c **** {
 225:project/src/cdc_desc.c ****   USB_DEVICE_DESC_LEN,
 226:project/src/cdc_desc.c ****   g_usbd_descriptor
 227:project/src/cdc_desc.c **** };
 228:project/src/cdc_desc.c **** 
 229:project/src/cdc_desc.c **** /* config descriptor */
 230:project/src/cdc_desc.c **** static usbd_desc_t config_descriptor =
 231:project/src/cdc_desc.c **** {
 232:project/src/cdc_desc.c ****   USBD_CDC_CONFIG_DESC_SIZE,
 233:project/src/cdc_desc.c ****   g_usbd_configuration
 234:project/src/cdc_desc.c **** };
 235:project/src/cdc_desc.c **** 
 236:project/src/cdc_desc.c **** /* langid descriptor */
 237:project/src/cdc_desc.c **** static usbd_desc_t langid_descriptor =
 238:project/src/cdc_desc.c **** {
 239:project/src/cdc_desc.c ****   USBD_CDC_SIZ_STRING_LANGID,
 240:project/src/cdc_desc.c ****   g_string_lang_id
 241:project/src/cdc_desc.c **** };
 242:project/src/cdc_desc.c **** 
 243:project/src/cdc_desc.c **** /* serial descriptor */
 244:project/src/cdc_desc.c **** static usbd_desc_t serial_descriptor =
 245:project/src/cdc_desc.c **** {
 246:project/src/cdc_desc.c ****   USBD_CDC_SIZ_STRING_SERIAL,
 247:project/src/cdc_desc.c ****   g_string_serial
 248:project/src/cdc_desc.c **** };
 249:project/src/cdc_desc.c **** 
 250:project/src/cdc_desc.c **** static usbd_desc_t vp_desc;
 251:project/src/cdc_desc.c **** 
 252:project/src/cdc_desc.c **** /**
 253:project/src/cdc_desc.c ****   * @brief  standard usb unicode convert
 254:project/src/cdc_desc.c ****   * @param  string: source string
 255:project/src/cdc_desc.c ****   * @param  unicode_buf: unicode buffer
 256:project/src/cdc_desc.c ****   * @retval length
 257:project/src/cdc_desc.c ****   */
 258:project/src/cdc_desc.c **** static uint16_t usbd_unicode_convert(uint8_t *string, uint8_t *unicode_buf)
ARM GAS  C:\Users\10963\AppData\Local\Temp\ccWrPHre.s 			page 6


 259:project/src/cdc_desc.c **** {
  29              		.loc 1 259 1 view -0
  30              		.cfi_startproc
  31              		@ args = 0, pretend = 0, frame = 0
  32              		@ frame_needed = 0, uses_anonymous_args = 0
  33              		.loc 1 259 1 is_stmt 0 view .LVU1
  34 0000 00B5     		push	{lr}
  35              	.LCFI0:
  36              		.cfi_def_cfa_offset 4
  37              		.cfi_offset 14, -4
  38 0002 8E46     		mov	lr, r1
 260:project/src/cdc_desc.c ****   uint16_t str_len = 0, id_pos = 2;
  39              		.loc 1 260 3 is_stmt 1 view .LVU2
  40              	.LVL1:
 261:project/src/cdc_desc.c ****   uint8_t *tmp_str = string;
  41              		.loc 1 261 3 view .LVU3
 262:project/src/cdc_desc.c **** 
 263:project/src/cdc_desc.c ****   while(*tmp_str != '\0')
  42              		.loc 1 263 3 view .LVU4
 260:project/src/cdc_desc.c ****   uint8_t *tmp_str = string;
  43              		.loc 1 260 25 is_stmt 0 view .LVU5
  44 0004 0223     		movs	r3, #2
 260:project/src/cdc_desc.c ****   uint8_t *tmp_str = string;
  45              		.loc 1 260 12 view .LVU6
  46 0006 0022     		movs	r2, #0
  47              		.loc 1 263 8 view .LVU7
  48 0008 0DE0     		b	.L2
  49              	.LVL2:
  50              	.L3:
 264:project/src/cdc_desc.c ****   {
 265:project/src/cdc_desc.c ****     str_len ++;
  51              		.loc 1 265 5 is_stmt 1 view .LVU8
  52              		.loc 1 265 13 is_stmt 0 view .LVU9
  53 000a 0132     		adds	r2, r2, #1
  54              	.LVL3:
  55              		.loc 1 265 13 view .LVU10
  56 000c 92B2     		uxth	r2, r2
  57              	.LVL4:
 266:project/src/cdc_desc.c ****     unicode_buf[id_pos ++] = *tmp_str ++;
  58              		.loc 1 266 5 is_stmt 1 view .LVU11
  59              		.loc 1 266 39 is_stmt 0 view .LVU12
  60 000e 0130     		adds	r0, r0, #1
  61              	.LVL5:
  62              		.loc 1 266 24 view .LVU13
  63 0010 03F1010C 		add	ip, r3, #1
  64 0014 1FFA8CFC 		uxth	ip, ip
  65              	.LVL6:
  66              		.loc 1 266 28 view .LVU14
  67 0018 0EF80310 		strb	r1, [lr, r3]
 267:project/src/cdc_desc.c ****     unicode_buf[id_pos ++] = 0x00;
  68              		.loc 1 267 5 is_stmt 1 view .LVU15
  69              		.loc 1 267 24 is_stmt 0 view .LVU16
  70 001c 0233     		adds	r3, r3, #2
  71 001e 9BB2     		uxth	r3, r3
  72              	.LVL7:
  73              		.loc 1 267 28 view .LVU17
  74 0020 0021     		movs	r1, #0
ARM GAS  C:\Users\10963\AppData\Local\Temp\ccWrPHre.s 			page 7


  75 0022 0EF80C10 		strb	r1, [lr, ip]
  76              	.LVL8:
  77              	.L2:
 263:project/src/cdc_desc.c ****   {
  78              		.loc 1 263 18 is_stmt 1 view .LVU18
 263:project/src/cdc_desc.c ****   {
  79              		.loc 1 263 9 is_stmt 0 view .LVU19
  80 0026 0178     		ldrb	r1, [r0]	@ zero_extendqisi2
 263:project/src/cdc_desc.c ****   {
  81              		.loc 1 263 18 view .LVU20
  82 0028 0029     		cmp	r1, #0
  83 002a EED1     		bne	.L3
 268:project/src/cdc_desc.c ****   }
 269:project/src/cdc_desc.c **** 
 270:project/src/cdc_desc.c ****   str_len = str_len * 2 + 2;
  84              		.loc 1 270 3 is_stmt 1 view .LVU21
  85              		.loc 1 270 11 is_stmt 0 view .LVU22
  86 002c 0132     		adds	r2, r2, #1
  87              	.LVL9:
  88              		.loc 1 270 11 view .LVU23
  89 002e 92B2     		uxth	r2, r2
  90              	.LVL10:
  91              		.loc 1 270 11 view .LVU24
  92 0030 5200     		lsls	r2, r2, #1
  93 0032 90B2     		uxth	r0, r2
  94              	.LVL11:
 271:project/src/cdc_desc.c ****   unicode_buf[0] = (uint8_t)str_len;
  95              		.loc 1 271 3 is_stmt 1 view .LVU25
  96              		.loc 1 271 18 is_stmt 0 view .LVU26
  97 0034 8EF80020 		strb	r2, [lr]
 272:project/src/cdc_desc.c ****   unicode_buf[1] = USB_DESCIPTOR_TYPE_STRING;
  98              		.loc 1 272 3 is_stmt 1 view .LVU27
  99              		.loc 1 272 18 is_stmt 0 view .LVU28
 100 0038 0323     		movs	r3, #3
 101              	.LVL12:
 102              		.loc 1 272 18 view .LVU29
 103 003a 8EF80130 		strb	r3, [lr, #1]
 273:project/src/cdc_desc.c **** 
 274:project/src/cdc_desc.c ****   return str_len;
 104              		.loc 1 274 3 is_stmt 1 view .LVU30
 275:project/src/cdc_desc.c **** }
 105              		.loc 1 275 1 is_stmt 0 view .LVU31
 106 003e 00BD     		pop	{pc}
 107              		.cfi_endproc
 108              	.LFE137:
 110              		.section	.text.usbd_int_to_unicode,"ax",%progbits
 111              		.align	1
 112              		.syntax unified
 113              		.thumb
 114              		.thumb_func
 116              	usbd_int_to_unicode:
 117              	.LVL13:
 118              	.LFB138:
 276:project/src/cdc_desc.c **** 
 277:project/src/cdc_desc.c **** /**
 278:project/src/cdc_desc.c ****   * @brief  usb int convert to unicode
 279:project/src/cdc_desc.c ****   * @param  value: int value
ARM GAS  C:\Users\10963\AppData\Local\Temp\ccWrPHre.s 			page 8


 280:project/src/cdc_desc.c ****   * @param  pbus: unicode buffer
 281:project/src/cdc_desc.c ****   * @param  len: length
 282:project/src/cdc_desc.c ****   * @retval none
 283:project/src/cdc_desc.c ****   */
 284:project/src/cdc_desc.c **** static void usbd_int_to_unicode (uint32_t value , uint8_t *pbuf , uint8_t len)
 285:project/src/cdc_desc.c **** {
 119              		.loc 1 285 1 is_stmt 1 view -0
 120              		.cfi_startproc
 121              		@ args = 0, pretend = 0, frame = 0
 122              		@ frame_needed = 0, uses_anonymous_args = 0
 286:project/src/cdc_desc.c ****   uint8_t idx = 0;
 123              		.loc 1 286 3 view .LVU33
 287:project/src/cdc_desc.c **** 
 288:project/src/cdc_desc.c ****   for( idx = 0 ; idx < len ; idx ++)
 124              		.loc 1 288 3 view .LVU34
 125              		.loc 1 288 12 is_stmt 0 view .LVU35
 126 0000 0023     		movs	r3, #0
 127              	.LVL14:
 128              		.loc 1 288 22 is_stmt 1 discriminator 1 view .LVU36
 129 0002 9342     		cmp	r3, r2
 130 0004 1DD2     		bcs	.L13
 285:project/src/cdc_desc.c ****   uint8_t idx = 0;
 131              		.loc 1 285 1 is_stmt 0 view .LVU37
 132 0006 00B5     		push	{lr}
 133              	.LCFI1:
 134              		.cfi_def_cfa_offset 4
 135              		.cfi_offset 14, -4
 136 0008 10E0     		b	.L9
 137              	.L7:
 289:project/src/cdc_desc.c ****   {
 290:project/src/cdc_desc.c ****     if( ((value >> 28)) < 0xA )
 291:project/src/cdc_desc.c ****     {
 292:project/src/cdc_desc.c ****       pbuf[ 2 * idx] = (value >> 28) + '0';
 293:project/src/cdc_desc.c ****   }
 294:project/src/cdc_desc.c ****   else
 295:project/src/cdc_desc.c ****   {
 296:project/src/cdc_desc.c ****       pbuf[2 * idx] = (value >> 28) + 'A' - 10;
 138              		.loc 1 296 7 is_stmt 1 view .LVU38
 139              		.loc 1 296 43 is_stmt 0 view .LVU39
 140 000a 0CF1370C 		add	ip, ip, #55
 141              		.loc 1 296 21 view .LVU40
 142 000e 01F813C0 		strb	ip, [r1, r3, lsl #1]
 143              	.L8:
 297:project/src/cdc_desc.c ****     }
 298:project/src/cdc_desc.c **** 
 299:project/src/cdc_desc.c ****     value = value << 4;
 144              		.loc 1 299 5 is_stmt 1 view .LVU41
 145              		.loc 1 299 11 is_stmt 0 view .LVU42
 146 0012 0001     		lsls	r0, r0, #4
 147              	.LVL15:
 300:project/src/cdc_desc.c **** 
 301:project/src/cdc_desc.c ****     pbuf[2 * idx + 1] = 0;
 148              		.loc 1 301 5 is_stmt 1 view .LVU43
 149              		.loc 1 301 12 is_stmt 0 view .LVU44
 150 0014 4FEA430C 		lsl	ip, r3, #1
 151              		.loc 1 301 18 view .LVU45
 152 0018 0CF1010C 		add	ip, ip, #1
ARM GAS  C:\Users\10963\AppData\Local\Temp\ccWrPHre.s 			page 9


 153              		.loc 1 301 23 view .LVU46
 154 001c 4FF0000E 		mov	lr, #0
 155 0020 01F80CE0 		strb	lr, [r1, ip]
 288:project/src/cdc_desc.c ****   {
 156              		.loc 1 288 34 is_stmt 1 discriminator 2 view .LVU47
 157 0024 0133     		adds	r3, r3, #1
 158              	.LVL16:
 288:project/src/cdc_desc.c ****   {
 159              		.loc 1 288 34 is_stmt 0 discriminator 2 view .LVU48
 160 0026 DBB2     		uxtb	r3, r3
 161              	.LVL17:
 288:project/src/cdc_desc.c ****   {
 162              		.loc 1 288 22 is_stmt 1 discriminator 1 view .LVU49
 163 0028 9342     		cmp	r3, r2
 164 002a 09D2     		bcs	.L14
 165              	.L9:
 290:project/src/cdc_desc.c ****     {
 166              		.loc 1 290 5 view .LVU50
 290:project/src/cdc_desc.c ****     {
 167              		.loc 1 290 17 is_stmt 0 view .LVU51
 168 002c 4FEA107C 		lsr	ip, r0, #28
 290:project/src/cdc_desc.c ****     {
 169              		.loc 1 290 7 view .LVU52
 170 0030 B0F1204F 		cmp	r0, #-1610612736
 171 0034 E9D2     		bcs	.L7
 292:project/src/cdc_desc.c ****   }
 172              		.loc 1 292 7 is_stmt 1 view .LVU53
 292:project/src/cdc_desc.c ****   }
 173              		.loc 1 292 38 is_stmt 0 view .LVU54
 174 0036 0CF1300C 		add	ip, ip, #48
 292:project/src/cdc_desc.c ****   }
 175              		.loc 1 292 22 view .LVU55
 176 003a 01F813C0 		strb	ip, [r1, r3, lsl #1]
 177 003e E8E7     		b	.L8
 178              	.L14:
 302:project/src/cdc_desc.c ****   }
 303:project/src/cdc_desc.c **** }
 179              		.loc 1 303 1 view .LVU56
 180 0040 00BD     		pop	{pc}
 181              	.L13:
 182              	.LCFI2:
 183              		.cfi_def_cfa_offset 0
 184              		.cfi_restore 14
 185              		.loc 1 303 1 view .LVU57
 186 0042 7047     		bx	lr
 187              		.cfi_endproc
 188              	.LFE138:
 190              		.section	.text.get_serial_num,"ax",%progbits
 191              		.align	1
 192              		.syntax unified
 193              		.thumb
 194              		.thumb_func
 196              	get_serial_num:
 197              	.LFB139:
 304:project/src/cdc_desc.c **** 
 305:project/src/cdc_desc.c **** /**
 306:project/src/cdc_desc.c ****   * @brief  usb get serial number
ARM GAS  C:\Users\10963\AppData\Local\Temp\ccWrPHre.s 			page 10


 307:project/src/cdc_desc.c ****   * @param  none
 308:project/src/cdc_desc.c ****   * @retval none
 309:project/src/cdc_desc.c ****   */
 310:project/src/cdc_desc.c **** static void get_serial_num(void)
 311:project/src/cdc_desc.c **** {
 198              		.loc 1 311 1 is_stmt 1 view -0
 199              		.cfi_startproc
 200              		@ args = 0, pretend = 0, frame = 0
 201              		@ frame_needed = 0, uses_anonymous_args = 0
 312:project/src/cdc_desc.c ****   uint32_t serial0, serial1, serial2;
 202              		.loc 1 312 3 view .LVU59
 313:project/src/cdc_desc.c **** 
 314:project/src/cdc_desc.c ****   serial0 = *(uint32_t*)MCU_ID1;
 203              		.loc 1 314 3 view .LVU60
 204              		.loc 1 314 11 is_stmt 0 view .LVU61
 205 0000 0B4B     		ldr	r3, .L22
 206 0002 D3F8E807 		ldr	r0, [r3, #2024]
 207              	.LVL18:
 315:project/src/cdc_desc.c ****   serial1 = *(uint32_t*)MCU_ID2;
 208              		.loc 1 315 3 is_stmt 1 view .LVU62
 209              		.loc 1 315 11 is_stmt 0 view .LVU63
 210 0006 D3F8EC27 		ldr	r2, [r3, #2028]
 211              	.LVL19:
 316:project/src/cdc_desc.c ****   serial2 = *(uint32_t*)MCU_ID3;
 212              		.loc 1 316 3 is_stmt 1 view .LVU64
 213              		.loc 1 316 11 is_stmt 0 view .LVU65
 214 000a D3F8F037 		ldr	r3, [r3, #2032]
 215              	.LVL20:
 317:project/src/cdc_desc.c **** 
 318:project/src/cdc_desc.c ****   serial0 += serial2;
 216              		.loc 1 318 3 is_stmt 1 view .LVU66
 319:project/src/cdc_desc.c **** 
 320:project/src/cdc_desc.c ****   if (serial0 != 0)
 217              		.loc 1 320 3 view .LVU67
 218              		.loc 1 320 6 is_stmt 0 view .LVU68
 219 000e C018     		adds	r0, r0, r3
 220              	.LVL21:
 221              		.loc 1 320 6 view .LVU69
 222 0010 00D1     		bne	.L21
 223 0012 7047     		bx	lr
 224              	.L21:
 311:project/src/cdc_desc.c ****   uint32_t serial0, serial1, serial2;
 225              		.loc 1 311 1 view .LVU70
 226 0014 10B5     		push	{r4, lr}
 227              	.LCFI3:
 228              		.cfi_def_cfa_offset 8
 229              		.cfi_offset 4, -8
 230              		.cfi_offset 14, -4
 231 0016 1446     		mov	r4, r2
 321:project/src/cdc_desc.c ****   {
 322:project/src/cdc_desc.c ****     usbd_int_to_unicode (serial0, &g_string_serial[2] ,8);
 232              		.loc 1 322 5 is_stmt 1 view .LVU71
 233 0018 0822     		movs	r2, #8
 234              	.LVL22:
 235              		.loc 1 322 5 is_stmt 0 view .LVU72
 236 001a 0649     		ldr	r1, .L22+4
 237 001c FFF7FEFF 		bl	usbd_int_to_unicode
ARM GAS  C:\Users\10963\AppData\Local\Temp\ccWrPHre.s 			page 11


 238              	.LVL23:
 323:project/src/cdc_desc.c ****     usbd_int_to_unicode (serial1, &g_string_serial[18] ,4);
 239              		.loc 1 323 5 is_stmt 1 view .LVU73
 240 0020 0422     		movs	r2, #4
 241 0022 044B     		ldr	r3, .L22+4
 242 0024 03F11001 		add	r1, r3, #16
 243 0028 2046     		mov	r0, r4
 244 002a FFF7FEFF 		bl	usbd_int_to_unicode
 245              	.LVL24:
 324:project/src/cdc_desc.c ****   }
 325:project/src/cdc_desc.c **** }
 246              		.loc 1 325 1 is_stmt 0 view .LVU74
 247 002e 10BD     		pop	{r4, pc}
 248              	.LVL25:
 249              	.L23:
 250              		.loc 1 325 1 view .LVU75
 251              		.align	2
 252              	.L22:
 253 0030 00F0FF1F 		.word	536866816
 254 0034 02000000 		.word	g_string_serial+2
 255              		.cfi_endproc
 256              	.LFE139:
 258              		.section	.text.get_device_descriptor,"ax",%progbits
 259              		.align	1
 260              		.syntax unified
 261              		.thumb
 262              		.thumb_func
 264              	get_device_descriptor:
 265              	.LFB140:
 326:project/src/cdc_desc.c **** 
 327:project/src/cdc_desc.c **** /**
 328:project/src/cdc_desc.c ****   * @brief  get device descriptor
 329:project/src/cdc_desc.c ****   * @param  none
 330:project/src/cdc_desc.c ****   * @retval usbd_desc
 331:project/src/cdc_desc.c ****   */
 332:project/src/cdc_desc.c **** static usbd_desc_t *get_device_descriptor(void)
 333:project/src/cdc_desc.c **** {
 266              		.loc 1 333 1 is_stmt 1 view -0
 267              		.cfi_startproc
 268              		@ args = 0, pretend = 0, frame = 0
 269              		@ frame_needed = 0, uses_anonymous_args = 0
 270              		@ link register save eliminated.
 334:project/src/cdc_desc.c ****   return &device_descriptor;
 271              		.loc 1 334 3 view .LVU77
 335:project/src/cdc_desc.c **** }
 272              		.loc 1 335 1 is_stmt 0 view .LVU78
 273 0000 0048     		ldr	r0, .L25
 274 0002 7047     		bx	lr
 275              	.L26:
 276              		.align	2
 277              	.L25:
 278 0004 00000000 		.word	device_descriptor
 279              		.cfi_endproc
 280              	.LFE140:
 282              		.section	.text.get_device_qualifier,"ax",%progbits
 283              		.align	1
 284              		.syntax unified
ARM GAS  C:\Users\10963\AppData\Local\Temp\ccWrPHre.s 			page 12


 285              		.thumb
 286              		.thumb_func
 288              	get_device_qualifier:
 289              	.LFB141:
 336:project/src/cdc_desc.c **** 
 337:project/src/cdc_desc.c **** /**
 338:project/src/cdc_desc.c ****   * @brief  get device qualifier
 339:project/src/cdc_desc.c ****   * @param  none
 340:project/src/cdc_desc.c ****   * @retval usbd_desc
 341:project/src/cdc_desc.c ****   */
 342:project/src/cdc_desc.c **** static usbd_desc_t * get_device_qualifier(void)
 343:project/src/cdc_desc.c **** {
 290              		.loc 1 343 1 is_stmt 1 view -0
 291              		.cfi_startproc
 292              		@ args = 0, pretend = 0, frame = 0
 293              		@ frame_needed = 0, uses_anonymous_args = 0
 294              		@ link register save eliminated.
 344:project/src/cdc_desc.c ****   return NULL;
 295              		.loc 1 344 3 view .LVU80
 345:project/src/cdc_desc.c **** }
 296              		.loc 1 345 1 is_stmt 0 view .LVU81
 297 0000 0020     		movs	r0, #0
 298 0002 7047     		bx	lr
 299              		.cfi_endproc
 300              	.LFE141:
 302              		.section	.text.get_device_configuration,"ax",%progbits
 303              		.align	1
 304              		.syntax unified
 305              		.thumb
 306              		.thumb_func
 308              	get_device_configuration:
 309              	.LFB142:
 346:project/src/cdc_desc.c **** 
 347:project/src/cdc_desc.c **** /**
 348:project/src/cdc_desc.c ****   * @brief  get config descriptor
 349:project/src/cdc_desc.c ****   * @param  none
 350:project/src/cdc_desc.c ****   * @retval usbd_desc
 351:project/src/cdc_desc.c ****   */
 352:project/src/cdc_desc.c **** static usbd_desc_t *get_device_configuration(void)
 353:project/src/cdc_desc.c **** {
 310              		.loc 1 353 1 is_stmt 1 view -0
 311              		.cfi_startproc
 312              		@ args = 0, pretend = 0, frame = 0
 313              		@ frame_needed = 0, uses_anonymous_args = 0
 314              		@ link register save eliminated.
 354:project/src/cdc_desc.c ****   return &config_descriptor;
 315              		.loc 1 354 3 view .LVU83
 355:project/src/cdc_desc.c **** }
 316              		.loc 1 355 1 is_stmt 0 view .LVU84
 317 0000 0048     		ldr	r0, .L29
 318 0002 7047     		bx	lr
 319              	.L30:
 320              		.align	2
 321              	.L29:
 322 0004 00000000 		.word	config_descriptor
 323              		.cfi_endproc
 324              	.LFE142:
ARM GAS  C:\Users\10963\AppData\Local\Temp\ccWrPHre.s 			page 13


 326              		.section	.text.get_device_other_speed,"ax",%progbits
 327              		.align	1
 328              		.syntax unified
 329              		.thumb
 330              		.thumb_func
 332              	get_device_other_speed:
 333              	.LFB143:
 356:project/src/cdc_desc.c **** 
 357:project/src/cdc_desc.c **** /**
 358:project/src/cdc_desc.c ****   * @brief  get other speed descriptor
 359:project/src/cdc_desc.c ****   * @param  none
 360:project/src/cdc_desc.c ****   * @retval usbd_desc
 361:project/src/cdc_desc.c ****   */
 362:project/src/cdc_desc.c **** static usbd_desc_t *get_device_other_speed(void)
 363:project/src/cdc_desc.c **** {
 334              		.loc 1 363 1 is_stmt 1 view -0
 335              		.cfi_startproc
 336              		@ args = 0, pretend = 0, frame = 0
 337              		@ frame_needed = 0, uses_anonymous_args = 0
 338              		@ link register save eliminated.
 364:project/src/cdc_desc.c ****   return NULL;
 339              		.loc 1 364 3 view .LVU86
 365:project/src/cdc_desc.c **** }
 340              		.loc 1 365 1 is_stmt 0 view .LVU87
 341 0000 0020     		movs	r0, #0
 342 0002 7047     		bx	lr
 343              		.cfi_endproc
 344              	.LFE143:
 346              		.section	.text.get_device_lang_id,"ax",%progbits
 347              		.align	1
 348              		.syntax unified
 349              		.thumb
 350              		.thumb_func
 352              	get_device_lang_id:
 353              	.LFB144:
 366:project/src/cdc_desc.c **** 
 367:project/src/cdc_desc.c **** /**
 368:project/src/cdc_desc.c ****   * @brief  get lang id descriptor
 369:project/src/cdc_desc.c ****   * @param  none
 370:project/src/cdc_desc.c ****   * @retval usbd_desc
 371:project/src/cdc_desc.c ****   */
 372:project/src/cdc_desc.c **** static usbd_desc_t *get_device_lang_id(void)
 373:project/src/cdc_desc.c **** {
 354              		.loc 1 373 1 is_stmt 1 view -0
 355              		.cfi_startproc
 356              		@ args = 0, pretend = 0, frame = 0
 357              		@ frame_needed = 0, uses_anonymous_args = 0
 358              		@ link register save eliminated.
 374:project/src/cdc_desc.c ****   return &langid_descriptor;
 359              		.loc 1 374 3 view .LVU89
 375:project/src/cdc_desc.c **** }
 360              		.loc 1 375 1 is_stmt 0 view .LVU90
 361 0000 0048     		ldr	r0, .L33
 362 0002 7047     		bx	lr
 363              	.L34:
 364              		.align	2
 365              	.L33:
ARM GAS  C:\Users\10963\AppData\Local\Temp\ccWrPHre.s 			page 14


 366 0004 00000000 		.word	langid_descriptor
 367              		.cfi_endproc
 368              	.LFE144:
 370              		.section	.rodata.get_device_manufacturer_string.str1.4,"aMS",%progbits,1
 371              		.align	2
 372              	.LC0:
 373 0000 41727465 		.ascii	"Artery\000"
 373      727900
 374              		.section	.text.get_device_manufacturer_string,"ax",%progbits
 375              		.align	1
 376              		.syntax unified
 377              		.thumb
 378              		.thumb_func
 380              	get_device_manufacturer_string:
 381              	.LFB145:
 376:project/src/cdc_desc.c **** 
 377:project/src/cdc_desc.c **** 
 378:project/src/cdc_desc.c **** /**
 379:project/src/cdc_desc.c ****   * @brief  get manufacturer descriptor
 380:project/src/cdc_desc.c ****   * @param  none
 381:project/src/cdc_desc.c ****   * @retval usbd_desc
 382:project/src/cdc_desc.c ****   */
 383:project/src/cdc_desc.c **** static usbd_desc_t *get_device_manufacturer_string(void)
 384:project/src/cdc_desc.c **** {
 382              		.loc 1 384 1 is_stmt 1 view -0
 383              		.cfi_startproc
 384              		@ args = 0, pretend = 0, frame = 0
 385              		@ frame_needed = 0, uses_anonymous_args = 0
 386 0000 10B5     		push	{r4, lr}
 387              	.LCFI4:
 388              		.cfi_def_cfa_offset 8
 389              		.cfi_offset 4, -8
 390              		.cfi_offset 14, -4
 385:project/src/cdc_desc.c ****   vp_desc.length = usbd_unicode_convert((uint8_t *)USBD_CDC_DESC_MANUFACTURER_STRING, g_usbd_desc_b
 391              		.loc 1 385 3 view .LVU92
 392              		.loc 1 385 20 is_stmt 0 view .LVU93
 393 0002 054C     		ldr	r4, .L37
 394 0004 2146     		mov	r1, r4
 395 0006 0548     		ldr	r0, .L37+4
 396 0008 FFF7FEFF 		bl	usbd_unicode_convert
 397              	.LVL26:
 398              		.loc 1 385 18 discriminator 1 view .LVU94
 399 000c 044B     		ldr	r3, .L37+8
 400 000e 1880     		strh	r0, [r3]	@ movhi
 386:project/src/cdc_desc.c ****   vp_desc.descriptor = g_usbd_desc_buffer;
 401              		.loc 1 386 3 is_stmt 1 view .LVU95
 402              		.loc 1 386 22 is_stmt 0 view .LVU96
 403 0010 5C60     		str	r4, [r3, #4]
 387:project/src/cdc_desc.c ****   return &vp_desc;
 404              		.loc 1 387 3 is_stmt 1 view .LVU97
 388:project/src/cdc_desc.c **** }
 405              		.loc 1 388 1 is_stmt 0 view .LVU98
 406 0012 1846     		mov	r0, r3
 407 0014 10BD     		pop	{r4, pc}
 408              	.L38:
 409 0016 00BF     		.align	2
 410              	.L37:
ARM GAS  C:\Users\10963\AppData\Local\Temp\ccWrPHre.s 			page 15


 411 0018 00000000 		.word	g_usbd_desc_buffer
 412 001c 00000000 		.word	.LC0
 413 0020 00000000 		.word	vp_desc
 414              		.cfi_endproc
 415              	.LFE145:
 417              		.section	.rodata.get_device_product_string.str1.4,"aMS",%progbits,1
 418              		.align	2
 419              	.LC1:
 420 0000 56697274 		.ascii	"Virtual Com Port\000"
 420      75616C20 
 420      436F6D20 
 420      506F7274 
 420      00
 421              		.section	.text.get_device_product_string,"ax",%progbits
 422              		.align	1
 423              		.syntax unified
 424              		.thumb
 425              		.thumb_func
 427              	get_device_product_string:
 428              	.LFB146:
 389:project/src/cdc_desc.c **** 
 390:project/src/cdc_desc.c **** /**
 391:project/src/cdc_desc.c ****   * @brief  get product descriptor
 392:project/src/cdc_desc.c ****   * @param  none
 393:project/src/cdc_desc.c ****   * @retval usbd_desc
 394:project/src/cdc_desc.c ****   */
 395:project/src/cdc_desc.c **** static usbd_desc_t *get_device_product_string(void)
 396:project/src/cdc_desc.c **** {
 429              		.loc 1 396 1 is_stmt 1 view -0
 430              		.cfi_startproc
 431              		@ args = 0, pretend = 0, frame = 0
 432              		@ frame_needed = 0, uses_anonymous_args = 0
 433 0000 10B5     		push	{r4, lr}
 434              	.LCFI5:
 435              		.cfi_def_cfa_offset 8
 436              		.cfi_offset 4, -8
 437              		.cfi_offset 14, -4
 397:project/src/cdc_desc.c ****   vp_desc.length = usbd_unicode_convert((uint8_t *)USBD_CDC_DESC_PRODUCT_STRING, g_usbd_desc_buffer
 438              		.loc 1 397 3 view .LVU100
 439              		.loc 1 397 20 is_stmt 0 view .LVU101
 440 0002 054C     		ldr	r4, .L41
 441 0004 2146     		mov	r1, r4
 442 0006 0548     		ldr	r0, .L41+4
 443 0008 FFF7FEFF 		bl	usbd_unicode_convert
 444              	.LVL27:
 445              		.loc 1 397 18 discriminator 1 view .LVU102
 446 000c 044B     		ldr	r3, .L41+8
 447 000e 1880     		strh	r0, [r3]	@ movhi
 398:project/src/cdc_desc.c ****   vp_desc.descriptor = g_usbd_desc_buffer;
 448              		.loc 1 398 3 is_stmt 1 view .LVU103
 449              		.loc 1 398 22 is_stmt 0 view .LVU104
 450 0010 5C60     		str	r4, [r3, #4]
 399:project/src/cdc_desc.c ****   return &vp_desc;
 451              		.loc 1 399 3 is_stmt 1 view .LVU105
 400:project/src/cdc_desc.c **** }
 452              		.loc 1 400 1 is_stmt 0 view .LVU106
 453 0012 1846     		mov	r0, r3
ARM GAS  C:\Users\10963\AppData\Local\Temp\ccWrPHre.s 			page 16


 454 0014 10BD     		pop	{r4, pc}
 455              	.L42:
 456 0016 00BF     		.align	2
 457              	.L41:
 458 0018 00000000 		.word	g_usbd_desc_buffer
 459 001c 00000000 		.word	.LC1
 460 0020 00000000 		.word	vp_desc
 461              		.cfi_endproc
 462              	.LFE146:
 464              		.section	.text.get_device_serial_string,"ax",%progbits
 465              		.align	1
 466              		.syntax unified
 467              		.thumb
 468              		.thumb_func
 470              	get_device_serial_string:
 471              	.LFB147:
 401:project/src/cdc_desc.c **** 
 402:project/src/cdc_desc.c **** /**
 403:project/src/cdc_desc.c ****   * @brief  get serial descriptor
 404:project/src/cdc_desc.c ****   * @param  none
 405:project/src/cdc_desc.c ****   * @retval usbd_desc
 406:project/src/cdc_desc.c ****   */
 407:project/src/cdc_desc.c **** static usbd_desc_t *get_device_serial_string(void)
 408:project/src/cdc_desc.c **** {
 472              		.loc 1 408 1 is_stmt 1 view -0
 473              		.cfi_startproc
 474              		@ args = 0, pretend = 0, frame = 0
 475              		@ frame_needed = 0, uses_anonymous_args = 0
 476 0000 08B5     		push	{r3, lr}
 477              	.LCFI6:
 478              		.cfi_def_cfa_offset 8
 479              		.cfi_offset 3, -8
 480              		.cfi_offset 14, -4
 409:project/src/cdc_desc.c ****   get_serial_num();
 481              		.loc 1 409 3 view .LVU108
 482 0002 FFF7FEFF 		bl	get_serial_num
 483              	.LVL28:
 410:project/src/cdc_desc.c ****   return &serial_descriptor;
 484              		.loc 1 410 3 view .LVU109
 411:project/src/cdc_desc.c **** }
 485              		.loc 1 411 1 is_stmt 0 view .LVU110
 486 0006 0148     		ldr	r0, .L45
 487 0008 08BD     		pop	{r3, pc}
 488              	.L46:
 489 000a 00BF     		.align	2
 490              	.L45:
 491 000c 00000000 		.word	serial_descriptor
 492              		.cfi_endproc
 493              	.LFE147:
 495              		.section	.rodata.get_device_interface_string.str1.4,"aMS",%progbits,1
 496              		.align	2
 497              	.LC2:
 498 0000 56697274 		.ascii	"Virtual ComPort Interface\000"
 498      75616C20 
 498      436F6D50 
 498      6F727420 
 498      496E7465 
ARM GAS  C:\Users\10963\AppData\Local\Temp\ccWrPHre.s 			page 17


 499              		.section	.text.get_device_interface_string,"ax",%progbits
 500              		.align	1
 501              		.syntax unified
 502              		.thumb
 503              		.thumb_func
 505              	get_device_interface_string:
 506              	.LFB148:
 412:project/src/cdc_desc.c **** 
 413:project/src/cdc_desc.c **** /**
 414:project/src/cdc_desc.c ****   * @brief  get interface descriptor
 415:project/src/cdc_desc.c ****   * @param  none
 416:project/src/cdc_desc.c ****   * @retval usbd_desc
 417:project/src/cdc_desc.c ****   */
 418:project/src/cdc_desc.c **** static usbd_desc_t *get_device_interface_string(void)
 419:project/src/cdc_desc.c **** {
 507              		.loc 1 419 1 is_stmt 1 view -0
 508              		.cfi_startproc
 509              		@ args = 0, pretend = 0, frame = 0
 510              		@ frame_needed = 0, uses_anonymous_args = 0
 511 0000 10B5     		push	{r4, lr}
 512              	.LCFI7:
 513              		.cfi_def_cfa_offset 8
 514              		.cfi_offset 4, -8
 515              		.cfi_offset 14, -4
 420:project/src/cdc_desc.c ****   vp_desc.length = usbd_unicode_convert((uint8_t *)USBD_CDC_DESC_INTERFACE_STRING, g_usbd_desc_buff
 516              		.loc 1 420 3 view .LVU112
 517              		.loc 1 420 20 is_stmt 0 view .LVU113
 518 0002 054C     		ldr	r4, .L49
 519 0004 2146     		mov	r1, r4
 520 0006 0548     		ldr	r0, .L49+4
 521 0008 FFF7FEFF 		bl	usbd_unicode_convert
 522              	.LVL29:
 523              		.loc 1 420 18 discriminator 1 view .LVU114
 524 000c 044B     		ldr	r3, .L49+8
 525 000e 1880     		strh	r0, [r3]	@ movhi
 421:project/src/cdc_desc.c ****   vp_desc.descriptor = g_usbd_desc_buffer;
 526              		.loc 1 421 3 is_stmt 1 view .LVU115
 527              		.loc 1 421 22 is_stmt 0 view .LVU116
 528 0010 5C60     		str	r4, [r3, #4]
 422:project/src/cdc_desc.c ****   return &vp_desc;
 529              		.loc 1 422 3 is_stmt 1 view .LVU117
 423:project/src/cdc_desc.c **** }
 530              		.loc 1 423 1 is_stmt 0 view .LVU118
 531 0012 1846     		mov	r0, r3
 532 0014 10BD     		pop	{r4, pc}
 533              	.L50:
 534 0016 00BF     		.align	2
 535              	.L49:
 536 0018 00000000 		.word	g_usbd_desc_buffer
 537 001c 00000000 		.word	.LC2
 538 0020 00000000 		.word	vp_desc
 539              		.cfi_endproc
 540              	.LFE148:
 542              		.section	.rodata.get_device_config_string.str1.4,"aMS",%progbits,1
 543              		.align	2
 544              	.LC3:
 545 0000 56697274 		.ascii	"Virtual ComPort Config\000"
ARM GAS  C:\Users\10963\AppData\Local\Temp\ccWrPHre.s 			page 18


 545      75616C20 
 545      436F6D50 
 545      6F727420 
 545      436F6E66 
 546              		.section	.text.get_device_config_string,"ax",%progbits
 547              		.align	1
 548              		.syntax unified
 549              		.thumb
 550              		.thumb_func
 552              	get_device_config_string:
 553              	.LFB149:
 424:project/src/cdc_desc.c **** 
 425:project/src/cdc_desc.c **** /**
 426:project/src/cdc_desc.c ****   * @brief  get device config descriptor
 427:project/src/cdc_desc.c ****   * @param  none
 428:project/src/cdc_desc.c ****   * @retval usbd_desc
 429:project/src/cdc_desc.c ****   */
 430:project/src/cdc_desc.c **** static usbd_desc_t *get_device_config_string(void)
 431:project/src/cdc_desc.c **** {
 554              		.loc 1 431 1 is_stmt 1 view -0
 555              		.cfi_startproc
 556              		@ args = 0, pretend = 0, frame = 0
 557              		@ frame_needed = 0, uses_anonymous_args = 0
 558 0000 10B5     		push	{r4, lr}
 559              	.LCFI8:
 560              		.cfi_def_cfa_offset 8
 561              		.cfi_offset 4, -8
 562              		.cfi_offset 14, -4
 432:project/src/cdc_desc.c ****   vp_desc.length = usbd_unicode_convert((uint8_t *)USBD_CDC_DESC_CONFIGURATION_STRING, g_usbd_desc_
 563              		.loc 1 432 3 view .LVU120
 564              		.loc 1 432 20 is_stmt 0 view .LVU121
 565 0002 054C     		ldr	r4, .L53
 566 0004 2146     		mov	r1, r4
 567 0006 0548     		ldr	r0, .L53+4
 568 0008 FFF7FEFF 		bl	usbd_unicode_convert
 569              	.LVL30:
 570              		.loc 1 432 18 discriminator 1 view .LVU122
 571 000c 044B     		ldr	r3, .L53+8
 572 000e 1880     		strh	r0, [r3]	@ movhi
 433:project/src/cdc_desc.c ****   vp_desc.descriptor = g_usbd_desc_buffer;
 573              		.loc 1 433 3 is_stmt 1 view .LVU123
 574              		.loc 1 433 22 is_stmt 0 view .LVU124
 575 0010 5C60     		str	r4, [r3, #4]
 434:project/src/cdc_desc.c ****   return &vp_desc;
 576              		.loc 1 434 3 is_stmt 1 view .LVU125
 435:project/src/cdc_desc.c **** }
 577              		.loc 1 435 1 is_stmt 0 view .LVU126
 578 0012 1846     		mov	r0, r3
 579 0014 10BD     		pop	{r4, pc}
 580              	.L54:
 581 0016 00BF     		.align	2
 582              	.L53:
 583 0018 00000000 		.word	g_usbd_desc_buffer
 584 001c 00000000 		.word	.LC3
 585 0020 00000000 		.word	vp_desc
 586              		.cfi_endproc
 587              	.LFE149:
ARM GAS  C:\Users\10963\AppData\Local\Temp\ccWrPHre.s 			page 19


 589              		.section	.bss.vp_desc,"aw",%nobits
 590              		.align	2
 593              	vp_desc:
 594 0000 00000000 		.space	8
 594      00000000 
 595              		.section	.data.serial_descriptor,"aw"
 596              		.align	2
 599              	serial_descriptor:
 600 0000 1A00     		.short	26
 601 0002 0000     		.space	2
 602 0004 00000000 		.word	g_string_serial
 603              		.section	.data.langid_descriptor,"aw"
 604              		.align	2
 607              	langid_descriptor:
 608 0000 0400     		.short	4
 609 0002 0000     		.space	2
 610 0004 00000000 		.word	g_string_lang_id
 611              		.section	.data.config_descriptor,"aw"
 612              		.align	2
 615              	config_descriptor:
 616 0000 4300     		.short	67
 617 0002 0000     		.space	2
 618 0004 00000000 		.word	g_usbd_configuration
 619              		.section	.data.device_descriptor,"aw"
 620              		.align	2
 623              	device_descriptor:
 624 0000 1200     		.short	18
 625 0002 0000     		.space	2
 626 0004 00000000 		.word	g_usbd_descriptor
 627              		.section	.data.g_string_serial,"aw"
 628              		.align	2
 631              	g_string_serial:
 632 0000 1A0300   		.ascii	"\032\003\000"
 633 0003 00000000 		.space	23
 633      00000000 
 633      00000000 
 633      00000000 
 633      00000000 
 634              		.section	.data.g_string_lang_id,"aw"
 635              		.align	2
 638              	g_string_lang_id:
 639 0000 04030904 		.ascii	"\004\003\011\004"
 640              		.section	.data.g_usbd_configuration,"aw"
 641              		.align	2
 644              	g_usbd_configuration:
 645 0000 09024300 		.ascii	"\011\002C\000\002\001\000\3002\011\004\000\000\001\002"
 645      020100C0 
 645      32090400 
 645      000102
 646 000f 02010005 		.ascii	"\002\001\000\005$\000\020\001\005$\001\000\001\004$"
 646      24001001 
 646      05240100 
 646      010424
 647 001e 02020524 		.ascii	"\002\002\005$\006\000\001\007\005\202\003\010\000\377"
 647      06000107 
 647      05820308 
 647      00FF
ARM GAS  C:\Users\10963\AppData\Local\Temp\ccWrPHre.s 			page 20


 648 002c 09040100 		.ascii	"\011\004\001\000\002\012\000\000\000\007\005\201\002"
 648      020A0000 
 648      00070581 
 648      02
 649 0039 40000007 		.ascii	"@\000\000\007\005\001\002@\000\000"
 649      05010240 
 649      0000
 650              		.section	.data.g_usbd_descriptor,"aw"
 651              		.align	2
 654              	g_usbd_descriptor:
 655 0000 12010002 		.ascii	"\022\001\000\002\002\000\000@<.@W\000\002\001\002\003"
 655      02000040 
 655      3C2E4057 
 655      00020102 
 655      03
 656 0011 01       		.ascii	"\001"
 657              		.global	cdc_desc_handler
 658              		.section	.data.cdc_desc_handler,"aw"
 659              		.align	2
 662              	cdc_desc_handler:
 663 0000 00000000 		.word	get_device_descriptor
 664 0004 00000000 		.word	get_device_qualifier
 665 0008 00000000 		.word	get_device_configuration
 666 000c 00000000 		.word	get_device_other_speed
 667 0010 00000000 		.word	get_device_lang_id
 668 0014 00000000 		.word	get_device_manufacturer_string
 669 0018 00000000 		.word	get_device_product_string
 670 001c 00000000 		.word	get_device_serial_string
 671 0020 00000000 		.word	get_device_interface_string
 672 0024 00000000 		.word	get_device_config_string
 673              		.section	.bss.g_usbd_desc_buffer,"aw",%nobits
 674              		.align	2
 677              	g_usbd_desc_buffer:
 678 0000 00000000 		.space	256
 678      00000000 
 678      00000000 
 678      00000000 
 678      00000000 
 679              		.text
 680              	.Letext0:
 681              		.file 2 "C:/Program Files (x86)/Arm/GNU Toolchain mingw-w64-i686-arm-none-eabi/arm-none-eabi/inclu
 682              		.file 3 "C:/Program Files (x86)/Arm/GNU Toolchain mingw-w64-i686-arm-none-eabi/arm-none-eabi/inclu
 683              		.file 4 "libraries/drivers/inc/at32f403a_407_tmr.h"
 684              		.file 5 "middlewares/usbd_drivers/inc/usbd_core.h"
 685              		.file 6 "project/inc/cdc_desc.h"
ARM GAS  C:\Users\10963\AppData\Local\Temp\ccWrPHre.s 			page 21

