ARM GAS  C:\Users\10963\AppData\Local\Temp\ccPGpRts.s 			page 1


   1              		.cpu cortex-m4
   2              		.arch armv7e-m
   3              		.fpu fpv4-sp-d16
   4              		.eabi_attribute 27, 1
   5              		.eabi_attribute 28, 1
   6              		.eabi_attribute 20, 1
   7              		.eabi_attribute 21, 1
   8              		.eabi_attribute 23, 3
   9              		.eabi_attribute 24, 1
  10              		.eabi_attribute 25, 1
  11              		.eabi_attribute 26, 1
  12              		.eabi_attribute 30, 1
  13              		.eabi_attribute 34, 1
  14              		.eabi_attribute 18, 4
  15              		.file	"freertos_app.c"
  16              		.text
  17              	.Ltext0:
  18              		.cfi_sections	.debug_frame
  19              		.file 1 "project/src/freertos_app.c"
  20              		.section	.text.MC_Task_Func,"ax",%progbits
  21              		.align	1
  22              		.global	MC_Task_Func
  23              		.syntax unified
  24              		.thumb
  25              		.thumb_func
  27              	MC_Task_Func:
  28              	.LFB142:
   1:project/src/freertos_app.c **** /* add user code begin Header */
   2:project/src/freertos_app.c **** /**
   3:project/src/freertos_app.c ****   ******************************************************************************
   4:project/src/freertos_app.c ****   * File Name          : freertos_app.c
   5:project/src/freertos_app.c ****   * Description        : Code for freertos applications
   6:project/src/freertos_app.c ****   */
   7:project/src/freertos_app.c **** /* add user code end Header */
   8:project/src/freertos_app.c **** 
   9:project/src/freertos_app.c **** /* Includes ------------------------------------------------------------------*/
  10:project/src/freertos_app.c **** #include "freertos_app.h"
  11:project/src/freertos_app.c **** #include "usb_app.h"
  12:project/src/freertos_app.c **** 
  13:project/src/freertos_app.c **** /* private includes ----------------------------------------------------------*/
  14:project/src/freertos_app.c **** /* add user code begin private includes */
  15:project/src/freertos_app.c **** #include "motor_control.h"
  16:project/src/freertos_app.c **** 
  17:project/src/freertos_app.c **** /* add user code end private includes */
  18:project/src/freertos_app.c **** 
  19:project/src/freertos_app.c **** /* add user code begin private variables */
  20:project/src/freertos_app.c **** /* extern motor parameters structure */
  21:project/src/freertos_app.c **** extern motor_params_t motor;
  22:project/src/freertos_app.c **** 
  23:project/src/freertos_app.c **** /* add user code end private variables */
  24:project/src/freertos_app.c **** 
  25:project/src/freertos_app.c **** /* private typedef -----------------------------------------------------------*/
  26:project/src/freertos_app.c **** /* add user code begin private typedef */
  27:project/src/freertos_app.c **** 
  28:project/src/freertos_app.c **** /* add user code end private typedef */
  29:project/src/freertos_app.c **** 
  30:project/src/freertos_app.c **** /* private define ------------------------------------------------------------*/
ARM GAS  C:\Users\10963\AppData\Local\Temp\ccPGpRts.s 			page 2


  31:project/src/freertos_app.c **** /* add user code begin private define */
  32:project/src/freertos_app.c **** 
  33:project/src/freertos_app.c **** /* add user code end private define */
  34:project/src/freertos_app.c **** 
  35:project/src/freertos_app.c **** /* private macro -------------------------------------------------------------*/
  36:project/src/freertos_app.c **** /* add user code begin private macro */
  37:project/src/freertos_app.c **** 
  38:project/src/freertos_app.c **** /* add user code end private macro */
  39:project/src/freertos_app.c **** 
  40:project/src/freertos_app.c **** /* private variables ---------------------------------------------------------*/
  41:project/src/freertos_app.c **** /* add user code begin private variables */
  42:project/src/freertos_app.c **** 
  43:project/src/freertos_app.c **** /* add user code end private variables */
  44:project/src/freertos_app.c **** 
  45:project/src/freertos_app.c **** /* private function prototypes --------------------------------------------*/
  46:project/src/freertos_app.c **** /* add user code begin function prototypes */
  47:project/src/freertos_app.c **** 
  48:project/src/freertos_app.c **** /* add user code end function prototypes */
  49:project/src/freertos_app.c **** 
  50:project/src/freertos_app.c **** /* private user code ---------------------------------------------------------*/
  51:project/src/freertos_app.c **** /* add user code begin 0 */
  52:project/src/freertos_app.c **** 
  53:project/src/freertos_app.c **** /* add user code end 0 */
  54:project/src/freertos_app.c **** 
  55:project/src/freertos_app.c **** /* task handler */
  56:project/src/freertos_app.c **** TaskHandle_t MC_Task_handle;
  57:project/src/freertos_app.c **** TaskHandle_t Monitor_Task_handle;
  58:project/src/freertos_app.c **** TaskHandle_t Community_Task_handle;
  59:project/src/freertos_app.c **** TaskHandle_t Debug_Task_handle;
  60:project/src/freertos_app.c **** 
  61:project/src/freertos_app.c **** /* Idle task control block and stack */
  62:project/src/freertos_app.c **** static StackType_t idle_task_stack[configMINIMAL_STACK_SIZE];
  63:project/src/freertos_app.c **** static StackType_t timer_task_stack[configTIMER_TASK_STACK_DEPTH];
  64:project/src/freertos_app.c **** 
  65:project/src/freertos_app.c **** static StaticTask_t idle_task_tcb;
  66:project/src/freertos_app.c **** static StaticTask_t timer_task_tcb;
  67:project/src/freertos_app.c **** 
  68:project/src/freertos_app.c **** /* External Idle and Timer task static memory allocation functions */
  69:project/src/freertos_app.c **** extern void vApplicationGetIdleTaskMemory( StaticTask_t ** ppxIdleTaskTCBBuffer, StackType_t ** ppx
  70:project/src/freertos_app.c **** extern void vApplicationGetTimerTaskMemory( StaticTask_t ** ppxTimerTaskTCBBuffer, StackType_t ** p
  71:project/src/freertos_app.c **** 
  72:project/src/freertos_app.c **** /*
  73:project/src/freertos_app.c ****   vApplicationGetIdleTaskMemory gets called when configSUPPORT_STATIC_ALLOCATION
  74:project/src/freertos_app.c ****   equals to 1 and is required for static memory allocation support.
  75:project/src/freertos_app.c **** */
  76:project/src/freertos_app.c **** void vApplicationGetIdleTaskMemory( StaticTask_t ** ppxIdleTaskTCBBuffer, StackType_t ** ppxIdleTas
  77:project/src/freertos_app.c **** {
  78:project/src/freertos_app.c ****   *ppxIdleTaskTCBBuffer = &idle_task_tcb;
  79:project/src/freertos_app.c ****   *ppxIdleTaskStackBuffer = &idle_task_stack[0];
  80:project/src/freertos_app.c ****   *pulIdleTaskStackSize = (uint32_t)configMINIMAL_STACK_SIZE;
  81:project/src/freertos_app.c **** }
  82:project/src/freertos_app.c **** /*
  83:project/src/freertos_app.c ****   vApplicationGetTimerTaskMemory gets called when configSUPPORT_STATIC_ALLOCATION
  84:project/src/freertos_app.c ****   equals to 1 and is required for static memory allocation support.
  85:project/src/freertos_app.c **** */
  86:project/src/freertos_app.c **** void vApplicationGetTimerTaskMemory( StaticTask_t ** ppxTimerTaskTCBBuffer, StackType_t ** ppxTimer
  87:project/src/freertos_app.c **** {
ARM GAS  C:\Users\10963\AppData\Local\Temp\ccPGpRts.s 			page 3


  88:project/src/freertos_app.c ****   *ppxTimerTaskTCBBuffer = &timer_task_tcb;
  89:project/src/freertos_app.c ****   *ppxTimerTaskStackBuffer = &timer_task_stack[0];
  90:project/src/freertos_app.c ****   *pulTimerTaskStackSize = (uint32_t)configTIMER_TASK_STACK_DEPTH;
  91:project/src/freertos_app.c **** }
  92:project/src/freertos_app.c **** 
  93:project/src/freertos_app.c **** /* add user code begin 1 */
  94:project/src/freertos_app.c **** 
  95:project/src/freertos_app.c **** /* add user code end 1 */
  96:project/src/freertos_app.c **** 
  97:project/src/freertos_app.c **** /**
  98:project/src/freertos_app.c ****   * @brief  initializes all task.
  99:project/src/freertos_app.c ****   * @param  none
 100:project/src/freertos_app.c ****   * @retval none
 101:project/src/freertos_app.c ****   */
 102:project/src/freertos_app.c **** void freertos_task_create(void)
 103:project/src/freertos_app.c **** {
 104:project/src/freertos_app.c ****   /* create MC_Task task */
 105:project/src/freertos_app.c ****   xTaskCreate(MC_Task_Func,
 106:project/src/freertos_app.c ****               "MC_Task",
 107:project/src/freertos_app.c ****               512,
 108:project/src/freertos_app.c ****               NULL,
 109:project/src/freertos_app.c ****               0,
 110:project/src/freertos_app.c ****               &MC_Task_handle);
 111:project/src/freertos_app.c **** 
 112:project/src/freertos_app.c ****   /* create Monitor_Task task */
 113:project/src/freertos_app.c ****   xTaskCreate(Monitor_Task_Func,
 114:project/src/freertos_app.c ****               "Monitor_Task",
 115:project/src/freertos_app.c ****               512,
 116:project/src/freertos_app.c ****               NULL,
 117:project/src/freertos_app.c ****               0,
 118:project/src/freertos_app.c ****               &Monitor_Task_handle);
 119:project/src/freertos_app.c **** 
 120:project/src/freertos_app.c ****   /* create Community_Task task */
 121:project/src/freertos_app.c ****   xTaskCreate(Community_Task_Func,
 122:project/src/freertos_app.c ****               "Community_Task",
 123:project/src/freertos_app.c ****               512,
 124:project/src/freertos_app.c ****               NULL,
 125:project/src/freertos_app.c ****               0,
 126:project/src/freertos_app.c ****               &Community_Task_handle);
 127:project/src/freertos_app.c **** 
 128:project/src/freertos_app.c ****   /* create Debug_Task task */
 129:project/src/freertos_app.c ****   xTaskCreate(Debug_Task_Func,
 130:project/src/freertos_app.c ****               "Debug_Task",
 131:project/src/freertos_app.c ****               512,
 132:project/src/freertos_app.c ****               NULL,
 133:project/src/freertos_app.c ****               0,
 134:project/src/freertos_app.c ****               &Debug_Task_handle);
 135:project/src/freertos_app.c **** }
 136:project/src/freertos_app.c **** 
 137:project/src/freertos_app.c **** /**
 138:project/src/freertos_app.c ****   * @brief  freertos init and begin run.
 139:project/src/freertos_app.c ****   * @param  none
 140:project/src/freertos_app.c ****   * @retval none
 141:project/src/freertos_app.c ****   */
 142:project/src/freertos_app.c **** void wk_freertos_init(void)
 143:project/src/freertos_app.c **** {
 144:project/src/freertos_app.c ****   /* add user code begin freertos_init 0 */
ARM GAS  C:\Users\10963\AppData\Local\Temp\ccPGpRts.s 			page 4


 145:project/src/freertos_app.c ****   
 146:project/src/freertos_app.c ****   /* add user code end freertos_init 0 */
 147:project/src/freertos_app.c **** 
 148:project/src/freertos_app.c ****   /* enter critical */
 149:project/src/freertos_app.c ****   taskENTER_CRITICAL();
 150:project/src/freertos_app.c **** 
 151:project/src/freertos_app.c ****   freertos_task_create();
 152:project/src/freertos_app.c **** 	
 153:project/src/freertos_app.c ****   /* add user code begin freertos_init 1 */
 154:project/src/freertos_app.c **** 
 155:project/src/freertos_app.c ****   /* add user code end freertos_init 1 */
 156:project/src/freertos_app.c **** 
 157:project/src/freertos_app.c ****   /* exit critical */
 158:project/src/freertos_app.c ****   taskEXIT_CRITICAL();
 159:project/src/freertos_app.c **** 
 160:project/src/freertos_app.c ****   /* start scheduler */
 161:project/src/freertos_app.c ****   vTaskStartScheduler();
 162:project/src/freertos_app.c **** }
 163:project/src/freertos_app.c **** 
 164:project/src/freertos_app.c **** /**
 165:project/src/freertos_app.c ****   * @brief MC_Task function.
 166:project/src/freertos_app.c ****   * @param  none
 167:project/src/freertos_app.c ****   * @retval none
 168:project/src/freertos_app.c ****   */
 169:project/src/freertos_app.c **** void MC_Task_Func(void *pvParameters)
 170:project/src/freertos_app.c **** {
  29              		.loc 1 170 1 view -0
  30              		.cfi_startproc
  31              		@ Volatile: function does not return.
  32              		@ args = 0, pretend = 0, frame = 0
  33              		@ frame_needed = 0, uses_anonymous_args = 0
  34              	.LVL0:
  35              		.loc 1 170 1 is_stmt 0 view .LVU1
  36 0000 08B5     		push	{r3, lr}
  37              	.LCFI0:
  38              		.cfi_def_cfa_offset 8
  39              		.cfi_offset 3, -8
  40              		.cfi_offset 14, -4
  41              	.LVL1:
  42              	.L2:
 171:project/src/freertos_app.c ****   /* add user code begin MC_Task_Func 0 */
 172:project/src/freertos_app.c **** 
 173:project/src/freertos_app.c ****   /* add user code end MC_Task_Func 0 */
 174:project/src/freertos_app.c **** 
 175:project/src/freertos_app.c ****   /* add user code begin MC_Task_Func 2 */
 176:project/src/freertos_app.c **** 
 177:project/src/freertos_app.c ****   /* add user code end MC_Task_Func 2 */
 178:project/src/freertos_app.c **** 
 179:project/src/freertos_app.c ****   /* Infinite loop */
 180:project/src/freertos_app.c ****   while(1)
  43              		.loc 1 180 3 is_stmt 1 view .LVU2
 181:project/src/freertos_app.c ****   {
 182:project/src/freertos_app.c ****     /* when use usb,the function wk_usb_app_task() will be generated,
 183:project/src/freertos_app.c ****        which is the usb application layer code that users can improve themselves */
 184:project/src/freertos_app.c ****     wk_usb_app_task();  
  44              		.loc 1 184 5 view .LVU3
  45 0002 FFF7FEFF 		bl	wk_usb_app_task
ARM GAS  C:\Users\10963\AppData\Local\Temp\ccPGpRts.s 			page 5


  46              	.LVL2:
 185:project/src/freertos_app.c ****     motor_control_process(&motor);
  47              		.loc 1 185 5 view .LVU4
  48 0006 0348     		ldr	r0, .L4
  49 0008 FFF7FEFF 		bl	motor_control_process
  50              	.LVL3:
 186:project/src/freertos_app.c **** 
 187:project/src/freertos_app.c ****     /* add user code begin MC_Task_Func 1 */
 188:project/src/freertos_app.c ****   /* add user code begin MC_Task_Func 1 */
 189:project/src/freertos_app.c **** 
 190:project/src/freertos_app.c ****     vTaskDelay(1);
  51              		.loc 1 190 5 discriminator 2 view .LVU5
  52 000c 0120     		movs	r0, #1
  53 000e FFF7FEFF 		bl	vTaskDelay
  54              	.LVL4:
 180:project/src/freertos_app.c ****   {
  55              		.loc 1 180 8 view .LVU6
  56 0012 F6E7     		b	.L2
  57              	.L5:
  58              		.align	2
  59              	.L4:
  60 0014 00000000 		.word	motor
  61              		.cfi_endproc
  62              	.LFE142:
  64              		.section	.text.Monitor_Task_Func,"ax",%progbits
  65              		.align	1
  66              		.global	Monitor_Task_Func
  67              		.syntax unified
  68              		.thumb
  69              		.thumb_func
  71              	Monitor_Task_Func:
  72              	.LFB143:
 191:project/src/freertos_app.c **** 
 192:project/src/freertos_app.c ****   /* add user code end MC_Task_Func 1 */
 193:project/src/freertos_app.c ****   }
 194:project/src/freertos_app.c **** }
 195:project/src/freertos_app.c **** 
 196:project/src/freertos_app.c **** 
 197:project/src/freertos_app.c **** /**
 198:project/src/freertos_app.c ****   * @brief Monitor_Task function.
 199:project/src/freertos_app.c ****   * @param  none
 200:project/src/freertos_app.c ****   * @retval none
 201:project/src/freertos_app.c ****   */
 202:project/src/freertos_app.c **** void Monitor_Task_Func(void *pvParameters)
 203:project/src/freertos_app.c **** {
  73              		.loc 1 203 1 view -0
  74              		.cfi_startproc
  75              		@ Volatile: function does not return.
  76              		@ args = 0, pretend = 0, frame = 0
  77              		@ frame_needed = 0, uses_anonymous_args = 0
  78              	.LVL5:
  79              		.loc 1 203 1 is_stmt 0 view .LVU8
  80 0000 08B5     		push	{r3, lr}
  81              	.LCFI1:
  82              		.cfi_def_cfa_offset 8
  83              		.cfi_offset 3, -8
  84              		.cfi_offset 14, -4
ARM GAS  C:\Users\10963\AppData\Local\Temp\ccPGpRts.s 			page 6


  85              	.LVL6:
  86              	.L7:
 204:project/src/freertos_app.c ****   /* add user code begin Monitor_Task_Func 0 */
 205:project/src/freertos_app.c **** 
 206:project/src/freertos_app.c ****   /* add user code end Monitor_Task_Func 0 */
 207:project/src/freertos_app.c **** 
 208:project/src/freertos_app.c ****   /* add user code begin Monitor_Task_Func 2 */
 209:project/src/freertos_app.c **** 
 210:project/src/freertos_app.c ****   /* add user code end Monitor_Task_Func 2 */
 211:project/src/freertos_app.c **** 
 212:project/src/freertos_app.c ****   /* Infinite loop */
 213:project/src/freertos_app.c ****   while(1)
  87              		.loc 1 213 3 is_stmt 1 view .LVU9
 214:project/src/freertos_app.c ****   {
 215:project/src/freertos_app.c ****   /* add user code begin Monitor_Task_Func 1 */
 216:project/src/freertos_app.c **** 
 217:project/src/freertos_app.c ****     vTaskDelay(1);
  88              		.loc 1 217 5 discriminator 2 view .LVU10
  89 0002 0120     		movs	r0, #1
  90 0004 FFF7FEFF 		bl	vTaskDelay
  91              	.LVL7:
 213:project/src/freertos_app.c ****   {
  92              		.loc 1 213 8 view .LVU11
  93 0008 FBE7     		b	.L7
  94              		.cfi_endproc
  95              	.LFE143:
  97              		.section	.text.Community_Task_Func,"ax",%progbits
  98              		.align	1
  99              		.global	Community_Task_Func
 100              		.syntax unified
 101              		.thumb
 102              		.thumb_func
 104              	Community_Task_Func:
 105              	.LFB144:
 218:project/src/freertos_app.c **** 
 219:project/src/freertos_app.c ****   /* add user code end Monitor_Task_Func 1 */
 220:project/src/freertos_app.c ****   }
 221:project/src/freertos_app.c **** }
 222:project/src/freertos_app.c **** 
 223:project/src/freertos_app.c **** 
 224:project/src/freertos_app.c **** /**
 225:project/src/freertos_app.c ****   * @brief Community_Task function.
 226:project/src/freertos_app.c ****   * @param  none
 227:project/src/freertos_app.c ****   * @retval none
 228:project/src/freertos_app.c ****   */
 229:project/src/freertos_app.c **** void Community_Task_Func(void *pvParameters)
 230:project/src/freertos_app.c **** {
 106              		.loc 1 230 1 view -0
 107              		.cfi_startproc
 108              		@ Volatile: function does not return.
 109              		@ args = 0, pretend = 0, frame = 0
 110              		@ frame_needed = 0, uses_anonymous_args = 0
 111              	.LVL8:
 112              		.loc 1 230 1 is_stmt 0 view .LVU13
 113 0000 08B5     		push	{r3, lr}
 114              	.LCFI2:
 115              		.cfi_def_cfa_offset 8
ARM GAS  C:\Users\10963\AppData\Local\Temp\ccPGpRts.s 			page 7


 116              		.cfi_offset 3, -8
 117              		.cfi_offset 14, -4
 118              	.LVL9:
 119              	.L10:
 231:project/src/freertos_app.c ****   /* add user code begin Community_Task_Func 0 */
 232:project/src/freertos_app.c **** 
 233:project/src/freertos_app.c ****   /* add user code end Community_Task_Func 0 */
 234:project/src/freertos_app.c **** 
 235:project/src/freertos_app.c ****   /* add user code begin Community_Task_Func 2 */
 236:project/src/freertos_app.c **** 
 237:project/src/freertos_app.c ****   /* add user code end Community_Task_Func 2 */
 238:project/src/freertos_app.c **** 
 239:project/src/freertos_app.c ****   /* Infinite loop */
 240:project/src/freertos_app.c ****   while(1)
 120              		.loc 1 240 3 is_stmt 1 view .LVU14
 241:project/src/freertos_app.c ****   {
 242:project/src/freertos_app.c ****   /* add user code begin Community_Task_Func 1 */
 243:project/src/freertos_app.c **** 
 244:project/src/freertos_app.c ****     vTaskDelay(1);
 121              		.loc 1 244 5 discriminator 2 view .LVU15
 122 0002 0120     		movs	r0, #1
 123 0004 FFF7FEFF 		bl	vTaskDelay
 124              	.LVL10:
 240:project/src/freertos_app.c ****   {
 125              		.loc 1 240 8 view .LVU16
 126 0008 FBE7     		b	.L10
 127              		.cfi_endproc
 128              	.LFE144:
 130              		.section	.text.Debug_Task_Func,"ax",%progbits
 131              		.align	1
 132              		.global	Debug_Task_Func
 133              		.syntax unified
 134              		.thumb
 135              		.thumb_func
 137              	Debug_Task_Func:
 138              	.LFB145:
 245:project/src/freertos_app.c **** 
 246:project/src/freertos_app.c ****   /* add user code end Community_Task_Func 1 */
 247:project/src/freertos_app.c ****   }
 248:project/src/freertos_app.c **** }
 249:project/src/freertos_app.c **** 
 250:project/src/freertos_app.c **** 
 251:project/src/freertos_app.c **** /**
 252:project/src/freertos_app.c ****   * @brief Debug_Task function.
 253:project/src/freertos_app.c ****   * @param  none
 254:project/src/freertos_app.c ****   * @retval none
 255:project/src/freertos_app.c ****   */
 256:project/src/freertos_app.c **** void Debug_Task_Func(void *pvParameters)
 257:project/src/freertos_app.c **** {
 139              		.loc 1 257 1 view -0
 140              		.cfi_startproc
 141              		@ Volatile: function does not return.
 142              		@ args = 0, pretend = 0, frame = 0
 143              		@ frame_needed = 0, uses_anonymous_args = 0
 144              	.LVL11:
 145              		.loc 1 257 1 is_stmt 0 view .LVU18
 146 0000 08B5     		push	{r3, lr}
ARM GAS  C:\Users\10963\AppData\Local\Temp\ccPGpRts.s 			page 8


 147              	.LCFI3:
 148              		.cfi_def_cfa_offset 8
 149              		.cfi_offset 3, -8
 150              		.cfi_offset 14, -4
 151              	.LVL12:
 152              	.L13:
 258:project/src/freertos_app.c ****   /* add user code begin Debug_Task_Func 0 */
 259:project/src/freertos_app.c **** 
 260:project/src/freertos_app.c ****   /* add user code end Debug_Task_Func 0 */
 261:project/src/freertos_app.c **** 
 262:project/src/freertos_app.c ****   /* add user code begin Debug_Task_Func 2 */
 263:project/src/freertos_app.c **** 
 264:project/src/freertos_app.c ****   /* add user code end Debug_Task_Func 2 */
 265:project/src/freertos_app.c **** 
 266:project/src/freertos_app.c ****   /* Infinite loop */
 267:project/src/freertos_app.c ****   while(1)
 153              		.loc 1 267 3 is_stmt 1 view .LVU19
 268:project/src/freertos_app.c ****   {
 269:project/src/freertos_app.c ****   /* add user code begin Debug_Task_Func 1 */
 270:project/src/freertos_app.c **** 
 271:project/src/freertos_app.c ****     vTaskDelay(1);
 154              		.loc 1 271 5 discriminator 2 view .LVU20
 155 0002 0120     		movs	r0, #1
 156 0004 FFF7FEFF 		bl	vTaskDelay
 157              	.LVL13:
 267:project/src/freertos_app.c ****   {
 158              		.loc 1 267 8 view .LVU21
 159 0008 FBE7     		b	.L13
 160              		.cfi_endproc
 161              	.LFE145:
 163              		.section	.text.vApplicationGetIdleTaskMemory,"ax",%progbits
 164              		.align	1
 165              		.global	vApplicationGetIdleTaskMemory
 166              		.syntax unified
 167              		.thumb
 168              		.thumb_func
 170              	vApplicationGetIdleTaskMemory:
 171              	.LVL14:
 172              	.LFB138:
  77:project/src/freertos_app.c ****   *ppxIdleTaskTCBBuffer = &idle_task_tcb;
 173              		.loc 1 77 1 view -0
 174              		.cfi_startproc
 175              		@ args = 0, pretend = 0, frame = 0
 176              		@ frame_needed = 0, uses_anonymous_args = 0
 177              		@ link register save eliminated.
  78:project/src/freertos_app.c ****   *ppxIdleTaskStackBuffer = &idle_task_stack[0];
 178              		.loc 1 78 3 view .LVU23
  78:project/src/freertos_app.c ****   *ppxIdleTaskStackBuffer = &idle_task_stack[0];
 179              		.loc 1 78 25 is_stmt 0 view .LVU24
 180 0000 034B     		ldr	r3, .L16
 181 0002 0360     		str	r3, [r0]
  79:project/src/freertos_app.c ****   *pulIdleTaskStackSize = (uint32_t)configMINIMAL_STACK_SIZE;
 182              		.loc 1 79 3 is_stmt 1 view .LVU25
  79:project/src/freertos_app.c ****   *pulIdleTaskStackSize = (uint32_t)configMINIMAL_STACK_SIZE;
 183              		.loc 1 79 27 is_stmt 0 view .LVU26
 184 0004 034B     		ldr	r3, .L16+4
 185 0006 0B60     		str	r3, [r1]
ARM GAS  C:\Users\10963\AppData\Local\Temp\ccPGpRts.s 			page 9


  80:project/src/freertos_app.c **** }
 186              		.loc 1 80 3 is_stmt 1 view .LVU27
  80:project/src/freertos_app.c **** }
 187              		.loc 1 80 25 is_stmt 0 view .LVU28
 188 0008 8023     		movs	r3, #128
 189 000a 1360     		str	r3, [r2]
  81:project/src/freertos_app.c **** /*
 190              		.loc 1 81 1 view .LVU29
 191 000c 7047     		bx	lr
 192              	.L17:
 193 000e 00BF     		.align	2
 194              	.L16:
 195 0010 00000000 		.word	idle_task_tcb
 196 0014 00000000 		.word	idle_task_stack
 197              		.cfi_endproc
 198              	.LFE138:
 200              		.section	.text.vApplicationGetTimerTaskMemory,"ax",%progbits
 201              		.align	1
 202              		.global	vApplicationGetTimerTaskMemory
 203              		.syntax unified
 204              		.thumb
 205              		.thumb_func
 207              	vApplicationGetTimerTaskMemory:
 208              	.LVL15:
 209              	.LFB139:
  87:project/src/freertos_app.c ****   *ppxTimerTaskTCBBuffer = &timer_task_tcb;
 210              		.loc 1 87 1 is_stmt 1 view -0
 211              		.cfi_startproc
 212              		@ args = 0, pretend = 0, frame = 0
 213              		@ frame_needed = 0, uses_anonymous_args = 0
 214              		@ link register save eliminated.
  88:project/src/freertos_app.c ****   *ppxTimerTaskStackBuffer = &timer_task_stack[0];
 215              		.loc 1 88 3 view .LVU31
  88:project/src/freertos_app.c ****   *ppxTimerTaskStackBuffer = &timer_task_stack[0];
 216              		.loc 1 88 26 is_stmt 0 view .LVU32
 217 0000 034B     		ldr	r3, .L19
 218 0002 0360     		str	r3, [r0]
  89:project/src/freertos_app.c ****   *pulTimerTaskStackSize = (uint32_t)configTIMER_TASK_STACK_DEPTH;
 219              		.loc 1 89 3 is_stmt 1 view .LVU33
  89:project/src/freertos_app.c ****   *pulTimerTaskStackSize = (uint32_t)configTIMER_TASK_STACK_DEPTH;
 220              		.loc 1 89 28 is_stmt 0 view .LVU34
 221 0004 034B     		ldr	r3, .L19+4
 222 0006 0B60     		str	r3, [r1]
  90:project/src/freertos_app.c **** }
 223              		.loc 1 90 3 is_stmt 1 view .LVU35
  90:project/src/freertos_app.c **** }
 224              		.loc 1 90 26 is_stmt 0 view .LVU36
 225 0008 4FF48073 		mov	r3, #256
 226 000c 1360     		str	r3, [r2]
  91:project/src/freertos_app.c **** 
 227              		.loc 1 91 1 view .LVU37
 228 000e 7047     		bx	lr
 229              	.L20:
 230              		.align	2
 231              	.L19:
 232 0010 00000000 		.word	timer_task_tcb
 233 0014 00000000 		.word	timer_task_stack
ARM GAS  C:\Users\10963\AppData\Local\Temp\ccPGpRts.s 			page 10


 234              		.cfi_endproc
 235              	.LFE139:
 237              		.section	.rodata.freertos_task_create.str1.4,"aMS",%progbits,1
 238              		.align	2
 239              	.LC0:
 240 0000 4D435F54 		.ascii	"MC_Task\000"
 240      61736B00 
 241              		.align	2
 242              	.LC1:
 243 0008 4D6F6E69 		.ascii	"Monitor_Task\000"
 243      746F725F 
 243      5461736B 
 243      00
 244 0015 000000   		.align	2
 245              	.LC2:
 246 0018 436F6D6D 		.ascii	"Community_Task\000"
 246      756E6974 
 246      795F5461 
 246      736B00
 247 0027 00       		.align	2
 248              	.LC3:
 249 0028 44656275 		.ascii	"Debug_Task\000"
 249      675F5461 
 249      736B00
 250              		.section	.text.freertos_task_create,"ax",%progbits
 251              		.align	1
 252              		.global	freertos_task_create
 253              		.syntax unified
 254              		.thumb
 255              		.thumb_func
 257              	freertos_task_create:
 258              	.LFB140:
 103:project/src/freertos_app.c ****   /* create MC_Task task */
 259              		.loc 1 103 1 is_stmt 1 view -0
 260              		.cfi_startproc
 261              		@ args = 0, pretend = 0, frame = 0
 262              		@ frame_needed = 0, uses_anonymous_args = 0
 263 0000 10B5     		push	{r4, lr}
 264              	.LCFI4:
 265              		.cfi_def_cfa_offset 8
 266              		.cfi_offset 4, -8
 267              		.cfi_offset 14, -4
 268 0002 82B0     		sub	sp, sp, #8
 269              	.LCFI5:
 270              		.cfi_def_cfa_offset 16
 105:project/src/freertos_app.c ****               "MC_Task",
 271              		.loc 1 105 3 view .LVU39
 272 0004 154B     		ldr	r3, .L23
 273 0006 0193     		str	r3, [sp, #4]
 274 0008 0024     		movs	r4, #0
 275 000a 0094     		str	r4, [sp]
 276 000c 2346     		mov	r3, r4
 277 000e 4FF40072 		mov	r2, #512
 278 0012 1349     		ldr	r1, .L23+4
 279 0014 1348     		ldr	r0, .L23+8
 280 0016 FFF7FEFF 		bl	xTaskCreate
 281              	.LVL16:
ARM GAS  C:\Users\10963\AppData\Local\Temp\ccPGpRts.s 			page 11


 113:project/src/freertos_app.c ****               "Monitor_Task",
 282              		.loc 1 113 3 view .LVU40
 283 001a 134B     		ldr	r3, .L23+12
 284 001c 0193     		str	r3, [sp, #4]
 285 001e 0094     		str	r4, [sp]
 286 0020 2346     		mov	r3, r4
 287 0022 4FF40072 		mov	r2, #512
 288 0026 1149     		ldr	r1, .L23+16
 289 0028 1148     		ldr	r0, .L23+20
 290 002a FFF7FEFF 		bl	xTaskCreate
 291              	.LVL17:
 121:project/src/freertos_app.c ****               "Community_Task",
 292              		.loc 1 121 3 view .LVU41
 293 002e 114B     		ldr	r3, .L23+24
 294 0030 0193     		str	r3, [sp, #4]
 295 0032 0094     		str	r4, [sp]
 296 0034 2346     		mov	r3, r4
 297 0036 4FF40072 		mov	r2, #512
 298 003a 0F49     		ldr	r1, .L23+28
 299 003c 0F48     		ldr	r0, .L23+32
 300 003e FFF7FEFF 		bl	xTaskCreate
 301              	.LVL18:
 129:project/src/freertos_app.c ****               "Debug_Task",
 302              		.loc 1 129 3 view .LVU42
 303 0042 0F4B     		ldr	r3, .L23+36
 304 0044 0193     		str	r3, [sp, #4]
 305 0046 0094     		str	r4, [sp]
 306 0048 2346     		mov	r3, r4
 307 004a 4FF40072 		mov	r2, #512
 308 004e 0D49     		ldr	r1, .L23+40
 309 0050 0D48     		ldr	r0, .L23+44
 310 0052 FFF7FEFF 		bl	xTaskCreate
 311              	.LVL19:
 135:project/src/freertos_app.c **** 
 312              		.loc 1 135 1 is_stmt 0 view .LVU43
 313 0056 02B0     		add	sp, sp, #8
 314              	.LCFI6:
 315              		.cfi_def_cfa_offset 8
 316              		@ sp needed
 317 0058 10BD     		pop	{r4, pc}
 318              	.L24:
 319 005a 00BF     		.align	2
 320              	.L23:
 321 005c 00000000 		.word	MC_Task_handle
 322 0060 00000000 		.word	.LC0
 323 0064 00000000 		.word	MC_Task_Func
 324 0068 00000000 		.word	Monitor_Task_handle
 325 006c 08000000 		.word	.LC1
 326 0070 00000000 		.word	Monitor_Task_Func
 327 0074 00000000 		.word	Community_Task_handle
 328 0078 18000000 		.word	.LC2
 329 007c 00000000 		.word	Community_Task_Func
 330 0080 00000000 		.word	Debug_Task_handle
 331 0084 28000000 		.word	.LC3
 332 0088 00000000 		.word	Debug_Task_Func
 333              		.cfi_endproc
 334              	.LFE140:
ARM GAS  C:\Users\10963\AppData\Local\Temp\ccPGpRts.s 			page 12


 336              		.section	.text.wk_freertos_init,"ax",%progbits
 337              		.align	1
 338              		.global	wk_freertos_init
 339              		.syntax unified
 340              		.thumb
 341              		.thumb_func
 343              	wk_freertos_init:
 344              	.LFB141:
 143:project/src/freertos_app.c ****   /* add user code begin freertos_init 0 */
 345              		.loc 1 143 1 is_stmt 1 view -0
 346              		.cfi_startproc
 347              		@ args = 0, pretend = 0, frame = 0
 348              		@ frame_needed = 0, uses_anonymous_args = 0
 349 0000 08B5     		push	{r3, lr}
 350              	.LCFI7:
 351              		.cfi_def_cfa_offset 8
 352              		.cfi_offset 3, -8
 353              		.cfi_offset 14, -4
 149:project/src/freertos_app.c **** 
 354              		.loc 1 149 3 view .LVU45
 355 0002 FFF7FEFF 		bl	vPortEnterCritical
 356              	.LVL20:
 151:project/src/freertos_app.c **** 	
 357              		.loc 1 151 3 view .LVU46
 358 0006 FFF7FEFF 		bl	freertos_task_create
 359              	.LVL21:
 158:project/src/freertos_app.c **** 
 360              		.loc 1 158 3 view .LVU47
 361 000a FFF7FEFF 		bl	vPortExitCritical
 362              	.LVL22:
 161:project/src/freertos_app.c **** }
 363              		.loc 1 161 3 view .LVU48
 364 000e FFF7FEFF 		bl	vTaskStartScheduler
 365              	.LVL23:
 162:project/src/freertos_app.c **** 
 366              		.loc 1 162 1 is_stmt 0 view .LVU49
 367 0012 08BD     		pop	{r3, pc}
 368              		.cfi_endproc
 369              	.LFE141:
 371              		.section	.bss.timer_task_tcb,"aw",%nobits
 372              		.align	2
 375              	timer_task_tcb:
 376 0000 00000000 		.space	92
 376      00000000 
 376      00000000 
 376      00000000 
 376      00000000 
 377              		.section	.bss.idle_task_tcb,"aw",%nobits
 378              		.align	2
 381              	idle_task_tcb:
 382 0000 00000000 		.space	92
 382      00000000 
 382      00000000 
 382      00000000 
 382      00000000 
 383              		.section	.bss.timer_task_stack,"aw",%nobits
 384              		.align	2
ARM GAS  C:\Users\10963\AppData\Local\Temp\ccPGpRts.s 			page 13


 387              	timer_task_stack:
 388 0000 00000000 		.space	1024
 388      00000000 
 388      00000000 
 388      00000000 
 388      00000000 
 389              		.section	.bss.idle_task_stack,"aw",%nobits
 390              		.align	2
 393              	idle_task_stack:
 394 0000 00000000 		.space	512
 394      00000000 
 394      00000000 
 394      00000000 
 394      00000000 
 395              		.global	Debug_Task_handle
 396              		.section	.bss.Debug_Task_handle,"aw",%nobits
 397              		.align	2
 400              	Debug_Task_handle:
 401 0000 00000000 		.space	4
 402              		.global	Community_Task_handle
 403              		.section	.bss.Community_Task_handle,"aw",%nobits
 404              		.align	2
 407              	Community_Task_handle:
 408 0000 00000000 		.space	4
 409              		.global	Monitor_Task_handle
 410              		.section	.bss.Monitor_Task_handle,"aw",%nobits
 411              		.align	2
 414              	Monitor_Task_handle:
 415 0000 00000000 		.space	4
 416              		.global	MC_Task_handle
 417              		.section	.bss.MC_Task_handle,"aw",%nobits
 418              		.align	2
 421              	MC_Task_handle:
 422 0000 00000000 		.space	4
 423              		.text
 424              	.Letext0:
 425              		.file 2 "C:/Program Files (x86)/Arm/GNU Toolchain mingw-w64-i686-arm-none-eabi/arm-none-eabi/inclu
 426              		.file 3 "C:/Program Files (x86)/Arm/GNU Toolchain mingw-w64-i686-arm-none-eabi/arm-none-eabi/inclu
 427              		.file 4 "middlewares/freertos/source/include/projdefs.h"
 428              		.file 5 "middlewares/freertos/source/portable/GCC/ARM_CM4F/portmacro.h"
 429              		.file 6 "middlewares/freertos/source/include/FreeRTOS.h"
 430              		.file 7 "middlewares/freertos/source/include/task.h"
 431              		.file 8 "libraries/drivers/inc/at32f403a_407_tmr.h"
 432              		.file 9 "project/inc/freertos_app.h"
 433              		.file 10 "../Motor_Control/inc/motor_params.h"
 434              		.file 11 "../Motor_Control/inc/motor_control.h"
 435              		.file 12 "project/inc/usb_app.h"
ARM GAS  C:\Users\10963\AppData\Local\Temp\ccPGpRts.s 			page 14


DEFINED SYMBOLS
                            *ABS*:00000000 freertos_app.c
C:\Users\10963\AppData\Local\Temp\ccPGpRts.s:21     .text.MC_Task_Func:00000000 $t
C:\Users\10963\AppData\Local\Temp\ccPGpRts.s:27     .text.MC_Task_Func:00000000 MC_Task_Func
C:\Users\10963\AppData\Local\Temp\ccPGpRts.s:60     .text.MC_Task_Func:00000014 $d
C:\Users\10963\AppData\Local\Temp\ccPGpRts.s:65     .text.Monitor_Task_Func:00000000 $t
C:\Users\10963\AppData\Local\Temp\ccPGpRts.s:71     .text.Monitor_Task_Func:00000000 Monitor_Task_Func
C:\Users\10963\AppData\Local\Temp\ccPGpRts.s:98     .text.Community_Task_Func:00000000 $t
C:\Users\10963\AppData\Local\Temp\ccPGpRts.s:104    .text.Community_Task_Func:00000000 Community_Task_Func
C:\Users\10963\AppData\Local\Temp\ccPGpRts.s:131    .text.Debug_Task_Func:00000000 $t
C:\Users\10963\AppData\Local\Temp\ccPGpRts.s:137    .text.Debug_Task_Func:00000000 Debug_Task_Func
C:\Users\10963\AppData\Local\Temp\ccPGpRts.s:164    .text.vApplicationGetIdleTaskMemory:00000000 $t
C:\Users\10963\AppData\Local\Temp\ccPGpRts.s:170    .text.vApplicationGetIdleTaskMemory:00000000 vApplicationGetIdleTaskMemory
C:\Users\10963\AppData\Local\Temp\ccPGpRts.s:195    .text.vApplicationGetIdleTaskMemory:00000010 $d
C:\Users\10963\AppData\Local\Temp\ccPGpRts.s:381    .bss.idle_task_tcb:00000000 idle_task_tcb
C:\Users\10963\AppData\Local\Temp\ccPGpRts.s:393    .bss.idle_task_stack:00000000 idle_task_stack
C:\Users\10963\AppData\Local\Temp\ccPGpRts.s:201    .text.vApplicationGetTimerTaskMemory:00000000 $t
C:\Users\10963\AppData\Local\Temp\ccPGpRts.s:207    .text.vApplicationGetTimerTaskMemory:00000000 vApplicationGetTimerTaskMemory
C:\Users\10963\AppData\Local\Temp\ccPGpRts.s:232    .text.vApplicationGetTimerTaskMemory:00000010 $d
C:\Users\10963\AppData\Local\Temp\ccPGpRts.s:375    .bss.timer_task_tcb:00000000 timer_task_tcb
C:\Users\10963\AppData\Local\Temp\ccPGpRts.s:387    .bss.timer_task_stack:00000000 timer_task_stack
C:\Users\10963\AppData\Local\Temp\ccPGpRts.s:238    .rodata.freertos_task_create.str1.4:00000000 $d
C:\Users\10963\AppData\Local\Temp\ccPGpRts.s:251    .text.freertos_task_create:00000000 $t
C:\Users\10963\AppData\Local\Temp\ccPGpRts.s:257    .text.freertos_task_create:00000000 freertos_task_create
C:\Users\10963\AppData\Local\Temp\ccPGpRts.s:321    .text.freertos_task_create:0000005c $d
C:\Users\10963\AppData\Local\Temp\ccPGpRts.s:421    .bss.MC_Task_handle:00000000 MC_Task_handle
C:\Users\10963\AppData\Local\Temp\ccPGpRts.s:414    .bss.Monitor_Task_handle:00000000 Monitor_Task_handle
C:\Users\10963\AppData\Local\Temp\ccPGpRts.s:407    .bss.Community_Task_handle:00000000 Community_Task_handle
C:\Users\10963\AppData\Local\Temp\ccPGpRts.s:400    .bss.Debug_Task_handle:00000000 Debug_Task_handle
C:\Users\10963\AppData\Local\Temp\ccPGpRts.s:337    .text.wk_freertos_init:00000000 $t
C:\Users\10963\AppData\Local\Temp\ccPGpRts.s:343    .text.wk_freertos_init:00000000 wk_freertos_init
C:\Users\10963\AppData\Local\Temp\ccPGpRts.s:372    .bss.timer_task_tcb:00000000 $d
C:\Users\10963\AppData\Local\Temp\ccPGpRts.s:378    .bss.idle_task_tcb:00000000 $d
C:\Users\10963\AppData\Local\Temp\ccPGpRts.s:384    .bss.timer_task_stack:00000000 $d
C:\Users\10963\AppData\Local\Temp\ccPGpRts.s:390    .bss.idle_task_stack:00000000 $d
C:\Users\10963\AppData\Local\Temp\ccPGpRts.s:397    .bss.Debug_Task_handle:00000000 $d
C:\Users\10963\AppData\Local\Temp\ccPGpRts.s:404    .bss.Community_Task_handle:00000000 $d
C:\Users\10963\AppData\Local\Temp\ccPGpRts.s:411    .bss.Monitor_Task_handle:00000000 $d
C:\Users\10963\AppData\Local\Temp\ccPGpRts.s:418    .bss.MC_Task_handle:00000000 $d

UNDEFINED SYMBOLS
wk_usb_app_task
motor_control_process
vTaskDelay
motor
xTaskCreate
vPortEnterCritical
vPortExitCritical
vTaskStartScheduler
