ARM GAS  C:\Users\10963\AppData\Local\Temp\ccpnLHYS.s 			page 1


   1              		.cpu cortex-m4
   2              		.arch armv7e-m
   3              		.fpu fpv4-sp-d16
   4              		.eabi_attribute 27, 1
   5              		.eabi_attribute 28, 1
   6              		.eabi_attribute 20, 1
   7              		.eabi_attribute 21, 1
   8              		.eabi_attribute 23, 3
   9              		.eabi_attribute 24, 1
  10              		.eabi_attribute 25, 1
  11              		.eabi_attribute 26, 1
  12              		.eabi_attribute 30, 1
  13              		.eabi_attribute 34, 1
  14              		.eabi_attribute 18, 4
  15              		.file	"main.c"
  16              		.text
  17              	.Ltext0:
  18              		.cfi_sections	.debug_frame
  19              		.file 1 "project/src/main.c"
  20              		.section	.text.main,"ax",%progbits
  21              		.align	1
  22              		.global	main
  23              		.syntax unified
  24              		.thumb
  25              		.thumb_func
  27              	main:
  28              	.LFB141:
   1:project/src/main.c **** /* add user code begin Header */
   2:project/src/main.c **** /**
   3:project/src/main.c ****   **************************************************************************
   4:project/src/main.c ****   * @file     main.c
   5:project/src/main.c ****   * @brief    main program
   6:project/src/main.c ****   **************************************************************************
   7:project/src/main.c ****   * Copyright (c) 2025, Artery Technology, All rights reserved.
   8:project/src/main.c ****   *
   9:project/src/main.c ****   * The software Board Support Package (BSP) that is made available to
  10:project/src/main.c ****   * download from Artery official website is the copyrighted work of Artery.
  11:project/src/main.c ****   * Artery authorizes customers to use, copy, and distribute the BSP
  12:project/src/main.c ****   * software and its related documentation for the purpose of design and
  13:project/src/main.c ****   * development in conjunction with Artery microcontrollers. Use of the
  14:project/src/main.c ****   * software is governed by this copyright notice and the following disclaimer.
  15:project/src/main.c ****   *
  16:project/src/main.c ****   * THIS SOFTWARE IS PROVIDED ON "AS IS" BASIS WITHOUT WARRANTIES,
  17:project/src/main.c ****   * GUARANTEES OR REPRESENTATIONS OF ANY KIND. ARTERY EXPRESSLY DISCLAIMS,
  18:project/src/main.c ****   * TO THE FULLEST EXTENT PERMITTED BY LAW, ALL EXPRESS, IMPLIED OR
  19:project/src/main.c ****   * STATUTORY OR OTHER WARRANTIES, GUARANTEES OR REPRESENTATIONS,
  20:project/src/main.c ****   * INCLUDING BUT NOT LIMITED TO, THE IMPLIED WARRANTIES OF MERCHANTABILITY,
  21:project/src/main.c ****   * FITNESS FOR A PARTICULAR PURPOSE, OR NON-INFRINGEMENT.
  22:project/src/main.c ****   *
  23:project/src/main.c ****   **************************************************************************
  24:project/src/main.c ****   */
  25:project/src/main.c **** /* add user code end Header */
  26:project/src/main.c **** 
  27:project/src/main.c **** /* Includes ------------------------------------------------------------------*/
  28:project/src/main.c **** #include "at32f403a_407_wk_config.h"
  29:project/src/main.c **** #include "wk_acc.h"
  30:project/src/main.c **** #include "wk_adc.h"
ARM GAS  C:\Users\10963\AppData\Local\Temp\ccpnLHYS.s 			page 2


  31:project/src/main.c **** #include "wk_can.h"
  32:project/src/main.c **** #include "wk_debug.h"
  33:project/src/main.c **** #include "wk_spi.h"
  34:project/src/main.c **** #include "wk_tmr.h"
  35:project/src/main.c **** #include "wk_usbfs.h"
  36:project/src/main.c **** #include "wk_dma.h"
  37:project/src/main.c **** #include "wk_gpio.h"
  38:project/src/main.c **** #include "usb_app.h"
  39:project/src/main.c **** #include "wk_system.h"
  40:project/src/main.c **** #include "freertos_app.h"
  41:project/src/main.c **** 
  42:project/src/main.c **** /* private includes ----------------------------------------------------------*/
  43:project/src/main.c **** /* add user code begin private includes */
  44:project/src/main.c **** #include "motor_control.h"
  45:project/src/main.c **** 
  46:project/src/main.c **** /* add user code end private includes */
  47:project/src/main.c **** 
  48:project/src/main.c **** /* private typedef -----------------------------------------------------------*/
  49:project/src/main.c **** /* add user code begin private typedef */
  50:project/src/main.c **** 
  51:project/src/main.c **** /* add user code end private typedef */
  52:project/src/main.c **** 
  53:project/src/main.c **** /* private define ------------------------------------------------------------*/
  54:project/src/main.c **** /* add user code begin private define */
  55:project/src/main.c **** 
  56:project/src/main.c **** /* add user code end private define */
  57:project/src/main.c **** 
  58:project/src/main.c **** /* private macro -------------------------------------------------------------*/
  59:project/src/main.c **** /* add user code begin private macro */
  60:project/src/main.c **** uint16_t adc_data_buffer[DMA1_CHANNEL1_BUFFER_SIZE];
  61:project/src/main.c **** /* add user code end private macro */
  62:project/src/main.c **** 
  63:project/src/main.c **** /* private variables ---------------------------------------------------------*/
  64:project/src/main.c **** /* add user code begin private variables */
  65:project/src/main.c **** 
  66:project/src/main.c **** /* motor parameters structure */
  67:project/src/main.c **** motor_params_t motor;
  68:project/src/main.c **** 
  69:project/src/main.c **** /* add user code end private variables */
  70:project/src/main.c **** 
  71:project/src/main.c **** /* private function prototypes --------------------------------------------*/
  72:project/src/main.c **** /* add user code begin function prototypes */
  73:project/src/main.c **** 
  74:project/src/main.c **** /* add user code end function prototypes */
  75:project/src/main.c **** 
  76:project/src/main.c **** /* private user code ---------------------------------------------------------*/
  77:project/src/main.c **** /* add user code begin 0 */
  78:project/src/main.c **** 
  79:project/src/main.c **** /* add user code end 0 */
  80:project/src/main.c **** 
  81:project/src/main.c **** /**
  82:project/src/main.c ****   * @brief main function.
  83:project/src/main.c ****   * @param  none
  84:project/src/main.c ****   * @retval none
  85:project/src/main.c ****   */
  86:project/src/main.c **** int main(void)
  87:project/src/main.c **** {
ARM GAS  C:\Users\10963\AppData\Local\Temp\ccpnLHYS.s 			page 3


  29              		.loc 1 87 1 view -0
  30              		.cfi_startproc
  31              		@ Volatile: function does not return.
  32              		@ args = 0, pretend = 0, frame = 0
  33              		@ frame_needed = 0, uses_anonymous_args = 0
  34 0000 08B5     		push	{r3, lr}
  35              	.LCFI0:
  36              		.cfi_def_cfa_offset 8
  37              		.cfi_offset 3, -8
  38              		.cfi_offset 14, -4
  88:project/src/main.c ****   /* add user code begin 1 */
  89:project/src/main.c **** 
  90:project/src/main.c ****   /* add user code end 1 */
  91:project/src/main.c **** 
  92:project/src/main.c ****   /* system clock config. */
  93:project/src/main.c ****   wk_system_clock_config();
  39              		.loc 1 93 3 view .LVU1
  40 0002 FFF7FEFF 		bl	wk_system_clock_config
  41              	.LVL0:
  94:project/src/main.c **** 
  95:project/src/main.c ****   /* config periph clock. */
  96:project/src/main.c ****   wk_periph_clock_config();
  42              		.loc 1 96 3 view .LVU2
  43 0006 FFF7FEFF 		bl	wk_periph_clock_config
  44              	.LVL1:
  97:project/src/main.c **** 
  98:project/src/main.c ****   /* init debug function. */
  99:project/src/main.c ****   wk_debug_config();
  45              		.loc 1 99 3 view .LVU3
  46 000a FFF7FEFF 		bl	wk_debug_config
  47              	.LVL2:
 100:project/src/main.c **** 
 101:project/src/main.c ****   /* nvic config. */
 102:project/src/main.c ****   wk_nvic_config();
  48              		.loc 1 102 3 view .LVU4
  49 000e FFF7FEFF 		bl	wk_nvic_config
  50              	.LVL3:
 103:project/src/main.c **** 
 104:project/src/main.c ****   /* timebase config for
 105:project/src/main.c ****      void wk_delay_us(uint32_t delay);
 106:project/src/main.c ****      void wk_delay_ms(uint32_t delay); */
 107:project/src/main.c ****   wk_timebase_init();
  51              		.loc 1 107 3 view .LVU5
  52 0012 FFF7FEFF 		bl	wk_timebase_init
  53              	.LVL4:
 108:project/src/main.c **** 
 109:project/src/main.c ****   /* init gpio function. */
 110:project/src/main.c ****   wk_gpio_config();
  54              		.loc 1 110 3 view .LVU6
  55 0016 FFF7FEFF 		bl	wk_gpio_config
  56              	.LVL5:
 111:project/src/main.c **** 
 112:project/src/main.c ****   /* init adc1 function. */
 113:project/src/main.c ****   wk_adc1_init();
  57              		.loc 1 113 3 view .LVU7
  58 001a FFF7FEFF 		bl	wk_adc1_init
  59              	.LVL6:
ARM GAS  C:\Users\10963\AppData\Local\Temp\ccpnLHYS.s 			page 4


 114:project/src/main.c **** 
 115:project/src/main.c ****   /* init dma1 channel1 */
 116:project/src/main.c ****   wk_dma1_channel1_init();
  60              		.loc 1 116 3 view .LVU8
  61 001e FFF7FEFF 		bl	wk_dma1_channel1_init
  62              	.LVL7:
 117:project/src/main.c ****   /* config dma channel transfer parameter */
 118:project/src/main.c ****   /* user need to modify define values DMAx_CHANNELy_XXX_BASE_ADDR 
 119:project/src/main.c ****      and DMAx_CHANNELy_BUFFER_SIZE in at32xxx_wk_config.h */
 120:project/src/main.c ****   wk_dma_channel_config(DMA1_CHANNEL1, 
  63              		.loc 1 120 3 view .LVU9
  64 0022 0E4C     		ldr	r4, .L4
  65 0024 1423     		movs	r3, #20
  66 0026 0E4A     		ldr	r2, .L4+4
  67 0028 0E49     		ldr	r1, .L4+8
  68 002a 2046     		mov	r0, r4
  69 002c FFF7FEFF 		bl	wk_dma_channel_config
  70              	.LVL8:
 121:project/src/main.c ****                         (uint32_t)&ADC1->odt, 
 122:project/src/main.c ****                         (uint32_t)&adc_data_buffer, 
 123:project/src/main.c ****                         DMA1_CHANNEL1_BUFFER_SIZE);
 124:project/src/main.c ****   dma_channel_enable(DMA1_CHANNEL1, TRUE);
  71              		.loc 1 124 3 view .LVU10
  72 0030 0121     		movs	r1, #1
  73 0032 2046     		mov	r0, r4
  74 0034 FFF7FEFF 		bl	dma_channel_enable
  75              	.LVL9:
 125:project/src/main.c **** 
 126:project/src/main.c ****   /* init spi1 function. */
 127:project/src/main.c ****   wk_spi1_init();
  76              		.loc 1 127 3 view .LVU11
  77 0038 FFF7FEFF 		bl	wk_spi1_init
  78              	.LVL10:
 128:project/src/main.c **** 
 129:project/src/main.c ****   /* init tmr1 function. */
 130:project/src/main.c ****   wk_tmr1_init();
  79              		.loc 1 130 3 view .LVU12
  80 003c FFF7FEFF 		bl	wk_tmr1_init
  81              	.LVL11:
 131:project/src/main.c **** 
 132:project/src/main.c ****   /* init tmr5 function. */
 133:project/src/main.c ****   wk_tmr5_init();
  82              		.loc 1 133 3 view .LVU13
  83 0040 FFF7FEFF 		bl	wk_tmr5_init
  84              	.LVL12:
 134:project/src/main.c **** 
 135:project/src/main.c ****   /* init acc function. */
 136:project/src/main.c ****   wk_acc_init();
  85              		.loc 1 136 3 view .LVU14
  86 0044 FFF7FEFF 		bl	wk_acc_init
  87              	.LVL13:
 137:project/src/main.c **** 
 138:project/src/main.c ****   /* init usbfs function. */
 139:project/src/main.c ****   wk_usbfs_init();
  88              		.loc 1 139 3 view .LVU15
  89 0048 FFF7FEFF 		bl	wk_usbfs_init
  90              	.LVL14:
ARM GAS  C:\Users\10963\AppData\Local\Temp\ccpnLHYS.s 			page 5


 140:project/src/main.c **** 
 141:project/src/main.c ****   /* init can1 function. */
 142:project/src/main.c ****   wk_can1_init();
  91              		.loc 1 142 3 view .LVU16
  92 004c FFF7FEFF 		bl	wk_can1_init
  93              	.LVL15:
 143:project/src/main.c **** 
 144:project/src/main.c ****   /* init usb app function. */
 145:project/src/main.c ****   wk_usb_app_init();
  94              		.loc 1 145 3 view .LVU17
  95 0050 FFF7FEFF 		bl	wk_usb_app_init
  96              	.LVL16:
 146:project/src/main.c **** 
 147:project/src/main.c ****   /* add user code begin 2 */
 148:project/src/main.c **** 
 149:project/src/main.c **** 
 150:project/src/main.c ****   /* add user code end 2 */
 151:project/src/main.c **** 
 152:project/src/main.c ****   /* init freertos function. */
 153:project/src/main.c ****   wk_freertos_init();
  97              		.loc 1 153 3 view .LVU18
  98 0054 FFF7FEFF 		bl	wk_freertos_init
  99              	.LVL17:
 100              	.L2:
 154:project/src/main.c **** 
 155:project/src/main.c ****   while(1)
 101              		.loc 1 155 3 view .LVU19
 156:project/src/main.c ****   {
 157:project/src/main.c ****     /* add user code begin 3 */
 158:project/src/main.c **** 
 159:project/src/main.c ****     /* process motor control */
 160:project/src/main.c ****     
 161:project/src/main.c ****     
 162:project/src/main.c ****     /* add user code end 3 */
 163:project/src/main.c ****   }
 102              		.loc 1 163 3 view .LVU20
 155:project/src/main.c ****   {
 103              		.loc 1 155 8 view .LVU21
 104 0058 FEE7     		b	.L2
 105              	.L5:
 106 005a 00BF     		.align	2
 107              	.L4:
 108 005c 08000240 		.word	1073872904
 109 0060 00000000 		.word	adc_data_buffer
 110 0064 4C240140 		.word	1073816652
 111              		.cfi_endproc
 112              	.LFE141:
 114              		.global	motor
 115              		.section	.bss.motor,"aw",%nobits
 116              		.align	2
 119              	motor:
 120 0000 00000000 		.space	24
 120      00000000 
 120      00000000 
 120      00000000 
 120      00000000 
 121              		.global	adc_data_buffer
ARM GAS  C:\Users\10963\AppData\Local\Temp\ccpnLHYS.s 			page 6


 122              		.section	.bss.adc_data_buffer,"aw",%nobits
 123              		.align	2
 126              	adc_data_buffer:
 127 0000 00000000 		.space	40
 127      00000000 
 127      00000000 
 127      00000000 
 127      00000000 
 128              		.text
 129              	.Letext0:
 130              		.file 2 "C:/Program Files (x86)/Arm/GNU Toolchain mingw-w64-i686-arm-none-eabi/arm-none-eabi/inclu
 131              		.file 3 "C:/Program Files (x86)/Arm/GNU Toolchain mingw-w64-i686-arm-none-eabi/arm-none-eabi/inclu
 132              		.file 4 "libraries/cmsis/cm4/device_support/at32f403a_407.h"
 133              		.file 5 "libraries/drivers/inc/at32f403a_407_adc.h"
 134              		.file 6 "libraries/drivers/inc/at32f403a_407_dma.h"
 135              		.file 7 "libraries/drivers/inc/at32f403a_407_tmr.h"
 136              		.file 8 "../Motor_Control/inc/motor_params.h"
 137              		.file 9 "project/inc/freertos_app.h"
 138              		.file 10 "project/inc/usb_app.h"
 139              		.file 11 "project/inc/wk_can.h"
 140              		.file 12 "project/inc/wk_usbfs.h"
 141              		.file 13 "project/inc/wk_acc.h"
 142              		.file 14 "project/inc/wk_tmr.h"
 143              		.file 15 "project/inc/wk_spi.h"
 144              		.file 16 "project/inc/wk_dma.h"
 145              		.file 17 "project/inc/wk_adc.h"
 146              		.file 18 "project/inc/wk_gpio.h"
 147              		.file 19 "project/inc/wk_system.h"
 148              		.file 20 "project/inc/at32f403a_407_wk_config.h"
 149              		.file 21 "project/inc/wk_debug.h"
ARM GAS  C:\Users\10963\AppData\Local\Temp\ccpnLHYS.s 			page 7


DEFINED SYMBOLS
                            *ABS*:00000000 main.c
C:\Users\10963\AppData\Local\Temp\ccpnLHYS.s:21     .text.main:00000000 $t
C:\Users\10963\AppData\Local\Temp\ccpnLHYS.s:27     .text.main:00000000 main
C:\Users\10963\AppData\Local\Temp\ccpnLHYS.s:108    .text.main:0000005c $d
C:\Users\10963\AppData\Local\Temp\ccpnLHYS.s:126    .bss.adc_data_buffer:00000000 adc_data_buffer
C:\Users\10963\AppData\Local\Temp\ccpnLHYS.s:119    .bss.motor:00000000 motor
C:\Users\10963\AppData\Local\Temp\ccpnLHYS.s:116    .bss.motor:00000000 $d
C:\Users\10963\AppData\Local\Temp\ccpnLHYS.s:123    .bss.adc_data_buffer:00000000 $d

UNDEFINED SYMBOLS
wk_system_clock_config
wk_periph_clock_config
wk_debug_config
wk_nvic_config
wk_timebase_init
wk_gpio_config
wk_adc1_init
wk_dma1_channel1_init
wk_dma_channel_config
dma_channel_enable
wk_spi1_init
wk_tmr1_init
wk_tmr5_init
wk_acc_init
wk_usbfs_init
wk_can1_init
wk_usb_app_init
wk_freertos_init
