ARM GAS  C:\Users\10963\AppData\Local\Temp\ccTW5Rrt.s 			page 1


   1              		.cpu cortex-m4
   2              		.arch armv7e-m
   3              		.fpu fpv4-sp-d16
   4              		.eabi_attribute 27, 1
   5              		.eabi_attribute 28, 1
   6              		.eabi_attribute 20, 1
   7              		.eabi_attribute 21, 1
   8              		.eabi_attribute 23, 3
   9              		.eabi_attribute 24, 1
  10              		.eabi_attribute 25, 1
  11              		.eabi_attribute 26, 1
  12              		.eabi_attribute 30, 1
  13              		.eabi_attribute 34, 1
  14              		.eabi_attribute 18, 4
  15              		.file	"modbus_protocol.c"
  16              		.text
  17              	.Ltext0:
  18              		.cfi_sections	.debug_frame
  19              		.file 1 "../Common/src/modbus_protocol.c"
  20              		.section	.text.ring_buffer_pop,"ax",%progbits
  21              		.align	1
  22              		.syntax unified
  23              		.thumb
  24              		.thumb_func
  26              	ring_buffer_pop:
  27              	.LFB138:
   1:../Common/src/modbus_protocol.c **** #include "modbus_protocol.h"
   2:../Common/src/modbus_protocol.c **** #include <string.h>
   3:../Common/src/modbus_protocol.c **** #include "usbd_core.h"
   4:../Common/src/modbus_protocol.c **** #include "cdc_class.h"
   5:../Common/src/modbus_protocol.c **** 
   6:../Common/src/modbus_protocol.c **** /* 外部变量 */
   7:../Common/src/modbus_protocol.c **** extern motor_params_t motor;
   8:../Common/src/modbus_protocol.c **** extern usbd_core_type usb_core_dev;
   9:../Common/src/modbus_protocol.c **** 
  10:../Common/src/modbus_protocol.c **** /* 内部变量 - 环形队列实现 */
  11:../Common/src/modbus_protocol.c **** #define RX_BUFFER_SIZE 512
  12:../Common/src/modbus_protocol.c **** static uint8_t rx_buffer[RX_BUFFER_SIZE];
  13:../Common/src/modbus_protocol.c **** static uint16_t rx_head = 0;  // 队首指针
  14:../Common/src/modbus_protocol.c **** static uint16_t rx_tail = 0;  // 队尾指针
  15:../Common/src/modbus_protocol.c **** static uint16_t rx_count = 0; // 队列中的数据长度
  16:../Common/src/modbus_protocol.c **** 
  17:../Common/src/modbus_protocol.c **** /* 环形队列函数声明 */
  18:../Common/src/modbus_protocol.c **** static uint8_t ring_buffer_pop(void);
  19:../Common/src/modbus_protocol.c **** static void ring_buffer_push(uint8_t data);
  20:../Common/src/modbus_protocol.c **** static void ring_buffer_clear(void);
  21:../Common/src/modbus_protocol.c **** static uint16_t ring_buffer_count(void);
  22:../Common/src/modbus_protocol.c **** static void ring_buffer_copy(uint8_t *dest, uint16_t len);
  23:../Common/src/modbus_protocol.c **** static void ring_buffer_pop_n(uint16_t n);
  24:../Common/src/modbus_protocol.c **** 
  25:../Common/src/modbus_protocol.c **** /* 环形队列函数 */
  26:../Common/src/modbus_protocol.c **** static void ring_buffer_push(uint8_t data)
  27:../Common/src/modbus_protocol.c **** {
  28:../Common/src/modbus_protocol.c ****   if (rx_count < RX_BUFFER_SIZE)
  29:../Common/src/modbus_protocol.c ****   {
  30:../Common/src/modbus_protocol.c ****     rx_buffer[rx_tail] = data;
  31:../Common/src/modbus_protocol.c ****     rx_tail = (rx_tail + 1) % RX_BUFFER_SIZE;
ARM GAS  C:\Users\10963\AppData\Local\Temp\ccTW5Rrt.s 			page 2


  32:../Common/src/modbus_protocol.c ****     rx_count++;
  33:../Common/src/modbus_protocol.c ****   }
  34:../Common/src/modbus_protocol.c ****   else
  35:../Common/src/modbus_protocol.c ****   {
  36:../Common/src/modbus_protocol.c ****     // 缓冲区满，丢弃 oldest数据
  37:../Common/src/modbus_protocol.c ****     ring_buffer_pop();
  38:../Common/src/modbus_protocol.c ****     ring_buffer_push(data);
  39:../Common/src/modbus_protocol.c ****   }
  40:../Common/src/modbus_protocol.c **** }
  41:../Common/src/modbus_protocol.c **** 
  42:../Common/src/modbus_protocol.c **** static uint8_t ring_buffer_pop(void)
  43:../Common/src/modbus_protocol.c **** {
  28              		.loc 1 43 1 view -0
  29              		.cfi_startproc
  30              		@ args = 0, pretend = 0, frame = 0
  31              		@ frame_needed = 0, uses_anonymous_args = 0
  32              		@ link register save eliminated.
  44:../Common/src/modbus_protocol.c ****   uint8_t data = 0;
  33              		.loc 1 44 3 view .LVU1
  34              	.LVL0:
  45:../Common/src/modbus_protocol.c ****   if (rx_count > 0)
  35              		.loc 1 45 3 view .LVU2
  36              		.loc 1 45 16 is_stmt 0 view .LVU3
  37 0000 0C4B     		ldr	r3, .L4
  38 0002 1A88     		ldrh	r2, [r3]
  39              		.loc 1 45 6 view .LVU4
  40 0004 9AB1     		cbz	r2, .L3
  46:../Common/src/modbus_protocol.c ****   {
  47:../Common/src/modbus_protocol.c ****     data = rx_buffer[rx_head];
  41              		.loc 1 47 5 is_stmt 1 view .LVU5
  42              		.loc 1 47 21 is_stmt 0 view .LVU6
  43 0006 DFF834C0 		ldr	ip, .L4+8
  44 000a BCF80030 		ldrh	r3, [ip]
  45              		.loc 1 47 10 view .LVU7
  46 000e 0A49     		ldr	r1, .L4+4
  47 0010 C85C     		ldrb	r0, [r1, r3]	@ zero_extendqisi2
  48              	.LVL1:
  48:../Common/src/modbus_protocol.c ****     rx_head = (rx_head + 1) % RX_BUFFER_SIZE;
  49              		.loc 1 48 5 is_stmt 1 view .LVU8
  50              		.loc 1 48 24 is_stmt 0 view .LVU9
  51 0012 0133     		adds	r3, r3, #1
  52              		.loc 1 48 29 view .LVU10
  53 0014 5942     		rsbs	r1, r3, #0
  54 0016 C3F30803 		ubfx	r3, r3, #0, #9
  55 001a C1F30801 		ubfx	r1, r1, #0, #9
  56 001e 58BF     		it	pl
  57 0020 4B42     		rsbpl	r3, r1, #0
  58              		.loc 1 48 13 view .LVU11
  59 0022 ACF80030 		strh	r3, [ip]	@ movhi
  49:../Common/src/modbus_protocol.c ****     rx_count--;
  60              		.loc 1 49 5 is_stmt 1 view .LVU12
  61              		.loc 1 49 13 is_stmt 0 view .LVU13
  62 0026 013A     		subs	r2, r2, #1
  63 0028 024B     		ldr	r3, .L4
  64 002a 1A80     		strh	r2, [r3]	@ movhi
  65 002c 7047     		bx	lr
  66              	.LVL2:
ARM GAS  C:\Users\10963\AppData\Local\Temp\ccTW5Rrt.s 			page 3


  67              	.L3:
  44:../Common/src/modbus_protocol.c ****   if (rx_count > 0)
  68              		.loc 1 44 11 view .LVU14
  69 002e 1046     		mov	r0, r2
  70              	.LVL3:
  50:../Common/src/modbus_protocol.c ****   }
  51:../Common/src/modbus_protocol.c ****   return data;
  71              		.loc 1 51 3 is_stmt 1 view .LVU15
  52:../Common/src/modbus_protocol.c **** }
  72              		.loc 1 52 1 is_stmt 0 view .LVU16
  73 0030 7047     		bx	lr
  74              	.L5:
  75 0032 00BF     		.align	2
  76              	.L4:
  77 0034 00000000 		.word	rx_count
  78 0038 00000000 		.word	rx_buffer
  79 003c 00000000 		.word	rx_head
  80              		.cfi_endproc
  81              	.LFE138:
  83              		.section	.text.ring_buffer_push,"ax",%progbits
  84              		.align	1
  85              		.syntax unified
  86              		.thumb
  87              		.thumb_func
  89              	ring_buffer_push:
  90              	.LVL4:
  91              	.LFB137:
  27:../Common/src/modbus_protocol.c ****   if (rx_count < RX_BUFFER_SIZE)
  92              		.loc 1 27 1 is_stmt 1 view -0
  93              		.cfi_startproc
  94              		@ args = 0, pretend = 0, frame = 0
  95              		@ frame_needed = 0, uses_anonymous_args = 0
  27:../Common/src/modbus_protocol.c ****   if (rx_count < RX_BUFFER_SIZE)
  96              		.loc 1 27 1 is_stmt 0 view .LVU18
  97 0000 10B5     		push	{r4, lr}
  98              	.LCFI0:
  99              		.cfi_def_cfa_offset 8
 100              		.cfi_offset 4, -8
 101              		.cfi_offset 14, -4
 102 0002 0446     		mov	r4, r0
  28:../Common/src/modbus_protocol.c ****   {
 103              		.loc 1 28 3 is_stmt 1 view .LVU19
  28:../Common/src/modbus_protocol.c ****   {
 104              		.loc 1 28 16 is_stmt 0 view .LVU20
 105 0004 0D4B     		ldr	r3, .L10
 106 0006 1A88     		ldrh	r2, [r3]
  28:../Common/src/modbus_protocol.c ****   {
 107              		.loc 1 28 6 view .LVU21
 108 0008 B2F5007F 		cmp	r2, #512
 109 000c 10D2     		bcs	.L7
  30:../Common/src/modbus_protocol.c ****     rx_tail = (rx_tail + 1) % RX_BUFFER_SIZE;
 110              		.loc 1 30 5 is_stmt 1 view .LVU22
  30:../Common/src/modbus_protocol.c ****     rx_tail = (rx_tail + 1) % RX_BUFFER_SIZE;
 111              		.loc 1 30 14 is_stmt 0 view .LVU23
 112 000e 0C48     		ldr	r0, .L10+4
 113              	.LVL5:
  30:../Common/src/modbus_protocol.c ****     rx_tail = (rx_tail + 1) % RX_BUFFER_SIZE;
ARM GAS  C:\Users\10963\AppData\Local\Temp\ccTW5Rrt.s 			page 4


 114              		.loc 1 30 14 view .LVU24
 115 0010 0388     		ldrh	r3, [r0]
  30:../Common/src/modbus_protocol.c ****     rx_tail = (rx_tail + 1) % RX_BUFFER_SIZE;
 116              		.loc 1 30 24 view .LVU25
 117 0012 0C49     		ldr	r1, .L10+8
 118 0014 CC54     		strb	r4, [r1, r3]
  31:../Common/src/modbus_protocol.c ****     rx_count++;
 119              		.loc 1 31 5 is_stmt 1 view .LVU26
  31:../Common/src/modbus_protocol.c ****     rx_count++;
 120              		.loc 1 31 24 is_stmt 0 view .LVU27
 121 0016 0133     		adds	r3, r3, #1
  31:../Common/src/modbus_protocol.c ****     rx_count++;
 122              		.loc 1 31 29 view .LVU28
 123 0018 5942     		rsbs	r1, r3, #0
 124 001a C3F30803 		ubfx	r3, r3, #0, #9
 125 001e C1F30801 		ubfx	r1, r1, #0, #9
 126 0022 58BF     		it	pl
 127 0024 4B42     		rsbpl	r3, r1, #0
  31:../Common/src/modbus_protocol.c ****     rx_count++;
 128              		.loc 1 31 13 view .LVU29
 129 0026 0380     		strh	r3, [r0]	@ movhi
  32:../Common/src/modbus_protocol.c ****   }
 130              		.loc 1 32 5 is_stmt 1 view .LVU30
  32:../Common/src/modbus_protocol.c ****   }
 131              		.loc 1 32 13 is_stmt 0 view .LVU31
 132 0028 0132     		adds	r2, r2, #1
 133 002a 044B     		ldr	r3, .L10
 134 002c 1A80     		strh	r2, [r3]	@ movhi
 135              	.L6:
  40:../Common/src/modbus_protocol.c **** 
 136              		.loc 1 40 1 view .LVU32
 137 002e 10BD     		pop	{r4, pc}
 138              	.LVL6:
 139              	.L7:
  37:../Common/src/modbus_protocol.c ****     ring_buffer_push(data);
 140              		.loc 1 37 5 is_stmt 1 view .LVU33
 141 0030 FFF7FEFF 		bl	ring_buffer_pop
 142              	.LVL7:
  38:../Common/src/modbus_protocol.c ****   }
 143              		.loc 1 38 5 view .LVU34
 144 0034 2046     		mov	r0, r4
 145 0036 FFF7E3FF 		bl	ring_buffer_push
 146              	.LVL8:
  40:../Common/src/modbus_protocol.c **** 
 147              		.loc 1 40 1 is_stmt 0 view .LVU35
 148 003a F8E7     		b	.L6
 149              	.L11:
 150              		.align	2
 151              	.L10:
 152 003c 00000000 		.word	rx_count
 153 0040 00000000 		.word	rx_tail
 154 0044 00000000 		.word	rx_buffer
 155              		.cfi_endproc
 156              	.LFE137:
 158              		.section	.text.ring_buffer_count,"ax",%progbits
 159              		.align	1
 160              		.syntax unified
ARM GAS  C:\Users\10963\AppData\Local\Temp\ccTW5Rrt.s 			page 5


 161              		.thumb
 162              		.thumb_func
 164              	ring_buffer_count:
 165              	.LFB140:
  53:../Common/src/modbus_protocol.c **** 
  54:../Common/src/modbus_protocol.c **** static void ring_buffer_clear(void)
  55:../Common/src/modbus_protocol.c **** {
  56:../Common/src/modbus_protocol.c ****   rx_head = 0;
  57:../Common/src/modbus_protocol.c ****   rx_tail = 0;
  58:../Common/src/modbus_protocol.c ****   rx_count = 0;
  59:../Common/src/modbus_protocol.c **** }
  60:../Common/src/modbus_protocol.c **** 
  61:../Common/src/modbus_protocol.c **** static uint16_t ring_buffer_count(void)
  62:../Common/src/modbus_protocol.c **** {
 166              		.loc 1 62 1 is_stmt 1 view -0
 167              		.cfi_startproc
 168              		@ args = 0, pretend = 0, frame = 0
 169              		@ frame_needed = 0, uses_anonymous_args = 0
 170              		@ link register save eliminated.
  63:../Common/src/modbus_protocol.c ****   return rx_count;
 171              		.loc 1 63 3 view .LVU37
  64:../Common/src/modbus_protocol.c **** }
 172              		.loc 1 64 1 is_stmt 0 view .LVU38
 173 0000 014B     		ldr	r3, .L13
 174 0002 1888     		ldrh	r0, [r3]
 175 0004 7047     		bx	lr
 176              	.L14:
 177 0006 00BF     		.align	2
 178              	.L13:
 179 0008 00000000 		.word	rx_count
 180              		.cfi_endproc
 181              	.LFE140:
 183              		.section	.text.ring_buffer_pop_n,"ax",%progbits
 184              		.align	1
 185              		.syntax unified
 186              		.thumb
 187              		.thumb_func
 189              	ring_buffer_pop_n:
 190              	.LVL9:
 191              	.LFB142:
  65:../Common/src/modbus_protocol.c **** 
  66:../Common/src/modbus_protocol.c **** static void ring_buffer_copy(uint8_t *dest, uint16_t len)
  67:../Common/src/modbus_protocol.c **** {
  68:../Common/src/modbus_protocol.c ****   memset(dest, 0, len); // 先清空目标缓冲区
  69:../Common/src/modbus_protocol.c ****   uint16_t copy_len = (len < rx_count) ? len : rx_count;
  70:../Common/src/modbus_protocol.c ****   for (uint16_t i = 0; i < copy_len; i++)
  71:../Common/src/modbus_protocol.c ****   {
  72:../Common/src/modbus_protocol.c ****     uint16_t index = (rx_head + i) % RX_BUFFER_SIZE;
  73:../Common/src/modbus_protocol.c ****     dest[i] = rx_buffer[index];
  74:../Common/src/modbus_protocol.c ****   }
  75:../Common/src/modbus_protocol.c **** }
  76:../Common/src/modbus_protocol.c **** 
  77:../Common/src/modbus_protocol.c **** static void ring_buffer_pop_n(uint16_t n)
  78:../Common/src/modbus_protocol.c **** {
 192              		.loc 1 78 1 is_stmt 1 view -0
 193              		.cfi_startproc
 194              		@ args = 0, pretend = 0, frame = 0
ARM GAS  C:\Users\10963\AppData\Local\Temp\ccTW5Rrt.s 			page 6


 195              		@ frame_needed = 0, uses_anonymous_args = 0
 196              		.loc 1 78 1 is_stmt 0 view .LVU40
 197 0000 38B5     		push	{r3, r4, r5, lr}
 198              	.LCFI1:
 199              		.cfi_def_cfa_offset 16
 200              		.cfi_offset 3, -16
 201              		.cfi_offset 4, -12
 202              		.cfi_offset 5, -8
 203              		.cfi_offset 14, -4
 204 0002 0546     		mov	r5, r0
  79:../Common/src/modbus_protocol.c ****   for (uint16_t i = 0; i < n && rx_count > 0; i++)
 205              		.loc 1 79 3 is_stmt 1 view .LVU41
 206              	.LBB2:
 207              		.loc 1 79 8 view .LVU42
 208              	.LVL10:
 209              		.loc 1 79 17 is_stmt 0 view .LVU43
 210 0004 0024     		movs	r4, #0
 211              		.loc 1 79 3 view .LVU44
 212 0006 03E0     		b	.L16
 213              	.LVL11:
 214              	.L18:
  80:../Common/src/modbus_protocol.c ****   {
  81:../Common/src/modbus_protocol.c ****     ring_buffer_pop();
 215              		.loc 1 81 5 is_stmt 1 view .LVU45
 216 0008 FFF7FEFF 		bl	ring_buffer_pop
 217              	.LVL12:
  79:../Common/src/modbus_protocol.c ****   for (uint16_t i = 0; i < n && rx_count > 0; i++)
 218              		.loc 1 79 48 discriminator 4 view .LVU46
 219 000c 0134     		adds	r4, r4, #1
 220              	.LVL13:
  79:../Common/src/modbus_protocol.c ****   for (uint16_t i = 0; i < n && rx_count > 0; i++)
 221              		.loc 1 79 48 is_stmt 0 discriminator 4 view .LVU47
 222 000e A4B2     		uxth	r4, r4
 223              	.LVL14:
 224              	.L16:
  79:../Common/src/modbus_protocol.c ****   for (uint16_t i = 0; i < n && rx_count > 0; i++)
 225              		.loc 1 79 30 is_stmt 1 discriminator 1 view .LVU48
 226 0010 AC42     		cmp	r4, r5
 227 0012 03D2     		bcs	.L15
  79:../Common/src/modbus_protocol.c ****   for (uint16_t i = 0; i < n && rx_count > 0; i++)
 228              		.loc 1 79 42 is_stmt 0 discriminator 3 view .LVU49
 229 0014 024B     		ldr	r3, .L20
 230 0016 1B88     		ldrh	r3, [r3]
  79:../Common/src/modbus_protocol.c ****   for (uint16_t i = 0; i < n && rx_count > 0; i++)
 231              		.loc 1 79 30 discriminator 3 view .LVU50
 232 0018 002B     		cmp	r3, #0
 233 001a F5D1     		bne	.L18
 234              	.L15:
 235              	.LBE2:
  82:../Common/src/modbus_protocol.c ****   }
  83:../Common/src/modbus_protocol.c **** }
 236              		.loc 1 83 1 view .LVU51
 237 001c 38BD     		pop	{r3, r4, r5, pc}
 238              	.LVL15:
 239              	.L21:
 240              		.loc 1 83 1 view .LVU52
 241 001e 00BF     		.align	2
ARM GAS  C:\Users\10963\AppData\Local\Temp\ccTW5Rrt.s 			page 7


 242              	.L20:
 243 0020 00000000 		.word	rx_count
 244              		.cfi_endproc
 245              	.LFE142:
 247              		.section	.text.modbus_calculate_crc,"ax",%progbits
 248              		.align	1
 249              		.syntax unified
 250              		.thumb
 251              		.thumb_func
 253              	modbus_calculate_crc:
 254              	.LVL16:
 255              	.LFB143:
  84:../Common/src/modbus_protocol.c **** 
  85:../Common/src/modbus_protocol.c **** /* CRC16计算函数 */
  86:../Common/src/modbus_protocol.c **** static uint16_t modbus_calculate_crc(uint8_t *data, uint16_t len)
  87:../Common/src/modbus_protocol.c **** {
 256              		.loc 1 87 1 is_stmt 1 view -0
 257              		.cfi_startproc
 258              		@ args = 0, pretend = 0, frame = 0
 259              		@ frame_needed = 0, uses_anonymous_args = 0
 260              		@ link register save eliminated.
 261              		.loc 1 87 1 is_stmt 0 view .LVU54
 262 0000 8446     		mov	ip, r0
  88:../Common/src/modbus_protocol.c ****   uint16_t crc = 0xFFFF;
 263              		.loc 1 88 3 is_stmt 1 view .LVU55
 264              	.LVL17:
  89:../Common/src/modbus_protocol.c ****   uint8_t i;
 265              		.loc 1 89 3 view .LVU56
  90:../Common/src/modbus_protocol.c ****   
  91:../Common/src/modbus_protocol.c ****   while (len--)
 266              		.loc 1 91 3 view .LVU57
  88:../Common/src/modbus_protocol.c ****   uint8_t i;
 267              		.loc 1 88 12 is_stmt 0 view .LVU58
 268 0002 4FF6FF70 		movw	r0, #65535
 269              	.LVL18:
 270              	.L23:
 271              		.loc 1 91 10 is_stmt 1 view .LVU59
 272              		.loc 1 91 13 is_stmt 0 view .LVU60
 273 0006 0139     		subs	r1, r1, #1
 274              	.LVL19:
 275              		.loc 1 91 13 view .LVU61
 276 0008 89B2     		uxth	r1, r1
 277              	.LVL20:
 278              		.loc 1 91 10 view .LVU62
 279 000a 4FF6FF73 		movw	r3, #65535
 280 000e 9942     		cmp	r1, r3
 281 0010 11D0     		beq	.L29
  92:../Common/src/modbus_protocol.c ****   {
  93:../Common/src/modbus_protocol.c ****     crc ^= *data++;
 282              		.loc 1 93 5 is_stmt 1 view .LVU63
 283              	.LVL21:
 284              		.loc 1 93 12 is_stmt 0 view .LVU64
 285 0012 1CF8013B 		ldrb	r3, [ip], #1	@ zero_extendqisi2
 286              	.LVL22:
 287              		.loc 1 93 9 view .LVU65
 288 0016 5840     		eors	r0, r0, r3
 289              	.LVL23:
ARM GAS  C:\Users\10963\AppData\Local\Temp\ccTW5Rrt.s 			page 8


  94:../Common/src/modbus_protocol.c ****     for (i = 0; i < 8; i++)
 290              		.loc 1 94 5 is_stmt 1 view .LVU66
 291              		.loc 1 94 12 is_stmt 0 view .LVU67
 292 0018 0023     		movs	r3, #0
 293              		.loc 1 94 5 view .LVU68
 294 001a 02E0     		b	.L24
 295              	.LVL24:
 296              	.L25:
  95:../Common/src/modbus_protocol.c ****     {
  96:../Common/src/modbus_protocol.c ****       if (crc & 0x0001)
  97:../Common/src/modbus_protocol.c ****       {
  98:../Common/src/modbus_protocol.c ****         crc >>= 1;
  99:../Common/src/modbus_protocol.c ****         crc ^= 0xA001;
 100:../Common/src/modbus_protocol.c ****       }
 101:../Common/src/modbus_protocol.c ****       else
 102:../Common/src/modbus_protocol.c ****       {
 103:../Common/src/modbus_protocol.c ****         crc >>= 1;
 297              		.loc 1 103 9 is_stmt 1 view .LVU69
 298              		.loc 1 103 13 is_stmt 0 view .LVU70
 299 001c 4008     		lsrs	r0, r0, #1
 300              	.LVL25:
 301              	.L26:
  94:../Common/src/modbus_protocol.c ****     for (i = 0; i < 8; i++)
 302              		.loc 1 94 25 is_stmt 1 discriminator 2 view .LVU71
 303 001e 0133     		adds	r3, r3, #1
 304              	.LVL26:
  94:../Common/src/modbus_protocol.c ****     for (i = 0; i < 8; i++)
 305              		.loc 1 94 25 is_stmt 0 discriminator 2 view .LVU72
 306 0020 DBB2     		uxtb	r3, r3
 307              	.LVL27:
 308              	.L24:
  94:../Common/src/modbus_protocol.c ****     for (i = 0; i < 8; i++)
 309              		.loc 1 94 19 is_stmt 1 discriminator 1 view .LVU73
 310 0022 072B     		cmp	r3, #7
 311 0024 EFD8     		bhi	.L23
  96:../Common/src/modbus_protocol.c ****       {
 312              		.loc 1 96 7 view .LVU74
  96:../Common/src/modbus_protocol.c ****       {
 313              		.loc 1 96 10 is_stmt 0 view .LVU75
 314 0026 10F0010F 		tst	r0, #1
 315 002a F7D0     		beq	.L25
  98:../Common/src/modbus_protocol.c ****         crc ^= 0xA001;
 316              		.loc 1 98 9 is_stmt 1 view .LVU76
 317              	.LVL28:
  99:../Common/src/modbus_protocol.c ****       }
 318              		.loc 1 99 9 view .LVU77
  99:../Common/src/modbus_protocol.c ****       }
 319              		.loc 1 99 13 is_stmt 0 view .LVU78
 320 002c 4AF20102 		movw	r2, #40961
 321 0030 82EA5000 		eor	r0, r2, r0, lsr #1
 322              	.LVL29:
  99:../Common/src/modbus_protocol.c ****       }
 323              		.loc 1 99 13 view .LVU79
 324 0034 F3E7     		b	.L26
 325              	.LVL30:
 326              	.L29:
 104:../Common/src/modbus_protocol.c ****       }
ARM GAS  C:\Users\10963\AppData\Local\Temp\ccTW5Rrt.s 			page 9


 105:../Common/src/modbus_protocol.c ****     }
 106:../Common/src/modbus_protocol.c ****   }
 107:../Common/src/modbus_protocol.c ****   
 108:../Common/src/modbus_protocol.c ****   return crc;
 327              		.loc 1 108 3 is_stmt 1 view .LVU80
 109:../Common/src/modbus_protocol.c **** }
 328              		.loc 1 109 1 is_stmt 0 view .LVU81
 329 0036 7047     		bx	lr
 330              		.cfi_endproc
 331              	.LFE143:
 333              		.section	.text.ring_buffer_copy,"ax",%progbits
 334              		.align	1
 335              		.syntax unified
 336              		.thumb
 337              		.thumb_func
 339              	ring_buffer_copy:
 340              	.LVL31:
 341              	.LFB141:
  67:../Common/src/modbus_protocol.c ****   memset(dest, 0, len); // 先清空目标缓冲区
 342              		.loc 1 67 1 is_stmt 1 view -0
 343              		.cfi_startproc
 344              		@ args = 0, pretend = 0, frame = 0
 345              		@ frame_needed = 0, uses_anonymous_args = 0
  67:../Common/src/modbus_protocol.c ****   memset(dest, 0, len); // 先清空目标缓冲区
 346              		.loc 1 67 1 is_stmt 0 view .LVU83
 347 0000 38B5     		push	{r3, r4, r5, lr}
 348              	.LCFI2:
 349              		.cfi_def_cfa_offset 16
 350              		.cfi_offset 3, -16
 351              		.cfi_offset 4, -12
 352              		.cfi_offset 5, -8
 353              		.cfi_offset 14, -4
 354 0002 0446     		mov	r4, r0
 355 0004 0D46     		mov	r5, r1
  68:../Common/src/modbus_protocol.c ****   uint16_t copy_len = (len < rx_count) ? len : rx_count;
 356              		.loc 1 68 3 is_stmt 1 view .LVU84
 357 0006 0A46     		mov	r2, r1
 358 0008 0021     		movs	r1, #0
 359              	.LVL32:
  68:../Common/src/modbus_protocol.c ****   uint16_t copy_len = (len < rx_count) ? len : rx_count;
 360              		.loc 1 68 3 is_stmt 0 view .LVU85
 361 000a FFF7FEFF 		bl	memset
 362              	.LVL33:
  69:../Common/src/modbus_protocol.c ****   for (uint16_t i = 0; i < copy_len; i++)
 363              		.loc 1 69 3 is_stmt 1 view .LVU86
  69:../Common/src/modbus_protocol.c ****   for (uint16_t i = 0; i < copy_len; i++)
 364              		.loc 1 69 46 is_stmt 0 view .LVU87
 365 000e 0B4B     		ldr	r3, .L34
 366 0010 1A88     		ldrh	r2, [r3]
  69:../Common/src/modbus_protocol.c ****   for (uint16_t i = 0; i < copy_len; i++)
 367              		.loc 1 69 12 view .LVU88
 368 0012 AA42     		cmp	r2, r5
 369 0014 28BF     		it	cs
 370 0016 2A46     		movcs	r2, r5
 371              	.LVL34:
  70:../Common/src/modbus_protocol.c ****   {
 372              		.loc 1 70 3 is_stmt 1 view .LVU89
ARM GAS  C:\Users\10963\AppData\Local\Temp\ccTW5Rrt.s 			page 10


 373              	.LBB3:
  70:../Common/src/modbus_protocol.c ****   {
 374              		.loc 1 70 8 view .LVU90
  70:../Common/src/modbus_protocol.c ****   {
 375              		.loc 1 70 17 is_stmt 0 view .LVU91
 376 0018 0023     		movs	r3, #0
  70:../Common/src/modbus_protocol.c ****   {
 377              		.loc 1 70 3 view .LVU92
 378 001a 0CE0     		b	.L31
 379              	.LVL35:
 380              	.L32:
 381              	.LBB4:
  72:../Common/src/modbus_protocol.c ****     dest[i] = rx_buffer[index];
 382              		.loc 1 72 5 is_stmt 1 view .LVU93
  72:../Common/src/modbus_protocol.c ****     dest[i] = rx_buffer[index];
 383              		.loc 1 72 36 is_stmt 0 view .LVU94
 384 001c 0848     		ldr	r0, .L34+4
 385 001e B0F800C0 		ldrh	ip, [r0]
 386 0022 9C44     		add	ip, ip, r3
  72:../Common/src/modbus_protocol.c ****     dest[i] = rx_buffer[index];
 387              		.loc 1 72 14 view .LVU95
 388 0024 CCF3080C 		ubfx	ip, ip, #0, #9
 389              	.LVL36:
  73:../Common/src/modbus_protocol.c ****   }
 390              		.loc 1 73 5 is_stmt 1 view .LVU96
  73:../Common/src/modbus_protocol.c ****   }
 391              		.loc 1 73 24 is_stmt 0 view .LVU97
 392 0028 0649     		ldr	r1, .L34+8
 393 002a 11F80CC0 		ldrb	ip, [r1, ip]	@ zero_extendqisi2
 394              	.LVL37:
  73:../Common/src/modbus_protocol.c ****   }
 395              		.loc 1 73 13 view .LVU98
 396 002e 04F803C0 		strb	ip, [r4, r3]
 397              	.LBE4:
  70:../Common/src/modbus_protocol.c ****   {
 398              		.loc 1 70 39 is_stmt 1 discriminator 3 view .LVU99
 399 0032 0133     		adds	r3, r3, #1
 400              	.LVL38:
  70:../Common/src/modbus_protocol.c ****   {
 401              		.loc 1 70 39 is_stmt 0 discriminator 3 view .LVU100
 402 0034 9BB2     		uxth	r3, r3
 403              	.LVL39:
 404              	.L31:
  70:../Common/src/modbus_protocol.c ****   {
 405              		.loc 1 70 26 is_stmt 1 discriminator 1 view .LVU101
 406 0036 9342     		cmp	r3, r2
 407 0038 F0D3     		bcc	.L32
 408              	.LBE3:
  75:../Common/src/modbus_protocol.c **** 
 409              		.loc 1 75 1 is_stmt 0 view .LVU102
 410 003a 38BD     		pop	{r3, r4, r5, pc}
 411              	.LVL40:
 412              	.L35:
  75:../Common/src/modbus_protocol.c **** 
 413              		.loc 1 75 1 view .LVU103
 414              		.align	2
 415              	.L34:
ARM GAS  C:\Users\10963\AppData\Local\Temp\ccTW5Rrt.s 			page 11


 416 003c 00000000 		.word	rx_count
 417 0040 00000000 		.word	rx_head
 418 0044 00000000 		.word	rx_buffer
 419              		.cfi_endproc
 420              	.LFE141:
 422              		.section	.text.modbus_protocol_init,"ax",%progbits
 423              		.align	1
 424              		.global	modbus_protocol_init
 425              		.syntax unified
 426              		.thumb
 427              		.thumb_func
 429              	modbus_protocol_init:
 430              	.LFB144:
 110:../Common/src/modbus_protocol.c **** 
 111:../Common/src/modbus_protocol.c **** /* 初始化Modbus协议 */
 112:../Common/src/modbus_protocol.c **** void modbus_protocol_init(void)
 113:../Common/src/modbus_protocol.c **** {
 431              		.loc 1 113 1 is_stmt 1 view -0
 432              		.cfi_startproc
 433              		@ args = 0, pretend = 0, frame = 0
 434              		@ frame_needed = 0, uses_anonymous_args = 0
 435              		@ link register save eliminated.
 114:../Common/src/modbus_protocol.c ****   /* USB初始化已经在usb_app.c中完成 */
 115:../Common/src/modbus_protocol.c **** }
 436              		.loc 1 115 1 view .LVU105
 437 0000 7047     		bx	lr
 438              		.cfi_endproc
 439              	.LFE144:
 441              		.section	.text.modbus_send_response,"ax",%progbits
 442              		.align	1
 443              		.global	modbus_send_response
 444              		.syntax unified
 445              		.thumb
 446              		.thumb_func
 448              	modbus_send_response:
 449              	.LVL41:
 450              	.LFB146:
 116:../Common/src/modbus_protocol.c **** 
 117:../Common/src/modbus_protocol.c **** /* 处理Modbus协议 */
 118:../Common/src/modbus_protocol.c **** void modbus_protocol_process(void)
 119:../Common/src/modbus_protocol.c **** {
 120:../Common/src/modbus_protocol.c ****   /* 直接从USB核心获取数据 */
 121:../Common/src/modbus_protocol.c ****   uint8_t usb_rx_buffer[USBD_CDC_OUT_MAXPACKET_SIZE];
 122:../Common/src/modbus_protocol.c ****   uint16_t recv_len = usb_vcp_get_rxdata(&usb_core_dev, usb_rx_buffer);
 123:../Common/src/modbus_protocol.c ****   
 124:../Common/src/modbus_protocol.c ****   if (recv_len > 0)
 125:../Common/src/modbus_protocol.c ****   {
 126:../Common/src/modbus_protocol.c ****     /* 将数据压入环形队列 */
 127:../Common/src/modbus_protocol.c ****     for (uint16_t i = 0; i < recv_len; i++)
 128:../Common/src/modbus_protocol.c ****     {
 129:../Common/src/modbus_protocol.c ****       ring_buffer_push(usb_rx_buffer[i]);
 130:../Common/src/modbus_protocol.c ****     }
 131:../Common/src/modbus_protocol.c ****     
 132:../Common/src/modbus_protocol.c ****     /* 处理接收到的帧 */
 133:../Common/src/modbus_protocol.c ****     while (ring_buffer_count() >= 4) /* 最小帧长度：从站地址1 + 功能码1 + CRC2 */
 134:../Common/src/modbus_protocol.c ****     {
 135:../Common/src/modbus_protocol.c ****       /* 复制当前队列数据到临时缓冲区进行处理 */
ARM GAS  C:\Users\10963\AppData\Local\Temp\ccTW5Rrt.s 			page 12


 136:../Common/src/modbus_protocol.c ****       uint8_t temp_buffer[RX_BUFFER_SIZE];
 137:../Common/src/modbus_protocol.c ****       uint16_t temp_len = ring_buffer_count();
 138:../Common/src/modbus_protocol.c ****       ring_buffer_copy(temp_buffer, temp_len);
 139:../Common/src/modbus_protocol.c ****       
 140:../Common/src/modbus_protocol.c ****       modbus_frame_t *frame = (modbus_frame_t *)temp_buffer;
 141:../Common/src/modbus_protocol.c ****       
 142:../Common/src/modbus_protocol.c ****       /* 检查从站地址 */
 143:../Common/src/modbus_protocol.c ****       if (frame->slave_address != MODBUS_SLAVE_ADDRESS)
 144:../Common/src/modbus_protocol.c ****       {
 145:../Common/src/modbus_protocol.c ****         /* 从站地址错误，丢弃数据 */
 146:../Common/src/modbus_protocol.c ****         ring_buffer_pop();
 147:../Common/src/modbus_protocol.c ****         continue;
 148:../Common/src/modbus_protocol.c ****       }
 149:../Common/src/modbus_protocol.c ****       
 150:../Common/src/modbus_protocol.c ****       /* 计算帧长度 */
 151:../Common/src/modbus_protocol.c ****       uint16_t frame_len = 4; /* 最小帧长度 */
 152:../Common/src/modbus_protocol.c ****       
 153:../Common/src/modbus_protocol.c ****       switch (frame->function_code)
 154:../Common/src/modbus_protocol.c ****       {
 155:../Common/src/modbus_protocol.c ****         case MODBUS_FC_READ_HOLDING_REGISTERS:
 156:../Common/src/modbus_protocol.c ****         case MODBUS_FC_READ_INPUT_REGISTERS:
 157:../Common/src/modbus_protocol.c ****           frame_len = 8; /* 从站地址1 + 功能码1 + 起始地址2 + 数量2 + CRC2 */
 158:../Common/src/modbus_protocol.c ****           break;
 159:../Common/src/modbus_protocol.c ****         case MODBUS_FC_WRITE_SINGLE_REGISTER:
 160:../Common/src/modbus_protocol.c ****           frame_len = 8; /* 从站地址1 + 功能码1 + 地址2 + 值2 + CRC2 */
 161:../Common/src/modbus_protocol.c ****           break;
 162:../Common/src/modbus_protocol.c ****         case MODBUS_FC_WRITE_MULTIPLE_REGISTERS:
 163:../Common/src/modbus_protocol.c ****           if (temp_len >= 7) /* 至少需要7字节才能获取字节数 */
 164:../Common/src/modbus_protocol.c ****           {
 165:../Common/src/modbus_protocol.c ****             frame_len = 7 + temp_buffer[6]; /* 从站地址1 + 功能码1 + 起始地址2 + 数量2
 166:../Common/src/modbus_protocol.c ****           }
 167:../Common/src/modbus_protocol.c ****           break;
 168:../Common/src/modbus_protocol.c ****         default:
 169:../Common/src/modbus_protocol.c ****           /* 非法功能码 */
 170:../Common/src/modbus_protocol.c ****           modbus_send_exception_response(frame->function_code, MODBUS_ERR_ILLEGAL_FUNCTION);
 171:../Common/src/modbus_protocol.c ****           ring_buffer_pop();
 172:../Common/src/modbus_protocol.c ****           continue;
 173:../Common/src/modbus_protocol.c ****       }
 174:../Common/src/modbus_protocol.c ****       
 175:../Common/src/modbus_protocol.c ****       if (temp_len < frame_len)
 176:../Common/src/modbus_protocol.c ****       {
 177:../Common/src/modbus_protocol.c ****         /* 数据不完整，等待更多数据 */
 178:../Common/src/modbus_protocol.c ****         break;
 179:../Common/src/modbus_protocol.c ****       }
 180:../Common/src/modbus_protocol.c ****       
 181:../Common/src/modbus_protocol.c ****       /* 检查CRC */
 182:../Common/src/modbus_protocol.c ****       uint16_t calculated_crc = modbus_calculate_crc(temp_buffer, frame_len - 2);
 183:../Common/src/modbus_protocol.c ****       uint16_t received_crc = ((uint16_t)temp_buffer[frame_len - 2]) | ((uint16_t)temp_buffer[frame
 184:../Common/src/modbus_protocol.c ****       
 185:../Common/src/modbus_protocol.c ****       if (calculated_crc != received_crc)
 186:../Common/src/modbus_protocol.c ****       {
 187:../Common/src/modbus_protocol.c ****         /* CRC错误，丢弃数据 */
 188:../Common/src/modbus_protocol.c ****         ring_buffer_pop();
 189:../Common/src/modbus_protocol.c ****         continue;
 190:../Common/src/modbus_protocol.c ****       }
 191:../Common/src/modbus_protocol.c ****       
 192:../Common/src/modbus_protocol.c ****       /* 处理命令 */
ARM GAS  C:\Users\10963\AppData\Local\Temp\ccTW5Rrt.s 			page 13


 193:../Common/src/modbus_protocol.c ****       switch (frame->function_code)
 194:../Common/src/modbus_protocol.c ****       {
 195:../Common/src/modbus_protocol.c ****         case MODBUS_FC_READ_HOLDING_REGISTERS:
 196:../Common/src/modbus_protocol.c ****         {
 197:../Common/src/modbus_protocol.c ****           // 手动解析大端序数据
 198:../Common/src/modbus_protocol.c ****           uint16_t start_address = (temp_buffer[1] << 8) | temp_buffer[2];
 199:../Common/src/modbus_protocol.c ****           uint16_t quantity = (temp_buffer[3] << 8) | temp_buffer[4];
 200:../Common/src/modbus_protocol.c ****           
 201:../Common/src/modbus_protocol.c ****           if (quantity > 64)
 202:../Common/src/modbus_protocol.c ****           {
 203:../Common/src/modbus_protocol.c ****             modbus_send_exception_response(frame->function_code, MODBUS_ERR_ILLEGAL_DATA_VALUE);
 204:../Common/src/modbus_protocol.c ****             // 从队列中移除整个帧
 205:../Common/src/modbus_protocol.c ****             ring_buffer_pop_n(frame_len);
 206:../Common/src/modbus_protocol.c ****             break;
 207:../Common/src/modbus_protocol.c ****           }
 208:../Common/src/modbus_protocol.c ****           
 209:../Common/src/modbus_protocol.c ****           // 准备响应数据（大端序）
 210:../Common/src/modbus_protocol.c ****           uint8_t response_data[1 + 64 * 2]; // 字节数 + 最多64个寄存器
 211:../Common/src/modbus_protocol.c ****           response_data[0] = quantity * 2;
 212:../Common/src/modbus_protocol.c ****           
 213:../Common/src/modbus_protocol.c ****           for (uint16_t i = 0; i < quantity; i++)
 214:../Common/src/modbus_protocol.c ****           {
 215:../Common/src/modbus_protocol.c ****             uint16_t param_id = start_address + i;
 216:../Common/src/modbus_protocol.c ****             
 217:../Common/src/modbus_protocol.c ****             float value = motor_params_get(&motor, param_id);
 218:../Common/src/modbus_protocol.c ****             
 219:../Common/src/modbus_protocol.c ****             /* 将浮点数转换为16位整数（缩放1000倍） */
 220:../Common/src/modbus_protocol.c ****             int16_t scaled_value = (int16_t)(value * 1000.0f);
 221:../Common/src/modbus_protocol.c ****             
 222:../Common/src/modbus_protocol.c ****             // 大端序存储
 223:../Common/src/modbus_protocol.c ****             response_data[1 + i * 2] = (scaled_value >> 8) & 0xFF;
 224:../Common/src/modbus_protocol.c ****             response_data[2 + i * 2] = scaled_value & 0xFF;
 225:../Common/src/modbus_protocol.c ****           }
 226:../Common/src/modbus_protocol.c ****           
 227:../Common/src/modbus_protocol.c ****           modbus_send_response(frame->function_code, response_data, response_data[0] + 1);
 228:../Common/src/modbus_protocol.c ****           
 229:../Common/src/modbus_protocol.c ****           // 从队列中移除整个帧
 230:../Common/src/modbus_protocol.c ****           ring_buffer_pop_n(frame_len);
 231:../Common/src/modbus_protocol.c ****           break;
 232:../Common/src/modbus_protocol.c ****         }
 233:../Common/src/modbus_protocol.c ****         case MODBUS_FC_READ_INPUT_REGISTERS:
 234:../Common/src/modbus_protocol.c ****         {
 235:../Common/src/modbus_protocol.c ****           // 手动解析大端序数据
 236:../Common/src/modbus_protocol.c ****           uint16_t start_address = (temp_buffer[1] << 8) | temp_buffer[2];
 237:../Common/src/modbus_protocol.c ****           uint16_t quantity = (temp_buffer[3] << 8) | temp_buffer[4];
 238:../Common/src/modbus_protocol.c ****           
 239:../Common/src/modbus_protocol.c ****           if (quantity > 64)
 240:../Common/src/modbus_protocol.c ****           {
 241:../Common/src/modbus_protocol.c ****             modbus_send_exception_response(frame->function_code, MODBUS_ERR_ILLEGAL_DATA_VALUE);
 242:../Common/src/modbus_protocol.c ****             // 从队列中移除整个帧
 243:../Common/src/modbus_protocol.c ****             ring_buffer_pop_n(frame_len);
 244:../Common/src/modbus_protocol.c ****             break;
 245:../Common/src/modbus_protocol.c ****           }
 246:../Common/src/modbus_protocol.c ****           
 247:../Common/src/modbus_protocol.c ****           // 准备响应数据（大端序）
 248:../Common/src/modbus_protocol.c ****           uint8_t response_data[1 + 64 * 2]; // 字节数 + 最多64个寄存器
 249:../Common/src/modbus_protocol.c ****           response_data[0] = quantity * 2;
ARM GAS  C:\Users\10963\AppData\Local\Temp\ccTW5Rrt.s 			page 14


 250:../Common/src/modbus_protocol.c ****           
 251:../Common/src/modbus_protocol.c ****           for (uint16_t i = 0; i < quantity; i++)
 252:../Common/src/modbus_protocol.c ****           {
 253:../Common/src/modbus_protocol.c ****             uint16_t param_id = start_address + i;
 254:../Common/src/modbus_protocol.c ****             
 255:../Common/src/modbus_protocol.c ****             float value = motor_params_get(&motor, param_id);
 256:../Common/src/modbus_protocol.c ****             
 257:../Common/src/modbus_protocol.c ****             /* 将浮点数转换为16位整数（缩放1000倍） */
 258:../Common/src/modbus_protocol.c ****             int16_t scaled_value = (int16_t)(value * 1000.0f);
 259:../Common/src/modbus_protocol.c ****             
 260:../Common/src/modbus_protocol.c ****             // 大端序存储
 261:../Common/src/modbus_protocol.c ****             response_data[1 + i * 2] = (scaled_value >> 8) & 0xFF;
 262:../Common/src/modbus_protocol.c ****             response_data[2 + i * 2] = scaled_value & 0xFF;
 263:../Common/src/modbus_protocol.c ****           }
 264:../Common/src/modbus_protocol.c ****           
 265:../Common/src/modbus_protocol.c ****           modbus_send_response(frame->function_code, response_data, response_data[0] + 1);
 266:../Common/src/modbus_protocol.c ****           
 267:../Common/src/modbus_protocol.c ****           // 从队列中移除整个帧
 268:../Common/src/modbus_protocol.c ****           ring_buffer_pop_n(frame_len);
 269:../Common/src/modbus_protocol.c ****           break;
 270:../Common/src/modbus_protocol.c ****         }
 271:../Common/src/modbus_protocol.c ****         case MODBUS_FC_WRITE_SINGLE_REGISTER:
 272:../Common/src/modbus_protocol.c ****         {
 273:../Common/src/modbus_protocol.c ****           // 手动解析大端序数据
 274:../Common/src/modbus_protocol.c ****           uint16_t param_id = (temp_buffer[1] << 8) | temp_buffer[2];
 275:../Common/src/modbus_protocol.c ****           
 276:../Common/src/modbus_protocol.c ****           int16_t scaled_value = (temp_buffer[3] << 8) | temp_buffer[4];
 277:../Common/src/modbus_protocol.c ****           float value = scaled_value / 1000.0f;
 278:../Common/src/modbus_protocol.c ****           
 279:../Common/src/modbus_protocol.c ****           // 直接使用参数字典更新函数
 280:../Common/src/modbus_protocol.c ****           motor_params_update(&motor, param_id, value);
 281:../Common/src/modbus_protocol.c ****           
 282:../Common/src/modbus_protocol.c ****           // 准备响应数据（大端序）
 283:../Common/src/modbus_protocol.c ****           uint8_t response_data[4];
 284:../Common/src/modbus_protocol.c ****           response_data[0] = (param_id >> 8) & 0xFF;
 285:../Common/src/modbus_protocol.c ****           response_data[1] = param_id & 0xFF;
 286:../Common/src/modbus_protocol.c ****           response_data[2] = (scaled_value >> 8) & 0xFF;
 287:../Common/src/modbus_protocol.c ****           response_data[3] = scaled_value & 0xFF;
 288:../Common/src/modbus_protocol.c ****           
 289:../Common/src/modbus_protocol.c ****           modbus_send_response(frame->function_code, response_data, 4);
 290:../Common/src/modbus_protocol.c ****           
 291:../Common/src/modbus_protocol.c ****           // 从队列中移除整个帧
 292:../Common/src/modbus_protocol.c ****           ring_buffer_pop_n(frame_len);
 293:../Common/src/modbus_protocol.c ****           break;
 294:../Common/src/modbus_protocol.c ****         }
 295:../Common/src/modbus_protocol.c ****         case MODBUS_FC_WRITE_MULTIPLE_REGISTERS:
 296:../Common/src/modbus_protocol.c ****         {
 297:../Common/src/modbus_protocol.c ****           // 手动解析大端序数据
 298:../Common/src/modbus_protocol.c ****           uint16_t start_address = (temp_buffer[1] << 8) | temp_buffer[2];
 299:../Common/src/modbus_protocol.c ****           uint16_t quantity = (temp_buffer[3] << 8) | temp_buffer[4];
 300:../Common/src/modbus_protocol.c ****           
 301:../Common/src/modbus_protocol.c ****           if (quantity > 64)
 302:../Common/src/modbus_protocol.c ****           {
 303:../Common/src/modbus_protocol.c ****             modbus_send_exception_response(frame->function_code, MODBUS_ERR_ILLEGAL_DATA_VALUE);
 304:../Common/src/modbus_protocol.c ****             // 从队列中移除整个帧
 305:../Common/src/modbus_protocol.c ****             ring_buffer_pop_n(frame_len);
 306:../Common/src/modbus_protocol.c ****             break;
ARM GAS  C:\Users\10963\AppData\Local\Temp\ccTW5Rrt.s 			page 15


 307:../Common/src/modbus_protocol.c ****           }
 308:../Common/src/modbus_protocol.c ****           
 309:../Common/src/modbus_protocol.c ****           for (uint16_t i = 0; i < quantity; i++)
 310:../Common/src/modbus_protocol.c ****           {
 311:../Common/src/modbus_protocol.c ****             uint16_t param_id = start_address + i;
 312:../Common/src/modbus_protocol.c ****             
 313:../Common/src/modbus_protocol.c ****             // 手动解析大端序数据
 314:../Common/src/modbus_protocol.c ****             int16_t scaled_value = (temp_buffer[6 + i * 2] << 8) | temp_buffer[7 + i * 2];
 315:../Common/src/modbus_protocol.c ****             float value = scaled_value / 1000.0f;
 316:../Common/src/modbus_protocol.c ****             
 317:../Common/src/modbus_protocol.c ****             // 直接使用参数字典更新函数
 318:../Common/src/modbus_protocol.c ****             motor_params_update(&motor, param_id, value);
 319:../Common/src/modbus_protocol.c ****           }
 320:../Common/src/modbus_protocol.c ****           
 321:../Common/src/modbus_protocol.c ****           // 准备响应数据（大端序）
 322:../Common/src/modbus_protocol.c ****           uint8_t response_data[4];
 323:../Common/src/modbus_protocol.c ****           response_data[0] = (start_address >> 8) & 0xFF;
 324:../Common/src/modbus_protocol.c ****           response_data[1] = start_address & 0xFF;
 325:../Common/src/modbus_protocol.c ****           response_data[2] = (quantity >> 8) & 0xFF;
 326:../Common/src/modbus_protocol.c ****           response_data[3] = quantity & 0xFF;
 327:../Common/src/modbus_protocol.c ****           
 328:../Common/src/modbus_protocol.c ****           modbus_send_response(frame->function_code, response_data, 4);
 329:../Common/src/modbus_protocol.c ****           
 330:../Common/src/modbus_protocol.c ****           // 从队列中移除整个帧
 331:../Common/src/modbus_protocol.c ****           ring_buffer_pop_n(frame_len);
 332:../Common/src/modbus_protocol.c ****           break;
 333:../Common/src/modbus_protocol.c ****         }
 334:../Common/src/modbus_protocol.c ****         default:
 335:../Common/src/modbus_protocol.c ****           // 从队列中移除整个帧
 336:../Common/src/modbus_protocol.c ****           ring_buffer_pop_n(frame_len);
 337:../Common/src/modbus_protocol.c ****           break;
 338:../Common/src/modbus_protocol.c ****       }
 339:../Common/src/modbus_protocol.c ****     }
 340:../Common/src/modbus_protocol.c ****   }
 341:../Common/src/modbus_protocol.c **** }
 342:../Common/src/modbus_protocol.c **** 
 343:../Common/src/modbus_protocol.c **** /* 发送响应 */
 344:../Common/src/modbus_protocol.c **** void modbus_send_response(uint8_t function_code, void *data, uint16_t data_len)
 345:../Common/src/modbus_protocol.c **** {
 451              		.loc 1 345 1 view -0
 452              		.cfi_startproc
 453              		@ args = 0, pretend = 0, frame = 256
 454              		@ frame_needed = 0, uses_anonymous_args = 0
 455              		.loc 1 345 1 is_stmt 0 view .LVU107
 456 0000 30B5     		push	{r4, r5, lr}
 457              	.LCFI3:
 458              		.cfi_def_cfa_offset 12
 459              		.cfi_offset 4, -12
 460              		.cfi_offset 5, -8
 461              		.cfi_offset 14, -4
 462 0002 C1B0     		sub	sp, sp, #260
 463              	.LCFI4:
 464              		.cfi_def_cfa_offset 272
 465 0004 1446     		mov	r4, r2
 346:../Common/src/modbus_protocol.c ****   uint8_t response_buffer[256];
 466              		.loc 1 346 3 is_stmt 1 view .LVU108
 347:../Common/src/modbus_protocol.c ****   uint16_t response_len = 2; /* 从站地址 + 功能码 */
ARM GAS  C:\Users\10963\AppData\Local\Temp\ccTW5Rrt.s 			page 16


 467              		.loc 1 347 3 view .LVU109
 468              	.LVL42:
 348:../Common/src/modbus_protocol.c ****   
 349:../Common/src/modbus_protocol.c ****   /* 设置从站地址和功能码 */
 350:../Common/src/modbus_protocol.c ****   response_buffer[0] = MODBUS_SLAVE_ADDRESS;
 469              		.loc 1 350 3 view .LVU110
 470              		.loc 1 350 22 is_stmt 0 view .LVU111
 471 0006 0122     		movs	r2, #1
 472              	.LVL43:
 473              		.loc 1 350 22 view .LVU112
 474 0008 8DF80020 		strb	r2, [sp]
 351:../Common/src/modbus_protocol.c ****   response_buffer[1] = function_code;
 475              		.loc 1 351 3 is_stmt 1 view .LVU113
 476              		.loc 1 351 22 is_stmt 0 view .LVU114
 477 000c 8DF80100 		strb	r0, [sp, #1]
 352:../Common/src/modbus_protocol.c ****   
 353:../Common/src/modbus_protocol.c ****   /* 复制数据 */
 354:../Common/src/modbus_protocol.c ****   if (data != NULL && data_len > 0)
 478              		.loc 1 354 3 is_stmt 1 view .LVU115
 479              		.loc 1 354 6 is_stmt 0 view .LVU116
 480 0010 E9B1     		cbz	r1, .L39
 481              		.loc 1 354 20 discriminator 1 view .LVU117
 482 0012 A4B9     		cbnz	r4, .L42
 347:../Common/src/modbus_protocol.c ****   
 483              		.loc 1 347 12 view .LVU118
 484 0014 0224     		movs	r4, #2
 485              	.LVL44:
 486              	.L38:
 355:../Common/src/modbus_protocol.c ****   {
 356:../Common/src/modbus_protocol.c ****     memcpy(response_buffer + 2, data, data_len);
 357:../Common/src/modbus_protocol.c ****     response_len += data_len;
 358:../Common/src/modbus_protocol.c ****   }
 359:../Common/src/modbus_protocol.c ****   
 360:../Common/src/modbus_protocol.c ****   /* 计算CRC */
 361:../Common/src/modbus_protocol.c ****   uint16_t crc = modbus_calculate_crc(response_buffer, response_len);
 487              		.loc 1 361 3 is_stmt 1 view .LVU119
 488              		.loc 1 361 18 is_stmt 0 view .LVU120
 489 0016 2146     		mov	r1, r4
 490 0018 6846     		mov	r0, sp
 491 001a FFF7FEFF 		bl	modbus_calculate_crc
 492              	.LVL45:
 362:../Common/src/modbus_protocol.c ****   response_buffer[response_len++] = (uint8_t)(crc & 0xFF);
 493              		.loc 1 362 3 is_stmt 1 view .LVU121
 494              		.loc 1 362 31 is_stmt 0 view .LVU122
 495 001e 631C     		adds	r3, r4, #1
 496 0020 9BB2     		uxth	r3, r3
 497              	.LVL46:
 498              		.loc 1 362 35 view .LVU123
 499 0022 0DF80400 		strb	r0, [sp, r4]
 363:../Common/src/modbus_protocol.c ****   response_buffer[response_len++] = (uint8_t)(crc >> 8);
 500              		.loc 1 363 3 is_stmt 1 view .LVU124
 501              		.loc 1 363 31 is_stmt 0 view .LVU125
 502 0026 A21C     		adds	r2, r4, #2
 503              	.LVL47:
 504              		.loc 1 363 37 view .LVU126
 505 0028 C0F30720 		ubfx	r0, r0, #8, #8
 506              	.LVL48:
ARM GAS  C:\Users\10963\AppData\Local\Temp\ccTW5Rrt.s 			page 17


 507              		.loc 1 363 35 view .LVU127
 508 002c 0DF80300 		strb	r0, [sp, r3]
 364:../Common/src/modbus_protocol.c ****   
 365:../Common/src/modbus_protocol.c ****   /* 发送数据 */
 366:../Common/src/modbus_protocol.c ****   usb_vcp_send_data(&usb_core_dev, response_buffer, response_len);
 509              		.loc 1 366 3 is_stmt 1 view .LVU128
 510 0030 92B2     		uxth	r2, r2
 511              		.loc 1 366 3 is_stmt 0 view .LVU129
 512 0032 6946     		mov	r1, sp
 513 0034 0748     		ldr	r0, .L43
 514 0036 FFF7FEFF 		bl	usb_vcp_send_data
 515              	.LVL49:
 367:../Common/src/modbus_protocol.c **** }
 516              		.loc 1 367 1 view .LVU130
 517 003a 41B0     		add	sp, sp, #260
 518              	.LCFI5:
 519              		.cfi_remember_state
 520              		.cfi_def_cfa_offset 12
 521              		@ sp needed
 522 003c 30BD     		pop	{r4, r5, pc}
 523              	.LVL50:
 524              	.L42:
 525              	.LCFI6:
 526              		.cfi_restore_state
 356:../Common/src/modbus_protocol.c ****     response_len += data_len;
 527              		.loc 1 356 5 is_stmt 1 view .LVU131
 528 003e 2246     		mov	r2, r4
 529 0040 0DF10200 		add	r0, sp, #2
 530              	.LVL51:
 356:../Common/src/modbus_protocol.c ****     response_len += data_len;
 531              		.loc 1 356 5 is_stmt 0 view .LVU132
 532 0044 FFF7FEFF 		bl	memcpy
 533              	.LVL52:
 357:../Common/src/modbus_protocol.c ****   }
 534              		.loc 1 357 5 is_stmt 1 view .LVU133
 357:../Common/src/modbus_protocol.c ****   }
 535              		.loc 1 357 18 is_stmt 0 view .LVU134
 536 0048 0234     		adds	r4, r4, #2
 537 004a A4B2     		uxth	r4, r4
 538              	.LVL53:
 357:../Common/src/modbus_protocol.c ****   }
 539              		.loc 1 357 18 view .LVU135
 540 004c E3E7     		b	.L38
 541              	.LVL54:
 542              	.L39:
 347:../Common/src/modbus_protocol.c ****   
 543              		.loc 1 347 12 view .LVU136
 544 004e 0224     		movs	r4, #2
 545 0050 E1E7     		b	.L38
 546              	.L44:
 547 0052 00BF     		.align	2
 548              	.L43:
 549 0054 00000000 		.word	usb_core_dev
 550              		.cfi_endproc
 551              	.LFE146:
 553              		.section	.text.modbus_send_exception_response,"ax",%progbits
 554              		.align	1
ARM GAS  C:\Users\10963\AppData\Local\Temp\ccTW5Rrt.s 			page 18


 555              		.global	modbus_send_exception_response
 556              		.syntax unified
 557              		.thumb
 558              		.thumb_func
 560              	modbus_send_exception_response:
 561              	.LVL55:
 562              	.LFB147:
 368:../Common/src/modbus_protocol.c **** 
 369:../Common/src/modbus_protocol.c **** /* 发送异常响应 */
 370:../Common/src/modbus_protocol.c **** void modbus_send_exception_response(uint8_t function_code, uint8_t exception_code)
 371:../Common/src/modbus_protocol.c **** {
 563              		.loc 1 371 1 is_stmt 1 view -0
 564              		.cfi_startproc
 565              		@ args = 0, pretend = 0, frame = 8
 566              		@ frame_needed = 0, uses_anonymous_args = 0
 567              		.loc 1 371 1 is_stmt 0 view .LVU138
 568 0000 10B5     		push	{r4, lr}
 569              	.LCFI7:
 570              		.cfi_def_cfa_offset 8
 571              		.cfi_offset 4, -8
 572              		.cfi_offset 14, -4
 573 0002 82B0     		sub	sp, sp, #8
 574              	.LCFI8:
 575              		.cfi_def_cfa_offset 16
 372:../Common/src/modbus_protocol.c ****   uint8_t response_buffer[5];
 576              		.loc 1 372 3 is_stmt 1 view .LVU139
 373:../Common/src/modbus_protocol.c ****   
 374:../Common/src/modbus_protocol.c ****   /* 设置从站地址、功能码（最高位置1）和异常码 */
 375:../Common/src/modbus_protocol.c ****   response_buffer[0] = MODBUS_SLAVE_ADDRESS;
 577              		.loc 1 375 3 view .LVU140
 578              		.loc 1 375 22 is_stmt 0 view .LVU141
 579 0004 0123     		movs	r3, #1
 580 0006 8DF80030 		strb	r3, [sp]
 376:../Common/src/modbus_protocol.c ****   response_buffer[1] = function_code | 0x80;
 581              		.loc 1 376 3 is_stmt 1 view .LVU142
 582              		.loc 1 376 22 is_stmt 0 view .LVU143
 583 000a 60F07F00 		orn	r0, r0, #127
 584              	.LVL56:
 585              		.loc 1 376 22 view .LVU144
 586 000e 8DF80100 		strb	r0, [sp, #1]
 377:../Common/src/modbus_protocol.c ****   response_buffer[2] = exception_code;
 587              		.loc 1 377 3 is_stmt 1 view .LVU145
 588              		.loc 1 377 22 is_stmt 0 view .LVU146
 589 0012 8DF80210 		strb	r1, [sp, #2]
 378:../Common/src/modbus_protocol.c ****   
 379:../Common/src/modbus_protocol.c ****   /* 计算CRC */
 380:../Common/src/modbus_protocol.c ****   uint16_t crc = modbus_calculate_crc(response_buffer, 3);
 590              		.loc 1 380 3 is_stmt 1 view .LVU147
 591              		.loc 1 380 18 is_stmt 0 view .LVU148
 592 0016 0321     		movs	r1, #3
 593              	.LVL57:
 594              		.loc 1 380 18 view .LVU149
 595 0018 6846     		mov	r0, sp
 596 001a FFF7FEFF 		bl	modbus_calculate_crc
 597              	.LVL58:
 381:../Common/src/modbus_protocol.c ****   response_buffer[3] = (uint8_t)(crc & 0xFF);
 598              		.loc 1 381 3 is_stmt 1 view .LVU150
ARM GAS  C:\Users\10963\AppData\Local\Temp\ccTW5Rrt.s 			page 19


 599              		.loc 1 381 22 is_stmt 0 view .LVU151
 600 001e 8DF80300 		strb	r0, [sp, #3]
 382:../Common/src/modbus_protocol.c ****   response_buffer[4] = (uint8_t)(crc >> 8);
 601              		.loc 1 382 3 is_stmt 1 view .LVU152
 602              		.loc 1 382 24 is_stmt 0 view .LVU153
 603 0022 C0F30720 		ubfx	r0, r0, #8, #8
 604              	.LVL59:
 605              		.loc 1 382 22 view .LVU154
 606 0026 8DF80400 		strb	r0, [sp, #4]
 383:../Common/src/modbus_protocol.c ****   
 384:../Common/src/modbus_protocol.c ****   /* 发送数据 */
 385:../Common/src/modbus_protocol.c ****   usb_vcp_send_data(&usb_core_dev, response_buffer, 5);
 607              		.loc 1 385 3 is_stmt 1 view .LVU155
 608 002a 0522     		movs	r2, #5
 609 002c 6946     		mov	r1, sp
 610 002e 0248     		ldr	r0, .L47
 611 0030 FFF7FEFF 		bl	usb_vcp_send_data
 612              	.LVL60:
 386:../Common/src/modbus_protocol.c **** }...
 613              		.loc 1 386 1 is_stmt 0 view .LVU156
 614 0034 02B0     		add	sp, sp, #8
 615              	.LCFI9:
 616              		.cfi_def_cfa_offset 8
 617              		@ sp needed
 618 0036 10BD     		pop	{r4, pc}
 619              	.L48:
 620              		.align	2
 621              	.L47:
 622 0038 00000000 		.word	usb_core_dev
 623              		.cfi_endproc
 624              	.LFE147:
 626              		.section	.text.modbus_protocol_process,"ax",%progbits
 627              		.align	1
 628              		.global	modbus_protocol_process
 629              		.syntax unified
 630              		.thumb
 631              		.thumb_func
 633              	modbus_protocol_process:
 634              	.LFB145:
 119:../Common/src/modbus_protocol.c **** {
 635              		.loc 1 119 1 is_stmt 1 view -0
 636              		.cfi_startproc
 637              		@ args = 0, pretend = 0, frame = 720
 638              		@ frame_needed = 0, uses_anonymous_args = 0
 639 0000 2DE9F043 		push	{r4, r5, r6, r7, r8, r9, lr}
 640              	.LCFI10:
 641              		.cfi_def_cfa_offset 28
 642              		.cfi_offset 4, -28
 643              		.cfi_offset 5, -24
 644              		.cfi_offset 6, -20
 645              		.cfi_offset 7, -16
 646              		.cfi_offset 8, -12
 647              		.cfi_offset 9, -8
 648              		.cfi_offset 14, -4
 649 0004 ADF5357D 		sub	sp, sp, #724
 650              	.LCFI11:
 651              		.cfi_def_cfa_offset 752
ARM GAS  C:\Users\10963\AppData\Local\Temp\ccTW5Rrt.s 			page 20


 121:../Common/src/modbus_protocol.c ****   uint8_t usb_rx_buffer[USBD_CDC_OUT_MAXPACKET_SIZE];
 652              		.loc 1 121 3 view .LVU158
 122:../Common/src/modbus_protocol.c ****   uint16_t recv_len = usb_vcp_get_rxdata(&usb_core_dev, usb_rx_buffer);
 653              		.loc 1 122 3 view .LVU159
 122:../Common/src/modbus_protocol.c ****   uint16_t recv_len = usb_vcp_get_rxdata(&usb_core_dev, usb_rx_buffer);
 654              		.loc 1 122 23 is_stmt 0 view .LVU160
 655 0008 A4A9     		add	r1, sp, #656
 656 000a AC48     		ldr	r0, .L89
 657 000c FFF7FEFF 		bl	usb_vcp_get_rxdata
 658              	.LVL61:
 124:../Common/src/modbus_protocol.c ****   if (recv_len > 0)
 659              		.loc 1 124 3 is_stmt 1 view .LVU161
 124:../Common/src/modbus_protocol.c ****   if (recv_len > 0)
 660              		.loc 1 124 6 is_stmt 0 view .LVU162
 661 0010 78B9     		cbnz	r0, .L81
 662              	.LVL62:
 663              	.L49:
 341:../Common/src/modbus_protocol.c **** }
 664              		.loc 1 341 1 view .LVU163
 665 0012 0DF5357D 		add	sp, sp, #724
 666              	.LCFI12:
 667              		.cfi_remember_state
 668              		.cfi_def_cfa_offset 28
 669              		@ sp needed
 670 0016 BDE8F083 		pop	{r4, r5, r6, r7, r8, r9, pc}
 671              	.LVL63:
 672              	.L52:
 673              	.LCFI13:
 674              		.cfi_restore_state
 675              	.LBB5:
 129:../Common/src/modbus_protocol.c ****       ring_buffer_push(usb_rx_buffer[i]);
 676              		.loc 1 129 7 is_stmt 1 view .LVU164
 677 001a 04F53473 		add	r3, r4, #720
 678 001e 6B44     		add	r3, sp, r3
 679 0020 13F8400C 		ldrb	r0, [r3, #-64]	@ zero_extendqisi2
 680 0024 FFF7FEFF 		bl	ring_buffer_push
 681              	.LVL64:
 127:../Common/src/modbus_protocol.c ****     for (uint16_t i = 0; i < recv_len; i++)
 682              		.loc 1 127 41 discriminator 3 view .LVU165
 683 0028 0134     		adds	r4, r4, #1
 684              	.LVL65:
 127:../Common/src/modbus_protocol.c ****     for (uint16_t i = 0; i < recv_len; i++)
 685              		.loc 1 127 41 is_stmt 0 discriminator 3 view .LVU166
 686 002a A4B2     		uxth	r4, r4
 687              	.LVL66:
 688              	.L50:
 127:../Common/src/modbus_protocol.c ****     for (uint16_t i = 0; i < recv_len; i++)
 689              		.loc 1 127 28 is_stmt 1 discriminator 1 view .LVU167
 690 002c AC42     		cmp	r4, r5
 691 002e F4D3     		bcc	.L52
 692 0030 04E0     		b	.L53
 693              	.LVL67:
 694              	.L81:
 127:../Common/src/modbus_protocol.c ****     for (uint16_t i = 0; i < recv_len; i++)
 695              		.loc 1 127 28 is_stmt 0 discriminator 1 view .LVU168
 696 0032 0546     		mov	r5, r0
 127:../Common/src/modbus_protocol.c ****     for (uint16_t i = 0; i < recv_len; i++)
ARM GAS  C:\Users\10963\AppData\Local\Temp\ccTW5Rrt.s 			page 21


 697              		.loc 1 127 19 view .LVU169
 698 0034 0024     		movs	r4, #0
 699 0036 F9E7     		b	.L50
 700              	.LVL68:
 701              	.L86:
 127:../Common/src/modbus_protocol.c ****     for (uint16_t i = 0; i < recv_len; i++)
 702              		.loc 1 127 19 view .LVU170
 703              	.LBE5:
 704              	.LBB6:
 146:../Common/src/modbus_protocol.c ****         ring_buffer_pop();
 705              		.loc 1 146 9 is_stmt 1 view .LVU171
 706 0038 FFF7FEFF 		bl	ring_buffer_pop
 707              	.LVL69:
 147:../Common/src/modbus_protocol.c ****         continue;
 708              		.loc 1 147 9 view .LVU172
 709              	.L53:
 147:../Common/src/modbus_protocol.c ****         continue;
 710              		.loc 1 147 9 is_stmt 0 view .LVU173
 711              	.LBE6:
 133:../Common/src/modbus_protocol.c ****     while (ring_buffer_count() >= 4) /* 最小帧长度：从站地址1 + 功能码1 + CRC2 */
 712              		.loc 1 133 32 is_stmt 1 view .LVU174
 133:../Common/src/modbus_protocol.c ****     while (ring_buffer_count() >= 4) /* 最小帧长度：从站地址1 + 功能码1 + CRC2 */
 713              		.loc 1 133 12 is_stmt 0 view .LVU175
 714 003c FFF7FEFF 		bl	ring_buffer_count
 715              	.LVL70:
 716 0040 0446     		mov	r4, r0
 133:../Common/src/modbus_protocol.c ****     while (ring_buffer_count() >= 4) /* 最小帧长度：从站地址1 + 功能码1 + CRC2 */
 717              		.loc 1 133 32 discriminator 1 view .LVU176
 718 0042 0328     		cmp	r0, #3
 719 0044 E5D9     		bls	.L49
 720              	.LBB20:
 136:../Common/src/modbus_protocol.c ****       uint8_t temp_buffer[RX_BUFFER_SIZE];
 721              		.loc 1 136 7 is_stmt 1 view .LVU177
 137:../Common/src/modbus_protocol.c ****       uint16_t temp_len = ring_buffer_count();
 722              		.loc 1 137 7 view .LVU178
 723              	.LVL71:
 138:../Common/src/modbus_protocol.c ****       ring_buffer_copy(temp_buffer, temp_len);
 724              		.loc 1 138 7 view .LVU179
 725 0046 24AD     		add	r5, sp, #144
 726 0048 2146     		mov	r1, r4
 727 004a 2846     		mov	r0, r5
 728 004c FFF7FEFF 		bl	ring_buffer_copy
 729              	.LVL72:
 140:../Common/src/modbus_protocol.c ****       modbus_frame_t *frame = (modbus_frame_t *)temp_buffer;
 730              		.loc 1 140 7 view .LVU180
 143:../Common/src/modbus_protocol.c ****       if (frame->slave_address != MODBUS_SLAVE_ADDRESS)
 731              		.loc 1 143 7 view .LVU181
 143:../Common/src/modbus_protocol.c ****       if (frame->slave_address != MODBUS_SLAVE_ADDRESS)
 732              		.loc 1 143 16 is_stmt 0 view .LVU182
 733 0050 9DF89030 		ldrb	r3, [sp, #144]	@ zero_extendqisi2
 143:../Common/src/modbus_protocol.c ****       if (frame->slave_address != MODBUS_SLAVE_ADDRESS)
 734              		.loc 1 143 10 view .LVU183
 735 0054 012B     		cmp	r3, #1
 736 0056 EFD1     		bne	.L86
 151:../Common/src/modbus_protocol.c ****       uint16_t frame_len = 4; /* 最小帧长度 */
 737              		.loc 1 151 7 is_stmt 1 view .LVU184
 738              	.LVL73:
ARM GAS  C:\Users\10963\AppData\Local\Temp\ccTW5Rrt.s 			page 22


 153:../Common/src/modbus_protocol.c ****       switch (frame->function_code)
 739              		.loc 1 153 7 view .LVU185
 153:../Common/src/modbus_protocol.c ****       switch (frame->function_code)
 740              		.loc 1 153 20 is_stmt 0 view .LVU186
 741 0058 9DF89150 		ldrb	r5, [sp, #145]	@ zero_extendqisi2
 742              	.LVL74:
 153:../Common/src/modbus_protocol.c ****       switch (frame->function_code)
 743              		.loc 1 153 7 view .LVU187
 744 005c 062D     		cmp	r5, #6
 745 005e 15D0     		beq	.L82
 746 0060 07D9     		bls	.L87
 747 0062 102D     		cmp	r5, #16
 748 0064 0BD1     		bne	.L58
 163:../Common/src/modbus_protocol.c ****           if (temp_len >= 7) /* 至少需要7字节才能获取字节数 */
 749              		.loc 1 163 11 is_stmt 1 view .LVU188
 163:../Common/src/modbus_protocol.c ****           if (temp_len >= 7) /* 至少需要7字节才能获取字节数 */
 750              		.loc 1 163 14 is_stmt 0 view .LVU189
 751 0066 062C     		cmp	r4, #6
 752 0068 3FD9     		bls	.L83
 165:../Common/src/modbus_protocol.c ****             frame_len = 7 + temp_buffer[6]; /* 从站地址1 + 功能码1 + 起始地址2 + 数量2
 753              		.loc 1 165 13 is_stmt 1 view .LVU190
 165:../Common/src/modbus_protocol.c ****             frame_len = 7 + temp_buffer[6]; /* 从站地址1 + 功能码1 + 起始地址2 + 数量2
 754              		.loc 1 165 40 is_stmt 0 view .LVU191
 755 006a 9DF89660 		ldrb	r6, [sp, #150]	@ zero_extendqisi2
 165:../Common/src/modbus_protocol.c ****             frame_len = 7 + temp_buffer[6]; /* 从站地址1 + 功能码1 + 起始地址2 + 数量2
 756              		.loc 1 165 23 view .LVU192
 757 006e 0736     		adds	r6, r6, #7
 758              	.LVL75:
 165:../Common/src/modbus_protocol.c ****             frame_len = 7 + temp_buffer[6]; /* 从站地址1 + 功能码1 + 起始地址2 + 数量2
 759              		.loc 1 165 23 view .LVU193
 760 0070 0DE0     		b	.L56
 761              	.LVL76:
 762              	.L87:
 153:../Common/src/modbus_protocol.c ****       switch (frame->function_code)
 763              		.loc 1 153 7 view .LVU194
 764 0072 EB1E     		subs	r3, r5, #3
 765 0074 DBB2     		uxtb	r3, r3
 766 0076 012B     		cmp	r3, #1
 767 0078 01D8     		bhi	.L58
 768 007a 0826     		movs	r6, #8
 769 007c 07E0     		b	.L56
 770              	.L58:
 170:../Common/src/modbus_protocol.c ****           modbus_send_exception_response(frame->function_code, MODBUS_ERR_ILLEGAL_FUNCTION);
 771              		.loc 1 170 11 is_stmt 1 view .LVU195
 772 007e 0121     		movs	r1, #1
 773 0080 2846     		mov	r0, r5
 774 0082 FFF7FEFF 		bl	modbus_send_exception_response
 775              	.LVL77:
 171:../Common/src/modbus_protocol.c ****           ring_buffer_pop();
 776              		.loc 1 171 11 view .LVU196
 777 0086 FFF7FEFF 		bl	ring_buffer_pop
 778              	.LVL78:
 172:../Common/src/modbus_protocol.c ****           continue;
 779              		.loc 1 172 11 view .LVU197
 780 008a D7E7     		b	.L53
 781              	.L82:
 153:../Common/src/modbus_protocol.c ****       switch (frame->function_code)
ARM GAS  C:\Users\10963\AppData\Local\Temp\ccTW5Rrt.s 			page 23


 782              		.loc 1 153 7 is_stmt 0 view .LVU198
 783 008c 0826     		movs	r6, #8
 784              	.LVL79:
 785              	.L56:
 175:../Common/src/modbus_protocol.c ****       if (temp_len < frame_len)
 786              		.loc 1 175 7 is_stmt 1 view .LVU199
 175:../Common/src/modbus_protocol.c ****       if (temp_len < frame_len)
 787              		.loc 1 175 10 is_stmt 0 view .LVU200
 788 008e B442     		cmp	r4, r6
 789 0090 BFD3     		bcc	.L49
 182:../Common/src/modbus_protocol.c ****       uint16_t calculated_crc = modbus_calculate_crc(temp_buffer, frame_len - 2);
 790              		.loc 1 182 7 is_stmt 1 view .LVU201
 182:../Common/src/modbus_protocol.c ****       uint16_t calculated_crc = modbus_calculate_crc(temp_buffer, frame_len - 2);
 791              		.loc 1 182 33 is_stmt 0 view .LVU202
 792 0092 B41E     		subs	r4, r6, #2
 793              	.LVL80:
 182:../Common/src/modbus_protocol.c ****       uint16_t calculated_crc = modbus_calculate_crc(temp_buffer, frame_len - 2);
 794              		.loc 1 182 33 view .LVU203
 795 0094 24AF     		add	r7, sp, #144
 796              	.LVL81:
 182:../Common/src/modbus_protocol.c ****       uint16_t calculated_crc = modbus_calculate_crc(temp_buffer, frame_len - 2);
 797              		.loc 1 182 33 view .LVU204
 798 0096 A1B2     		uxth	r1, r4
 799 0098 3846     		mov	r0, r7
 800 009a FFF7FEFF 		bl	modbus_calculate_crc
 801              	.LVL82:
 183:../Common/src/modbus_protocol.c ****       uint16_t received_crc = ((uint16_t)temp_buffer[frame_len - 2]) | ((uint16_t)temp_buffer[frame
 802              		.loc 1 183 7 is_stmt 1 view .LVU205
 183:../Common/src/modbus_protocol.c ****       uint16_t received_crc = ((uint16_t)temp_buffer[frame_len - 2]) | ((uint16_t)temp_buffer[frame
 803              		.loc 1 183 53 is_stmt 0 view .LVU206
 804 009e 3B5D     		ldrb	r3, [r7, r4]	@ zero_extendqisi2
 183:../Common/src/modbus_protocol.c ****       uint16_t received_crc = ((uint16_t)temp_buffer[frame_len - 2]) | ((uint16_t)temp_buffer[frame
 805              		.loc 1 183 105 view .LVU207
 806 00a0 721E     		subs	r2, r6, #1
 183:../Common/src/modbus_protocol.c ****       uint16_t received_crc = ((uint16_t)temp_buffer[frame_len - 2]) | ((uint16_t)temp_buffer[frame
 807              		.loc 1 183 94 view .LVU208
 808 00a2 BA5C     		ldrb	r2, [r7, r2]	@ zero_extendqisi2
 183:../Common/src/modbus_protocol.c ****       uint16_t received_crc = ((uint16_t)temp_buffer[frame_len - 2]) | ((uint16_t)temp_buffer[frame
 809              		.loc 1 183 16 view .LVU209
 810 00a4 43EA0223 		orr	r3, r3, r2, lsl #8
 811              	.LVL83:
 185:../Common/src/modbus_protocol.c ****       if (calculated_crc != received_crc)
 812              		.loc 1 185 7 is_stmt 1 view .LVU210
 185:../Common/src/modbus_protocol.c ****       if (calculated_crc != received_crc)
 813              		.loc 1 185 10 is_stmt 0 view .LVU211
 814 00a8 9842     		cmp	r0, r3
 815 00aa 20D1     		bne	.L88
 193:../Common/src/modbus_protocol.c ****       switch (frame->function_code)
 816              		.loc 1 193 7 is_stmt 1 view .LVU212
 817 00ac 062D     		cmp	r5, #6
 818 00ae 00F0A880 		beq	.L61
 819 00b2 1FD8     		bhi	.L62
 820 00b4 032D     		cmp	r5, #3
 821 00b6 3AD0     		beq	.L63
 822 00b8 042D     		cmp	r5, #4
 823 00ba 40F0FB80 		bne	.L65
 824              	.LBB7:
ARM GAS  C:\Users\10963\AppData\Local\Temp\ccTW5Rrt.s 			page 24


 236:../Common/src/modbus_protocol.c ****           uint16_t start_address = (temp_buffer[1] << 8) | temp_buffer[2];
 825              		.loc 1 236 11 view .LVU213
 236:../Common/src/modbus_protocol.c ****           uint16_t start_address = (temp_buffer[1] << 8) | temp_buffer[2];
 826              		.loc 1 236 71 is_stmt 0 view .LVU214
 827 00be 9DF89220 		ldrb	r2, [sp, #146]	@ zero_extendqisi2
 236:../Common/src/modbus_protocol.c ****           uint16_t start_address = (temp_buffer[1] << 8) | temp_buffer[2];
 828              		.loc 1 236 20 view .LVU215
 829 00c2 42EA0522 		orr	r2, r2, r5, lsl #8
 830 00c6 9046     		mov	r8, r2
 831              	.LVL84:
 237:../Common/src/modbus_protocol.c ****           uint16_t quantity = (temp_buffer[3] << 8) | temp_buffer[4];
 832              		.loc 1 237 11 is_stmt 1 view .LVU216
 237:../Common/src/modbus_protocol.c ****           uint16_t quantity = (temp_buffer[3] << 8) | temp_buffer[4];
 833              		.loc 1 237 43 is_stmt 0 view .LVU217
 834 00c8 9DF89320 		ldrb	r2, [sp, #147]	@ zero_extendqisi2
 237:../Common/src/modbus_protocol.c ****           uint16_t quantity = (temp_buffer[3] << 8) | temp_buffer[4];
 835              		.loc 1 237 66 view .LVU218
 836 00cc 9DF89470 		ldrb	r7, [sp, #148]	@ zero_extendqisi2
 837              	.LVL85:
 237:../Common/src/modbus_protocol.c ****           uint16_t quantity = (temp_buffer[3] << 8) | temp_buffer[4];
 838              		.loc 1 237 53 view .LVU219
 839 00d0 47EA0227 		orr	r7, r7, r2, lsl #8
 840 00d4 3BB2     		sxth	r3, r7
 841              	.LVL86:
 239:../Common/src/modbus_protocol.c ****           if (quantity > 64)
 842              		.loc 1 239 11 is_stmt 1 view .LVU220
 239:../Common/src/modbus_protocol.c ****           if (quantity > 64)
 843              		.loc 1 239 14 is_stmt 0 view .LVU221
 844 00d6 402F     		cmp	r7, #64
 845 00d8 69D9     		bls	.L72
 241:../Common/src/modbus_protocol.c ****             modbus_send_exception_response(frame->function_code, MODBUS_ERR_ILLEGAL_DATA_VALUE);
 846              		.loc 1 241 13 is_stmt 1 view .LVU222
 847 00da 0321     		movs	r1, #3
 848 00dc 2846     		mov	r0, r5
 849              	.LVL87:
 241:../Common/src/modbus_protocol.c ****             modbus_send_exception_response(frame->function_code, MODBUS_ERR_ILLEGAL_DATA_VALUE);
 850              		.loc 1 241 13 is_stmt 0 view .LVU223
 851 00de FFF7FEFF 		bl	modbus_send_exception_response
 852              	.LVL88:
 243:../Common/src/modbus_protocol.c ****             ring_buffer_pop_n(frame_len);
 853              		.loc 1 243 13 is_stmt 1 view .LVU224
 854 00e2 3046     		mov	r0, r6
 855 00e4 FFF7FEFF 		bl	ring_buffer_pop_n
 856              	.LVL89:
 244:../Common/src/modbus_protocol.c ****             break;
 857              		.loc 1 244 13 view .LVU225
 858 00e8 A8E7     		b	.L53
 859              	.LVL90:
 860              	.L83:
 244:../Common/src/modbus_protocol.c ****             break;
 861              		.loc 1 244 13 is_stmt 0 view .LVU226
 862              	.LBE7:
 151:../Common/src/modbus_protocol.c ****       uint16_t frame_len = 4; /* 最小帧长度 */
 863              		.loc 1 151 16 view .LVU227
 864 00ea 0426     		movs	r6, #4
 865 00ec CFE7     		b	.L56
 866              	.LVL91:
ARM GAS  C:\Users\10963\AppData\Local\Temp\ccTW5Rrt.s 			page 25


 867              	.L88:
 188:../Common/src/modbus_protocol.c ****         ring_buffer_pop();
 868              		.loc 1 188 9 is_stmt 1 view .LVU228
 869 00ee FFF7FEFF 		bl	ring_buffer_pop
 870              	.LVL92:
 189:../Common/src/modbus_protocol.c ****         continue;
 871              		.loc 1 189 9 view .LVU229
 872 00f2 A3E7     		b	.L53
 873              	.LVL93:
 874              	.L62:
 193:../Common/src/modbus_protocol.c ****       switch (frame->function_code)
 875              		.loc 1 193 7 is_stmt 0 view .LVU230
 876 00f4 102D     		cmp	r5, #16
 877 00f6 40F0DD80 		bne	.L65
 878              	.LBB10:
 298:../Common/src/modbus_protocol.c ****           uint16_t start_address = (temp_buffer[1] << 8) | temp_buffer[2];
 879              		.loc 1 298 11 is_stmt 1 view .LVU231
 298:../Common/src/modbus_protocol.c ****           uint16_t start_address = (temp_buffer[1] << 8) | temp_buffer[2];
 880              		.loc 1 298 71 is_stmt 0 view .LVU232
 881 00fa 9DF89230 		ldrb	r3, [sp, #146]	@ zero_extendqisi2
 882              	.LVL94:
 298:../Common/src/modbus_protocol.c ****           uint16_t start_address = (temp_buffer[1] << 8) | temp_buffer[2];
 883              		.loc 1 298 58 view .LVU233
 884 00fe 43EA0523 		orr	r3, r3, r5, lsl #8
 885 0102 19B2     		sxth	r1, r3
 886 0104 8846     		mov	r8, r1
 298:../Common/src/modbus_protocol.c ****           uint16_t start_address = (temp_buffer[1] << 8) | temp_buffer[2];
 887              		.loc 1 298 20 view .LVU234
 888 0106 1F46     		mov	r7, r3
 889              	.LVL95:
 299:../Common/src/modbus_protocol.c ****           uint16_t quantity = (temp_buffer[3] << 8) | temp_buffer[4];
 890              		.loc 1 299 11 is_stmt 1 view .LVU235
 299:../Common/src/modbus_protocol.c ****           uint16_t quantity = (temp_buffer[3] << 8) | temp_buffer[4];
 891              		.loc 1 299 43 is_stmt 0 view .LVU236
 892 0108 9DF89330 		ldrb	r3, [sp, #147]	@ zero_extendqisi2
 299:../Common/src/modbus_protocol.c ****           uint16_t quantity = (temp_buffer[3] << 8) | temp_buffer[4];
 893              		.loc 1 299 66 view .LVU237
 894 010c 9DF89440 		ldrb	r4, [sp, #148]	@ zero_extendqisi2
 895              	.LVL96:
 299:../Common/src/modbus_protocol.c ****           uint16_t quantity = (temp_buffer[3] << 8) | temp_buffer[4];
 896              		.loc 1 299 53 view .LVU238
 897 0110 44EA0324 		orr	r4, r4, r3, lsl #8
 898 0114 23B2     		sxth	r3, r4
 899 0116 9946     		mov	r9, r3
 900              	.LVL97:
 301:../Common/src/modbus_protocol.c ****           if (quantity > 64)
 901              		.loc 1 301 11 is_stmt 1 view .LVU239
 301:../Common/src/modbus_protocol.c ****           if (quantity > 64)
 902              		.loc 1 301 14 is_stmt 0 view .LVU240
 903 0118 402C     		cmp	r4, #64
 904 011a 40F2C980 		bls	.L84
 303:../Common/src/modbus_protocol.c ****             modbus_send_exception_response(frame->function_code, MODBUS_ERR_ILLEGAL_DATA_VALUE);
 905              		.loc 1 303 13 is_stmt 1 view .LVU241
 906 011e 0321     		movs	r1, #3
 907 0120 2846     		mov	r0, r5
 908              	.LVL98:
 303:../Common/src/modbus_protocol.c ****             modbus_send_exception_response(frame->function_code, MODBUS_ERR_ILLEGAL_DATA_VALUE);
ARM GAS  C:\Users\10963\AppData\Local\Temp\ccTW5Rrt.s 			page 26


 909              		.loc 1 303 13 is_stmt 0 view .LVU242
 910 0122 FFF7FEFF 		bl	modbus_send_exception_response
 911              	.LVL99:
 305:../Common/src/modbus_protocol.c ****             ring_buffer_pop_n(frame_len);
 912              		.loc 1 305 13 is_stmt 1 view .LVU243
 913 0126 3046     		mov	r0, r6
 914 0128 FFF7FEFF 		bl	ring_buffer_pop_n
 915              	.LVL100:
 306:../Common/src/modbus_protocol.c ****             break;
 916              		.loc 1 306 13 view .LVU244
 917 012c 86E7     		b	.L53
 918              	.LVL101:
 919              	.L63:
 306:../Common/src/modbus_protocol.c ****             break;
 920              		.loc 1 306 13 is_stmt 0 view .LVU245
 921              	.LBE10:
 922              	.LBB14:
 198:../Common/src/modbus_protocol.c ****           uint16_t start_address = (temp_buffer[1] << 8) | temp_buffer[2];
 923              		.loc 1 198 11 is_stmt 1 view .LVU246
 198:../Common/src/modbus_protocol.c ****           uint16_t start_address = (temp_buffer[1] << 8) | temp_buffer[2];
 924              		.loc 1 198 71 is_stmt 0 view .LVU247
 925 012e 9DF89220 		ldrb	r2, [sp, #146]	@ zero_extendqisi2
 198:../Common/src/modbus_protocol.c ****           uint16_t start_address = (temp_buffer[1] << 8) | temp_buffer[2];
 926              		.loc 1 198 20 view .LVU248
 927 0132 42EA0522 		orr	r2, r2, r5, lsl #8
 928 0136 9046     		mov	r8, r2
 929              	.LVL102:
 199:../Common/src/modbus_protocol.c ****           uint16_t quantity = (temp_buffer[3] << 8) | temp_buffer[4];
 930              		.loc 1 199 11 is_stmt 1 view .LVU249
 199:../Common/src/modbus_protocol.c ****           uint16_t quantity = (temp_buffer[3] << 8) | temp_buffer[4];
 931              		.loc 1 199 43 is_stmt 0 view .LVU250
 932 0138 9DF89320 		ldrb	r2, [sp, #147]	@ zero_extendqisi2
 199:../Common/src/modbus_protocol.c ****           uint16_t quantity = (temp_buffer[3] << 8) | temp_buffer[4];
 933              		.loc 1 199 66 view .LVU251
 934 013c 9DF89470 		ldrb	r7, [sp, #148]	@ zero_extendqisi2
 935              	.LVL103:
 199:../Common/src/modbus_protocol.c ****           uint16_t quantity = (temp_buffer[3] << 8) | temp_buffer[4];
 936              		.loc 1 199 53 view .LVU252
 937 0140 47EA0227 		orr	r7, r7, r2, lsl #8
 938 0144 3BB2     		sxth	r3, r7
 939              	.LVL104:
 201:../Common/src/modbus_protocol.c ****           if (quantity > 64)
 940              		.loc 1 201 11 is_stmt 1 view .LVU253
 201:../Common/src/modbus_protocol.c ****           if (quantity > 64)
 941              		.loc 1 201 14 is_stmt 0 view .LVU254
 942 0146 402F     		cmp	r7, #64
 943 0148 07D9     		bls	.L67
 203:../Common/src/modbus_protocol.c ****             modbus_send_exception_response(frame->function_code, MODBUS_ERR_ILLEGAL_DATA_VALUE);
 944              		.loc 1 203 13 is_stmt 1 view .LVU255
 945 014a 0321     		movs	r1, #3
 946 014c 2846     		mov	r0, r5
 947              	.LVL105:
 203:../Common/src/modbus_protocol.c ****             modbus_send_exception_response(frame->function_code, MODBUS_ERR_ILLEGAL_DATA_VALUE);
 948              		.loc 1 203 13 is_stmt 0 view .LVU256
 949 014e FFF7FEFF 		bl	modbus_send_exception_response
 950              	.LVL106:
 205:../Common/src/modbus_protocol.c ****             ring_buffer_pop_n(frame_len);
ARM GAS  C:\Users\10963\AppData\Local\Temp\ccTW5Rrt.s 			page 27


 951              		.loc 1 205 13 is_stmt 1 view .LVU257
 952 0152 3046     		mov	r0, r6
 953 0154 FFF7FEFF 		bl	ring_buffer_pop_n
 954              	.LVL107:
 206:../Common/src/modbus_protocol.c ****             break;
 955              		.loc 1 206 13 view .LVU258
 956 0158 70E7     		b	.L53
 957              	.LVL108:
 958              	.L67:
 210:../Common/src/modbus_protocol.c ****           uint8_t response_data[1 + 64 * 2]; // 字节数 + 最多64个寄存器
 959              		.loc 1 210 11 view .LVU259
 211:../Common/src/modbus_protocol.c ****           response_data[0] = quantity * 2;
 960              		.loc 1 211 11 view .LVU260
 211:../Common/src/modbus_protocol.c ****           response_data[0] = quantity * 2;
 961              		.loc 1 211 28 is_stmt 0 view .LVU261
 962 015a 5B00     		lsls	r3, r3, #1
 963 015c 8DF80C30 		strb	r3, [sp, #12]
 213:../Common/src/modbus_protocol.c ****           for (uint16_t i = 0; i < quantity; i++)
 964              		.loc 1 213 11 is_stmt 1 view .LVU262
 965              	.LBB15:
 213:../Common/src/modbus_protocol.c ****           for (uint16_t i = 0; i < quantity; i++)
 966              		.loc 1 213 16 view .LVU263
 967              	.LVL109:
 213:../Common/src/modbus_protocol.c ****           for (uint16_t i = 0; i < quantity; i++)
 968              		.loc 1 213 25 is_stmt 0 view .LVU264
 969 0160 0024     		movs	r4, #0
 970              	.LVL110:
 213:../Common/src/modbus_protocol.c ****           for (uint16_t i = 0; i < quantity; i++)
 971              		.loc 1 213 11 view .LVU265
 972 0162 17E0     		b	.L69
 973              	.LVL111:
 974              	.L70:
 975              	.LBB16:
 215:../Common/src/modbus_protocol.c ****             uint16_t param_id = start_address + i;
 976              		.loc 1 215 13 is_stmt 1 view .LVU266
 215:../Common/src/modbus_protocol.c ****             uint16_t param_id = start_address + i;
 977              		.loc 1 215 22 is_stmt 0 view .LVU267
 978 0164 4346     		mov	r3, r8
 979 0166 E118     		adds	r1, r4, r3
 980              	.LVL112:
 217:../Common/src/modbus_protocol.c ****             float value = motor_params_get(&motor, param_id);
 981              		.loc 1 217 13 is_stmt 1 view .LVU268
 217:../Common/src/modbus_protocol.c ****             float value = motor_params_get(&motor, param_id);
 982              		.loc 1 217 27 is_stmt 0 view .LVU269
 983 0168 89B2     		uxth	r1, r1
 217:../Common/src/modbus_protocol.c ****             float value = motor_params_get(&motor, param_id);
 984              		.loc 1 217 27 view .LVU270
 985 016a 5548     		ldr	r0, .L89+4
 986 016c FFF7FEFF 		bl	motor_params_get
 987              	.LVL113:
 220:../Common/src/modbus_protocol.c ****             int16_t scaled_value = (int16_t)(value * 1000.0f);
 988              		.loc 1 220 13 is_stmt 1 view .LVU271
 220:../Common/src/modbus_protocol.c ****             int16_t scaled_value = (int16_t)(value * 1000.0f);
 989              		.loc 1 220 52 is_stmt 0 view .LVU272
 990 0170 DFED547A 		vldr.32	s15, .L89+8
 991 0174 20EE270A 		vmul.f32	s0, s0, s15
 992              	.LVL114:
ARM GAS  C:\Users\10963\AppData\Local\Temp\ccTW5Rrt.s 			page 28


 220:../Common/src/modbus_protocol.c ****             int16_t scaled_value = (int16_t)(value * 1000.0f);
 993              		.loc 1 220 21 view .LVU273
 994 0178 FDEEC07A 		vcvt.s32.f32	s15, s0
 995 017c 17EE903A 		vmov	r3, s15	@ int
 996              	.LVL115:
 223:../Common/src/modbus_protocol.c ****             response_data[1 + i * 2] = (scaled_value >> 8) & 0xFF;
 997              		.loc 1 223 13 is_stmt 1 view .LVU274
 223:../Common/src/modbus_protocol.c ****             response_data[1 + i * 2] = (scaled_value >> 8) & 0xFF;
 998              		.loc 1 223 33 is_stmt 0 view .LVU275
 999 0180 6200     		lsls	r2, r4, #1
 223:../Common/src/modbus_protocol.c ****             response_data[1 + i * 2] = (scaled_value >> 8) & 0xFF;
 1000              		.loc 1 223 29 view .LVU276
 1001 0182 0132     		adds	r2, r2, #1
 223:../Common/src/modbus_protocol.c ****             response_data[1 + i * 2] = (scaled_value >> 8) & 0xFF;
 1002              		.loc 1 223 38 view .LVU277
 1003 0184 03A9     		add	r1, sp, #12
 1004 0186 43F30720 		sbfx	r0, r3, #8, #8
 1005 018a 8854     		strb	r0, [r1, r2]
 224:../Common/src/modbus_protocol.c ****             response_data[2 + i * 2] = scaled_value & 0xFF;
 1006              		.loc 1 224 13 is_stmt 1 view .LVU278
 224:../Common/src/modbus_protocol.c ****             response_data[2 + i * 2] = scaled_value & 0xFF;
 1007              		.loc 1 224 29 is_stmt 0 view .LVU279
 1008 018c 0134     		adds	r4, r4, #1
 1009              	.LVL116:
 224:../Common/src/modbus_protocol.c ****             response_data[2 + i * 2] = scaled_value & 0xFF;
 1010              		.loc 1 224 38 view .LVU280
 1011 018e 01F81430 		strb	r3, [r1, r4, lsl #1]
 1012              	.LBE16:
 213:../Common/src/modbus_protocol.c ****           for (uint16_t i = 0; i < quantity; i++)
 1013              		.loc 1 213 47 is_stmt 1 discriminator 3 view .LVU281
 1014 0192 A4B2     		uxth	r4, r4
 1015              	.LVL117:
 1016              	.L69:
 213:../Common/src/modbus_protocol.c ****           for (uint16_t i = 0; i < quantity; i++)
 1017              		.loc 1 213 34 discriminator 1 view .LVU282
 1018 0194 BC42     		cmp	r4, r7
 1019 0196 E5D3     		bcc	.L70
 1020              	.LBE15:
 227:../Common/src/modbus_protocol.c ****           modbus_send_response(frame->function_code, response_data, response_data[0] + 1);
 1021              		.loc 1 227 11 view .LVU283
 227:../Common/src/modbus_protocol.c ****           modbus_send_response(frame->function_code, response_data, response_data[0] + 1);
 1022              		.loc 1 227 82 is_stmt 0 view .LVU284
 1023 0198 03A9     		add	r1, sp, #12
 1024 019a 0A78     		ldrb	r2, [r1]	@ zero_extendqisi2
 227:../Common/src/modbus_protocol.c ****           modbus_send_response(frame->function_code, response_data, response_data[0] + 1);
 1025              		.loc 1 227 11 view .LVU285
 1026 019c 0132     		adds	r2, r2, #1
 1027 019e 9DF89100 		ldrb	r0, [sp, #145]	@ zero_extendqisi2
 1028 01a2 FFF7FEFF 		bl	modbus_send_response
 1029              	.LVL118:
 230:../Common/src/modbus_protocol.c ****           ring_buffer_pop_n(frame_len);
 1030              		.loc 1 230 11 is_stmt 1 view .LVU286
 1031 01a6 3046     		mov	r0, r6
 1032 01a8 FFF7FEFF 		bl	ring_buffer_pop_n
 1033              	.LVL119:
 231:../Common/src/modbus_protocol.c ****           break;
 1034              		.loc 1 231 11 view .LVU287
ARM GAS  C:\Users\10963\AppData\Local\Temp\ccTW5Rrt.s 			page 29


 1035 01ac 46E7     		b	.L53
 1036              	.LVL120:
 1037              	.L72:
 231:../Common/src/modbus_protocol.c ****           break;
 1038              		.loc 1 231 11 is_stmt 0 view .LVU288
 1039              	.LBE14:
 1040              	.LBB17:
 248:../Common/src/modbus_protocol.c ****           uint8_t response_data[1 + 64 * 2]; // 字节数 + 最多64个寄存器
 1041              		.loc 1 248 11 is_stmt 1 view .LVU289
 249:../Common/src/modbus_protocol.c ****           response_data[0] = quantity * 2;
 1042              		.loc 1 249 11 view .LVU290
 249:../Common/src/modbus_protocol.c ****           response_data[0] = quantity * 2;
 1043              		.loc 1 249 28 is_stmt 0 view .LVU291
 1044 01ae 5B00     		lsls	r3, r3, #1
 1045 01b0 8DF80C30 		strb	r3, [sp, #12]
 251:../Common/src/modbus_protocol.c ****           for (uint16_t i = 0; i < quantity; i++)
 1046              		.loc 1 251 11 is_stmt 1 view .LVU292
 1047              	.LBB8:
 251:../Common/src/modbus_protocol.c ****           for (uint16_t i = 0; i < quantity; i++)
 1048              		.loc 1 251 16 view .LVU293
 1049              	.LVL121:
 251:../Common/src/modbus_protocol.c ****           for (uint16_t i = 0; i < quantity; i++)
 1050              		.loc 1 251 25 is_stmt 0 view .LVU294
 1051 01b4 0024     		movs	r4, #0
 1052              	.LVL122:
 251:../Common/src/modbus_protocol.c ****           for (uint16_t i = 0; i < quantity; i++)
 1053              		.loc 1 251 11 view .LVU295
 1054 01b6 17E0     		b	.L74
 1055              	.LVL123:
 1056              	.L75:
 1057              	.LBB9:
 253:../Common/src/modbus_protocol.c ****             uint16_t param_id = start_address + i;
 1058              		.loc 1 253 13 is_stmt 1 view .LVU296
 253:../Common/src/modbus_protocol.c ****             uint16_t param_id = start_address + i;
 1059              		.loc 1 253 22 is_stmt 0 view .LVU297
 1060 01b8 4346     		mov	r3, r8
 1061 01ba E118     		adds	r1, r4, r3
 1062              	.LVL124:
 255:../Common/src/modbus_protocol.c ****             float value = motor_params_get(&motor, param_id);
 1063              		.loc 1 255 13 is_stmt 1 view .LVU298
 255:../Common/src/modbus_protocol.c ****             float value = motor_params_get(&motor, param_id);
 1064              		.loc 1 255 27 is_stmt 0 view .LVU299
 1065 01bc 89B2     		uxth	r1, r1
 255:../Common/src/modbus_protocol.c ****             float value = motor_params_get(&motor, param_id);
 1066              		.loc 1 255 27 view .LVU300
 1067 01be 4048     		ldr	r0, .L89+4
 1068 01c0 FFF7FEFF 		bl	motor_params_get
 1069              	.LVL125:
 258:../Common/src/modbus_protocol.c ****             int16_t scaled_value = (int16_t)(value * 1000.0f);
 1070              		.loc 1 258 13 is_stmt 1 view .LVU301
 258:../Common/src/modbus_protocol.c ****             int16_t scaled_value = (int16_t)(value * 1000.0f);
 1071              		.loc 1 258 52 is_stmt 0 view .LVU302
 1072 01c4 DFED3F7A 		vldr.32	s15, .L89+8
 1073 01c8 20EE270A 		vmul.f32	s0, s0, s15
 1074              	.LVL126:
 258:../Common/src/modbus_protocol.c ****             int16_t scaled_value = (int16_t)(value * 1000.0f);
 1075              		.loc 1 258 21 view .LVU303
ARM GAS  C:\Users\10963\AppData\Local\Temp\ccTW5Rrt.s 			page 30


 1076 01cc FDEEC07A 		vcvt.s32.f32	s15, s0
 1077 01d0 17EE903A 		vmov	r3, s15	@ int
 1078              	.LVL127:
 261:../Common/src/modbus_protocol.c ****             response_data[1 + i * 2] = (scaled_value >> 8) & 0xFF;
 1079              		.loc 1 261 13 is_stmt 1 view .LVU304
 261:../Common/src/modbus_protocol.c ****             response_data[1 + i * 2] = (scaled_value >> 8) & 0xFF;
 1080              		.loc 1 261 33 is_stmt 0 view .LVU305
 1081 01d4 6200     		lsls	r2, r4, #1
 261:../Common/src/modbus_protocol.c ****             response_data[1 + i * 2] = (scaled_value >> 8) & 0xFF;
 1082              		.loc 1 261 29 view .LVU306
 1083 01d6 0132     		adds	r2, r2, #1
 261:../Common/src/modbus_protocol.c ****             response_data[1 + i * 2] = (scaled_value >> 8) & 0xFF;
 1084              		.loc 1 261 38 view .LVU307
 1085 01d8 03A9     		add	r1, sp, #12
 1086 01da 43F30720 		sbfx	r0, r3, #8, #8
 1087 01de 8854     		strb	r0, [r1, r2]
 262:../Common/src/modbus_protocol.c ****             response_data[2 + i * 2] = scaled_value & 0xFF;
 1088              		.loc 1 262 13 is_stmt 1 view .LVU308
 262:../Common/src/modbus_protocol.c ****             response_data[2 + i * 2] = scaled_value & 0xFF;
 1089              		.loc 1 262 29 is_stmt 0 view .LVU309
 1090 01e0 0134     		adds	r4, r4, #1
 1091              	.LVL128:
 262:../Common/src/modbus_protocol.c ****             response_data[2 + i * 2] = scaled_value & 0xFF;
 1092              		.loc 1 262 38 view .LVU310
 1093 01e2 01F81430 		strb	r3, [r1, r4, lsl #1]
 1094              	.LBE9:
 251:../Common/src/modbus_protocol.c ****           for (uint16_t i = 0; i < quantity; i++)
 1095              		.loc 1 251 47 is_stmt 1 discriminator 3 view .LVU311
 1096 01e6 A4B2     		uxth	r4, r4
 1097              	.LVL129:
 1098              	.L74:
 251:../Common/src/modbus_protocol.c ****           for (uint16_t i = 0; i < quantity; i++)
 1099              		.loc 1 251 34 discriminator 1 view .LVU312
 1100 01e8 BC42     		cmp	r4, r7
 1101 01ea E5D3     		bcc	.L75
 1102              	.LBE8:
 265:../Common/src/modbus_protocol.c ****           modbus_send_response(frame->function_code, response_data, response_data[0] + 1);
 1103              		.loc 1 265 11 view .LVU313
 265:../Common/src/modbus_protocol.c ****           modbus_send_response(frame->function_code, response_data, response_data[0] + 1);
 1104              		.loc 1 265 82 is_stmt 0 view .LVU314
 1105 01ec 03A9     		add	r1, sp, #12
 1106 01ee 0A78     		ldrb	r2, [r1]	@ zero_extendqisi2
 265:../Common/src/modbus_protocol.c ****           modbus_send_response(frame->function_code, response_data, response_data[0] + 1);
 1107              		.loc 1 265 11 view .LVU315
 1108 01f0 0132     		adds	r2, r2, #1
 1109 01f2 9DF89100 		ldrb	r0, [sp, #145]	@ zero_extendqisi2
 1110 01f6 FFF7FEFF 		bl	modbus_send_response
 1111              	.LVL130:
 268:../Common/src/modbus_protocol.c ****           ring_buffer_pop_n(frame_len);
 1112              		.loc 1 268 11 is_stmt 1 view .LVU316
 1113 01fa 3046     		mov	r0, r6
 1114 01fc FFF7FEFF 		bl	ring_buffer_pop_n
 1115              	.LVL131:
 269:../Common/src/modbus_protocol.c ****           break;
 1116              		.loc 1 269 11 view .LVU317
 1117 0200 1CE7     		b	.L53
 1118              	.LVL132:
ARM GAS  C:\Users\10963\AppData\Local\Temp\ccTW5Rrt.s 			page 31


 1119              	.L61:
 269:../Common/src/modbus_protocol.c ****           break;
 1120              		.loc 1 269 11 is_stmt 0 view .LVU318
 1121              	.LBE17:
 1122              	.LBB18:
 274:../Common/src/modbus_protocol.c ****           uint16_t param_id = (temp_buffer[1] << 8) | temp_buffer[2];
 1123              		.loc 1 274 11 is_stmt 1 view .LVU319
 274:../Common/src/modbus_protocol.c ****           uint16_t param_id = (temp_buffer[1] << 8) | temp_buffer[2];
 1124              		.loc 1 274 66 is_stmt 0 view .LVU320
 1125 0202 9DF89230 		ldrb	r3, [sp, #146]	@ zero_extendqisi2
 1126              	.LVL133:
 274:../Common/src/modbus_protocol.c ****           uint16_t param_id = (temp_buffer[1] << 8) | temp_buffer[2];
 1127              		.loc 1 274 53 view .LVU321
 1128 0206 43EA0525 		orr	r5, r3, r5, lsl #8
 1129 020a 2BB2     		sxth	r3, r5
 1130 020c 0193     		str	r3, [sp, #4]
 1131              	.LVL134:
 276:../Common/src/modbus_protocol.c ****           int16_t scaled_value = (temp_buffer[3] << 8) | temp_buffer[4];
 1132              		.loc 1 276 11 is_stmt 1 view .LVU322
 276:../Common/src/modbus_protocol.c ****           int16_t scaled_value = (temp_buffer[3] << 8) | temp_buffer[4];
 1133              		.loc 1 276 46 is_stmt 0 view .LVU323
 1134 020e 9DF89340 		ldrb	r4, [sp, #147]	@ zero_extendqisi2
 1135              	.LVL135:
 276:../Common/src/modbus_protocol.c ****           int16_t scaled_value = (temp_buffer[3] << 8) | temp_buffer[4];
 1136              		.loc 1 276 56 view .LVU324
 1137 0212 2402     		lsls	r4, r4, #8
 1138 0214 24B2     		sxth	r4, r4
 276:../Common/src/modbus_protocol.c ****           int16_t scaled_value = (temp_buffer[3] << 8) | temp_buffer[4];
 1139              		.loc 1 276 69 view .LVU325
 1140 0216 9DF89430 		ldrb	r3, [sp, #148]	@ zero_extendqisi2
 276:../Common/src/modbus_protocol.c ****           int16_t scaled_value = (temp_buffer[3] << 8) | temp_buffer[4];
 1141              		.loc 1 276 19 view .LVU326
 1142 021a 1C43     		orrs	r4, r4, r3
 1143              	.LVL136:
 277:../Common/src/modbus_protocol.c ****           float value = scaled_value / 1000.0f;
 1144              		.loc 1 277 11 is_stmt 1 view .LVU327
 277:../Common/src/modbus_protocol.c ****           float value = scaled_value / 1000.0f;
 1145              		.loc 1 277 38 is_stmt 0 view .LVU328
 1146 021c 07EE904A 		vmov	s15, r4	@ int
 1147 0220 B8EEE70A 		vcvt.f32.s32	s0, s15
 1148              	.LVL137:
 280:../Common/src/modbus_protocol.c ****           motor_params_update(&motor, param_id, value);
 1149              		.loc 1 280 11 is_stmt 1 view .LVU329
 1150 0224 DFED277A 		vldr.32	s15, .L89+8
 1151 0228 80EE270A 		vdiv.f32	s0, s0, s15
 1152              	.LVL138:
 280:../Common/src/modbus_protocol.c ****           motor_params_update(&motor, param_id, value);
 1153              		.loc 1 280 11 is_stmt 0 view .LVU330
 1154 022c 2946     		mov	r1, r5
 1155 022e 2448     		ldr	r0, .L89+4
 1156              	.LVL139:
 280:../Common/src/modbus_protocol.c ****           motor_params_update(&motor, param_id, value);
 1157              		.loc 1 280 11 view .LVU331
 1158 0230 FFF7FEFF 		bl	motor_params_update
 1159              	.LVL140:
 283:../Common/src/modbus_protocol.c ****           uint8_t response_data[4];
 1160              		.loc 1 283 11 is_stmt 1 view .LVU332
ARM GAS  C:\Users\10963\AppData\Local\Temp\ccTW5Rrt.s 			page 32


 284:../Common/src/modbus_protocol.c ****           response_data[0] = (param_id >> 8) & 0xFF;
 1161              		.loc 1 284 11 view .LVU333
 284:../Common/src/modbus_protocol.c ****           response_data[0] = (param_id >> 8) & 0xFF;
 1162              		.loc 1 284 28 is_stmt 0 view .LVU334
 1163 0234 03A9     		add	r1, sp, #12
 1164 0236 2D0A     		lsrs	r5, r5, #8
 1165              	.LVL141:
 284:../Common/src/modbus_protocol.c ****           response_data[0] = (param_id >> 8) & 0xFF;
 1166              		.loc 1 284 28 view .LVU335
 1167 0238 0D70     		strb	r5, [r1]
 285:../Common/src/modbus_protocol.c ****           response_data[1] = param_id & 0xFF;
 1168              		.loc 1 285 11 is_stmt 1 view .LVU336
 285:../Common/src/modbus_protocol.c ****           response_data[1] = param_id & 0xFF;
 1169              		.loc 1 285 28 is_stmt 0 view .LVU337
 1170 023a 019B     		ldr	r3, [sp, #4]
 1171 023c 4B70     		strb	r3, [r1, #1]
 286:../Common/src/modbus_protocol.c ****           response_data[2] = (scaled_value >> 8) & 0xFF;
 1172              		.loc 1 286 11 is_stmt 1 view .LVU338
 286:../Common/src/modbus_protocol.c ****           response_data[2] = (scaled_value >> 8) & 0xFF;
 1173              		.loc 1 286 28 is_stmt 0 view .LVU339
 1174 023e 2312     		asrs	r3, r4, #8
 1175 0240 8B70     		strb	r3, [r1, #2]
 287:../Common/src/modbus_protocol.c ****           response_data[3] = scaled_value & 0xFF;
 1176              		.loc 1 287 11 is_stmt 1 view .LVU340
 287:../Common/src/modbus_protocol.c ****           response_data[3] = scaled_value & 0xFF;
 1177              		.loc 1 287 28 is_stmt 0 view .LVU341
 1178 0242 CC70     		strb	r4, [r1, #3]
 289:../Common/src/modbus_protocol.c ****           modbus_send_response(frame->function_code, response_data, 4);
 1179              		.loc 1 289 11 is_stmt 1 view .LVU342
 1180 0244 0422     		movs	r2, #4
 1181 0246 9DF89100 		ldrb	r0, [sp, #145]	@ zero_extendqisi2
 1182 024a FFF7FEFF 		bl	modbus_send_response
 1183              	.LVL142:
 292:../Common/src/modbus_protocol.c ****           ring_buffer_pop_n(frame_len);
 1184              		.loc 1 292 11 view .LVU343
 1185 024e 3046     		mov	r0, r6
 1186 0250 FFF7FEFF 		bl	ring_buffer_pop_n
 1187              	.LVL143:
 293:../Common/src/modbus_protocol.c ****           break;
 1188              		.loc 1 293 11 view .LVU344
 1189 0254 F2E6     		b	.L53
 1190              	.LVL144:
 1191              	.L78:
 293:../Common/src/modbus_protocol.c ****           break;
 1192              		.loc 1 293 11 is_stmt 0 view .LVU345
 1193              	.LBE18:
 1194              	.LBB19:
 1195              	.LBB11:
 1196              	.LBB12:
 311:../Common/src/modbus_protocol.c ****             uint16_t param_id = start_address + i;
 1197              		.loc 1 311 13 is_stmt 1 view .LVU346
 311:../Common/src/modbus_protocol.c ****             uint16_t param_id = start_address + i;
 1198              		.loc 1 311 22 is_stmt 0 view .LVU347
 1199 0256 E919     		adds	r1, r5, r7
 1200              	.LVL145:
 314:../Common/src/modbus_protocol.c ****             int16_t scaled_value = (temp_buffer[6 + i * 2] << 8) | temp_buffer[7 + i * 2];
 1201              		.loc 1 314 13 is_stmt 1 view .LVU348
ARM GAS  C:\Users\10963\AppData\Local\Temp\ccTW5Rrt.s 			page 33


 314:../Common/src/modbus_protocol.c ****             int16_t scaled_value = (temp_buffer[6 + i * 2] << 8) | temp_buffer[7 + i * 2];
 1202              		.loc 1 314 51 is_stmt 0 view .LVU349
 1203 0258 EB1C     		adds	r3, r5, #3
 314:../Common/src/modbus_protocol.c ****             int16_t scaled_value = (temp_buffer[6 + i * 2] << 8) | temp_buffer[7 + i * 2];
 1204              		.loc 1 314 48 view .LVU350
 1205 025a 24A8     		add	r0, sp, #144
 1206              	.LVL146:
 314:../Common/src/modbus_protocol.c ****             int16_t scaled_value = (temp_buffer[6 + i * 2] << 8) | temp_buffer[7 + i * 2];
 1207              		.loc 1 314 48 view .LVU351
 1208 025c 10F81330 		ldrb	r3, [r0, r3, lsl #1]	@ zero_extendqisi2
 314:../Common/src/modbus_protocol.c ****             int16_t scaled_value = (temp_buffer[6 + i * 2] << 8) | temp_buffer[7 + i * 2];
 1209              		.loc 1 314 66 view .LVU352
 1210 0260 1B02     		lsls	r3, r3, #8
 1211 0262 1BB2     		sxth	r3, r3
 314:../Common/src/modbus_protocol.c ****             int16_t scaled_value = (temp_buffer[6 + i * 2] << 8) | temp_buffer[7 + i * 2];
 1212              		.loc 1 314 86 view .LVU353
 1213 0264 6A00     		lsls	r2, r5, #1
 314:../Common/src/modbus_protocol.c ****             int16_t scaled_value = (temp_buffer[6 + i * 2] << 8) | temp_buffer[7 + i * 2];
 1214              		.loc 1 314 82 view .LVU354
 1215 0266 0732     		adds	r2, r2, #7
 314:../Common/src/modbus_protocol.c ****             int16_t scaled_value = (temp_buffer[6 + i * 2] << 8) | temp_buffer[7 + i * 2];
 1216              		.loc 1 314 79 view .LVU355
 1217 0268 825C     		ldrb	r2, [r0, r2]	@ zero_extendqisi2
 314:../Common/src/modbus_protocol.c ****             int16_t scaled_value = (temp_buffer[6 + i * 2] << 8) | temp_buffer[7 + i * 2];
 1218              		.loc 1 314 21 view .LVU356
 1219 026a 1343     		orrs	r3, r3, r2
 1220 026c 00EE103A 		vmov	s0, r3	@ int
 1221              	.LVL147:
 315:../Common/src/modbus_protocol.c ****             float value = scaled_value / 1000.0f;
 1222              		.loc 1 315 13 is_stmt 1 view .LVU357
 315:../Common/src/modbus_protocol.c ****             float value = scaled_value / 1000.0f;
 1223              		.loc 1 315 40 is_stmt 0 view .LVU358
 1224 0270 B8EEC00A 		vcvt.f32.s32	s0, s0
 1225              	.LVL148:
 318:../Common/src/modbus_protocol.c ****             motor_params_update(&motor, param_id, value);
 1226              		.loc 1 318 13 is_stmt 1 view .LVU359
 1227 0274 DFED137A 		vldr.32	s15, .L89+8
 1228 0278 80EE270A 		vdiv.f32	s0, s0, s15
 1229              	.LVL149:
 318:../Common/src/modbus_protocol.c ****             motor_params_update(&motor, param_id, value);
 1230              		.loc 1 318 13 is_stmt 0 view .LVU360
 1231 027c 89B2     		uxth	r1, r1
 318:../Common/src/modbus_protocol.c ****             motor_params_update(&motor, param_id, value);
 1232              		.loc 1 318 13 view .LVU361
 1233 027e 1048     		ldr	r0, .L89+4
 1234              	.LVL150:
 318:../Common/src/modbus_protocol.c ****             motor_params_update(&motor, param_id, value);
 1235              		.loc 1 318 13 view .LVU362
 1236 0280 FFF7FEFF 		bl	motor_params_update
 1237              	.LVL151:
 318:../Common/src/modbus_protocol.c ****             motor_params_update(&motor, param_id, value);
 1238              		.loc 1 318 13 view .LVU363
 1239              	.LBE12:
 309:../Common/src/modbus_protocol.c ****           for (uint16_t i = 0; i < quantity; i++)
 1240              		.loc 1 309 47 is_stmt 1 discriminator 3 view .LVU364
 1241 0284 0135     		adds	r5, r5, #1
 1242              	.LVL152:
ARM GAS  C:\Users\10963\AppData\Local\Temp\ccTW5Rrt.s 			page 34


 309:../Common/src/modbus_protocol.c ****           for (uint16_t i = 0; i < quantity; i++)
 1243              		.loc 1 309 47 is_stmt 0 discriminator 3 view .LVU365
 1244 0286 ADB2     		uxth	r5, r5
 1245              	.LVL153:
 1246              	.L76:
 309:../Common/src/modbus_protocol.c ****           for (uint16_t i = 0; i < quantity; i++)
 1247              		.loc 1 309 34 is_stmt 1 discriminator 1 view .LVU366
 1248 0288 A542     		cmp	r5, r4
 1249 028a E4D3     		bcc	.L78
 1250              	.LBE11:
 322:../Common/src/modbus_protocol.c ****           uint8_t response_data[4];
 1251              		.loc 1 322 11 view .LVU367
 323:../Common/src/modbus_protocol.c ****           response_data[0] = (start_address >> 8) & 0xFF;
 1252              		.loc 1 323 11 view .LVU368
 323:../Common/src/modbus_protocol.c ****           response_data[0] = (start_address >> 8) & 0xFF;
 1253              		.loc 1 323 28 is_stmt 0 view .LVU369
 1254 028c 03A9     		add	r1, sp, #12
 1255 028e 3B0A     		lsrs	r3, r7, #8
 1256 0290 0B70     		strb	r3, [r1]
 324:../Common/src/modbus_protocol.c ****           response_data[1] = start_address & 0xFF;
 1257              		.loc 1 324 11 is_stmt 1 view .LVU370
 324:../Common/src/modbus_protocol.c ****           response_data[1] = start_address & 0xFF;
 1258              		.loc 1 324 28 is_stmt 0 view .LVU371
 1259 0292 81F80180 		strb	r8, [r1, #1]
 325:../Common/src/modbus_protocol.c ****           response_data[2] = (quantity >> 8) & 0xFF;
 1260              		.loc 1 325 11 is_stmt 1 view .LVU372
 325:../Common/src/modbus_protocol.c ****           response_data[2] = (quantity >> 8) & 0xFF;
 1261              		.loc 1 325 28 is_stmt 0 view .LVU373
 1262 0296 240A     		lsrs	r4, r4, #8
 1263              	.LVL154:
 325:../Common/src/modbus_protocol.c ****           response_data[2] = (quantity >> 8) & 0xFF;
 1264              		.loc 1 325 28 view .LVU374
 1265 0298 8C70     		strb	r4, [r1, #2]
 326:../Common/src/modbus_protocol.c ****           response_data[3] = quantity & 0xFF;
 1266              		.loc 1 326 11 is_stmt 1 view .LVU375
 326:../Common/src/modbus_protocol.c ****           response_data[3] = quantity & 0xFF;
 1267              		.loc 1 326 28 is_stmt 0 view .LVU376
 1268 029a 81F80390 		strb	r9, [r1, #3]
 328:../Common/src/modbus_protocol.c ****           modbus_send_response(frame->function_code, response_data, 4);
 1269              		.loc 1 328 11 is_stmt 1 view .LVU377
 1270 029e 0422     		movs	r2, #4
 1271 02a0 9DF89100 		ldrb	r0, [sp, #145]	@ zero_extendqisi2
 1272 02a4 FFF7FEFF 		bl	modbus_send_response
 1273              	.LVL155:
 331:../Common/src/modbus_protocol.c ****           ring_buffer_pop_n(frame_len);
 1274              		.loc 1 331 11 view .LVU378
 1275 02a8 3046     		mov	r0, r6
 1276 02aa FFF7FEFF 		bl	ring_buffer_pop_n
 1277              	.LVL156:
 332:../Common/src/modbus_protocol.c ****           break;
 1278              		.loc 1 332 11 view .LVU379
 1279 02ae C5E6     		b	.L53
 1280              	.LVL157:
 1281              	.L84:
 1282              	.LBB13:
 309:../Common/src/modbus_protocol.c ****           for (uint16_t i = 0; i < quantity; i++)
 1283              		.loc 1 309 25 is_stmt 0 view .LVU380
ARM GAS  C:\Users\10963\AppData\Local\Temp\ccTW5Rrt.s 			page 35


 1284 02b0 0025     		movs	r5, #0
 1285 02b2 E9E7     		b	.L76
 1286              	.LVL158:
 1287              	.L65:
 309:../Common/src/modbus_protocol.c ****           for (uint16_t i = 0; i < quantity; i++)
 1288              		.loc 1 309 25 view .LVU381
 1289              	.LBE13:
 1290              	.LBE19:
 336:../Common/src/modbus_protocol.c ****           ring_buffer_pop_n(frame_len);
 1291              		.loc 1 336 11 is_stmt 1 view .LVU382
 1292 02b4 3046     		mov	r0, r6
 1293              	.LVL159:
 336:../Common/src/modbus_protocol.c ****           ring_buffer_pop_n(frame_len);
 1294              		.loc 1 336 11 is_stmt 0 view .LVU383
 1295 02b6 FFF7FEFF 		bl	ring_buffer_pop_n
 1296              	.LVL160:
 337:../Common/src/modbus_protocol.c ****           break;
 1297              		.loc 1 337 11 is_stmt 1 view .LVU384
 1298 02ba BFE6     		b	.L53
 1299              	.L90:
 1300              		.align	2
 1301              	.L89:
 1302 02bc 00000000 		.word	usb_core_dev
 1303 02c0 00000000 		.word	motor
 1304 02c4 00007A44 		.word	1148846080
 1305              	.LBE20:
 1306              		.cfi_endproc
 1307              	.LFE145:
 1309              		.section	.bss.rx_count,"aw",%nobits
 1310              		.align	1
 1313              	rx_count:
 1314 0000 0000     		.space	2
 1315              		.section	.bss.rx_tail,"aw",%nobits
 1316              		.align	1
 1319              	rx_tail:
 1320 0000 0000     		.space	2
 1321              		.section	.bss.rx_head,"aw",%nobits
 1322              		.align	1
 1325              	rx_head:
 1326 0000 0000     		.space	2
 1327              		.section	.bss.rx_buffer,"aw",%nobits
 1328              		.align	2
 1331              	rx_buffer:
 1332 0000 00000000 		.space	512
 1332      00000000 
 1332      00000000 
 1332      00000000 
 1332      00000000 
 1333              		.text
 1334              	.Letext0:
 1335              		.file 2 "C:/Program Files (x86)/Arm/GNU Toolchain mingw-w64-i686-arm-none-eabi/arm-none-eabi/inclu
 1336              		.file 3 "C:/Program Files (x86)/Arm/GNU Toolchain mingw-w64-i686-arm-none-eabi/arm-none-eabi/inclu
 1337              		.file 4 "libraries/cmsis/cm4/device_support/at32f403a_407.h"
 1338              		.file 5 "libraries/drivers/inc/at32f403a_407_tmr.h"
 1339              		.file 6 "libraries/drivers/inc/at32f403a_407_usb.h"
 1340              		.file 7 "../Core/inc/motor_params.h"
 1341              		.file 8 "../Common/inc/modbus_protocol.h"
ARM GAS  C:\Users\10963\AppData\Local\Temp\ccTW5Rrt.s 			page 36


 1342              		.file 9 "middlewares/usbd_drivers/inc/usb_std.h"
 1343              		.file 10 "middlewares/usbd_drivers/inc/usbd_core.h"
 1344              		.file 11 "project/inc/cdc_class.h"
 1345              		.file 12 "C:/Program Files (x86)/Arm/GNU Toolchain mingw-w64-i686-arm-none-eabi/arm-none-eabi/incl
 1346              		.file 13 "<built-in>"
ARM GAS  C:\Users\10963\AppData\Local\Temp\ccTW5Rrt.s 			page 37

