ARM GAS  C:\Users\10963\AppData\Local\Temp\ccBdZ5ep.s 			page 1


   1              		.cpu cortex-m4
   2              		.arch armv7e-m
   3              		.fpu fpv4-sp-d16
   4              		.eabi_attribute 27, 1
   5              		.eabi_attribute 28, 1
   6              		.eabi_attribute 20, 1
   7              		.eabi_attribute 21, 1
   8              		.eabi_attribute 23, 3
   9              		.eabi_attribute 24, 1
  10              		.eabi_attribute 25, 1
  11              		.eabi_attribute 26, 1
  12              		.eabi_attribute 30, 1
  13              		.eabi_attribute 34, 1
  14              		.eabi_attribute 18, 4
  15              		.file	"motor_monitor.c"
  16              		.text
  17              	.Ltext0:
  18              		.cfi_sections	.debug_frame
  19              		.file 1 "../Core/src/motor_monitor.c"
  20              		.section	.text.motor_monitor_init,"ax",%progbits
  21              		.align	1
  22              		.global	motor_monitor_init
  23              		.syntax unified
  24              		.thumb
  25              		.thumb_func
  27              	motor_monitor_init:
  28              	.LVL0:
  29              	.LFB137:
   1:../Core/src/motor_monitor.c **** #include "motor_monitor.h"
   2:../Core/src/motor_monitor.c **** #include <stddef.h>
   3:../Core/src/motor_monitor.c **** #include <math.h>
   4:../Core/src/motor_monitor.c **** #include <stdio.h>
   5:../Core/src/motor_monitor.c **** 
   6:../Core/src/motor_monitor.c **** /**
   7:../Core/src/motor_monitor.c ****   * @brief  ÕłØÕ¦ŗÕī¢ńöĄµ£║ńøæµÄ¦
   8:../Core/src/motor_monitor.c ****   * @param  params: ńöĄµ£║ÕÅéµĢ░ń╗ōµ×äõĮōµīćķÆł
   9:../Core/src/motor_monitor.c ****   * @retval µŚĀ
  10:../Core/src/motor_monitor.c ****   */
  11:../Core/src/motor_monitor.c **** void motor_monitor_init(motor_params_t *params) {
  30              		.loc 1 11 49 view -0
  31              		.cfi_startproc
  32              		@ args = 0, pretend = 0, frame = 0
  33              		@ frame_needed = 0, uses_anonymous_args = 0
  12:../Core/src/motor_monitor.c ****     if (params == NULL) return;
  34              		.loc 1 12 5 view .LVU1
  35              		.loc 1 12 8 is_stmt 0 view .LVU2
  36 0000 0028     		cmp	r0, #0
  37 0002 5DD0     		beq	.L4
  11:../Core/src/motor_monitor.c ****     if (params == NULL) return;
  38              		.loc 1 11 49 view .LVU3
  39 0004 10B5     		push	{r4, lr}
  40              	.LCFI0:
  41              		.cfi_def_cfa_offset 8
  42              		.cfi_offset 4, -8
  43              		.cfi_offset 14, -4
  44 0006 0446     		mov	r4, r0
  13:../Core/src/motor_monitor.c ****     
ARM GAS  C:\Users\10963\AppData\Local\Temp\ccBdZ5ep.s 			page 2


  14:../Core/src/motor_monitor.c ****     // ÕłØÕ¦ŗÕī¢ńøæµÄ¦ÕÅéµĢ░
  15:../Core/src/motor_monitor.c ****     params->monitor.u_phase_current = 0.0;
  45              		.loc 1 15 5 is_stmt 1 view .LVU4
  46              		.loc 1 15 37 is_stmt 0 view .LVU5
  47 0008 0023     		movs	r3, #0
  48 000a 8365     		str	r3, [r0, #88]	@ float
  16:../Core/src/motor_monitor.c ****     params->monitor.v_phase_current = 0.0;
  49              		.loc 1 16 5 is_stmt 1 view .LVU6
  50              		.loc 1 16 37 is_stmt 0 view .LVU7
  51 000c C365     		str	r3, [r0, #92]	@ float
  17:../Core/src/motor_monitor.c ****     params->monitor.w_phase_current = 0.0;
  52              		.loc 1 17 5 is_stmt 1 view .LVU8
  53              		.loc 1 17 37 is_stmt 0 view .LVU9
  54 000e 0366     		str	r3, [r0, #96]	@ float
  18:../Core/src/motor_monitor.c ****     params->monitor.bus_voltage = 0.0;
  55              		.loc 1 18 5 is_stmt 1 view .LVU10
  56              		.loc 1 18 33 is_stmt 0 view .LVU11
  57 0010 4366     		str	r3, [r0, #100]	@ float
  19:../Core/src/motor_monitor.c ****     params->monitor.temperature = 0.0;
  58              		.loc 1 19 5 is_stmt 1 view .LVU12
  59              		.loc 1 19 33 is_stmt 0 view .LVU13
  60 0012 8366     		str	r3, [r0, #104]	@ float
  20:../Core/src/motor_monitor.c ****     params->monitor.sample_freq = (uint32_t)motor_params_get(params, PARAM_ID_MONITOR_SAMPLE_FREQ);
  61              		.loc 1 20 5 is_stmt 1 view .LVU14
  62              		.loc 1 20 45 is_stmt 0 view .LVU15
  63 0014 46F28C41 		movw	r1, #25740
  64 0018 FFF7FEFF 		bl	motor_params_get
  65              	.LVL1:
  66              		.loc 1 20 35 discriminator 1 view .LVU16
  67 001c BCEEC00A 		vcvt.u32.f32	s0, s0
  68              		.loc 1 20 33 discriminator 1 view .LVU17
  69 0020 84ED1B0A 		vstr.32	s0, [r4, #108]	@ int
  21:../Core/src/motor_monitor.c ****     
  22:../Core/src/motor_monitor.c ****     // õ╗ÄÕÅéµĢ░ÕŁŚÕģĖĶÄĘÕÅ¢õ┐ØµŖżÕÅéµĢ░
  23:../Core/src/motor_monitor.c ****     params->protection.max_current = motor_params_get(params, PARAM_ID_MAX_CURRENT_PROT);
  70              		.loc 1 23 5 is_stmt 1 view .LVU18
  71              		.loc 1 23 38 is_stmt 0 view .LVU19
  72 0024 46F28241 		movw	r1, #25730
  73 0028 2046     		mov	r0, r4
  74 002a FFF7FEFF 		bl	motor_params_get
  75              	.LVL2:
  76              		.loc 1 23 36 discriminator 1 view .LVU20
  77 002e 84ED490A 		vstr.32	s0, [r4, #292]
  24:../Core/src/motor_monitor.c ****     params->protection.min_voltage = motor_params_get(params, PARAM_ID_MIN_VOLTAGE_PROT);
  78              		.loc 1 24 5 is_stmt 1 view .LVU21
  79              		.loc 1 24 38 is_stmt 0 view .LVU22
  80 0032 46F28341 		movw	r1, #25731
  81 0036 2046     		mov	r0, r4
  82 0038 FFF7FEFF 		bl	motor_params_get
  83              	.LVL3:
  84              		.loc 1 24 36 discriminator 1 view .LVU23
  85 003c 84ED4A0A 		vstr.32	s0, [r4, #296]
  25:../Core/src/motor_monitor.c ****     params->protection.max_voltage = motor_params_get(params, PARAM_ID_MAX_VOLTAGE_PROT);
  86              		.loc 1 25 5 is_stmt 1 view .LVU24
  87              		.loc 1 25 38 is_stmt 0 view .LVU25
  88 0040 46F28441 		movw	r1, #25732
  89 0044 2046     		mov	r0, r4
ARM GAS  C:\Users\10963\AppData\Local\Temp\ccBdZ5ep.s 			page 3


  90 0046 FFF7FEFF 		bl	motor_params_get
  91              	.LVL4:
  92              		.loc 1 25 36 discriminator 1 view .LVU26
  93 004a 84ED4B0A 		vstr.32	s0, [r4, #300]
  26:../Core/src/motor_monitor.c ****     params->protection.max_temperature = motor_params_get(params, PARAM_ID_MAX_TEMPERATURE_PROT);
  94              		.loc 1 26 5 is_stmt 1 view .LVU27
  95              		.loc 1 26 42 is_stmt 0 view .LVU28
  96 004e 46F28541 		movw	r1, #25733
  97 0052 2046     		mov	r0, r4
  98 0054 FFF7FEFF 		bl	motor_params_get
  99              	.LVL5:
 100              		.loc 1 26 40 discriminator 1 view .LVU29
 101 0058 84ED4C0A 		vstr.32	s0, [r4, #304]
  27:../Core/src/motor_monitor.c ****     params->protection.overcurrent_prot = (uint8_t)motor_params_get(params, PARAM_ID_OVERCURRENT_PR
 102              		.loc 1 27 5 is_stmt 1 view .LVU30
 103              		.loc 1 27 52 is_stmt 0 view .LVU31
 104 005c 46F28641 		movw	r1, #25734
 105 0060 2046     		mov	r0, r4
 106 0062 FFF7FEFF 		bl	motor_params_get
 107              	.LVL6:
 108              		.loc 1 27 43 discriminator 1 view .LVU32
 109 0066 FCEEC07A 		vcvt.u32.f32	s15, s0
 110 006a 17EE903A 		vmov	r3, s15	@ int
 111              		.loc 1 27 41 discriminator 1 view .LVU33
 112 006e 84F83431 		strb	r3, [r4, #308]
  28:../Core/src/motor_monitor.c ****     params->protection.undervolt_prot = (uint8_t)motor_params_get(params, PARAM_ID_UNDERVOLT_PROT);
 113              		.loc 1 28 5 is_stmt 1 view .LVU34
 114              		.loc 1 28 50 is_stmt 0 view .LVU35
 115 0072 46F28741 		movw	r1, #25735
 116 0076 2046     		mov	r0, r4
 117 0078 FFF7FEFF 		bl	motor_params_get
 118              	.LVL7:
 119              		.loc 1 28 41 discriminator 1 view .LVU36
 120 007c FCEEC07A 		vcvt.u32.f32	s15, s0
 121 0080 17EE903A 		vmov	r3, s15	@ int
 122              		.loc 1 28 39 discriminator 1 view .LVU37
 123 0084 84F83531 		strb	r3, [r4, #309]
  29:../Core/src/motor_monitor.c ****     params->protection.overvolt_prot = (uint8_t)motor_params_get(params, PARAM_ID_OVERVOLT_PROT);
 124              		.loc 1 29 5 is_stmt 1 view .LVU38
 125              		.loc 1 29 49 is_stmt 0 view .LVU39
 126 0088 46F28841 		movw	r1, #25736
 127 008c 2046     		mov	r0, r4
 128 008e FFF7FEFF 		bl	motor_params_get
 129              	.LVL8:
 130              		.loc 1 29 40 discriminator 1 view .LVU40
 131 0092 FCEEC07A 		vcvt.u32.f32	s15, s0
 132 0096 17EE903A 		vmov	r3, s15	@ int
 133              		.loc 1 29 38 discriminator 1 view .LVU41
 134 009a 84F83631 		strb	r3, [r4, #310]
  30:../Core/src/motor_monitor.c ****     params->protection.overtemperature_prot = (uint8_t)motor_params_get(params, PARAM_ID_OVERTEMPER
 135              		.loc 1 30 5 is_stmt 1 view .LVU42
 136              		.loc 1 30 56 is_stmt 0 view .LVU43
 137 009e 46F28941 		movw	r1, #25737
 138 00a2 2046     		mov	r0, r4
 139 00a4 FFF7FEFF 		bl	motor_params_get
 140              	.LVL9:
 141              		.loc 1 30 47 discriminator 1 view .LVU44
ARM GAS  C:\Users\10963\AppData\Local\Temp\ccBdZ5ep.s 			page 4


 142 00a8 FCEEC07A 		vcvt.u32.f32	s15, s0
 143 00ac 17EE903A 		vmov	r3, s15	@ int
 144              		.loc 1 30 45 discriminator 1 view .LVU45
 145 00b0 84F83731 		strb	r3, [r4, #311]
  31:../Core/src/motor_monitor.c ****     params->protection.fault_status = 0;
 146              		.loc 1 31 5 is_stmt 1 view .LVU46
 147              		.loc 1 31 37 is_stmt 0 view .LVU47
 148 00b4 0023     		movs	r3, #0
 149 00b6 84F83831 		strb	r3, [r4, #312]
  32:../Core/src/motor_monitor.c ****     params->protection.fault_active = 0;
 150              		.loc 1 32 5 is_stmt 1 view .LVU48
 151              		.loc 1 32 37 is_stmt 0 view .LVU49
 152 00ba 84F83931 		strb	r3, [r4, #313]
  33:../Core/src/motor_monitor.c **** }
 153              		.loc 1 33 1 view .LVU50
 154 00be 10BD     		pop	{r4, pc}
 155              	.LVL10:
 156              	.L4:
 157              	.LCFI1:
 158              		.cfi_def_cfa_offset 0
 159              		.cfi_restore 4
 160              		.cfi_restore 14
 161              		.loc 1 33 1 view .LVU51
 162 00c0 7047     		bx	lr
 163              		.cfi_endproc
 164              	.LFE137:
 166              		.section	.text.motor_monitor_set_limits,"ax",%progbits
 167              		.align	1
 168              		.global	motor_monitor_set_limits
 169              		.syntax unified
 170              		.thumb
 171              		.thumb_func
 173              	motor_monitor_set_limits:
 174              	.LVL11:
 175              	.LFB138:
  34:../Core/src/motor_monitor.c **** 
  35:../Core/src/motor_monitor.c **** /**
  36:../Core/src/motor_monitor.c ****   * @brief  Ķ«ŠńĮ«ńøæµÄ¦ķÖÉÕłČÕĆ╝
  37:../Core/src/motor_monitor.c ****   * @param  params: ńöĄµ£║ÕÅéµĢ░ń╗ōµ×äõĮōµīćķÆł
  38:../Core/src/motor_monitor.c ****   * @param  max_current: µ£ĆÕż¦ńöĄµĄü
  39:../Core/src/motor_monitor.c ****   * @param  min_voltage: µ£ĆÕ░ÅńöĄÕÄŗ
  40:../Core/src/motor_monitor.c ****   * @param  max_voltage: µ£ĆÕż¦ńöĄÕÄŗ
  41:../Core/src/motor_monitor.c ****   * @param  max_temperature: µ£ĆÕż¦µĖ®Õ║”
  42:../Core/src/motor_monitor.c ****   * @retval µŚĀ
  43:../Core/src/motor_monitor.c ****   */
  44:../Core/src/motor_monitor.c **** void motor_monitor_set_limits(motor_params_t *params, float max_current, float min_voltage, float m
 176              		.loc 1 44 135 is_stmt 1 view -0
 177              		.cfi_startproc
 178              		@ args = 0, pretend = 0, frame = 0
 179              		@ frame_needed = 0, uses_anonymous_args = 0
 180              		@ link register save eliminated.
  45:../Core/src/motor_monitor.c ****     if (params == NULL) return;
 181              		.loc 1 45 5 view .LVU53
 182              		.loc 1 45 8 is_stmt 0 view .LVU54
 183 0000 38B1     		cbz	r0, .L7
  46:../Core/src/motor_monitor.c ****     
  47:../Core/src/motor_monitor.c ****     params->protection.max_current = max_current;
ARM GAS  C:\Users\10963\AppData\Local\Temp\ccBdZ5ep.s 			page 5


 184              		.loc 1 47 5 is_stmt 1 view .LVU55
 185              		.loc 1 47 36 is_stmt 0 view .LVU56
 186 0002 80ED490A 		vstr.32	s0, [r0, #292]
  48:../Core/src/motor_monitor.c ****     params->protection.min_voltage = min_voltage;
 187              		.loc 1 48 5 is_stmt 1 view .LVU57
 188              		.loc 1 48 36 is_stmt 0 view .LVU58
 189 0006 C0ED4A0A 		vstr.32	s1, [r0, #296]
  49:../Core/src/motor_monitor.c ****     params->protection.max_voltage = max_voltage;
 190              		.loc 1 49 5 is_stmt 1 view .LVU59
 191              		.loc 1 49 36 is_stmt 0 view .LVU60
 192 000a 80ED4B1A 		vstr.32	s2, [r0, #300]
  50:../Core/src/motor_monitor.c ****     params->protection.max_temperature = max_temperature;
 193              		.loc 1 50 5 is_stmt 1 view .LVU61
 194              		.loc 1 50 40 is_stmt 0 view .LVU62
 195 000e C0ED4C1A 		vstr.32	s3, [r0, #304]
 196              	.L7:
  51:../Core/src/motor_monitor.c **** }
 197              		.loc 1 51 1 view .LVU63
 198 0012 7047     		bx	lr
 199              		.cfi_endproc
 200              	.LFE138:
 202              		.section	.text.motor_monitor_enable_protection,"ax",%progbits
 203              		.align	1
 204              		.global	motor_monitor_enable_protection
 205              		.syntax unified
 206              		.thumb
 207              		.thumb_func
 209              	motor_monitor_enable_protection:
 210              	.LVL12:
 211              	.LFB139:
  52:../Core/src/motor_monitor.c **** 
  53:../Core/src/motor_monitor.c **** /**
  54:../Core/src/motor_monitor.c ****   * @brief  õĮ┐ĶāĮõ┐ØµŖżÕŖ¤ĶāĮ
  55:../Core/src/motor_monitor.c ****   * @param  params: ńöĄµ£║ÕÅéµĢ░ń╗ōµ×äõĮōµīćķÆł
  56:../Core/src/motor_monitor.c ****   * @param  overcurrent: Ķ┐ćµĄüõ┐ØµŖżõĮ┐ĶāĮ
  57:../Core/src/motor_monitor.c ****   * @param  undervolt: µ¼ĀÕÄŗõ┐ØµŖżõĮ┐ĶāĮ
  58:../Core/src/motor_monitor.c ****   * @param  overvolt: Ķ┐ćÕÄŗõ┐ØµŖżõĮ┐ĶāĮ
  59:../Core/src/motor_monitor.c ****   * @param  overtemperature: Ķ┐ćńāŁõ┐ØµŖżõĮ┐ĶāĮ
  60:../Core/src/motor_monitor.c ****   * @retval µŚĀ
  61:../Core/src/motor_monitor.c ****   */
  62:../Core/src/motor_monitor.c **** void motor_monitor_enable_protection(motor_params_t *params, uint8_t overcurrent, uint8_t undervolt
 212              		.loc 1 62 145 is_stmt 1 view -0
 213              		.cfi_startproc
 214              		@ args = 4, pretend = 0, frame = 0
 215              		@ frame_needed = 0, uses_anonymous_args = 0
 216              		@ link register save eliminated.
  63:../Core/src/motor_monitor.c ****     if (params == NULL) return;
 217              		.loc 1 63 5 view .LVU65
 218              		.loc 1 63 8 is_stmt 0 view .LVU66
 219 0000 48B1     		cbz	r0, .L9
  64:../Core/src/motor_monitor.c ****     
  65:../Core/src/motor_monitor.c ****     params->protection.overcurrent_prot = overcurrent;
 220              		.loc 1 65 5 is_stmt 1 view .LVU67
 221              		.loc 1 65 41 is_stmt 0 view .LVU68
 222 0002 80F83411 		strb	r1, [r0, #308]
  66:../Core/src/motor_monitor.c ****     params->protection.undervolt_prot = undervolt;
 223              		.loc 1 66 5 is_stmt 1 view .LVU69
ARM GAS  C:\Users\10963\AppData\Local\Temp\ccBdZ5ep.s 			page 6


 224              		.loc 1 66 39 is_stmt 0 view .LVU70
 225 0006 80F83521 		strb	r2, [r0, #309]
  67:../Core/src/motor_monitor.c ****     params->protection.overvolt_prot = overvolt;
 226              		.loc 1 67 5 is_stmt 1 view .LVU71
 227              		.loc 1 67 38 is_stmt 0 view .LVU72
 228 000a 80F83631 		strb	r3, [r0, #310]
  68:../Core/src/motor_monitor.c ****     params->protection.overtemperature_prot = overtemperature;
 229              		.loc 1 68 5 is_stmt 1 view .LVU73
 230              		.loc 1 68 45 is_stmt 0 view .LVU74
 231 000e 9DF80030 		ldrb	r3, [sp]	@ zero_extendqisi2
 232              	.LVL13:
 233              		.loc 1 68 45 view .LVU75
 234 0012 80F83731 		strb	r3, [r0, #311]
 235              	.LVL14:
 236              	.L9:
  69:../Core/src/motor_monitor.c **** }
 237              		.loc 1 69 1 view .LVU76
 238 0016 7047     		bx	lr
 239              		.cfi_endproc
 240              	.LFE139:
 242              		.section	.text.motor_monitor_update_current,"ax",%progbits
 243              		.align	1
 244              		.global	motor_monitor_update_current
 245              		.syntax unified
 246              		.thumb
 247              		.thumb_func
 249              	motor_monitor_update_current:
 250              	.LVL15:
 251              	.LFB140:
  70:../Core/src/motor_monitor.c **** 
  71:../Core/src/motor_monitor.c **** /**
  72:../Core/src/motor_monitor.c ****   * @brief  µø┤µ¢░ńöĄµ£║ńöĄµĄü
  73:../Core/src/motor_monitor.c ****   * @param  params: ńöĄµ£║ÕÅéµĢ░ń╗ōµ×äõĮōµīćķÆł
  74:../Core/src/motor_monitor.c ****   * @param  current_a: AńøĖńöĄµĄü
  75:../Core/src/motor_monitor.c ****   * @param  current_b: BńøĖńöĄµĄü
  76:../Core/src/motor_monitor.c ****   * @param  current_c: CńøĖńöĄµĄü
  77:../Core/src/motor_monitor.c ****   * @retval µŚĀ
  78:../Core/src/motor_monitor.c ****   */
  79:../Core/src/motor_monitor.c **** void motor_monitor_update_current(motor_params_t *params, float current_u, float current_v, float c
 252              		.loc 1 79 110 is_stmt 1 view -0
 253              		.cfi_startproc
 254              		@ args = 0, pretend = 0, frame = 0
 255              		@ frame_needed = 0, uses_anonymous_args = 0
 256              		@ link register save eliminated.
  80:../Core/src/motor_monitor.c ****     if (params == NULL) return;
 257              		.loc 1 80 5 view .LVU78
 258              		.loc 1 80 8 is_stmt 0 view .LVU79
 259 0000 28B1     		cbz	r0, .L11
  81:../Core/src/motor_monitor.c ****     
  82:../Core/src/motor_monitor.c ****     params->monitor.u_phase_current = current_u;
 260              		.loc 1 82 5 is_stmt 1 view .LVU80
 261              		.loc 1 82 37 is_stmt 0 view .LVU81
 262 0002 80ED160A 		vstr.32	s0, [r0, #88]
  83:../Core/src/motor_monitor.c ****     params->monitor.v_phase_current = current_v;
 263              		.loc 1 83 5 is_stmt 1 view .LVU82
 264              		.loc 1 83 37 is_stmt 0 view .LVU83
 265 0006 C0ED170A 		vstr.32	s1, [r0, #92]
ARM GAS  C:\Users\10963\AppData\Local\Temp\ccBdZ5ep.s 			page 7


  84:../Core/src/motor_monitor.c ****     params->monitor.w_phase_current = current_w;
 266              		.loc 1 84 5 is_stmt 1 view .LVU84
 267              		.loc 1 84 37 is_stmt 0 view .LVU85
 268 000a 80ED181A 		vstr.32	s2, [r0, #96]
 269              	.L11:
  85:../Core/src/motor_monitor.c **** }
 270              		.loc 1 85 1 view .LVU86
 271 000e 7047     		bx	lr
 272              		.cfi_endproc
 273              	.LFE140:
 275              		.section	.text.motor_monitor_update_voltage,"ax",%progbits
 276              		.align	1
 277              		.global	motor_monitor_update_voltage
 278              		.syntax unified
 279              		.thumb
 280              		.thumb_func
 282              	motor_monitor_update_voltage:
 283              	.LVL16:
 284              	.LFB141:
  86:../Core/src/motor_monitor.c **** 
  87:../Core/src/motor_monitor.c **** /**
  88:../Core/src/motor_monitor.c ****   * @brief  µø┤µ¢░µ»Źń║┐ńöĄÕÄŗ
  89:../Core/src/motor_monitor.c ****   * @param  params: ńöĄµ£║ÕÅéµĢ░ń╗ōµ×äõĮōµīćķÆł
  90:../Core/src/motor_monitor.c ****   * @param  bus_voltage: µ»Źń║┐ńöĄÕÄŗ
  91:../Core/src/motor_monitor.c ****   * @retval µŚĀ
  92:../Core/src/motor_monitor.c ****   */
  93:../Core/src/motor_monitor.c **** void motor_monitor_update_voltage(motor_params_t *params, float bus_voltage) {
 285              		.loc 1 93 78 is_stmt 1 view -0
 286              		.cfi_startproc
 287              		@ args = 0, pretend = 0, frame = 0
 288              		@ frame_needed = 0, uses_anonymous_args = 0
 289              		@ link register save eliminated.
  94:../Core/src/motor_monitor.c ****     if (params == NULL) return;
 290              		.loc 1 94 5 view .LVU88
 291              		.loc 1 94 8 is_stmt 0 view .LVU89
 292 0000 08B1     		cbz	r0, .L13
  95:../Core/src/motor_monitor.c ****     
  96:../Core/src/motor_monitor.c ****     params->monitor.bus_voltage = bus_voltage;
 293              		.loc 1 96 5 is_stmt 1 view .LVU90
 294              		.loc 1 96 33 is_stmt 0 view .LVU91
 295 0002 80ED190A 		vstr.32	s0, [r0, #100]
 296              	.L13:
  97:../Core/src/motor_monitor.c **** }
 297              		.loc 1 97 1 view .LVU92
 298 0006 7047     		bx	lr
 299              		.cfi_endproc
 300              	.LFE141:
 302              		.section	.text.motor_monitor_update_temperature,"ax",%progbits
 303              		.align	1
 304              		.global	motor_monitor_update_temperature
 305              		.syntax unified
 306              		.thumb
 307              		.thumb_func
 309              	motor_monitor_update_temperature:
 310              	.LVL17:
 311              	.LFB142:
  98:../Core/src/motor_monitor.c **** 
ARM GAS  C:\Users\10963\AppData\Local\Temp\ccBdZ5ep.s 			page 8


  99:../Core/src/motor_monitor.c **** /**
 100:../Core/src/motor_monitor.c ****   * @brief  µø┤µ¢░µĖ®Õ║”
 101:../Core/src/motor_monitor.c ****   * @param  params: ńöĄµ£║ÕÅéµĢ░ń╗ōµ×äõĮōµīćķÆł
 102:../Core/src/motor_monitor.c ****   * @param  temperature: µĖ®Õ║”
 103:../Core/src/motor_monitor.c ****   * @retval µŚĀ
 104:../Core/src/motor_monitor.c ****   */
 105:../Core/src/motor_monitor.c **** void motor_monitor_update_temperature(motor_params_t *params, float temperature) {
 312              		.loc 1 105 82 is_stmt 1 view -0
 313              		.cfi_startproc
 314              		@ args = 0, pretend = 0, frame = 0
 315              		@ frame_needed = 0, uses_anonymous_args = 0
 316              		@ link register save eliminated.
 106:../Core/src/motor_monitor.c ****     if (params == NULL) return;
 317              		.loc 1 106 5 view .LVU94
 318              		.loc 1 106 8 is_stmt 0 view .LVU95
 319 0000 08B1     		cbz	r0, .L15
 107:../Core/src/motor_monitor.c ****     
 108:../Core/src/motor_monitor.c ****     params->monitor.temperature = temperature;
 320              		.loc 1 108 5 is_stmt 1 view .LVU96
 321              		.loc 1 108 33 is_stmt 0 view .LVU97
 322 0002 80ED1A0A 		vstr.32	s0, [r0, #104]
 323              	.L15:
 109:../Core/src/motor_monitor.c **** }
 324              		.loc 1 109 1 view .LVU98
 325 0006 7047     		bx	lr
 326              		.cfi_endproc
 327              	.LFE142:
 329              		.section	.text.motor_monitor_process,"ax",%progbits
 330              		.align	1
 331              		.global	motor_monitor_process
 332              		.syntax unified
 333              		.thumb
 334              		.thumb_func
 336              	motor_monitor_process:
 337              	.LVL18:
 338              	.LFB143:
 110:../Core/src/motor_monitor.c **** 
 111:../Core/src/motor_monitor.c **** /**
 112:../Core/src/motor_monitor.c ****   * @brief  ÕżäńÉåńøæµÄ¦ķĆ╗ĶŠæ
 113:../Core/src/motor_monitor.c ****   * @param  params: ńöĄµ£║ÕÅéµĢ░ń╗ōµ×äõĮōµīćķÆł
 114:../Core/src/motor_monitor.c ****   * @retval µŚĀ
 115:../Core/src/motor_monitor.c ****   */
 116:../Core/src/motor_monitor.c **** void motor_monitor_process(motor_params_t *params) {
 339              		.loc 1 116 52 is_stmt 1 view -0
 340              		.cfi_startproc
 341              		@ args = 0, pretend = 0, frame = 0
 342              		@ frame_needed = 0, uses_anonymous_args = 0
 343              		@ link register save eliminated.
 117:../Core/src/motor_monitor.c ****     if (params == NULL) return;
 344              		.loc 1 117 5 view .LVU100
 345              		.loc 1 117 8 is_stmt 0 view .LVU101
 346 0000 0346     		mov	r3, r0
 347 0002 0028     		cmp	r0, #0
 348 0004 61D0     		beq	.L17
 118:../Core/src/motor_monitor.c ****     
 119:../Core/src/motor_monitor.c ****     uint8_t fault_detected = 0;
 349              		.loc 1 119 5 is_stmt 1 view .LVU102
ARM GAS  C:\Users\10963\AppData\Local\Temp\ccBdZ5ep.s 			page 9


 350              	.LVL19:
 120:../Core/src/motor_monitor.c ****     
 121:../Core/src/motor_monitor.c ****     if (params->protection.overcurrent_prot) {
 351              		.loc 1 121 5 view .LVU103
 352              		.loc 1 121 27 is_stmt 0 view .LVU104
 353 0006 90F83421 		ldrb	r2, [r0, #308]	@ zero_extendqisi2
 354              		.loc 1 121 8 view .LVU105
 355 000a 02B3     		cbz	r2, .L19
 356              	.LBB2:
 122:../Core/src/motor_monitor.c ****         float max_current = (params->monitor.u_phase_current > params->monitor.v_phase_current) ? p
 357              		.loc 1 122 9 is_stmt 1 view .LVU106
 358              		.loc 1 122 45 is_stmt 0 view .LVU107
 359 000c 90ED167A 		vldr.32	s14, [r0, #88]
 360              		.loc 1 122 79 view .LVU108
 361 0010 D0ED177A 		vldr.32	s15, [r0, #92]
 362              		.loc 1 122 131 view .LVU109
 363 0014 B4EEE77A 		vcmpe.f32	s14, s15
 364 0018 F1EE10FA 		vmrs	APSR_nzcv, FPSCR
 365 001c 01DD     		ble	.L20
 366              		.loc 1 122 15 discriminator 1 view .LVU110
 367 001e F0EE477A 		vmov.f32	s15, s14
 368              	.L20:
 369              	.LVL20:
 123:../Core/src/motor_monitor.c ****         max_current = (max_current > params->monitor.w_phase_current) ? max_current : params->monit
 370              		.loc 1 123 9 is_stmt 1 view .LVU111
 371              		.loc 1 123 53 is_stmt 0 view .LVU112
 372 0022 93ED187A 		vldr.32	s14, [r3, #96]
 373              		.loc 1 123 85 view .LVU113
 374 0026 B4EEE77A 		vcmpe.f32	s14, s15
 375 002a F1EE10FA 		vmrs	APSR_nzcv, FPSCR
 376 002e 01D5     		bpl	.L22
 377              		.loc 1 123 21 discriminator 1 view .LVU114
 378 0030 B0EE677A 		vmov.f32	s14, s15
 379              	.L22:
 380              	.LVL21:
 124:../Core/src/motor_monitor.c ****         if (max_current > params->protection.max_current) {
 381              		.loc 1 124 9 is_stmt 1 view .LVU115
 382              		.loc 1 124 45 is_stmt 0 view .LVU116
 383 0034 D3ED497A 		vldr.32	s15, [r3, #292]
 384              		.loc 1 124 12 view .LVU117
 385 0038 F4EEC77A 		vcmpe.f32	s15, s14
 386 003c F1EE10FA 		vmrs	APSR_nzcv, FPSCR
 387 0040 05D5     		bpl	.L19
 125:../Core/src/motor_monitor.c ****             params->protection.fault_status = FAULT_OVERCURRENT;
 388              		.loc 1 125 13 is_stmt 1 view .LVU118
 389              		.loc 1 125 45 is_stmt 0 view .LVU119
 390 0042 0122     		movs	r2, #1
 391 0044 83F83821 		strb	r2, [r3, #312]
 126:../Core/src/motor_monitor.c ****             params->protection.fault_active = 1;
 392              		.loc 1 126 13 is_stmt 1 view .LVU120
 393              		.loc 1 126 45 is_stmt 0 view .LVU121
 394 0048 83F83921 		strb	r2, [r3, #313]
 127:../Core/src/motor_monitor.c ****             fault_detected = 1;
 395              		.loc 1 127 13 is_stmt 1 view .LVU122
 396              	.LBE2:
 128:../Core/src/motor_monitor.c ****         }
 129:../Core/src/motor_monitor.c ****     }
ARM GAS  C:\Users\10963\AppData\Local\Temp\ccBdZ5ep.s 			page 10


 130:../Core/src/motor_monitor.c ****     
 131:../Core/src/motor_monitor.c ****     if (!fault_detected && params->protection.undervolt_prot) {
 397              		.loc 1 131 5 view .LVU123
 398              	.LVL22:
 132:../Core/src/motor_monitor.c ****         if (params->monitor.bus_voltage < params->protection.min_voltage) {
 133:../Core/src/motor_monitor.c ****             params->protection.fault_status = FAULT_UNDERVOLTAGE;
 134:../Core/src/motor_monitor.c ****             params->protection.fault_active = 1;
 135:../Core/src/motor_monitor.c ****             fault_detected = 1;
 136:../Core/src/motor_monitor.c ****         }
 137:../Core/src/motor_monitor.c ****     }
 138:../Core/src/motor_monitor.c ****     
 139:../Core/src/motor_monitor.c ****     if (!fault_detected && params->protection.overvolt_prot) {
 399              		.loc 1 139 5 view .LVU124
 400 004c 7047     		bx	lr
 401              	.LVL23:
 402              	.L19:
 131:../Core/src/motor_monitor.c ****         if (params->monitor.bus_voltage < params->protection.min_voltage) {
 403              		.loc 1 131 46 is_stmt 0 discriminator 1 view .LVU125
 404 004e 93F83521 		ldrb	r2, [r3, #309]	@ zero_extendqisi2
 131:../Core/src/motor_monitor.c ****         if (params->monitor.bus_voltage < params->protection.min_voltage) {
 405              		.loc 1 131 25 discriminator 1 view .LVU126
 406 0052 7AB1     		cbz	r2, .L25
 132:../Core/src/motor_monitor.c ****         if (params->monitor.bus_voltage < params->protection.min_voltage) {
 407              		.loc 1 132 9 is_stmt 1 view .LVU127
 132:../Core/src/motor_monitor.c ****         if (params->monitor.bus_voltage < params->protection.min_voltage) {
 408              		.loc 1 132 28 is_stmt 0 view .LVU128
 409 0054 93ED197A 		vldr.32	s14, [r3, #100]
 132:../Core/src/motor_monitor.c ****         if (params->monitor.bus_voltage < params->protection.min_voltage) {
 410              		.loc 1 132 61 view .LVU129
 411 0058 D3ED4A7A 		vldr.32	s15, [r3, #296]
 132:../Core/src/motor_monitor.c ****         if (params->monitor.bus_voltage < params->protection.min_voltage) {
 412              		.loc 1 132 12 view .LVU130
 413 005c B4EEE77A 		vcmpe.f32	s14, s15
 414 0060 F1EE10FA 		vmrs	APSR_nzcv, FPSCR
 415 0064 06D5     		bpl	.L25
 133:../Core/src/motor_monitor.c ****             params->protection.fault_active = 1;
 416              		.loc 1 133 13 is_stmt 1 view .LVU131
 133:../Core/src/motor_monitor.c ****             params->protection.fault_active = 1;
 417              		.loc 1 133 45 is_stmt 0 view .LVU132
 418 0066 0222     		movs	r2, #2
 419 0068 83F83821 		strb	r2, [r3, #312]
 134:../Core/src/motor_monitor.c ****             fault_detected = 1;
 420              		.loc 1 134 13 is_stmt 1 view .LVU133
 134:../Core/src/motor_monitor.c ****             fault_detected = 1;
 421              		.loc 1 134 45 is_stmt 0 view .LVU134
 422 006c 0122     		movs	r2, #1
 423 006e 83F83921 		strb	r2, [r3, #313]
 135:../Core/src/motor_monitor.c ****         }
 424              		.loc 1 135 13 is_stmt 1 view .LVU135
 425              	.LVL24:
 426              		.loc 1 139 5 view .LVU136
 427 0072 7047     		bx	lr
 428              	.LVL25:
 429              	.L25:
 430              		.loc 1 139 5 view .LVU137
 431              		.loc 1 139 46 is_stmt 0 discriminator 1 view .LVU138
 432 0074 93F83621 		ldrb	r2, [r3, #310]	@ zero_extendqisi2
ARM GAS  C:\Users\10963\AppData\Local\Temp\ccBdZ5ep.s 			page 11


 433              		.loc 1 139 25 discriminator 1 view .LVU139
 434 0078 7AB1     		cbz	r2, .L27
 140:../Core/src/motor_monitor.c ****         if (params->monitor.bus_voltage > params->protection.max_voltage) {
 435              		.loc 1 140 9 is_stmt 1 view .LVU140
 436              		.loc 1 140 28 is_stmt 0 view .LVU141
 437 007a 93ED197A 		vldr.32	s14, [r3, #100]
 438              		.loc 1 140 61 view .LVU142
 439 007e D3ED4B7A 		vldr.32	s15, [r3, #300]
 440              		.loc 1 140 12 view .LVU143
 441 0082 B4EEE77A 		vcmpe.f32	s14, s15
 442 0086 F1EE10FA 		vmrs	APSR_nzcv, FPSCR
 443 008a 06DD     		ble	.L27
 141:../Core/src/motor_monitor.c ****             params->protection.fault_status = FAULT_OVERVOLTAGE;
 444              		.loc 1 141 13 is_stmt 1 view .LVU144
 445              		.loc 1 141 45 is_stmt 0 view .LVU145
 446 008c 0322     		movs	r2, #3
 447 008e 83F83821 		strb	r2, [r3, #312]
 142:../Core/src/motor_monitor.c ****             params->protection.fault_active = 1;
 448              		.loc 1 142 13 is_stmt 1 view .LVU146
 449              		.loc 1 142 45 is_stmt 0 view .LVU147
 450 0092 0122     		movs	r2, #1
 451 0094 83F83921 		strb	r2, [r3, #313]
 143:../Core/src/motor_monitor.c ****             fault_detected = 1;
 452              		.loc 1 143 13 is_stmt 1 view .LVU148
 453              	.LVL26:
 144:../Core/src/motor_monitor.c ****         }
 145:../Core/src/motor_monitor.c ****     }
 146:../Core/src/motor_monitor.c ****     
 147:../Core/src/motor_monitor.c ****     if (!fault_detected && params->protection.overtemperature_prot) {
 454              		.loc 1 147 5 view .LVU149
 455 0098 7047     		bx	lr
 456              	.LVL27:
 457              	.L27:
 458              		.loc 1 147 5 view .LVU150
 459              		.loc 1 147 46 is_stmt 0 discriminator 1 view .LVU151
 460 009a 93F83721 		ldrb	r2, [r3, #311]	@ zero_extendqisi2
 461              		.loc 1 147 25 discriminator 1 view .LVU152
 462 009e 7AB1     		cbz	r2, .L29
 148:../Core/src/motor_monitor.c ****         if (params->monitor.temperature > params->protection.max_temperature) {
 463              		.loc 1 148 9 is_stmt 1 view .LVU153
 464              		.loc 1 148 28 is_stmt 0 view .LVU154
 465 00a0 93ED1A7A 		vldr.32	s14, [r3, #104]
 466              		.loc 1 148 61 view .LVU155
 467 00a4 D3ED4C7A 		vldr.32	s15, [r3, #304]
 468              		.loc 1 148 12 view .LVU156
 469 00a8 B4EEE77A 		vcmpe.f32	s14, s15
 470 00ac F1EE10FA 		vmrs	APSR_nzcv, FPSCR
 471 00b0 06DD     		ble	.L29
 149:../Core/src/motor_monitor.c ****             params->protection.fault_status = FAULT_OVERTEMPERATURE;
 472              		.loc 1 149 13 is_stmt 1 view .LVU157
 473              		.loc 1 149 45 is_stmt 0 view .LVU158
 474 00b2 0422     		movs	r2, #4
 475 00b4 83F83821 		strb	r2, [r3, #312]
 150:../Core/src/motor_monitor.c ****             params->protection.fault_active = 1;
 476              		.loc 1 150 13 is_stmt 1 view .LVU159
 477              		.loc 1 150 45 is_stmt 0 view .LVU160
 478 00b8 0122     		movs	r2, #1
ARM GAS  C:\Users\10963\AppData\Local\Temp\ccBdZ5ep.s 			page 12


 479 00ba 83F83921 		strb	r2, [r3, #313]
 151:../Core/src/motor_monitor.c ****             fault_detected = 1;
 480              		.loc 1 151 13 is_stmt 1 view .LVU161
 481              	.LVL28:
 152:../Core/src/motor_monitor.c ****         }
 153:../Core/src/motor_monitor.c ****     }
 154:../Core/src/motor_monitor.c ****     
 155:../Core/src/motor_monitor.c ****     if (!fault_detected) {
 482              		.loc 1 155 5 view .LVU162
 483 00be 7047     		bx	lr
 484              	.LVL29:
 485              	.L29:
 486              		.loc 1 155 5 view .LVU163
 156:../Core/src/motor_monitor.c ****         params->protection.fault_status = FAULT_NONE;
 487              		.loc 1 156 9 view .LVU164
 488              		.loc 1 156 41 is_stmt 0 view .LVU165
 489 00c0 0022     		movs	r2, #0
 490 00c2 83F83821 		strb	r2, [r3, #312]
 157:../Core/src/motor_monitor.c ****         params->protection.fault_active = 0;
 491              		.loc 1 157 9 is_stmt 1 view .LVU166
 492              		.loc 1 157 41 is_stmt 0 view .LVU167
 493 00c6 83F83921 		strb	r2, [r3, #313]
 494              	.LVL30:
 495              	.L17:
 158:../Core/src/motor_monitor.c ****     }
 159:../Core/src/motor_monitor.c **** }
 496              		.loc 1 159 1 view .LVU168
 497 00ca 7047     		bx	lr
 498              		.cfi_endproc
 499              	.LFE143:
 501              		.section	.text.motor_monitor_get_fault,"ax",%progbits
 502              		.align	1
 503              		.global	motor_monitor_get_fault
 504              		.syntax unified
 505              		.thumb
 506              		.thumb_func
 508              	motor_monitor_get_fault:
 509              	.LVL31:
 510              	.LFB144:
 160:../Core/src/motor_monitor.c **** 
 161:../Core/src/motor_monitor.c **** /**
 162:../Core/src/motor_monitor.c ****   * @brief  ĶÄĘÕÅ¢µĢģķÜ£ń▒╗Õ×ŗ
 163:../Core/src/motor_monitor.c ****   * @param  params: ńöĄµ£║ÕÅéµĢ░ń╗ōµ×äõĮōµīćķÆł
 164:../Core/src/motor_monitor.c ****   * @retval µĢģķÜ£ń▒╗Õ×ŗ
 165:../Core/src/motor_monitor.c ****   */
 166:../Core/src/motor_monitor.c **** fault_type_t motor_monitor_get_fault(motor_params_t *params) {
 511              		.loc 1 166 62 is_stmt 1 view -0
 512              		.cfi_startproc
 513              		@ args = 0, pretend = 0, frame = 0
 514              		@ frame_needed = 0, uses_anonymous_args = 0
 515              		@ link register save eliminated.
 167:../Core/src/motor_monitor.c ****     if (params == NULL) return FAULT_NONE;
 516              		.loc 1 167 5 view .LVU170
 517              		.loc 1 167 8 is_stmt 0 view .LVU171
 518 0000 08B1     		cbz	r0, .L38
 168:../Core/src/motor_monitor.c ****     return (fault_type_t)params->protection.fault_status;
 519              		.loc 1 168 5 is_stmt 1 view .LVU172
ARM GAS  C:\Users\10963\AppData\Local\Temp\ccBdZ5ep.s 			page 13


 520              		.loc 1 168 12 is_stmt 0 view .LVU173
 521 0002 90F83801 		ldrb	r0, [r0, #312]	@ zero_extendqisi2
 522              	.LVL32:
 523              	.L38:
 169:../Core/src/motor_monitor.c **** }
 524              		.loc 1 169 1 view .LVU174
 525 0006 7047     		bx	lr
 526              		.cfi_endproc
 527              	.LFE144:
 529              		.section	.text.motor_monitor_is_fault_active,"ax",%progbits
 530              		.align	1
 531              		.global	motor_monitor_is_fault_active
 532              		.syntax unified
 533              		.thumb
 534              		.thumb_func
 536              	motor_monitor_is_fault_active:
 537              	.LVL33:
 538              	.LFB145:
 170:../Core/src/motor_monitor.c **** 
 171:../Core/src/motor_monitor.c **** /**
 172:../Core/src/motor_monitor.c ****   * @brief  µŻĆµ¤źµś»ÕÉ”µ£ēµĢģķÜ£µ┐Ćµ┤╗
 173:../Core/src/motor_monitor.c ****   * @param  params: ńöĄµ£║ÕÅéµĢ░ń╗ōµ×äõĮōµīćķÆł
 174:../Core/src/motor_monitor.c ****   * @retval 1ĶĪ©ńż║µ£ēµĢģķÜ£µ┐Ćµ┤╗’╝ī0ĶĪ©ńż║µŚĀµĢģķÜ£
 175:../Core/src/motor_monitor.c ****   */
 176:../Core/src/motor_monitor.c **** uint8_t motor_monitor_is_fault_active(motor_params_t *params) {
 539              		.loc 1 176 63 is_stmt 1 view -0
 540              		.cfi_startproc
 541              		@ args = 0, pretend = 0, frame = 0
 542              		@ frame_needed = 0, uses_anonymous_args = 0
 543              		@ link register save eliminated.
 177:../Core/src/motor_monitor.c ****     if (params == NULL) return 0;
 544              		.loc 1 177 5 view .LVU176
 545              		.loc 1 177 8 is_stmt 0 view .LVU177
 546 0000 08B1     		cbz	r0, .L41
 178:../Core/src/motor_monitor.c ****     return params->protection.fault_active;
 547              		.loc 1 178 5 is_stmt 1 view .LVU178
 548              		.loc 1 178 30 is_stmt 0 view .LVU179
 549 0002 90F83901 		ldrb	r0, [r0, #313]	@ zero_extendqisi2
 550              	.LVL34:
 551              	.L41:
 179:../Core/src/motor_monitor.c **** }
 552              		.loc 1 179 1 view .LVU180
 553 0006 7047     		bx	lr
 554              		.cfi_endproc
 555              	.LFE145:
 557              		.section	.text.motor_monitor_clear_fault,"ax",%progbits
 558              		.align	1
 559              		.global	motor_monitor_clear_fault
 560              		.syntax unified
 561              		.thumb
 562              		.thumb_func
 564              	motor_monitor_clear_fault:
 565              	.LVL35:
 566              	.LFB146:
 180:../Core/src/motor_monitor.c **** 
 181:../Core/src/motor_monitor.c **** /**
 182:../Core/src/motor_monitor.c ****   * @brief  µĖģķÖżµĢģķÜ£
ARM GAS  C:\Users\10963\AppData\Local\Temp\ccBdZ5ep.s 			page 14


 183:../Core/src/motor_monitor.c ****   * @param  params: ńöĄµ£║ÕÅéµĢ░ń╗ōµ×äõĮōµīćķÆł
 184:../Core/src/motor_monitor.c ****   * @retval µŚĀ
 185:../Core/src/motor_monitor.c ****   */
 186:../Core/src/motor_monitor.c **** void motor_monitor_clear_fault(motor_params_t *params) {
 567              		.loc 1 186 56 is_stmt 1 view -0
 568              		.cfi_startproc
 569              		@ args = 0, pretend = 0, frame = 0
 570              		@ frame_needed = 0, uses_anonymous_args = 0
 571              		@ link register save eliminated.
 187:../Core/src/motor_monitor.c ****     if (params == NULL) return;
 572              		.loc 1 187 5 view .LVU182
 573              		.loc 1 187 8 is_stmt 0 view .LVU183
 574 0000 20B1     		cbz	r0, .L43
 188:../Core/src/motor_monitor.c ****     params->protection.fault_status = FAULT_NONE;
 575              		.loc 1 188 5 is_stmt 1 view .LVU184
 576              		.loc 1 188 37 is_stmt 0 view .LVU185
 577 0002 0022     		movs	r2, #0
 578 0004 80F83821 		strb	r2, [r0, #312]
 189:../Core/src/motor_monitor.c ****     params->protection.fault_active = 0;
 579              		.loc 1 189 5 is_stmt 1 view .LVU186
 580              		.loc 1 189 37 is_stmt 0 view .LVU187
 581 0008 80F83921 		strb	r2, [r0, #313]
 582              	.L43:
 190:../Core/src/motor_monitor.c **** }
 583              		.loc 1 190 1 view .LVU188
 584 000c 7047     		bx	lr
 585              		.cfi_endproc
 586              	.LFE146:
 588              		.section	.text.motor_monitor_get_current_a,"ax",%progbits
 589              		.align	1
 590              		.global	motor_monitor_get_current_a
 591              		.syntax unified
 592              		.thumb
 593              		.thumb_func
 595              	motor_monitor_get_current_a:
 596              	.LVL36:
 597              	.LFB147:
 191:../Core/src/motor_monitor.c **** 
 192:../Core/src/motor_monitor.c **** /**
 193:../Core/src/motor_monitor.c ****   * @brief  ĶÄĘÕÅ¢AńøĖńöĄµĄü
 194:../Core/src/motor_monitor.c ****   * @param  params: ńöĄµ£║ÕÅéµĢ░ń╗ōµ×äõĮōµīćķÆł
 195:../Core/src/motor_monitor.c ****   * @retval AńøĖńöĄµĄüÕĆ╝
 196:../Core/src/motor_monitor.c ****   */
 197:../Core/src/motor_monitor.c **** float motor_monitor_get_current_a(motor_params_t *params) {
 598              		.loc 1 197 59 is_stmt 1 view -0
 599              		.cfi_startproc
 600              		@ args = 0, pretend = 0, frame = 0
 601              		@ frame_needed = 0, uses_anonymous_args = 0
 602              		@ link register save eliminated.
 198:../Core/src/motor_monitor.c ****     if (params == NULL) return 0.0f;
 603              		.loc 1 198 5 view .LVU190
 604              		.loc 1 198 8 is_stmt 0 view .LVU191
 605 0000 10B1     		cbz	r0, .L47
 199:../Core/src/motor_monitor.c ****     return params->monitor.u_phase_current;
 606              		.loc 1 199 5 is_stmt 1 view .LVU192
 607              		.loc 1 199 27 is_stmt 0 view .LVU193
 608 0002 90ED160A 		vldr.32	s0, [r0, #88]
ARM GAS  C:\Users\10963\AppData\Local\Temp\ccBdZ5ep.s 			page 15


 609 0006 7047     		bx	lr
 610              	.L47:
 198:../Core/src/motor_monitor.c ****     if (params == NULL) return 0.0f;
 611              		.loc 1 198 32 discriminator 1 view .LVU194
 612 0008 9FED010A 		vldr.32	s0, .L48
 200:../Core/src/motor_monitor.c **** }
 613              		.loc 1 200 1 view .LVU195
 614 000c 7047     		bx	lr
 615              	.L49:
 616 000e 00BF     		.align	2
 617              	.L48:
 618 0010 00000000 		.word	0
 619              		.cfi_endproc
 620              	.LFE147:
 622              		.section	.text.motor_monitor_get_current_b,"ax",%progbits
 623              		.align	1
 624              		.global	motor_monitor_get_current_b
 625              		.syntax unified
 626              		.thumb
 627              		.thumb_func
 629              	motor_monitor_get_current_b:
 630              	.LVL37:
 631              	.LFB148:
 201:../Core/src/motor_monitor.c **** 
 202:../Core/src/motor_monitor.c **** /**
 203:../Core/src/motor_monitor.c ****   * @brief  ĶÄĘÕÅ¢BńøĖńöĄµĄü
 204:../Core/src/motor_monitor.c ****   * @param  params: ńöĄµ£║ÕÅéµĢ░ń╗ōµ×äõĮōµīćķÆł
 205:../Core/src/motor_monitor.c ****   * @retval BńøĖńöĄµĄüÕĆ╝
 206:../Core/src/motor_monitor.c ****   */
 207:../Core/src/motor_monitor.c **** float motor_monitor_get_current_b(motor_params_t *params) {
 632              		.loc 1 207 59 is_stmt 1 view -0
 633              		.cfi_startproc
 634              		@ args = 0, pretend = 0, frame = 0
 635              		@ frame_needed = 0, uses_anonymous_args = 0
 636              		@ link register save eliminated.
 208:../Core/src/motor_monitor.c ****     if (params == NULL) return 0.0f;
 637              		.loc 1 208 5 view .LVU197
 638              		.loc 1 208 8 is_stmt 0 view .LVU198
 639 0000 10B1     		cbz	r0, .L52
 209:../Core/src/motor_monitor.c ****     return params->monitor.v_phase_current;
 640              		.loc 1 209 5 is_stmt 1 view .LVU199
 641              		.loc 1 209 27 is_stmt 0 view .LVU200
 642 0002 90ED170A 		vldr.32	s0, [r0, #92]
 643 0006 7047     		bx	lr
 644              	.L52:
 208:../Core/src/motor_monitor.c ****     if (params == NULL) return 0.0f;
 645              		.loc 1 208 32 discriminator 1 view .LVU201
 646 0008 9FED010A 		vldr.32	s0, .L53
 210:../Core/src/motor_monitor.c **** }
 647              		.loc 1 210 1 view .LVU202
 648 000c 7047     		bx	lr
 649              	.L54:
 650 000e 00BF     		.align	2
 651              	.L53:
 652 0010 00000000 		.word	0
 653              		.cfi_endproc
 654              	.LFE148:
ARM GAS  C:\Users\10963\AppData\Local\Temp\ccBdZ5ep.s 			page 16


 656              		.section	.text.motor_monitor_get_current_c,"ax",%progbits
 657              		.align	1
 658              		.global	motor_monitor_get_current_c
 659              		.syntax unified
 660              		.thumb
 661              		.thumb_func
 663              	motor_monitor_get_current_c:
 664              	.LVL38:
 665              	.LFB149:
 211:../Core/src/motor_monitor.c **** 
 212:../Core/src/motor_monitor.c **** /**
 213:../Core/src/motor_monitor.c ****   * @brief  ĶÄĘÕÅ¢CńøĖńöĄµĄü
 214:../Core/src/motor_monitor.c ****   * @param  params: ńöĄµ£║ÕÅéµĢ░ń╗ōµ×äõĮōµīćķÆł
 215:../Core/src/motor_monitor.c ****   * @retval CńøĖńöĄµĄüÕĆ╝
 216:../Core/src/motor_monitor.c ****   */
 217:../Core/src/motor_monitor.c **** float motor_monitor_get_current_c(motor_params_t *params) {
 666              		.loc 1 217 59 is_stmt 1 view -0
 667              		.cfi_startproc
 668              		@ args = 0, pretend = 0, frame = 0
 669              		@ frame_needed = 0, uses_anonymous_args = 0
 670              		@ link register save eliminated.
 218:../Core/src/motor_monitor.c ****     if (params == NULL) return 0.0f;
 671              		.loc 1 218 5 view .LVU204
 672              		.loc 1 218 8 is_stmt 0 view .LVU205
 673 0000 10B1     		cbz	r0, .L57
 219:../Core/src/motor_monitor.c ****     return params->monitor.w_phase_current;
 674              		.loc 1 219 5 is_stmt 1 view .LVU206
 675              		.loc 1 219 27 is_stmt 0 view .LVU207
 676 0002 90ED180A 		vldr.32	s0, [r0, #96]
 677 0006 7047     		bx	lr
 678              	.L57:
 218:../Core/src/motor_monitor.c ****     if (params == NULL) return 0.0f;
 679              		.loc 1 218 32 discriminator 1 view .LVU208
 680 0008 9FED010A 		vldr.32	s0, .L58
 220:../Core/src/motor_monitor.c **** }
 681              		.loc 1 220 1 view .LVU209
 682 000c 7047     		bx	lr
 683              	.L59:
 684 000e 00BF     		.align	2
 685              	.L58:
 686 0010 00000000 		.word	0
 687              		.cfi_endproc
 688              	.LFE149:
 690              		.section	.text.motor_monitor_get_bus_voltage,"ax",%progbits
 691              		.align	1
 692              		.global	motor_monitor_get_bus_voltage
 693              		.syntax unified
 694              		.thumb
 695              		.thumb_func
 697              	motor_monitor_get_bus_voltage:
 698              	.LVL39:
 699              	.LFB150:
 221:../Core/src/motor_monitor.c **** 
 222:../Core/src/motor_monitor.c **** /**
 223:../Core/src/motor_monitor.c ****   * @brief  ĶÄĘÕÅ¢µ»Źń║┐ńöĄÕÄŗ
 224:../Core/src/motor_monitor.c ****   * @param  params: ńöĄµ£║ÕÅéµĢ░ń╗ōµ×äõĮōµīćķÆł
 225:../Core/src/motor_monitor.c ****   * @retval µ»Źń║┐ńöĄÕÄŗÕĆ╝
ARM GAS  C:\Users\10963\AppData\Local\Temp\ccBdZ5ep.s 			page 17


 226:../Core/src/motor_monitor.c ****   */
 227:../Core/src/motor_monitor.c **** float motor_monitor_get_bus_voltage(motor_params_t *params) {
 700              		.loc 1 227 61 is_stmt 1 view -0
 701              		.cfi_startproc
 702              		@ args = 0, pretend = 0, frame = 0
 703              		@ frame_needed = 0, uses_anonymous_args = 0
 704              		@ link register save eliminated.
 228:../Core/src/motor_monitor.c ****     if (params == NULL) return 0.0f;
 705              		.loc 1 228 5 view .LVU211
 706              		.loc 1 228 8 is_stmt 0 view .LVU212
 707 0000 10B1     		cbz	r0, .L62
 229:../Core/src/motor_monitor.c ****     return params->monitor.bus_voltage;
 708              		.loc 1 229 5 is_stmt 1 view .LVU213
 709              		.loc 1 229 27 is_stmt 0 view .LVU214
 710 0002 90ED190A 		vldr.32	s0, [r0, #100]
 711 0006 7047     		bx	lr
 712              	.L62:
 228:../Core/src/motor_monitor.c ****     if (params == NULL) return 0.0f;
 713              		.loc 1 228 32 discriminator 1 view .LVU215
 714 0008 9FED010A 		vldr.32	s0, .L63
 230:../Core/src/motor_monitor.c **** }
 715              		.loc 1 230 1 view .LVU216
 716 000c 7047     		bx	lr
 717              	.L64:
 718 000e 00BF     		.align	2
 719              	.L63:
 720 0010 00000000 		.word	0
 721              		.cfi_endproc
 722              	.LFE150:
 724              		.section	.text.motor_monitor_get_temperature,"ax",%progbits
 725              		.align	1
 726              		.global	motor_monitor_get_temperature
 727              		.syntax unified
 728              		.thumb
 729              		.thumb_func
 731              	motor_monitor_get_temperature:
 732              	.LVL40:
 733              	.LFB151:
 231:../Core/src/motor_monitor.c **** 
 232:../Core/src/motor_monitor.c **** /**
 233:../Core/src/motor_monitor.c ****   * @brief  ĶÄĘÕÅ¢µĖ®Õ║”
 234:../Core/src/motor_monitor.c ****   * @param  params: ńöĄµ£║ÕÅéµĢ░ń╗ōµ×äõĮōµīćķÆł
 235:../Core/src/motor_monitor.c ****   * @retval µĖ®Õ║”ÕĆ╝
 236:../Core/src/motor_monitor.c ****   */
 237:../Core/src/motor_monitor.c **** float motor_monitor_get_temperature(motor_params_t *params) {
 734              		.loc 1 237 61 is_stmt 1 view -0
 735              		.cfi_startproc
 736              		@ args = 0, pretend = 0, frame = 0
 737              		@ frame_needed = 0, uses_anonymous_args = 0
 738              		@ link register save eliminated.
 238:../Core/src/motor_monitor.c ****     if (params == NULL) return 0.0f;
 739              		.loc 1 238 5 view .LVU218
 740              		.loc 1 238 8 is_stmt 0 view .LVU219
 741 0000 10B1     		cbz	r0, .L67
 239:../Core/src/motor_monitor.c ****     return params->monitor.temperature;
 742              		.loc 1 239 5 is_stmt 1 view .LVU220
 743              		.loc 1 239 27 is_stmt 0 view .LVU221
ARM GAS  C:\Users\10963\AppData\Local\Temp\ccBdZ5ep.s 			page 18


 744 0002 90ED1A0A 		vldr.32	s0, [r0, #104]
 745 0006 7047     		bx	lr
 746              	.L67:
 238:../Core/src/motor_monitor.c ****     if (params == NULL) return 0.0f;
 747              		.loc 1 238 32 discriminator 1 view .LVU222
 748 0008 9FED010A 		vldr.32	s0, .L68
 240:../Core/src/motor_monitor.c **** }
 749              		.loc 1 240 1 view .LVU223
 750 000c 7047     		bx	lr
 751              	.L69:
 752 000e 00BF     		.align	2
 753              	.L68:
 754 0010 00000000 		.word	0
 755              		.cfi_endproc
 756              	.LFE151:
 758              		.section	.rodata.motor_monitor_convert_adc_to_current.str1.4,"aMS",%progbits,1
 759              		.align	2
 760              	.LC0:
 761 0000 41444320 		.ascii	"ADC value: %d, Voltage: %.3fV, Current: %.3fA\015\012"
 761      76616C75 
 761      653A2025 
 761      642C2056 
 761      6F6C7461 
 762 002f 00       		.ascii	"\000"
 763              		.section	.text.motor_monitor_convert_adc_to_current,"ax",%progbits
 764              		.align	1
 765              		.global	motor_monitor_convert_adc_to_current
 766              		.syntax unified
 767              		.thumb
 768              		.thumb_func
 770              	motor_monitor_convert_adc_to_current:
 771              	.LVL41:
 772              	.LFB152:
 241:../Core/src/motor_monitor.c **** 
 242:../Core/src/motor_monitor.c **** /**
 243:../Core/src/motor_monitor.c ****   * @brief  Õ░åADCÕĆ╝ĶĮ¼µŹóõĖ║ńöĄµĄüÕĆ╝
 244:../Core/src/motor_monitor.c ****   * @param  params: ńöĄµ£║ÕÅéµĢ░ń╗ōµ×äõĮōµīćķÆł
 245:../Core/src/motor_monitor.c ****   * @param  adc_value: ADCÕÄ¤Õ¦ŗÕĆ╝
 246:../Core/src/motor_monitor.c ****   * @retval ńöĄµĄüÕĆ╝’╝łÕ«ēÕ¤╣’╝ē
 247:../Core/src/motor_monitor.c ****   */
 248:../Core/src/motor_monitor.c **** float motor_monitor_convert_adc_to_current(motor_params_t *params, uint16_t adc_value) {
 773              		.loc 1 248 88 is_stmt 1 view -0
 774              		.cfi_startproc
 775              		@ args = 0, pretend = 0, frame = 8
 776              		@ frame_needed = 0, uses_anonymous_args = 0
 777              		.loc 1 248 88 is_stmt 0 view .LVU225
 778 0000 30B5     		push	{r4, r5, lr}
 779              	.LCFI2:
 780              		.cfi_def_cfa_offset 12
 781              		.cfi_offset 4, -12
 782              		.cfi_offset 5, -8
 783              		.cfi_offset 14, -4
 784 0002 2DED028B 		vpush.64	{d8}
 785              	.LCFI3:
 786              		.cfi_def_cfa_offset 20
 787              		.cfi_offset 80, -20
 788              		.cfi_offset 81, -16
ARM GAS  C:\Users\10963\AppData\Local\Temp\ccBdZ5ep.s 			page 19


 789 0006 85B0     		sub	sp, sp, #20
 790              	.LCFI4:
 791              		.cfi_def_cfa_offset 40
 792 0008 0391     		str	r1, [sp, #12]
 249:../Core/src/motor_monitor.c ****     if (params == NULL) return 0.0f;
 793              		.loc 1 249 5 is_stmt 1 view .LVU226
 794              		.loc 1 249 8 is_stmt 0 view .LVU227
 795 000a 0028     		cmp	r0, #0
 796 000c 3CD0     		beq	.L73
 250:../Core/src/motor_monitor.c ****     
 251:../Core/src/motor_monitor.c ****     /* ADCÕÅéĶĆāńöĄÕÄŗõĖ║3.3V’╝ī12õĮŹADC */
 252:../Core/src/motor_monitor.c ****     /* ńöĄµĄüĶĮ¼µŹó’╝ÜõĮ┐ńö©1m╬®ÕłåµĄüńöĄķś╗’╝īRS724XQµöŠÕż¦Õó×ńøŖõĖ║20 */
 253:../Core/src/motor_monitor.c ****     float adc_ref_voltage = 3.3f;
 797              		.loc 1 253 5 is_stmt 1 view .LVU228
 798              	.LVL42:
 254:../Core/src/motor_monitor.c ****     float adc_max_value = 4095.0f;
 799              		.loc 1 254 5 view .LVU229
 255:../Core/src/motor_monitor.c ****     float shunt_resistor = 0.001f; // ÕłåµĄüńöĄķś╗ (1m╬®)
 800              		.loc 1 255 5 view .LVU230
 256:../Core/src/motor_monitor.c ****     float amp_gain = 20.0f; // RS724XQµöŠÕż¦Õó×ńøŖ
 801              		.loc 1 256 5 view .LVU231
 257:../Core/src/motor_monitor.c ****     float zero_current_voltage = 1.65f; // ķøČńöĄµĄüµŚČńÜäńöĄÕÄŗ (Vcc/2)
 802              		.loc 1 257 5 view .LVU232
 258:../Core/src/motor_monitor.c ****     
 259:../Core/src/motor_monitor.c ****     float voltage = adc_value * adc_ref_voltage / adc_max_value;
 803              		.loc 1 259 5 view .LVU233
 804              		.loc 1 259 31 is_stmt 0 view .LVU234
 805 000e 07EE901A 		vmov	s15, r1	@ int
 806 0012 F8EEE77A 		vcvt.f32.s32	s15, s15
 807 0016 9FED1F7A 		vldr.32	s14, .L76
 808 001a 67EE877A 		vmul.f32	s15, s15, s14
 809              		.loc 1 259 11 view .LVU235
 810 001e DFED1E6A 		vldr.32	s13, .L76+4
 811 0022 87EEA67A 		vdiv.f32	s14, s15, s13
 812              	.LVL43:
 260:../Core/src/motor_monitor.c ****     float current = (voltage - zero_current_voltage) / (shunt_resistor * amp_gain);
 813              		.loc 1 260 5 is_stmt 1 view .LVU236
 814              		.loc 1 260 30 is_stmt 0 view .LVU237
 815 0026 DFED1D7A 		vldr.32	s15, .L76+8
 816 002a 77EE677A 		vsub.f32	s15, s14, s15
 817              		.loc 1 260 11 view .LVU238
 818 002e DFED1C6A 		vldr.32	s13, .L76+12
 819 0032 C7EEA67A 		vdiv.f32	s15, s15, s13
 820 0036 B0EE678A 		vmov.f32	s16, s15
 821              	.LVL44:
 261:../Core/src/motor_monitor.c ****     
 262:../Core/src/motor_monitor.c ****     // µĘ╗ÕŖĀĶ░āĶ»Ģõ┐Īµü»
 263:../Core/src/motor_monitor.c ****     static uint32_t counter = 0;
 822              		.loc 1 263 5 is_stmt 1 view .LVU239
 264:../Core/src/motor_monitor.c ****     if (counter % 100 == 0) {
 823              		.loc 1 264 5 view .LVU240
 824              		.loc 1 264 17 is_stmt 0 view .LVU241
 825 003a 1A4B     		ldr	r3, .L76+16
 826 003c 1A68     		ldr	r2, [r3]
 827 003e 1A4B     		ldr	r3, .L76+20
 828 0040 A3FB0213 		umull	r1, r3, r3, r2
 829              	.LVL45:
ARM GAS  C:\Users\10963\AppData\Local\Temp\ccBdZ5ep.s 			page 20


 830              		.loc 1 264 17 view .LVU242
 831 0044 5B09     		lsrs	r3, r3, #5
 832 0046 6421     		movs	r1, #100
 833 0048 01FB1323 		mls	r3, r1, r3, r2
 834              		.loc 1 264 8 view .LVU243
 835 004c 4BB1     		cbz	r3, .L75
 836              	.LVL46:
 837              	.L72:
 265:../Core/src/motor_monitor.c ****         printf("ADC value: %d, Voltage: %.3fV, Current: %.3fA\r\n", adc_value, voltage, current);
 266:../Core/src/motor_monitor.c ****     }
 267:../Core/src/motor_monitor.c ****     counter++;
 838              		.loc 1 267 5 is_stmt 1 view .LVU244
 839              		.loc 1 267 12 is_stmt 0 view .LVU245
 840 004e 154A     		ldr	r2, .L76+16
 841 0050 1368     		ldr	r3, [r2]
 842 0052 0133     		adds	r3, r3, #1
 843 0054 1360     		str	r3, [r2]
 268:../Core/src/motor_monitor.c ****     
 269:../Core/src/motor_monitor.c ****     return current;
 844              		.loc 1 269 5 is_stmt 1 view .LVU246
 845              	.LVL47:
 846              	.L70:
 270:../Core/src/motor_monitor.c **** }
 847              		.loc 1 270 1 is_stmt 0 view .LVU247
 848 0056 B0EE480A 		vmov.f32	s0, s16
 849 005a 05B0     		add	sp, sp, #20
 850              	.LCFI5:
 851              		.cfi_remember_state
 852              		.cfi_def_cfa_offset 20
 853              		@ sp needed
 854 005c BDEC028B 		vldm	sp!, {d8}
 855              	.LCFI6:
 856              		.cfi_restore 80
 857              		.cfi_restore 81
 858              		.cfi_def_cfa_offset 12
 859 0060 30BD     		pop	{r4, r5, pc}
 860              	.LVL48:
 861              	.L75:
 862              	.LCFI7:
 863              		.cfi_restore_state
 265:../Core/src/motor_monitor.c ****         printf("ADC value: %d, Voltage: %.3fV, Current: %.3fA\r\n", adc_value, voltage, current);
 864              		.loc 1 265 9 is_stmt 1 view .LVU248
 865 0062 17EE100A 		vmov	r0, s14
 866              	.LVL49:
 265:../Core/src/motor_monitor.c ****         printf("ADC value: %d, Voltage: %.3fV, Current: %.3fA\r\n", adc_value, voltage, current);
 867              		.loc 1 265 9 is_stmt 0 view .LVU249
 868 0066 FFF7FEFF 		bl	__aeabi_f2d
 869              	.LVL50:
 265:../Core/src/motor_monitor.c ****         printf("ADC value: %d, Voltage: %.3fV, Current: %.3fA\r\n", adc_value, voltage, current);
 870              		.loc 1 265 9 view .LVU250
 871 006a 0446     		mov	r4, r0
 872 006c 0D46     		mov	r5, r1
 873 006e 18EE100A 		vmov	r0, s16
 874 0072 FFF7FEFF 		bl	__aeabi_f2d
 875              	.LVL51:
 876 0076 CDE90001 		strd	r0, [sp]
 877 007a 2246     		mov	r2, r4
ARM GAS  C:\Users\10963\AppData\Local\Temp\ccBdZ5ep.s 			page 21


 878 007c 2B46     		mov	r3, r5
 879 007e 0399     		ldr	r1, [sp, #12]
 880 0080 0A48     		ldr	r0, .L76+24
 881 0082 FFF7FEFF 		bl	printf
 882              	.LVL52:
 883 0086 E2E7     		b	.L72
 884              	.LVL53:
 885              	.L73:
 249:../Core/src/motor_monitor.c ****     
 886              		.loc 1 249 32 discriminator 1 view .LVU251
 887 0088 DFED097A 		vldr.32	s15, .L76+28
 888 008c B0EE678A 		vmov.f32	s16, s15
 889 0090 E1E7     		b	.L70
 890              	.L77:
 891 0092 00BF     		.align	2
 892              	.L76:
 893 0094 33335340 		.word	1079194419
 894 0098 00F07F45 		.word	1166012416
 895 009c 3333D33F 		.word	1070805811
 896 00a0 0BD7A33C 		.word	1017370379
 897 00a4 00000000 		.word	counter.0
 898 00a8 1F85EB51 		.word	1374389535
 899 00ac 00000000 		.word	.LC0
 900 00b0 00000000 		.word	0
 901              		.cfi_endproc
 902              	.LFE152:
 904              		.section	.text.motor_monitor_convert_adc_to_voltage,"ax",%progbits
 905              		.align	1
 906              		.global	motor_monitor_convert_adc_to_voltage
 907              		.syntax unified
 908              		.thumb
 909              		.thumb_func
 911              	motor_monitor_convert_adc_to_voltage:
 912              	.LVL54:
 913              	.LFB153:
 271:../Core/src/motor_monitor.c **** 
 272:../Core/src/motor_monitor.c **** /**
 273:../Core/src/motor_monitor.c ****   * @brief  Õ░åADCÕĆ╝ĶĮ¼µŹóõĖ║ńöĄÕÄŗÕĆ╝
 274:../Core/src/motor_monitor.c ****   * @param  params: ńöĄµ£║ÕÅéµĢ░ń╗ōµ×äõĮōµīćķÆł
 275:../Core/src/motor_monitor.c ****   * @param  adc_value: ADCÕÄ¤Õ¦ŗÕĆ╝
 276:../Core/src/motor_monitor.c ****   * @retval ńöĄÕÄŗÕĆ╝’╝łõ╝Åńē╣’╝ē
 277:../Core/src/motor_monitor.c ****   */
 278:../Core/src/motor_monitor.c **** float motor_monitor_convert_adc_to_voltage(motor_params_t *params, uint16_t adc_value) {
 914              		.loc 1 278 88 is_stmt 1 view -0
 915              		.cfi_startproc
 916              		@ args = 0, pretend = 0, frame = 8
 917              		@ frame_needed = 0, uses_anonymous_args = 0
 918              		@ link register save eliminated.
 919              		.loc 1 278 88 is_stmt 0 view .LVU253
 920 0000 82B0     		sub	sp, sp, #8
 921              	.LCFI8:
 922              		.cfi_def_cfa_offset 8
 923 0002 0191     		str	r1, [sp, #4]
 279:../Core/src/motor_monitor.c ****     if (params == NULL) return 0.0f;
 924              		.loc 1 279 5 is_stmt 1 view .LVU254
 925              		.loc 1 279 8 is_stmt 0 view .LVU255
 926 0004 88B1     		cbz	r0, .L80
ARM GAS  C:\Users\10963\AppData\Local\Temp\ccBdZ5ep.s 			page 22


 280:../Core/src/motor_monitor.c ****     
 281:../Core/src/motor_monitor.c ****     /* ADCÕÅéĶĆāńöĄÕÄŗõĖ║3.3V’╝ī12õĮŹADC */
 282:../Core/src/motor_monitor.c ****     /* ńöĄÕÄŗĶĮ¼µŹó’╝ÜõĮ┐ńö©18K:1KńöĄķś╗ÕłåÕÄŗ */
 283:../Core/src/motor_monitor.c ****     float adc_ref_voltage = 3.3f;
 927              		.loc 1 283 5 is_stmt 1 view .LVU256
 928              	.LVL55:
 284:../Core/src/motor_monitor.c ****     float adc_max_value = 4095.0f;
 929              		.loc 1 284 5 view .LVU257
 285:../Core/src/motor_monitor.c ****     float r1 = 18000.0f; // ÕłåÕÄŗńöĄķś╗1
 930              		.loc 1 285 5 view .LVU258
 286:../Core/src/motor_monitor.c ****     float r2 = 1000.0f; // ÕłåÕÄŗńöĄķś╗2
 931              		.loc 1 286 5 view .LVU259
 287:../Core/src/motor_monitor.c ****     float vbus_ratio = (r1 + r2) / r2; // ÕłåÕÄŗµ»ö
 932              		.loc 1 287 5 view .LVU260
 288:../Core/src/motor_monitor.c ****     
 289:../Core/src/motor_monitor.c ****     float voltage = adc_value * adc_ref_voltage / adc_max_value * vbus_ratio;
 933              		.loc 1 289 5 view .LVU261
 934              		.loc 1 289 31 is_stmt 0 view .LVU262
 935 0006 07EE901A 		vmov	s15, r1	@ int
 936 000a F8EEE77A 		vcvt.f32.s32	s15, s15
 937 000e 9FED087A 		vldr.32	s14, .L82
 938 0012 67EE877A 		vmul.f32	s15, s15, s14
 939              		.loc 1 289 49 view .LVU263
 940 0016 9FED077A 		vldr.32	s14, .L82+4
 941 001a 87EE870A 		vdiv.f32	s0, s15, s14
 942              		.loc 1 289 11 view .LVU264
 943 001e F3EE037A 		vmov.f32	s15, #1.9e+1
 944 0022 20EE270A 		vmul.f32	s0, s0, s15
 945              	.LVL56:
 290:../Core/src/motor_monitor.c ****     return voltage;
 946              		.loc 1 290 5 is_stmt 1 view .LVU265
 947              	.L78:
 291:../Core/src/motor_monitor.c **** }
 948              		.loc 1 291 1 is_stmt 0 view .LVU266
 949 0026 02B0     		add	sp, sp, #8
 950              	.LCFI9:
 951              		.cfi_remember_state
 952              		.cfi_def_cfa_offset 0
 953              		@ sp needed
 954 0028 7047     		bx	lr
 955              	.L80:
 956              	.LCFI10:
 957              		.cfi_restore_state
 279:../Core/src/motor_monitor.c ****     
 958              		.loc 1 279 32 discriminator 1 view .LVU267
 959 002a 9FED030A 		vldr.32	s0, .L82+8
 960 002e FAE7     		b	.L78
 961              	.L83:
 962              		.align	2
 963              	.L82:
 964 0030 33335340 		.word	1079194419
 965 0034 00F07F45 		.word	1166012416
 966 0038 00000000 		.word	0
 967              		.cfi_endproc
 968              	.LFE153:
 970              		.section	.text.motor_monitor_convert_adc_to_temperature,"ax",%progbits
 971              		.align	1
ARM GAS  C:\Users\10963\AppData\Local\Temp\ccBdZ5ep.s 			page 23


 972              		.global	motor_monitor_convert_adc_to_temperature
 973              		.syntax unified
 974              		.thumb
 975              		.thumb_func
 977              	motor_monitor_convert_adc_to_temperature:
 978              	.LVL57:
 979              	.LFB154:
 292:../Core/src/motor_monitor.c **** 
 293:../Core/src/motor_monitor.c **** /**
 294:../Core/src/motor_monitor.c ****   * @brief  Õ░åADCÕĆ╝ĶĮ¼µŹóõĖ║µĖ®Õ║”ÕĆ╝
 295:../Core/src/motor_monitor.c ****   * @param  params: ńöĄµ£║ÕÅéµĢ░ń╗ōµ×äõĮōµīćķÆł
 296:../Core/src/motor_monitor.c ****   * @param  adc_value: ADCÕÄ¤Õ¦ŗÕĆ╝
 297:../Core/src/motor_monitor.c ****   * @retval µĖ®Õ║”ÕĆ╝’╝łµæäµ░ÅÕ║”’╝ē
 298:../Core/src/motor_monitor.c ****   */
 299:../Core/src/motor_monitor.c **** float motor_monitor_convert_adc_to_temperature(motor_params_t *params, uint16_t adc_value) {
 980              		.loc 1 299 92 is_stmt 1 view -0
 981              		.cfi_startproc
 982              		@ args = 0, pretend = 0, frame = 8
 983              		@ frame_needed = 0, uses_anonymous_args = 0
 984              		.loc 1 299 92 is_stmt 0 view .LVU269
 985 0000 00B5     		push	{lr}
 986              	.LCFI11:
 987              		.cfi_def_cfa_offset 4
 988              		.cfi_offset 14, -4
 989 0002 83B0     		sub	sp, sp, #12
 990              	.LCFI12:
 991              		.cfi_def_cfa_offset 16
 992 0004 0191     		str	r1, [sp, #4]
 300:../Core/src/motor_monitor.c ****     if (params == NULL) return 0.0f;
 993              		.loc 1 300 5 is_stmt 1 view .LVU270
 994              		.loc 1 300 8 is_stmt 0 view .LVU271
 995 0006 C8B3     		cbz	r0, .L86
 301:../Core/src/motor_monitor.c ****     
 302:../Core/src/motor_monitor.c ****     /* ADCÕÅéĶĆāńöĄÕÄŗõĖ║3.3V’╝ī12õĮŹADC */
 303:../Core/src/motor_monitor.c ****     /* µĖ®Õ║”ĶĮ¼µŹó’╝ÜõĮ┐ńö©KNTC0603/10KF3950ńāŁµĢÅńöĄķś╗õĖÄ3.3KńöĄķś╗ÕłåÕÄŗ */
 304:../Core/src/motor_monitor.c ****     float adc_ref_voltage = 3.3f;
 996              		.loc 1 304 5 is_stmt 1 view .LVU272
 997              	.LVL58:
 305:../Core/src/motor_monitor.c ****     float adc_max_value = 4095.0f;
 998              		.loc 1 305 5 view .LVU273
 306:../Core/src/motor_monitor.c ****     float r_fixed = 3300.0f; // Õø║Õ«ÜńöĄķś╗
 999              		.loc 1 306 5 view .LVU274
 307:../Core/src/motor_monitor.c ****     
 308:../Core/src/motor_monitor.c ****     float adc_voltage_temp = adc_value * adc_ref_voltage / adc_max_value;
 1000              		.loc 1 308 5 view .LVU275
 1001              		.loc 1 308 40 is_stmt 0 view .LVU276
 1002 0008 07EE901A 		vmov	s15, r1	@ int
 1003 000c B8EEE77A 		vcvt.f32.s32	s14, s15
 1004 0010 DFED217A 		vldr.32	s15, .L88+16
 1005 0014 27EE277A 		vmul.f32	s14, s14, s15
 1006              		.loc 1 308 11 view .LVU277
 1007 0018 9FED206A 		vldr.32	s12, .L88+20
 1008 001c C7EE066A 		vdiv.f32	s13, s14, s12
 1009              	.LVL59:
 309:../Core/src/motor_monitor.c ****     float r_ntc = r_fixed * (adc_ref_voltage - adc_voltage_temp) / adc_voltage_temp; // Ķ«Īń«ŚNTCńö
 1010              		.loc 1 309 5 is_stmt 1 view .LVU278
 1011              		.loc 1 309 46 is_stmt 0 view .LVU279
ARM GAS  C:\Users\10963\AppData\Local\Temp\ccBdZ5ep.s 			page 24


 1012 0020 77EEE67A 		vsub.f32	s15, s15, s13
 1013              		.loc 1 309 27 view .LVU280
 1014 0024 9FED1E7A 		vldr.32	s14, .L88+24
 1015 0028 67EE877A 		vmul.f32	s15, s15, s14
 1016              		.loc 1 309 11 view .LVU281
 1017 002c 87EEA67A 		vdiv.f32	s14, s15, s13
 1018              	.LVL60:
 310:../Core/src/motor_monitor.c ****     
 311:../Core/src/motor_monitor.c ****     /* õĮ┐ńö©BÕĆ╝Õģ¼Õ╝ÅĶ«Īń«ŚµĖ®Õ║” */
 312:../Core/src/motor_monitor.c ****     float b_value = 3950.0f; // KNT3950ńÜäBÕĆ╝
 1019              		.loc 1 312 5 is_stmt 1 view .LVU282
 313:../Core/src/motor_monitor.c ****     float r_ref = 10000.0f; // 25ŌäāµŚČńÜäÕÅéĶĆāńöĄķś╗
 1020              		.loc 1 313 5 view .LVU283
 314:../Core/src/motor_monitor.c ****     float t_ref = 298.15f; // 25ŌäāńÜäń╗ØÕ»╣µĖ®Õ║”(K)
 1021              		.loc 1 314 5 view .LVU284
 315:../Core/src/motor_monitor.c ****     
 316:../Core/src/motor_monitor.c ****     float inv_t = 1.0f / t_ref + (1.0f / b_value) * log(r_ntc / r_ref);
 1022              		.loc 1 316 5 view .LVU285
 1023              		.loc 1 316 53 is_stmt 0 view .LVU286
 1024 0030 DFED1C7A 		vldr.32	s15, .L88+28
 1025 0034 C7EE277A 		vdiv.f32	s15, s14, s15
 1026 0038 17EE900A 		vmov	r0, s15
 1027              	.LVL61:
 1028              		.loc 1 316 53 view .LVU287
 1029 003c FFF7FEFF 		bl	__aeabi_f2d
 1030              	.LVL62:
 1031              		.loc 1 316 53 view .LVU288
 1032 0040 41EC100B 		vmov	d0, r0, r1
 1033 0044 FFF7FEFF 		bl	log
 1034              	.LVL63:
 1035 0048 51EC100B 		vmov	r0, r1, d0
 1036              		.loc 1 316 51 discriminator 1 view .LVU289
 1037 004c 0EA3     		adr	r3, .L88
 1038 004e D3E90023 		ldrd	r2, [r3]
 1039 0052 FFF7FEFF 		bl	__aeabi_dmul
 1040              	.LVL64:
 1041              		.loc 1 316 32 discriminator 1 view .LVU290
 1042 0056 0EA3     		adr	r3, .L88+8
 1043 0058 D3E90023 		ldrd	r2, [r3]
 1044 005c FFF7FEFF 		bl	__aeabi_dadd
 1045              	.LVL65:
 1046              		.loc 1 316 11 discriminator 1 view .LVU291
 1047 0060 FFF7FEFF 		bl	__aeabi_d2f
 1048              	.LVL66:
 1049 0064 07EE900A 		vmov	s15, r0
 1050              	.LVL67:
 317:../Core/src/motor_monitor.c ****     float temperature = (1.0f / inv_t) - 273.15f; // ĶĮ¼µŹóõĖ║µæäµ░ÅÕ║”
 1051              		.loc 1 317 5 is_stmt 1 view .LVU292
 1052              		.loc 1 317 31 is_stmt 0 view .LVU293
 1053 0068 B7EE007A 		vmov.f32	s14, #1.0e+0
 1054 006c 87EE270A 		vdiv.f32	s0, s14, s15
 1055              		.loc 1 317 11 view .LVU294
 1056 0070 DFED0D7A 		vldr.32	s15, .L88+32
 1057 0074 30EE670A 		vsub.f32	s0, s0, s15
 1058              	.LVL68:
 318:../Core/src/motor_monitor.c ****     
 319:../Core/src/motor_monitor.c ****     return temperature;
ARM GAS  C:\Users\10963\AppData\Local\Temp\ccBdZ5ep.s 			page 25


 1059              		.loc 1 319 5 is_stmt 1 view .LVU295
 1060              	.L84:
 320:../Core/src/motor_monitor.c **** }...
 1061              		.loc 1 320 1 is_stmt 0 view .LVU296
 1062 0078 03B0     		add	sp, sp, #12
 1063              	.LCFI13:
 1064              		.cfi_remember_state
 1065              		.cfi_def_cfa_offset 4
 1066              		@ sp needed
 1067 007a 00BD     		pop	{pc}
 1068              	.LVL69:
 1069              	.L86:
 1070              	.LCFI14:
 1071              		.cfi_restore_state
 300:../Core/src/motor_monitor.c ****     if (params == NULL) return 0.0f;
 1072              		.loc 1 300 32 discriminator 1 view .LVU297
 1073 007c 9FED0B0A 		vldr.32	s0, .L88+36
 1074 0080 FAE7     		b	.L84
 1075              	.L89:
 1076 0082 00BFAFF3 		.align	3
 1076      0080
 1077              	.L88:
 1078 0088 00000080 		.word	-2147483648
 1079 008c 6597303F 		.word	1060149093
 1080 0090 000000E0 		.word	-536870912
 1081 0094 E1796B3F 		.word	1064008161
 1082 0098 33335340 		.word	1079194419
 1083 009c 00F07F45 		.word	1166012416
 1084 00a0 00404E45 		.word	1162756096
 1085 00a4 00401C46 		.word	1176256512
 1086 00a8 33938843 		.word	1133024051
 1087 00ac 00000000 		.word	0
 1088              		.cfi_endproc
 1089              	.LFE154:
 1091              		.section	.bss.counter.0,"aw",%nobits
 1092              		.align	2
 1095              	counter.0:
 1096 0000 00000000 		.space	4
 1097              		.text
 1098              	.Letext0:
 1099              		.file 2 "C:/Program Files (x86)/Arm/GNU Toolchain mingw-w64-i686-arm-none-eabi/arm-none-eabi/inclu
 1100              		.file 3 "C:/Program Files (x86)/Arm/GNU Toolchain mingw-w64-i686-arm-none-eabi/arm-none-eabi/inclu
 1101              		.file 4 "../Core/inc/motor_params.h"
 1102              		.file 5 "../Core/inc/motor_monitor.h"
 1103              		.file 6 "C:/Program Files (x86)/Arm/GNU Toolchain mingw-w64-i686-arm-none-eabi/arm-none-eabi/inclu
 1104              		.file 7 "C:/Program Files (x86)/Arm/GNU Toolchain mingw-w64-i686-arm-none-eabi/arm-none-eabi/inclu
ARM GAS  C:\Users\10963\AppData\Local\Temp\ccBdZ5ep.s 			page 26

