ARM GAS  C:\Users\10963\AppData\Local\Temp\ccm8kV9q.s 			page 1


   1              		.cpu cortex-m4
   2              		.arch armv7e-m
   3              		.fpu fpv4-sp-d16
   4              		.eabi_attribute 27, 1
   5              		.eabi_attribute 28, 1
   6              		.eabi_attribute 20, 1
   7              		.eabi_attribute 21, 1
   8              		.eabi_attribute 23, 3
   9              		.eabi_attribute 24, 1
  10              		.eabi_attribute 25, 1
  11              		.eabi_attribute 26, 1
  12              		.eabi_attribute 30, 1
  13              		.eabi_attribute 34, 1
  14              		.eabi_attribute 18, 4
  15              		.file	"motor_control.c"
  16              		.text
  17              	.Ltext0:
  18              		.cfi_sections	.debug_frame
  19              		.file 1 "../Motor_Control/src/motor_control.c"
  20              		.section	.text.calculate_commutation_interval,"ax",%progbits
  21              		.align	1
  22              		.syntax unified
  23              		.thumb
  24              		.thumb_func
  26              	calculate_commutation_interval:
  27              	.LVL0:
  28              	.LFB151:
   1:../Motor_Control/src/motor_control.c **** /* add user code begin Header */
   2:../Motor_Control/src/motor_control.c **** /**
   3:../Motor_Control/src/motor_control.c ****   **************************************************************************
   4:../Motor_Control/src/motor_control.c ****   * @file     motor_control.c
   5:../Motor_Control/src/motor_control.c ****   * @brief    motor control implementation file
   6:../Motor_Control/src/motor_control.c ****   **************************************************************************
   7:../Motor_Control/src/motor_control.c ****   * Copyright (c) 2025, Artery Technology, All rights reserved.
   8:../Motor_Control/src/motor_control.c ****   *
   9:../Motor_Control/src/motor_control.c ****   * The software Board Support Package (BSP) that is made available to
  10:../Motor_Control/src/motor_control.c ****   * download from Artery official website is the copyrighted work of Artery.
  11:../Motor_Control/src/motor_control.c ****   * Artery authorizes customers to use, copy, and distribute the BSP
  12:../Motor_Control/src/motor_control.c ****   * software and its related documentation for the purpose of design and
  13:../Motor_Control/src/motor_control.c ****   * development in conjunction with Artery microcontrollers. Use of the
  14:../Motor_Control/src/motor_control.c ****   * software is governed by this copyright notice and the following disclaimer.
  15:../Motor_Control/src/motor_control.c ****   *
  16:../Motor_Control/src/motor_control.c ****   * THIS SOFTWARE IS PROVIDED ON "AS IS" BASIS WITHOUT WARRANTIES,
  17:../Motor_Control/src/motor_control.c ****   * GUARANTEES OR REPRESENTATIONS OF ANY KIND. ARTERY EXPRESSLY DISCLAIMS,
  18:../Motor_Control/src/motor_control.c ****   * TO THE FULLEST EXTENT PERMITTED BY LAW, ALL EXPRESS, IMPLIED OR
  19:../Motor_Control/src/motor_control.c ****   * STATUTORY OR OTHER WARRANTIES, GUARANTEES OR REPRESENTATIONS,
  20:../Motor_Control/src/motor_control.c ****   * INCLUDING BUT NOT LIMITED TO, THE IMPLIED WARRANTIES OF MERCHANTABILITY,
  21:../Motor_Control/src/motor_control.c ****   * FITNESS FOR A PARTICULAR PURPOSE, OR NON-INFRINGEMENT.
  22:../Motor_Control/src/motor_control.c ****   *
  23:../Motor_Control/src/motor_control.c ****   **************************************************************************
  24:../Motor_Control/src/motor_control.c ****   */
  25:../Motor_Control/src/motor_control.c **** /* add user code end Header */
  26:../Motor_Control/src/motor_control.c **** 
  27:../Motor_Control/src/motor_control.c **** /* Includes ------------------------------------------------------------------*/
  28:../Motor_Control/src/motor_control.c **** #include "motor_control.h"
  29:../Motor_Control/src/motor_control.c **** #include "monitor.h"
  30:../Motor_Control/src/motor_control.c **** #include "foc.h"
ARM GAS  C:\Users\10963\AppData\Local\Temp\ccm8kV9q.s 			page 2


  31:../Motor_Control/src/motor_control.c **** #include "wk_tmr.h"
  32:../Motor_Control/src/motor_control.c **** #include "wk_system.h"
  33:../Motor_Control/src/motor_control.c **** #include "FreeRTOS.h"
  34:../Motor_Control/src/motor_control.c **** #include "task.h"
  35:../Motor_Control/src/motor_control.c **** #include <stdlib.h>
  36:../Motor_Control/src/motor_control.c **** 
  37:../Motor_Control/src/motor_control.c **** 
  38:../Motor_Control/src/motor_control.c **** 
  39:../Motor_Control/src/motor_control.c **** /* forward declaration */
  40:../Motor_Control/src/motor_control.c **** uint32_t wk_timebase_get(void);
  41:../Motor_Control/src/motor_control.c **** 
  42:../Motor_Control/src/motor_control.c **** /* external variables --------------------------------------------------------*/
  43:../Motor_Control/src/motor_control.c **** 
  44:../Motor_Control/src/motor_control.c **** /* private variables ---------------------------------------------------------*/
  45:../Motor_Control/src/motor_control.c **** 
  46:../Motor_Control/src/motor_control.c **** /* private function prototypes -----------------------------------------------*/
  47:../Motor_Control/src/motor_control.c **** static void motor_set_commutation_state(motor_params_t *motor, commutation_state_t state);
  48:../Motor_Control/src/motor_control.c **** static void motor_next_commutation_state(motor_params_t *motor);
  49:../Motor_Control/src/motor_control.c **** static uint32_t calculate_commutation_interval(uint16_t speed);
  50:../Motor_Control/src/motor_control.c **** 
  51:../Motor_Control/src/motor_control.c **** /**
  52:../Motor_Control/src/motor_control.c ****   * @brief  motor control initialization
  53:../Motor_Control/src/motor_control.c ****   * @param  motor: motor parameters structure
  54:../Motor_Control/src/motor_control.c ****   * @retval none
  55:../Motor_Control/src/motor_control.c ****   */
  56:../Motor_Control/src/motor_control.c **** void motor_control_init(motor_params_t *motor)
  57:../Motor_Control/src/motor_control.c **** {
  58:../Motor_Control/src/motor_control.c ****   /* initialize motor parameters */
  59:../Motor_Control/src/motor_control.c ****   motor->state = MOTOR_STATE_IDLE;
  60:../Motor_Control/src/motor_control.c ****   motor->direction = MOTOR_DIR_CW;
  61:../Motor_Control/src/motor_control.c ****   motor->comm_state = COMMUTATION_STATE_1;
  62:../Motor_Control/src/motor_control.c ****   motor->speed = 0;
  63:../Motor_Control/src/motor_control.c ****   motor->duty_cycle = 0;
  64:../Motor_Control/src/motor_control.c ****   motor->commutation_interval = 0;
  65:../Motor_Control/src/motor_control.c ****   motor->last_commutation_time = 0;
  66:../Motor_Control/src/motor_control.c ****   motor->control_mode = 0; /* Default to six-step control */
  67:../Motor_Control/src/motor_control.c ****   motor->foc_state = NULL;
  68:../Motor_Control/src/motor_control.c ****   
  69:../Motor_Control/src/motor_control.c ****   /* set all outputs to low */
  70:../Motor_Control/src/motor_control.c ****   tmr_output_channel_mode_select(TMR1, TMR_SELECT_CHANNEL_1, TMR_OUTPUT_CONTROL_LOW);
  71:../Motor_Control/src/motor_control.c ****   tmr_output_channel_mode_select(TMR1, TMR_SELECT_CHANNEL_1C, TMR_OUTPUT_CONTROL_LOW);
  72:../Motor_Control/src/motor_control.c ****   tmr_output_channel_mode_select(TMR1, TMR_SELECT_CHANNEL_2, TMR_OUTPUT_CONTROL_LOW);
  73:../Motor_Control/src/motor_control.c ****   tmr_output_channel_mode_select(TMR1, TMR_SELECT_CHANNEL_2C, TMR_OUTPUT_CONTROL_LOW);
  74:../Motor_Control/src/motor_control.c ****   tmr_output_channel_mode_select(TMR1, TMR_SELECT_CHANNEL_3, TMR_OUTPUT_CONTROL_LOW);
  75:../Motor_Control/src/motor_control.c ****   tmr_output_channel_mode_select(TMR1, TMR_SELECT_CHANNEL_3C, TMR_OUTPUT_CONTROL_LOW);
  76:../Motor_Control/src/motor_control.c **** }
  77:../Motor_Control/src/motor_control.c **** 
  78:../Motor_Control/src/motor_control.c **** /**
  79:../Motor_Control/src/motor_control.c ****   * @brief  Initialize FOC control
  80:../Motor_Control/src/motor_control.c ****   * @param  motor: motor parameters structure
  81:../Motor_Control/src/motor_control.c ****   * @retval none
  82:../Motor_Control/src/motor_control.c ****   */
  83:../Motor_Control/src/motor_control.c **** void motor_foc_init(motor_params_t *motor)
  84:../Motor_Control/src/motor_control.c **** {
  85:../Motor_Control/src/motor_control.c ****   /* Allocate FOC state structure */
  86:../Motor_Control/src/motor_control.c ****   motor->foc_state = (foc_state_t *)malloc(sizeof(foc_state_t));
  87:../Motor_Control/src/motor_control.c ****   if (motor->foc_state != NULL)
ARM GAS  C:\Users\10963\AppData\Local\Temp\ccm8kV9q.s 			page 3


  88:../Motor_Control/src/motor_control.c ****   {
  89:../Motor_Control/src/motor_control.c ****     /* Initialize FOC state */
  90:../Motor_Control/src/motor_control.c ****     foc_init((foc_state_t *)motor->foc_state);
  91:../Motor_Control/src/motor_control.c ****     /* Set control mode to FOC */
  92:../Motor_Control/src/motor_control.c ****     motor->control_mode = 1;
  93:../Motor_Control/src/motor_control.c ****   }
  94:../Motor_Control/src/motor_control.c **** }
  95:../Motor_Control/src/motor_control.c **** 
  96:../Motor_Control/src/motor_control.c **** /**
  97:../Motor_Control/src/motor_control.c ****   * @brief  FOC control process
  98:../Motor_Control/src/motor_control.c ****   * @param  motor: motor parameters structure
  99:../Motor_Control/src/motor_control.c ****   * @param  phase_current: Phase currents (A)
 100:../Motor_Control/src/motor_control.c ****   * @param  angle: Rotor angle (rad)
 101:../Motor_Control/src/motor_control.c ****   * @retval none
 102:../Motor_Control/src/motor_control.c ****   */
 103:../Motor_Control/src/motor_control.c **** void motor_foc_control(motor_params_t *motor, float *phase_current, float angle)
 104:../Motor_Control/src/motor_control.c **** {
 105:../Motor_Control/src/motor_control.c ****   if (motor->foc_state != NULL && motor->control_mode == 1)
 106:../Motor_Control/src/motor_control.c ****   {
 107:../Motor_Control/src/motor_control.c ****     /* Execute FOC control */
 108:../Motor_Control/src/motor_control.c ****     foc_control((foc_state_t *)motor->foc_state, phase_current, angle);
 109:../Motor_Control/src/motor_control.c ****   }
 110:../Motor_Control/src/motor_control.c **** }
 111:../Motor_Control/src/motor_control.c **** 
 112:../Motor_Control/src/motor_control.c **** /**
 113:../Motor_Control/src/motor_control.c ****   * @brief  motor control process
 114:../Motor_Control/src/motor_control.c ****   * @param  motor: motor parameters structure
 115:../Motor_Control/src/motor_control.c ****   * @retval none
 116:../Motor_Control/src/motor_control.c ****   */
 117:../Motor_Control/src/motor_control.c **** void motor_control_process(motor_params_t *motor)
 118:../Motor_Control/src/motor_control.c **** {
 119:../Motor_Control/src/motor_control.c ****   uint32_t current_time;
 120:../Motor_Control/src/motor_control.c ****   
 121:../Motor_Control/src/motor_control.c ****   /* process only if motor is running */
 122:../Motor_Control/src/motor_control.c ****   if (motor->state == MOTOR_STATE_RUNNING)
 123:../Motor_Control/src/motor_control.c ****   {
 124:../Motor_Control/src/motor_control.c ****     if (motor->control_mode == 0)
 125:../Motor_Control/src/motor_control.c ****     {
 126:../Motor_Control/src/motor_control.c ****       /* Six-step commutation mode */
 127:../Motor_Control/src/motor_control.c ****       /* get current time */
 128:../Motor_Control/src/motor_control.c ****       current_time = wk_timebase_get();
 129:../Motor_Control/src/motor_control.c ****       
 130:../Motor_Control/src/motor_control.c ****       /* check if commutation is needed */
 131:../Motor_Control/src/motor_control.c ****       if (current_time - motor->last_commutation_time >= motor->commutation_interval)
 132:../Motor_Control/src/motor_control.c ****       {
 133:../Motor_Control/src/motor_control.c ****         /* update last commutation time */
 134:../Motor_Control/src/motor_control.c ****         motor->last_commutation_time = current_time;
 135:../Motor_Control/src/motor_control.c ****         
 136:../Motor_Control/src/motor_control.c ****         /* advance to next commutation state */
 137:../Motor_Control/src/motor_control.c ****         motor_next_commutation_state(motor);
 138:../Motor_Control/src/motor_control.c ****       }
 139:../Motor_Control/src/motor_control.c ****     }
 140:../Motor_Control/src/motor_control.c ****     else if (motor->control_mode == 1)
 141:../Motor_Control/src/motor_control.c ****     {
 142:../Motor_Control/src/motor_control.c ****       /* FOC control mode */
 143:../Motor_Control/src/motor_control.c ****       /* FOC control is handled externally with sensor feedback */
 144:../Motor_Control/src/motor_control.c ****       /* This function can be used to trigger FOC control periodically */
ARM GAS  C:\Users\10963\AppData\Local\Temp\ccm8kV9q.s 			page 4


 145:../Motor_Control/src/motor_control.c ****     }
 146:../Motor_Control/src/motor_control.c ****   }
 147:../Motor_Control/src/motor_control.c **** }
 148:../Motor_Control/src/motor_control.c **** 
 149:../Motor_Control/src/motor_control.c **** /**
 150:../Motor_Control/src/motor_control.c ****   * @brief  start motor
 151:../Motor_Control/src/motor_control.c ****   * @param  motor: motor parameters structure
 152:../Motor_Control/src/motor_control.c ****   * @param  speed: target speed (RPM)
 153:../Motor_Control/src/motor_control.c ****   * @param  direction: motor direction
 154:../Motor_Control/src/motor_control.c ****   * @retval none
 155:../Motor_Control/src/motor_control.c ****   */
 156:../Motor_Control/src/motor_control.c **** void motor_start(motor_params_t *motor, uint16_t speed, motor_direction_t direction)
 157:../Motor_Control/src/motor_control.c **** {
 158:../Motor_Control/src/motor_control.c ****   /* set motor parameters */
 159:../Motor_Control/src/motor_control.c ****   motor->speed = speed;
 160:../Motor_Control/src/motor_control.c ****   motor->direction = direction;
 161:../Motor_Control/src/motor_control.c ****   motor->duty_cycle = 250; /* Set initial duty cycle to 250 */
 162:../Motor_Control/src/motor_control.c ****   motor->commutation_interval = calculate_commutation_interval(speed);
 163:../Motor_Control/src/motor_control.c ****   motor->last_commutation_time = wk_timebase_get();
 164:../Motor_Control/src/motor_control.c ****   motor->state = MOTOR_STATE_RUNNING;
 165:../Motor_Control/src/motor_control.c ****   
 166:../Motor_Control/src/motor_control.c ****   /* set initial commutation state with minimum duty cycle */
 167:../Motor_Control/src/motor_control.c ****   motor->duty_cycle = MIN_DUTY_CYCLE;
 168:../Motor_Control/src/motor_control.c ****   motor_set_commutation_state(motor, motor->comm_state);
 169:../Motor_Control/src/motor_control.c ****   
 170:../Motor_Control/src/motor_control.c ****   /* delay to ensure motor starts */
 171:../Motor_Control/src/motor_control.c ****   vTaskDelay(pdMS_TO_TICKS(50));
 172:../Motor_Control/src/motor_control.c ****   
 173:../Motor_Control/src/motor_control.c ****   /* increase duty cycle to desired value */
 174:../Motor_Control/src/motor_control.c ****   motor->duty_cycle = 250;
 175:../Motor_Control/src/motor_control.c ****   motor_set_commutation_state(motor, motor->comm_state);
 176:../Motor_Control/src/motor_control.c **** }
 177:../Motor_Control/src/motor_control.c **** 
 178:../Motor_Control/src/motor_control.c **** /**
 179:../Motor_Control/src/motor_control.c ****   * @brief  stop motor
 180:../Motor_Control/src/motor_control.c ****   * @param  motor: motor parameters structure
 181:../Motor_Control/src/motor_control.c ****   * @retval none
 182:../Motor_Control/src/motor_control.c ****   */
 183:../Motor_Control/src/motor_control.c **** void motor_stop(motor_params_t *motor)
 184:../Motor_Control/src/motor_control.c **** {
 185:../Motor_Control/src/motor_control.c ****   /* set all outputs to low */
 186:../Motor_Control/src/motor_control.c ****   tmr_channel_value_set(TMR1, TMR_SELECT_CHANNEL_1, 0);
 187:../Motor_Control/src/motor_control.c ****   tmr_channel_value_set(TMR1, TMR_SELECT_CHANNEL_2, 0);
 188:../Motor_Control/src/motor_control.c ****   tmr_channel_value_set(TMR1, TMR_SELECT_CHANNEL_3, 0);
 189:../Motor_Control/src/motor_control.c ****   
 190:../Motor_Control/src/motor_control.c ****   /* update motor state */
 191:../Motor_Control/src/motor_control.c ****   motor->state = MOTOR_STATE_IDLE;
 192:../Motor_Control/src/motor_control.c ****   motor->speed = 0;
 193:../Motor_Control/src/motor_control.c ****   motor->duty_cycle = 0;
 194:../Motor_Control/src/motor_control.c **** }
 195:../Motor_Control/src/motor_control.c **** 
 196:../Motor_Control/src/motor_control.c **** /**
 197:../Motor_Control/src/motor_control.c ****   * @brief  set motor speed
 198:../Motor_Control/src/motor_control.c ****   * @param  motor: motor parameters structure
 199:../Motor_Control/src/motor_control.c ****   * @param  speed: target speed (RPM)
 200:../Motor_Control/src/motor_control.c ****   * @retval none
 201:../Motor_Control/src/motor_control.c ****   */
ARM GAS  C:\Users\10963\AppData\Local\Temp\ccm8kV9q.s 			page 5


 202:../Motor_Control/src/motor_control.c **** void motor_set_speed(motor_params_t *motor, uint16_t speed)
 203:../Motor_Control/src/motor_control.c **** {
 204:../Motor_Control/src/motor_control.c ****   motor->speed = speed;
 205:../Motor_Control/src/motor_control.c ****   motor->commutation_interval = calculate_commutation_interval(speed);
 206:../Motor_Control/src/motor_control.c **** }
 207:../Motor_Control/src/motor_control.c **** 
 208:../Motor_Control/src/motor_control.c **** /**
 209:../Motor_Control/src/motor_control.c ****   * @brief  set motor duty cycle
 210:../Motor_Control/src/motor_control.c ****   * @param  motor: motor parameters structure
 211:../Motor_Control/src/motor_control.c ****   * @param  duty_cycle: PWM duty cycle
 212:../Motor_Control/src/motor_control.c ****   * @retval none
 213:../Motor_Control/src/motor_control.c ****   */
 214:../Motor_Control/src/motor_control.c **** void motor_set_duty_cycle(motor_params_t *motor, uint16_t duty_cycle)
 215:../Motor_Control/src/motor_control.c **** {
 216:../Motor_Control/src/motor_control.c ****   /* limit duty cycle */
 217:../Motor_Control/src/motor_control.c ****   if (duty_cycle > MAX_DUTY_CYCLE)
 218:../Motor_Control/src/motor_control.c ****   {
 219:../Motor_Control/src/motor_control.c ****     duty_cycle = MAX_DUTY_CYCLE;
 220:../Motor_Control/src/motor_control.c ****   }
 221:../Motor_Control/src/motor_control.c ****   else if (duty_cycle < MIN_DUTY_CYCLE)
 222:../Motor_Control/src/motor_control.c ****   {
 223:../Motor_Control/src/motor_control.c ****     duty_cycle = MIN_DUTY_CYCLE;
 224:../Motor_Control/src/motor_control.c ****   }
 225:../Motor_Control/src/motor_control.c ****   
 226:../Motor_Control/src/motor_control.c ****   motor->duty_cycle = duty_cycle;
 227:../Motor_Control/src/motor_control.c ****   
 228:../Motor_Control/src/motor_control.c ****   /* update PWM duty cycle based on current commutation state */
 229:../Motor_Control/src/motor_control.c ****   motor_set_commutation_state(motor, motor->comm_state);
 230:../Motor_Control/src/motor_control.c **** }
 231:../Motor_Control/src/motor_control.c **** 
 232:../Motor_Control/src/motor_control.c **** /**
 233:../Motor_Control/src/motor_control.c ****   * @brief  set commutation state
 234:../Motor_Control/src/motor_control.c ****   * @param  motor: motor parameters structure
 235:../Motor_Control/src/motor_control.c ****   * @param  state: commutation state
 236:../Motor_Control/src/motor_control.c ****   * @retval none
 237:../Motor_Control/src/motor_control.c ****   */
 238:../Motor_Control/src/motor_control.c **** static void motor_set_commutation_state(motor_params_t *motor, commutation_state_t state)
 239:../Motor_Control/src/motor_control.c **** {
 240:../Motor_Control/src/motor_control.c ****   /* update commutation state */
 241:../Motor_Control/src/motor_control.c ****   motor->comm_state = state;
 242:../Motor_Control/src/motor_control.c ****   
 243:../Motor_Control/src/motor_control.c ****   /* set all channels to low first to avoid transient states */
 244:../Motor_Control/src/motor_control.c ****   tmr_output_channel_mode_select(TMR1, TMR_SELECT_CHANNEL_1, TMR_OUTPUT_CONTROL_LOW);
 245:../Motor_Control/src/motor_control.c ****   tmr_output_channel_mode_select(TMR1, TMR_SELECT_CHANNEL_1C, TMR_OUTPUT_CONTROL_LOW);
 246:../Motor_Control/src/motor_control.c ****   tmr_output_channel_mode_select(TMR1, TMR_SELECT_CHANNEL_2, TMR_OUTPUT_CONTROL_LOW);
 247:../Motor_Control/src/motor_control.c ****   tmr_output_channel_mode_select(TMR1, TMR_SELECT_CHANNEL_2C, TMR_OUTPUT_CONTROL_LOW);
 248:../Motor_Control/src/motor_control.c ****   tmr_output_channel_mode_select(TMR1, TMR_SELECT_CHANNEL_3, TMR_OUTPUT_CONTROL_LOW);
 249:../Motor_Control/src/motor_control.c ****   tmr_output_channel_mode_select(TMR1, TMR_SELECT_CHANNEL_3C, TMR_OUTPUT_CONTROL_LOW);
 250:../Motor_Control/src/motor_control.c ****   
 251:../Motor_Control/src/motor_control.c ****   /* set PWM outputs based on commutation state */
 252:../Motor_Control/src/motor_control.c ****   switch(state)
 253:../Motor_Control/src/motor_control.c ****   {
 254:../Motor_Control/src/motor_control.c ****     case COMMUTATION_STATE_1: /* A+ B- */
 255:../Motor_Control/src/motor_control.c ****       /* A+ */
 256:../Motor_Control/src/motor_control.c ****       tmr_output_channel_mode_select(TMR1, TMR_SELECT_CHANNEL_1, TMR_OUTPUT_CONTROL_PWM_MODE_A);
 257:../Motor_Control/src/motor_control.c ****       tmr_channel_value_set(TMR1, TMR_SELECT_CHANNEL_1, motor->duty_cycle);
 258:../Motor_Control/src/motor_control.c ****       /* B- */
ARM GAS  C:\Users\10963\AppData\Local\Temp\ccm8kV9q.s 			page 6


 259:../Motor_Control/src/motor_control.c ****       tmr_output_channel_mode_select(TMR1, TMR_SELECT_CHANNEL_2C, TMR_OUTPUT_CONTROL_PWM_MODE_A);
 260:../Motor_Control/src/motor_control.c ****       tmr_channel_value_set(TMR1, TMR_SELECT_CHANNEL_2C, motor->duty_cycle);
 261:../Motor_Control/src/motor_control.c ****       break;
 262:../Motor_Control/src/motor_control.c ****     case COMMUTATION_STATE_2: /* A+ C- */
 263:../Motor_Control/src/motor_control.c ****       /* A+ */
 264:../Motor_Control/src/motor_control.c ****       tmr_output_channel_mode_select(TMR1, TMR_SELECT_CHANNEL_1, TMR_OUTPUT_CONTROL_PWM_MODE_A);
 265:../Motor_Control/src/motor_control.c ****       tmr_channel_value_set(TMR1, TMR_SELECT_CHANNEL_1, motor->duty_cycle);
 266:../Motor_Control/src/motor_control.c ****       /* C- */
 267:../Motor_Control/src/motor_control.c ****       tmr_output_channel_mode_select(TMR1, TMR_SELECT_CHANNEL_3C, TMR_OUTPUT_CONTROL_PWM_MODE_A);
 268:../Motor_Control/src/motor_control.c ****       tmr_channel_value_set(TMR1, TMR_SELECT_CHANNEL_3C, motor->duty_cycle);
 269:../Motor_Control/src/motor_control.c ****       break;
 270:../Motor_Control/src/motor_control.c ****     case COMMUTATION_STATE_3: /* B+ C- */
 271:../Motor_Control/src/motor_control.c ****       /* B+ */
 272:../Motor_Control/src/motor_control.c ****       tmr_output_channel_mode_select(TMR1, TMR_SELECT_CHANNEL_2, TMR_OUTPUT_CONTROL_PWM_MODE_A);
 273:../Motor_Control/src/motor_control.c ****       tmr_channel_value_set(TMR1, TMR_SELECT_CHANNEL_2, motor->duty_cycle);
 274:../Motor_Control/src/motor_control.c ****       /* C- */
 275:../Motor_Control/src/motor_control.c ****       tmr_output_channel_mode_select(TMR1, TMR_SELECT_CHANNEL_3C, TMR_OUTPUT_CONTROL_PWM_MODE_A);
 276:../Motor_Control/src/motor_control.c ****       tmr_channel_value_set(TMR1, TMR_SELECT_CHANNEL_3C, motor->duty_cycle);
 277:../Motor_Control/src/motor_control.c ****       break;
 278:../Motor_Control/src/motor_control.c ****     case COMMUTATION_STATE_4: /* B+ A- */
 279:../Motor_Control/src/motor_control.c ****       /* B+ */
 280:../Motor_Control/src/motor_control.c ****       tmr_output_channel_mode_select(TMR1, TMR_SELECT_CHANNEL_2, TMR_OUTPUT_CONTROL_PWM_MODE_A);
 281:../Motor_Control/src/motor_control.c ****       tmr_channel_value_set(TMR1, TMR_SELECT_CHANNEL_2, motor->duty_cycle);
 282:../Motor_Control/src/motor_control.c ****       /* A- */
 283:../Motor_Control/src/motor_control.c ****       tmr_output_channel_mode_select(TMR1, TMR_SELECT_CHANNEL_1C, TMR_OUTPUT_CONTROL_PWM_MODE_A);
 284:../Motor_Control/src/motor_control.c ****       tmr_channel_value_set(TMR1, TMR_SELECT_CHANNEL_1C, motor->duty_cycle);
 285:../Motor_Control/src/motor_control.c ****       break;
 286:../Motor_Control/src/motor_control.c ****     case COMMUTATION_STATE_5: /* C+ A- */
 287:../Motor_Control/src/motor_control.c ****       /* C+ */
 288:../Motor_Control/src/motor_control.c ****       tmr_output_channel_mode_select(TMR1, TMR_SELECT_CHANNEL_3, TMR_OUTPUT_CONTROL_PWM_MODE_A);
 289:../Motor_Control/src/motor_control.c ****       tmr_channel_value_set(TMR1, TMR_SELECT_CHANNEL_3, motor->duty_cycle);
 290:../Motor_Control/src/motor_control.c ****       /* A- */
 291:../Motor_Control/src/motor_control.c ****       tmr_output_channel_mode_select(TMR1, TMR_SELECT_CHANNEL_1C, TMR_OUTPUT_CONTROL_PWM_MODE_A);
 292:../Motor_Control/src/motor_control.c ****       tmr_channel_value_set(TMR1, TMR_SELECT_CHANNEL_1C, motor->duty_cycle);
 293:../Motor_Control/src/motor_control.c ****       break;
 294:../Motor_Control/src/motor_control.c ****     case COMMUTATION_STATE_6: /* C+ B- */
 295:../Motor_Control/src/motor_control.c ****       /* C+ */
 296:../Motor_Control/src/motor_control.c ****       tmr_output_channel_mode_select(TMR1, TMR_SELECT_CHANNEL_3, TMR_OUTPUT_CONTROL_PWM_MODE_A);
 297:../Motor_Control/src/motor_control.c ****       tmr_channel_value_set(TMR1, TMR_SELECT_CHANNEL_3, motor->duty_cycle);
 298:../Motor_Control/src/motor_control.c ****       /* B- */
 299:../Motor_Control/src/motor_control.c ****       tmr_output_channel_mode_select(TMR1, TMR_SELECT_CHANNEL_2C, TMR_OUTPUT_CONTROL_PWM_MODE_A);
 300:../Motor_Control/src/motor_control.c ****       tmr_channel_value_set(TMR1, TMR_SELECT_CHANNEL_2C, motor->duty_cycle);
 301:../Motor_Control/src/motor_control.c ****       break;
 302:../Motor_Control/src/motor_control.c ****     default:
 303:../Motor_Control/src/motor_control.c ****       /* all outputs already set to low */
 304:../Motor_Control/src/motor_control.c ****       break;
 305:../Motor_Control/src/motor_control.c ****   }
 306:../Motor_Control/src/motor_control.c **** }
 307:../Motor_Control/src/motor_control.c **** 
 308:../Motor_Control/src/motor_control.c **** /**
 309:../Motor_Control/src/motor_control.c ****   * @brief  advance to next commutation state
 310:../Motor_Control/src/motor_control.c ****   * @param  motor: motor parameters structure
 311:../Motor_Control/src/motor_control.c ****   * @retval none
 312:../Motor_Control/src/motor_control.c ****   */
 313:../Motor_Control/src/motor_control.c **** static void motor_next_commutation_state(motor_params_t *motor)
 314:../Motor_Control/src/motor_control.c **** {
 315:../Motor_Control/src/motor_control.c ****   if (motor->direction == MOTOR_DIR_CW)
ARM GAS  C:\Users\10963\AppData\Local\Temp\ccm8kV9q.s 			page 7


 316:../Motor_Control/src/motor_control.c ****   {
 317:../Motor_Control/src/motor_control.c ****     /* clockwise direction: increment state */
 318:../Motor_Control/src/motor_control.c ****     motor->comm_state = (commutation_state_t)((motor->comm_state + 1) % COMMUTATION_STATE_MAX);
 319:../Motor_Control/src/motor_control.c ****   } else {
 320:../Motor_Control/src/motor_control.c ****     /* counter-clockwise direction: decrement state */
 321:../Motor_Control/src/motor_control.c ****     if (motor->comm_state == 0)
 322:../Motor_Control/src/motor_control.c ****     {
 323:../Motor_Control/src/motor_control.c ****       motor->comm_state = COMMUTATION_STATE_MAX - 1;
 324:../Motor_Control/src/motor_control.c ****     } else {
 325:../Motor_Control/src/motor_control.c ****       motor->comm_state = (commutation_state_t)(motor->comm_state - 1);
 326:../Motor_Control/src/motor_control.c ****     }
 327:../Motor_Control/src/motor_control.c ****   }
 328:../Motor_Control/src/motor_control.c ****   
 329:../Motor_Control/src/motor_control.c ****   /* set new commutation state */
 330:../Motor_Control/src/motor_control.c ****   motor_set_commutation_state(motor, motor->comm_state);
 331:../Motor_Control/src/motor_control.c **** }
 332:../Motor_Control/src/motor_control.c **** 
 333:../Motor_Control/src/motor_control.c **** /**
 334:../Motor_Control/src/motor_control.c ****   * @brief  calculate commutation interval based on speed
 335:../Motor_Control/src/motor_control.c ****   * @param  speed: motor speed (RPM)
 336:../Motor_Control/src/motor_control.c ****   * @retval commutation interval (ms)
 337:../Motor_Control/src/motor_control.c ****   */
 338:../Motor_Control/src/motor_control.c **** static uint32_t calculate_commutation_interval(uint16_t speed)
 339:../Motor_Control/src/motor_control.c **** {
  29              		.loc 1 339 1 view -0
  30              		.cfi_startproc
  31              		@ args = 0, pretend = 0, frame = 0
  32              		@ frame_needed = 0, uses_anonymous_args = 0
  33              		@ link register save eliminated.
 340:../Motor_Control/src/motor_control.c ****   if (speed == 0)
  34              		.loc 1 340 3 view .LVU1
  35              		.loc 1 340 6 is_stmt 0 view .LVU2
  36 0000 0346     		mov	r3, r0
  37 0002 08B3     		cbz	r0, .L1
 341:../Motor_Control/src/motor_control.c ****   {
 342:../Motor_Control/src/motor_control.c ****     return 0;
 343:../Motor_Control/src/motor_control.c ****   }
 344:../Motor_Control/src/motor_control.c ****   
 345:../Motor_Control/src/motor_control.c ****   /* limit speed to maximum value */
 346:../Motor_Control/src/motor_control.c ****   if (speed > MOTOR_MAX_SPEED)
  38              		.loc 1 346 3 is_stmt 1 view .LVU3
  39              		.loc 1 346 6 is_stmt 0 view .LVU4
  40 0004 B0F5017F 		cmp	r0, #516
  41 0008 01D9     		bls	.L3
 347:../Motor_Control/src/motor_control.c ****   {
 348:../Motor_Control/src/motor_control.c ****     speed = MOTOR_MAX_SPEED;
  42              		.loc 1 348 11 view .LVU5
  43 000a 4FF40173 		mov	r3, #516
  44              	.L3:
  45              	.LVL1:
 349:../Motor_Control/src/motor_control.c ****   }
 350:../Motor_Control/src/motor_control.c ****   
 351:../Motor_Control/src/motor_control.c ****   /* calculate commutation interval in milliseconds */
 352:../Motor_Control/src/motor_control.c ****   /* formula: interval = 60,000 / (speed * pole_pairs * 6) */
 353:../Motor_Control/src/motor_control.c ****   float interval = 60000.0f / (speed * MOTOR_POLE_PAIRS * 6.0f);
  46              		.loc 1 353 3 is_stmt 1 view .LVU6
  47              		.loc 1 353 38 is_stmt 0 view .LVU7
ARM GAS  C:\Users\10963\AppData\Local\Temp\ccm8kV9q.s 			page 8


  48 000e 03EB4303 		add	r3, r3, r3, lsl #1
  49              	.LVL2:
  50              		.loc 1 353 38 view .LVU8
  51 0012 C3EBC303 		rsb	r3, r3, r3, lsl #3
  52              		.loc 1 353 57 view .LVU9
  53 0016 07EE903A 		vmov	s15, r3	@ int
  54 001a F8EEE77A 		vcvt.f32.s32	s15, s15
  55 001e B1EE087A 		vmov.f32	s14, #6.0e+0
  56 0022 67EE877A 		vmul.f32	s15, s15, s14
  57              		.loc 1 353 9 view .LVU10
  58 0026 DFED096A 		vldr.32	s13, .L7
  59 002a 86EEA77A 		vdiv.f32	s14, s13, s15
  60              	.LVL3:
 354:../Motor_Control/src/motor_control.c ****   
 355:../Motor_Control/src/motor_control.c ****   /* ensure minimum interval of 1ms */
 356:../Motor_Control/src/motor_control.c ****   if (interval < 1.0f)
  61              		.loc 1 356 3 is_stmt 1 view .LVU11
  62              		.loc 1 356 6 is_stmt 0 view .LVU12
  63 002e F7EE007A 		vmov.f32	s15, #1.0e+0
  64 0032 B4EEE77A 		vcmpe.f32	s14, s15
  65 0036 F1EE10FA 		vmrs	APSR_nzcv, FPSCR
  66 003a 04D4     		bmi	.L6
 357:../Motor_Control/src/motor_control.c ****   {
 358:../Motor_Control/src/motor_control.c ****     return 1;
 359:../Motor_Control/src/motor_control.c ****   }
 360:../Motor_Control/src/motor_control.c ****   
 361:../Motor_Control/src/motor_control.c ****   return (uint32_t)interval;
  67              		.loc 1 361 3 is_stmt 1 view .LVU13
  68              		.loc 1 361 10 is_stmt 0 view .LVU14
  69 003c FCEEC77A 		vcvt.u32.f32	s15, s14
  70 0040 17EE900A 		vmov	r0, s15	@ int
  71 0044 7047     		bx	lr
  72              	.L6:
 358:../Motor_Control/src/motor_control.c ****   }
  73              		.loc 1 358 12 view .LVU15
  74 0046 0120     		movs	r0, #1
  75              	.LVL4:
  76              	.L1:
 362:../Motor_Control/src/motor_control.c **** }
  77              		.loc 1 362 1 view .LVU16
  78 0048 7047     		bx	lr
  79              	.L8:
  80 004a 00BF     		.align	2
  81              	.L7:
  82 004c 00606A47 		.word	1198153728
  83              		.cfi_endproc
  84              	.LFE151:
  86              		.section	.text.motor_set_commutation_state,"ax",%progbits
  87              		.align	1
  88              		.syntax unified
  89              		.thumb
  90              		.thumb_func
  92              	motor_set_commutation_state:
  93              	.LVL5:
  94              	.LFB149:
 239:../Motor_Control/src/motor_control.c ****   /* update commutation state */
  95              		.loc 1 239 1 is_stmt 1 view -0
ARM GAS  C:\Users\10963\AppData\Local\Temp\ccm8kV9q.s 			page 9


  96              		.cfi_startproc
  97              		@ args = 0, pretend = 0, frame = 0
  98              		@ frame_needed = 0, uses_anonymous_args = 0
 239:../Motor_Control/src/motor_control.c ****   /* update commutation state */
  99              		.loc 1 239 1 is_stmt 0 view .LVU18
 100 0000 70B5     		push	{r4, r5, r6, lr}
 101              	.LCFI0:
 102              		.cfi_def_cfa_offset 16
 103              		.cfi_offset 4, -16
 104              		.cfi_offset 5, -12
 105              		.cfi_offset 6, -8
 106              		.cfi_offset 14, -4
 107 0002 0646     		mov	r6, r0
 108 0004 0C46     		mov	r4, r1
 241:../Motor_Control/src/motor_control.c ****   
 109              		.loc 1 241 3 is_stmt 1 view .LVU19
 241:../Motor_Control/src/motor_control.c ****   
 110              		.loc 1 241 21 is_stmt 0 view .LVU20
 111 0006 8170     		strb	r1, [r0, #2]
 244:../Motor_Control/src/motor_control.c ****   tmr_output_channel_mode_select(TMR1, TMR_SELECT_CHANNEL_1C, TMR_OUTPUT_CONTROL_LOW);
 112              		.loc 1 244 3 is_stmt 1 view .LVU21
 113 0008 574D     		ldr	r5, .L19
 114 000a 0222     		movs	r2, #2
 115 000c 0021     		movs	r1, #0
 116              	.LVL6:
 244:../Motor_Control/src/motor_control.c ****   tmr_output_channel_mode_select(TMR1, TMR_SELECT_CHANNEL_1C, TMR_OUTPUT_CONTROL_LOW);
 117              		.loc 1 244 3 is_stmt 0 view .LVU22
 118 000e 2846     		mov	r0, r5
 119              	.LVL7:
 244:../Motor_Control/src/motor_control.c ****   tmr_output_channel_mode_select(TMR1, TMR_SELECT_CHANNEL_1C, TMR_OUTPUT_CONTROL_LOW);
 120              		.loc 1 244 3 view .LVU23
 121 0010 FFF7FEFF 		bl	tmr_output_channel_mode_select
 122              	.LVL8:
 245:../Motor_Control/src/motor_control.c ****   tmr_output_channel_mode_select(TMR1, TMR_SELECT_CHANNEL_2, TMR_OUTPUT_CONTROL_LOW);
 123              		.loc 1 245 3 is_stmt 1 view .LVU24
 124 0014 0222     		movs	r2, #2
 125 0016 0121     		movs	r1, #1
 126 0018 2846     		mov	r0, r5
 127 001a FFF7FEFF 		bl	tmr_output_channel_mode_select
 128              	.LVL9:
 246:../Motor_Control/src/motor_control.c ****   tmr_output_channel_mode_select(TMR1, TMR_SELECT_CHANNEL_2C, TMR_OUTPUT_CONTROL_LOW);
 129              		.loc 1 246 3 view .LVU25
 130 001e 0222     		movs	r2, #2
 131 0020 1146     		mov	r1, r2
 132 0022 2846     		mov	r0, r5
 133 0024 FFF7FEFF 		bl	tmr_output_channel_mode_select
 134              	.LVL10:
 247:../Motor_Control/src/motor_control.c ****   tmr_output_channel_mode_select(TMR1, TMR_SELECT_CHANNEL_3, TMR_OUTPUT_CONTROL_LOW);
 135              		.loc 1 247 3 view .LVU26
 136 0028 0222     		movs	r2, #2
 137 002a 0321     		movs	r1, #3
 138 002c 2846     		mov	r0, r5
 139 002e FFF7FEFF 		bl	tmr_output_channel_mode_select
 140              	.LVL11:
 248:../Motor_Control/src/motor_control.c ****   tmr_output_channel_mode_select(TMR1, TMR_SELECT_CHANNEL_3C, TMR_OUTPUT_CONTROL_LOW);
 141              		.loc 1 248 3 view .LVU27
 142 0032 0222     		movs	r2, #2
ARM GAS  C:\Users\10963\AppData\Local\Temp\ccm8kV9q.s 			page 10


 143 0034 0421     		movs	r1, #4
 144 0036 2846     		mov	r0, r5
 145 0038 FFF7FEFF 		bl	tmr_output_channel_mode_select
 146              	.LVL12:
 249:../Motor_Control/src/motor_control.c ****   
 147              		.loc 1 249 3 view .LVU28
 148 003c 0222     		movs	r2, #2
 149 003e 0521     		movs	r1, #5
 150 0040 2846     		mov	r0, r5
 151 0042 FFF7FEFF 		bl	tmr_output_channel_mode_select
 152              	.LVL13:
 252:../Motor_Control/src/motor_control.c ****   {
 153              		.loc 1 252 3 view .LVU29
 154 0046 032C     		cmp	r4, #3
 155 0048 61D0     		beq	.L10
 156 004a 1AD8     		bhi	.L11
 157 004c 012C     		cmp	r4, #1
 158 004e 32D0     		beq	.L12
 159 0050 022C     		cmp	r4, #2
 160 0052 46D0     		beq	.L13
 161 0054 A4B9     		cbnz	r4, .L9
 256:../Motor_Control/src/motor_control.c ****       tmr_channel_value_set(TMR1, TMR_SELECT_CHANNEL_1, motor->duty_cycle);
 162              		.loc 1 256 7 view .LVU30
 163 0056 444C     		ldr	r4, .L19
 164              	.LVL14:
 256:../Motor_Control/src/motor_control.c ****       tmr_channel_value_set(TMR1, TMR_SELECT_CHANNEL_1, motor->duty_cycle);
 165              		.loc 1 256 7 is_stmt 0 view .LVU31
 166 0058 0622     		movs	r2, #6
 167 005a 0021     		movs	r1, #0
 168 005c 2046     		mov	r0, r4
 169 005e FFF7FEFF 		bl	tmr_output_channel_mode_select
 170              	.LVL15:
 257:../Motor_Control/src/motor_control.c ****       /* B- */
 171              		.loc 1 257 7 is_stmt 1 view .LVU32
 172 0062 F288     		ldrh	r2, [r6, #6]
 173 0064 0021     		movs	r1, #0
 174 0066 2046     		mov	r0, r4
 175 0068 FFF7FEFF 		bl	tmr_channel_value_set
 176              	.LVL16:
 259:../Motor_Control/src/motor_control.c ****       tmr_channel_value_set(TMR1, TMR_SELECT_CHANNEL_2C, motor->duty_cycle);
 177              		.loc 1 259 7 view .LVU33
 178 006c 0622     		movs	r2, #6
 179 006e 0321     		movs	r1, #3
 180 0070 2046     		mov	r0, r4
 181 0072 FFF7FEFF 		bl	tmr_output_channel_mode_select
 182              	.LVL17:
 260:../Motor_Control/src/motor_control.c ****       break;
 183              		.loc 1 260 7 view .LVU34
 184 0076 F288     		ldrh	r2, [r6, #6]
 185 0078 0321     		movs	r1, #3
 186 007a 2046     		mov	r0, r4
 187 007c FFF7FEFF 		bl	tmr_channel_value_set
 188              	.LVL18:
 261:../Motor_Control/src/motor_control.c ****     case COMMUTATION_STATE_2: /* A+ C- */
 189              		.loc 1 261 7 view .LVU35
 190              	.L9:
 306:../Motor_Control/src/motor_control.c **** 
ARM GAS  C:\Users\10963\AppData\Local\Temp\ccm8kV9q.s 			page 11


 191              		.loc 1 306 1 is_stmt 0 view .LVU36
 192 0080 70BD     		pop	{r4, r5, r6, pc}
 193              	.LVL19:
 194              	.L11:
 252:../Motor_Control/src/motor_control.c ****   {
 195              		.loc 1 252 3 view .LVU37
 196 0082 042C     		cmp	r4, #4
 197 0084 59D0     		beq	.L16
 198 0086 052C     		cmp	r4, #5
 199 0088 FAD1     		bne	.L9
 296:../Motor_Control/src/motor_control.c ****       tmr_channel_value_set(TMR1, TMR_SELECT_CHANNEL_3, motor->duty_cycle);
 200              		.loc 1 296 7 is_stmt 1 view .LVU38
 201 008a 374C     		ldr	r4, .L19
 202 008c 0622     		movs	r2, #6
 203 008e 0421     		movs	r1, #4
 204 0090 2046     		mov	r0, r4
 205 0092 FFF7FEFF 		bl	tmr_output_channel_mode_select
 206              	.LVL20:
 297:../Motor_Control/src/motor_control.c ****       /* B- */
 207              		.loc 1 297 7 view .LVU39
 208 0096 F288     		ldrh	r2, [r6, #6]
 209 0098 0421     		movs	r1, #4
 210 009a 2046     		mov	r0, r4
 211 009c FFF7FEFF 		bl	tmr_channel_value_set
 212              	.LVL21:
 299:../Motor_Control/src/motor_control.c ****       tmr_channel_value_set(TMR1, TMR_SELECT_CHANNEL_2C, motor->duty_cycle);
 213              		.loc 1 299 7 view .LVU40
 214 00a0 0622     		movs	r2, #6
 215 00a2 0321     		movs	r1, #3
 216 00a4 2046     		mov	r0, r4
 217 00a6 FFF7FEFF 		bl	tmr_output_channel_mode_select
 218              	.LVL22:
 300:../Motor_Control/src/motor_control.c ****       break;
 219              		.loc 1 300 7 view .LVU41
 220 00aa F288     		ldrh	r2, [r6, #6]
 221 00ac 0321     		movs	r1, #3
 222 00ae 2046     		mov	r0, r4
 223 00b0 FFF7FEFF 		bl	tmr_channel_value_set
 224              	.LVL23:
 301:../Motor_Control/src/motor_control.c ****     default:
 225              		.loc 1 301 7 view .LVU42
 306:../Motor_Control/src/motor_control.c **** 
 226              		.loc 1 306 1 is_stmt 0 view .LVU43
 227 00b4 E4E7     		b	.L9
 228              	.L12:
 264:../Motor_Control/src/motor_control.c ****       tmr_channel_value_set(TMR1, TMR_SELECT_CHANNEL_1, motor->duty_cycle);
 229              		.loc 1 264 7 is_stmt 1 view .LVU44
 230 00b6 2C4C     		ldr	r4, .L19
 231 00b8 0622     		movs	r2, #6
 232 00ba 0021     		movs	r1, #0
 233 00bc 2046     		mov	r0, r4
 234 00be FFF7FEFF 		bl	tmr_output_channel_mode_select
 235              	.LVL24:
 265:../Motor_Control/src/motor_control.c ****       /* C- */
 236              		.loc 1 265 7 view .LVU45
 237 00c2 F288     		ldrh	r2, [r6, #6]
 238 00c4 0021     		movs	r1, #0
ARM GAS  C:\Users\10963\AppData\Local\Temp\ccm8kV9q.s 			page 12


 239 00c6 2046     		mov	r0, r4
 240 00c8 FFF7FEFF 		bl	tmr_channel_value_set
 241              	.LVL25:
 267:../Motor_Control/src/motor_control.c ****       tmr_channel_value_set(TMR1, TMR_SELECT_CHANNEL_3C, motor->duty_cycle);
 242              		.loc 1 267 7 view .LVU46
 243 00cc 0622     		movs	r2, #6
 244 00ce 0521     		movs	r1, #5
 245 00d0 2046     		mov	r0, r4
 246 00d2 FFF7FEFF 		bl	tmr_output_channel_mode_select
 247              	.LVL26:
 268:../Motor_Control/src/motor_control.c ****       break;
 248              		.loc 1 268 7 view .LVU47
 249 00d6 F288     		ldrh	r2, [r6, #6]
 250 00d8 0521     		movs	r1, #5
 251 00da 2046     		mov	r0, r4
 252 00dc FFF7FEFF 		bl	tmr_channel_value_set
 253              	.LVL27:
 269:../Motor_Control/src/motor_control.c ****     case COMMUTATION_STATE_3: /* B+ C- */
 254              		.loc 1 269 7 view .LVU48
 255 00e0 CEE7     		b	.L9
 256              	.L13:
 272:../Motor_Control/src/motor_control.c ****       tmr_channel_value_set(TMR1, TMR_SELECT_CHANNEL_2, motor->duty_cycle);
 257              		.loc 1 272 7 view .LVU49
 258 00e2 214C     		ldr	r4, .L19
 259 00e4 0622     		movs	r2, #6
 260 00e6 0221     		movs	r1, #2
 261 00e8 2046     		mov	r0, r4
 262 00ea FFF7FEFF 		bl	tmr_output_channel_mode_select
 263              	.LVL28:
 273:../Motor_Control/src/motor_control.c ****       /* C- */
 264              		.loc 1 273 7 view .LVU50
 265 00ee F288     		ldrh	r2, [r6, #6]
 266 00f0 0221     		movs	r1, #2
 267 00f2 2046     		mov	r0, r4
 268 00f4 FFF7FEFF 		bl	tmr_channel_value_set
 269              	.LVL29:
 275:../Motor_Control/src/motor_control.c ****       tmr_channel_value_set(TMR1, TMR_SELECT_CHANNEL_3C, motor->duty_cycle);
 270              		.loc 1 275 7 view .LVU51
 271 00f8 0622     		movs	r2, #6
 272 00fa 0521     		movs	r1, #5
 273 00fc 2046     		mov	r0, r4
 274 00fe FFF7FEFF 		bl	tmr_output_channel_mode_select
 275              	.LVL30:
 276:../Motor_Control/src/motor_control.c ****       break;
 276              		.loc 1 276 7 view .LVU52
 277 0102 F288     		ldrh	r2, [r6, #6]
 278 0104 0521     		movs	r1, #5
 279 0106 2046     		mov	r0, r4
 280 0108 FFF7FEFF 		bl	tmr_channel_value_set
 281              	.LVL31:
 277:../Motor_Control/src/motor_control.c ****     case COMMUTATION_STATE_4: /* B+ A- */
 282              		.loc 1 277 7 view .LVU53
 283 010c B8E7     		b	.L9
 284              	.L10:
 280:../Motor_Control/src/motor_control.c ****       tmr_channel_value_set(TMR1, TMR_SELECT_CHANNEL_2, motor->duty_cycle);
 285              		.loc 1 280 7 view .LVU54
 286 010e 164C     		ldr	r4, .L19
ARM GAS  C:\Users\10963\AppData\Local\Temp\ccm8kV9q.s 			page 13


 287 0110 0622     		movs	r2, #6
 288 0112 0221     		movs	r1, #2
 289 0114 2046     		mov	r0, r4
 290 0116 FFF7FEFF 		bl	tmr_output_channel_mode_select
 291              	.LVL32:
 281:../Motor_Control/src/motor_control.c ****       /* A- */
 292              		.loc 1 281 7 view .LVU55
 293 011a F288     		ldrh	r2, [r6, #6]
 294 011c 0221     		movs	r1, #2
 295 011e 2046     		mov	r0, r4
 296 0120 FFF7FEFF 		bl	tmr_channel_value_set
 297              	.LVL33:
 283:../Motor_Control/src/motor_control.c ****       tmr_channel_value_set(TMR1, TMR_SELECT_CHANNEL_1C, motor->duty_cycle);
 298              		.loc 1 283 7 view .LVU56
 299 0124 0622     		movs	r2, #6
 300 0126 0121     		movs	r1, #1
 301 0128 2046     		mov	r0, r4
 302 012a FFF7FEFF 		bl	tmr_output_channel_mode_select
 303              	.LVL34:
 284:../Motor_Control/src/motor_control.c ****       break;
 304              		.loc 1 284 7 view .LVU57
 305 012e F288     		ldrh	r2, [r6, #6]
 306 0130 0121     		movs	r1, #1
 307 0132 2046     		mov	r0, r4
 308 0134 FFF7FEFF 		bl	tmr_channel_value_set
 309              	.LVL35:
 285:../Motor_Control/src/motor_control.c ****     case COMMUTATION_STATE_5: /* C+ A- */
 310              		.loc 1 285 7 view .LVU58
 311 0138 A2E7     		b	.L9
 312              	.L16:
 288:../Motor_Control/src/motor_control.c ****       tmr_channel_value_set(TMR1, TMR_SELECT_CHANNEL_3, motor->duty_cycle);
 313              		.loc 1 288 7 view .LVU59
 314 013a 0B4C     		ldr	r4, .L19
 315 013c 0622     		movs	r2, #6
 316 013e 0421     		movs	r1, #4
 317 0140 2046     		mov	r0, r4
 318 0142 FFF7FEFF 		bl	tmr_output_channel_mode_select
 319              	.LVL36:
 289:../Motor_Control/src/motor_control.c ****       /* A- */
 320              		.loc 1 289 7 view .LVU60
 321 0146 F288     		ldrh	r2, [r6, #6]
 322 0148 0421     		movs	r1, #4
 323 014a 2046     		mov	r0, r4
 324 014c FFF7FEFF 		bl	tmr_channel_value_set
 325              	.LVL37:
 291:../Motor_Control/src/motor_control.c ****       tmr_channel_value_set(TMR1, TMR_SELECT_CHANNEL_1C, motor->duty_cycle);
 326              		.loc 1 291 7 view .LVU61
 327 0150 0622     		movs	r2, #6
 328 0152 0121     		movs	r1, #1
 329 0154 2046     		mov	r0, r4
 330 0156 FFF7FEFF 		bl	tmr_output_channel_mode_select
 331              	.LVL38:
 292:../Motor_Control/src/motor_control.c ****       break;
 332              		.loc 1 292 7 view .LVU62
 333 015a F288     		ldrh	r2, [r6, #6]
 334 015c 0121     		movs	r1, #1
 335 015e 2046     		mov	r0, r4
ARM GAS  C:\Users\10963\AppData\Local\Temp\ccm8kV9q.s 			page 14


 336 0160 FFF7FEFF 		bl	tmr_channel_value_set
 337              	.LVL39:
 293:../Motor_Control/src/motor_control.c ****     case COMMUTATION_STATE_6: /* C+ B- */
 338              		.loc 1 293 7 view .LVU63
 339 0164 8CE7     		b	.L9
 340              	.L20:
 341 0166 00BF     		.align	2
 342              	.L19:
 343 0168 002C0140 		.word	1073818624
 344              		.cfi_endproc
 345              	.LFE149:
 347              		.section	.text.motor_next_commutation_state,"ax",%progbits
 348              		.align	1
 349              		.syntax unified
 350              		.thumb
 351              		.thumb_func
 353              	motor_next_commutation_state:
 354              	.LVL40:
 355              	.LFB150:
 314:../Motor_Control/src/motor_control.c ****   if (motor->direction == MOTOR_DIR_CW)
 356              		.loc 1 314 1 view -0
 357              		.cfi_startproc
 358              		@ args = 0, pretend = 0, frame = 0
 359              		@ frame_needed = 0, uses_anonymous_args = 0
 314:../Motor_Control/src/motor_control.c ****   if (motor->direction == MOTOR_DIR_CW)
 360              		.loc 1 314 1 is_stmt 0 view .LVU65
 361 0000 08B5     		push	{r3, lr}
 362              	.LCFI1:
 363              		.cfi_def_cfa_offset 8
 364              		.cfi_offset 3, -8
 365              		.cfi_offset 14, -4
 315:../Motor_Control/src/motor_control.c ****   {
 366              		.loc 1 315 3 is_stmt 1 view .LVU66
 315:../Motor_Control/src/motor_control.c ****   {
 367              		.loc 1 315 12 is_stmt 0 view .LVU67
 368 0002 4378     		ldrb	r3, [r0, #1]	@ zero_extendqisi2
 315:../Motor_Control/src/motor_control.c ****   {
 369              		.loc 1 315 6 view .LVU68
 370 0004 83B9     		cbnz	r3, .L22
 318:../Motor_Control/src/motor_control.c ****   } else {
 371              		.loc 1 318 5 is_stmt 1 view .LVU69
 318:../Motor_Control/src/motor_control.c ****   } else {
 372              		.loc 1 318 53 is_stmt 0 view .LVU70
 373 0006 8278     		ldrb	r2, [r0, #2]	@ zero_extendqisi2
 318:../Motor_Control/src/motor_control.c ****   } else {
 374              		.loc 1 318 66 view .LVU71
 375 0008 0132     		adds	r2, r2, #1
 318:../Motor_Control/src/motor_control.c ****   } else {
 376              		.loc 1 318 71 view .LVU72
 377 000a A3F15533 		sub	r3, r3, #1431655765
 378 000e 03F10043 		add	r3, r3, #-2147483648
 379 0012 83FB0213 		smull	r1, r3, r3, r2
 380 0016 03EB4303 		add	r3, r3, r3, lsl #1
 381 001a A2EB4303 		sub	r3, r2, r3, lsl #1
 318:../Motor_Control/src/motor_control.c ****   } else {
 382              		.loc 1 318 23 view .LVU73
 383 001e 8370     		strb	r3, [r0, #2]
ARM GAS  C:\Users\10963\AppData\Local\Temp\ccm8kV9q.s 			page 15


 384              	.L23:
 330:../Motor_Control/src/motor_control.c **** }
 385              		.loc 1 330 3 is_stmt 1 view .LVU74
 386 0020 8178     		ldrb	r1, [r0, #2]	@ zero_extendqisi2
 387 0022 FFF7FEFF 		bl	motor_set_commutation_state
 388              	.LVL41:
 331:../Motor_Control/src/motor_control.c **** 
 389              		.loc 1 331 1 is_stmt 0 view .LVU75
 390 0026 08BD     		pop	{r3, pc}
 391              	.LVL42:
 392              	.L22:
 321:../Motor_Control/src/motor_control.c ****     {
 393              		.loc 1 321 5 is_stmt 1 view .LVU76
 321:../Motor_Control/src/motor_control.c ****     {
 394              		.loc 1 321 14 is_stmt 0 view .LVU77
 395 0028 8378     		ldrb	r3, [r0, #2]	@ zero_extendqisi2
 321:../Motor_Control/src/motor_control.c ****     {
 396              		.loc 1 321 8 view .LVU78
 397 002a 13B9     		cbnz	r3, .L24
 323:../Motor_Control/src/motor_control.c ****     } else {
 398              		.loc 1 323 7 is_stmt 1 view .LVU79
 323:../Motor_Control/src/motor_control.c ****     } else {
 399              		.loc 1 323 25 is_stmt 0 view .LVU80
 400 002c 0523     		movs	r3, #5
 401 002e 8370     		strb	r3, [r0, #2]
 402 0030 F6E7     		b	.L23
 403              	.L24:
 325:../Motor_Control/src/motor_control.c ****     }
 404              		.loc 1 325 7 is_stmt 1 view .LVU81
 325:../Motor_Control/src/motor_control.c ****     }
 405              		.loc 1 325 67 is_stmt 0 view .LVU82
 406 0032 013B     		subs	r3, r3, #1
 325:../Motor_Control/src/motor_control.c ****     }
 407              		.loc 1 325 25 view .LVU83
 408 0034 8370     		strb	r3, [r0, #2]
 409 0036 F3E7     		b	.L23
 410              		.cfi_endproc
 411              	.LFE150:
 413              		.section	.text.motor_control_init,"ax",%progbits
 414              		.align	1
 415              		.global	motor_control_init
 416              		.syntax unified
 417              		.thumb
 418              		.thumb_func
 420              	motor_control_init:
 421              	.LVL43:
 422              	.LFB141:
  57:../Motor_Control/src/motor_control.c ****   /* initialize motor parameters */
 423              		.loc 1 57 1 is_stmt 1 view -0
 424              		.cfi_startproc
 425              		@ args = 0, pretend = 0, frame = 0
 426              		@ frame_needed = 0, uses_anonymous_args = 0
  57:../Motor_Control/src/motor_control.c ****   /* initialize motor parameters */
 427              		.loc 1 57 1 is_stmt 0 view .LVU85
 428 0000 10B5     		push	{r4, lr}
 429              	.LCFI2:
 430              		.cfi_def_cfa_offset 8
ARM GAS  C:\Users\10963\AppData\Local\Temp\ccm8kV9q.s 			page 16


 431              		.cfi_offset 4, -8
 432              		.cfi_offset 14, -4
  59:../Motor_Control/src/motor_control.c ****   motor->direction = MOTOR_DIR_CW;
 433              		.loc 1 59 3 is_stmt 1 view .LVU86
  59:../Motor_Control/src/motor_control.c ****   motor->direction = MOTOR_DIR_CW;
 434              		.loc 1 59 16 is_stmt 0 view .LVU87
 435 0002 0021     		movs	r1, #0
 436 0004 0170     		strb	r1, [r0]
  60:../Motor_Control/src/motor_control.c ****   motor->comm_state = COMMUTATION_STATE_1;
 437              		.loc 1 60 3 is_stmt 1 view .LVU88
  60:../Motor_Control/src/motor_control.c ****   motor->comm_state = COMMUTATION_STATE_1;
 438              		.loc 1 60 20 is_stmt 0 view .LVU89
 439 0006 4170     		strb	r1, [r0, #1]
  61:../Motor_Control/src/motor_control.c ****   motor->speed = 0;
 440              		.loc 1 61 3 is_stmt 1 view .LVU90
  61:../Motor_Control/src/motor_control.c ****   motor->speed = 0;
 441              		.loc 1 61 21 is_stmt 0 view .LVU91
 442 0008 8170     		strb	r1, [r0, #2]
  62:../Motor_Control/src/motor_control.c ****   motor->duty_cycle = 0;
 443              		.loc 1 62 3 is_stmt 1 view .LVU92
  62:../Motor_Control/src/motor_control.c ****   motor->duty_cycle = 0;
 444              		.loc 1 62 16 is_stmt 0 view .LVU93
 445 000a 8180     		strh	r1, [r0, #4]	@ movhi
  63:../Motor_Control/src/motor_control.c ****   motor->commutation_interval = 0;
 446              		.loc 1 63 3 is_stmt 1 view .LVU94
  63:../Motor_Control/src/motor_control.c ****   motor->commutation_interval = 0;
 447              		.loc 1 63 21 is_stmt 0 view .LVU95
 448 000c C180     		strh	r1, [r0, #6]	@ movhi
  64:../Motor_Control/src/motor_control.c ****   motor->last_commutation_time = 0;
 449              		.loc 1 64 3 is_stmt 1 view .LVU96
  64:../Motor_Control/src/motor_control.c ****   motor->last_commutation_time = 0;
 450              		.loc 1 64 31 is_stmt 0 view .LVU97
 451 000e 8160     		str	r1, [r0, #8]
  65:../Motor_Control/src/motor_control.c ****   motor->control_mode = 0; /* Default to six-step control */
 452              		.loc 1 65 3 is_stmt 1 view .LVU98
  65:../Motor_Control/src/motor_control.c ****   motor->control_mode = 0; /* Default to six-step control */
 453              		.loc 1 65 32 is_stmt 0 view .LVU99
 454 0010 C160     		str	r1, [r0, #12]
  66:../Motor_Control/src/motor_control.c ****   motor->foc_state = NULL;
 455              		.loc 1 66 3 is_stmt 1 view .LVU100
  66:../Motor_Control/src/motor_control.c ****   motor->foc_state = NULL;
 456              		.loc 1 66 23 is_stmt 0 view .LVU101
 457 0012 4FF00003 		mov	r3, #0	@ movhi
 458 0016 0375     		strb	r3, [r0, #20]
  67:../Motor_Control/src/motor_control.c ****   
 459              		.loc 1 67 3 is_stmt 1 view .LVU102
  67:../Motor_Control/src/motor_control.c ****   
 460              		.loc 1 67 20 is_stmt 0 view .LVU103
 461 0018 0161     		str	r1, [r0, #16]
  70:../Motor_Control/src/motor_control.c ****   tmr_output_channel_mode_select(TMR1, TMR_SELECT_CHANNEL_1C, TMR_OUTPUT_CONTROL_LOW);
 462              		.loc 1 70 3 is_stmt 1 view .LVU104
 463 001a 0F4C     		ldr	r4, .L28
 464 001c 0222     		movs	r2, #2
 465 001e 2046     		mov	r0, r4
 466              	.LVL44:
  70:../Motor_Control/src/motor_control.c ****   tmr_output_channel_mode_select(TMR1, TMR_SELECT_CHANNEL_1C, TMR_OUTPUT_CONTROL_LOW);
 467              		.loc 1 70 3 is_stmt 0 view .LVU105
ARM GAS  C:\Users\10963\AppData\Local\Temp\ccm8kV9q.s 			page 17


 468 0020 FFF7FEFF 		bl	tmr_output_channel_mode_select
 469              	.LVL45:
  71:../Motor_Control/src/motor_control.c ****   tmr_output_channel_mode_select(TMR1, TMR_SELECT_CHANNEL_2, TMR_OUTPUT_CONTROL_LOW);
 470              		.loc 1 71 3 is_stmt 1 view .LVU106
 471 0024 0222     		movs	r2, #2
 472 0026 0121     		movs	r1, #1
 473 0028 2046     		mov	r0, r4
 474 002a FFF7FEFF 		bl	tmr_output_channel_mode_select
 475              	.LVL46:
  72:../Motor_Control/src/motor_control.c ****   tmr_output_channel_mode_select(TMR1, TMR_SELECT_CHANNEL_2C, TMR_OUTPUT_CONTROL_LOW);
 476              		.loc 1 72 3 view .LVU107
 477 002e 0222     		movs	r2, #2
 478 0030 1146     		mov	r1, r2
 479 0032 2046     		mov	r0, r4
 480 0034 FFF7FEFF 		bl	tmr_output_channel_mode_select
 481              	.LVL47:
  73:../Motor_Control/src/motor_control.c ****   tmr_output_channel_mode_select(TMR1, TMR_SELECT_CHANNEL_3, TMR_OUTPUT_CONTROL_LOW);
 482              		.loc 1 73 3 view .LVU108
 483 0038 0222     		movs	r2, #2
 484 003a 0321     		movs	r1, #3
 485 003c 2046     		mov	r0, r4
 486 003e FFF7FEFF 		bl	tmr_output_channel_mode_select
 487              	.LVL48:
  74:../Motor_Control/src/motor_control.c ****   tmr_output_channel_mode_select(TMR1, TMR_SELECT_CHANNEL_3C, TMR_OUTPUT_CONTROL_LOW);
 488              		.loc 1 74 3 view .LVU109
 489 0042 0222     		movs	r2, #2
 490 0044 0421     		movs	r1, #4
 491 0046 2046     		mov	r0, r4
 492 0048 FFF7FEFF 		bl	tmr_output_channel_mode_select
 493              	.LVL49:
  75:../Motor_Control/src/motor_control.c **** }
 494              		.loc 1 75 3 view .LVU110
 495 004c 0222     		movs	r2, #2
 496 004e 0521     		movs	r1, #5
 497 0050 2046     		mov	r0, r4
 498 0052 FFF7FEFF 		bl	tmr_output_channel_mode_select
 499              	.LVL50:
  76:../Motor_Control/src/motor_control.c **** 
 500              		.loc 1 76 1 is_stmt 0 view .LVU111
 501 0056 10BD     		pop	{r4, pc}
 502              	.L29:
 503              		.align	2
 504              	.L28:
 505 0058 002C0140 		.word	1073818624
 506              		.cfi_endproc
 507              	.LFE141:
 509              		.section	.text.motor_foc_init,"ax",%progbits
 510              		.align	1
 511              		.global	motor_foc_init
 512              		.syntax unified
 513              		.thumb
 514              		.thumb_func
 516              	motor_foc_init:
 517              	.LVL51:
 518              	.LFB142:
  84:../Motor_Control/src/motor_control.c ****   /* Allocate FOC state structure */
 519              		.loc 1 84 1 is_stmt 1 view -0
ARM GAS  C:\Users\10963\AppData\Local\Temp\ccm8kV9q.s 			page 18


 520              		.cfi_startproc
 521              		@ args = 0, pretend = 0, frame = 0
 522              		@ frame_needed = 0, uses_anonymous_args = 0
  84:../Motor_Control/src/motor_control.c ****   /* Allocate FOC state structure */
 523              		.loc 1 84 1 is_stmt 0 view .LVU113
 524 0000 10B5     		push	{r4, lr}
 525              	.LCFI3:
 526              		.cfi_def_cfa_offset 8
 527              		.cfi_offset 4, -8
 528              		.cfi_offset 14, -4
 529 0002 0446     		mov	r4, r0
  86:../Motor_Control/src/motor_control.c ****   if (motor->foc_state != NULL)
 530              		.loc 1 86 3 is_stmt 1 view .LVU114
  86:../Motor_Control/src/motor_control.c ****   if (motor->foc_state != NULL)
 531              		.loc 1 86 37 is_stmt 0 view .LVU115
 532 0004 6C20     		movs	r0, #108
 533              	.LVL52:
  86:../Motor_Control/src/motor_control.c ****   if (motor->foc_state != NULL)
 534              		.loc 1 86 37 view .LVU116
 535 0006 FFF7FEFF 		bl	malloc
 536              	.LVL53:
  86:../Motor_Control/src/motor_control.c ****   if (motor->foc_state != NULL)
 537              		.loc 1 86 20 discriminator 1 view .LVU117
 538 000a 2061     		str	r0, [r4, #16]
  87:../Motor_Control/src/motor_control.c ****   {
 539              		.loc 1 87 3 is_stmt 1 view .LVU118
  87:../Motor_Control/src/motor_control.c ****   {
 540              		.loc 1 87 6 is_stmt 0 view .LVU119
 541 000c 18B1     		cbz	r0, .L30
  90:../Motor_Control/src/motor_control.c ****     /* Set control mode to FOC */
 542              		.loc 1 90 5 is_stmt 1 view .LVU120
 543 000e FFF7FEFF 		bl	foc_init
 544              	.LVL54:
  92:../Motor_Control/src/motor_control.c ****   }
 545              		.loc 1 92 5 view .LVU121
  92:../Motor_Control/src/motor_control.c ****   }
 546              		.loc 1 92 25 is_stmt 0 view .LVU122
 547 0012 0123     		movs	r3, #1
 548 0014 2375     		strb	r3, [r4, #20]
 549              	.L30:
  94:../Motor_Control/src/motor_control.c **** 
 550              		.loc 1 94 1 view .LVU123
 551 0016 10BD     		pop	{r4, pc}
  94:../Motor_Control/src/motor_control.c **** 
 552              		.loc 1 94 1 view .LVU124
 553              		.cfi_endproc
 554              	.LFE142:
 556              		.section	.text.motor_foc_control,"ax",%progbits
 557              		.align	1
 558              		.global	motor_foc_control
 559              		.syntax unified
 560              		.thumb
 561              		.thumb_func
 563              	motor_foc_control:
 564              	.LVL55:
 565              	.LFB143:
 104:../Motor_Control/src/motor_control.c ****   if (motor->foc_state != NULL && motor->control_mode == 1)
ARM GAS  C:\Users\10963\AppData\Local\Temp\ccm8kV9q.s 			page 19


 566              		.loc 1 104 1 is_stmt 1 view -0
 567              		.cfi_startproc
 568              		@ args = 0, pretend = 0, frame = 0
 569              		@ frame_needed = 0, uses_anonymous_args = 0
 104:../Motor_Control/src/motor_control.c ****   if (motor->foc_state != NULL && motor->control_mode == 1)
 570              		.loc 1 104 1 is_stmt 0 view .LVU126
 571 0000 08B5     		push	{r3, lr}
 572              	.LCFI4:
 573              		.cfi_def_cfa_offset 8
 574              		.cfi_offset 3, -8
 575              		.cfi_offset 14, -4
 105:../Motor_Control/src/motor_control.c ****   {
 576              		.loc 1 105 3 is_stmt 1 view .LVU127
 105:../Motor_Control/src/motor_control.c ****   {
 577              		.loc 1 105 12 is_stmt 0 view .LVU128
 578 0002 0369     		ldr	r3, [r0, #16]
 105:../Motor_Control/src/motor_control.c ****   {
 579              		.loc 1 105 6 view .LVU129
 580 0004 13B1     		cbz	r3, .L33
 105:../Motor_Control/src/motor_control.c ****   {
 581              		.loc 1 105 40 discriminator 1 view .LVU130
 582 0006 027D     		ldrb	r2, [r0, #20]	@ zero_extendqisi2
 105:../Motor_Control/src/motor_control.c ****   {
 583              		.loc 1 105 32 discriminator 1 view .LVU131
 584 0008 012A     		cmp	r2, #1
 585 000a 00D0     		beq	.L36
 586              	.LVL56:
 587              	.L33:
 110:../Motor_Control/src/motor_control.c **** 
 588              		.loc 1 110 1 view .LVU132
 589 000c 08BD     		pop	{r3, pc}
 590              	.LVL57:
 591              	.L36:
 108:../Motor_Control/src/motor_control.c ****   }
 592              		.loc 1 108 5 is_stmt 1 view .LVU133
 593 000e 1846     		mov	r0, r3
 594              	.LVL58:
 108:../Motor_Control/src/motor_control.c ****   }
 595              		.loc 1 108 5 is_stmt 0 view .LVU134
 596 0010 FFF7FEFF 		bl	foc_control
 597              	.LVL59:
 110:../Motor_Control/src/motor_control.c **** 
 598              		.loc 1 110 1 view .LVU135
 599 0014 FAE7     		b	.L33
 600              		.cfi_endproc
 601              	.LFE143:
 603              		.section	.text.motor_control_process,"ax",%progbits
 604              		.align	1
 605              		.global	motor_control_process
 606              		.syntax unified
 607              		.thumb
 608              		.thumb_func
 610              	motor_control_process:
 611              	.LVL60:
 612              	.LFB144:
 118:../Motor_Control/src/motor_control.c ****   uint32_t current_time;
 613              		.loc 1 118 1 is_stmt 1 view -0
ARM GAS  C:\Users\10963\AppData\Local\Temp\ccm8kV9q.s 			page 20


 614              		.cfi_startproc
 615              		@ args = 0, pretend = 0, frame = 0
 616              		@ frame_needed = 0, uses_anonymous_args = 0
 119:../Motor_Control/src/motor_control.c ****   
 617              		.loc 1 119 3 view .LVU137
 122:../Motor_Control/src/motor_control.c ****   {
 618              		.loc 1 122 3 view .LVU138
 122:../Motor_Control/src/motor_control.c ****   {
 619              		.loc 1 122 12 is_stmt 0 view .LVU139
 620 0000 0378     		ldrb	r3, [r0]	@ zero_extendqisi2
 122:../Motor_Control/src/motor_control.c ****   {
 621              		.loc 1 122 6 view .LVU140
 622 0002 012B     		cmp	r3, #1
 623 0004 00D0     		beq	.L43
 624 0006 7047     		bx	lr
 625              	.L43:
 118:../Motor_Control/src/motor_control.c ****   uint32_t current_time;
 626              		.loc 1 118 1 view .LVU141
 627 0008 10B5     		push	{r4, lr}
 628              	.LCFI5:
 629              		.cfi_def_cfa_offset 8
 630              		.cfi_offset 4, -8
 631              		.cfi_offset 14, -4
 632 000a 0446     		mov	r4, r0
 124:../Motor_Control/src/motor_control.c ****     {
 633              		.loc 1 124 5 is_stmt 1 view .LVU142
 124:../Motor_Control/src/motor_control.c ****     {
 634              		.loc 1 124 14 is_stmt 0 view .LVU143
 635 000c 037D     		ldrb	r3, [r0, #20]	@ zero_extendqisi2
 124:../Motor_Control/src/motor_control.c ****     {
 636              		.loc 1 124 8 view .LVU144
 637 000e 03B1     		cbz	r3, .L44
 638              	.LVL61:
 639              	.L37:
 147:../Motor_Control/src/motor_control.c **** 
 640              		.loc 1 147 1 view .LVU145
 641 0010 10BD     		pop	{r4, pc}
 642              	.LVL62:
 643              	.L44:
 128:../Motor_Control/src/motor_control.c ****       
 644              		.loc 1 128 7 is_stmt 1 view .LVU146
 128:../Motor_Control/src/motor_control.c ****       
 645              		.loc 1 128 22 is_stmt 0 view .LVU147
 646 0012 FFF7FEFF 		bl	wk_timebase_get
 647              	.LVL63:
 131:../Motor_Control/src/motor_control.c ****       {
 648              		.loc 1 131 7 is_stmt 1 view .LVU148
 131:../Motor_Control/src/motor_control.c ****       {
 649              		.loc 1 131 31 is_stmt 0 view .LVU149
 650 0016 E368     		ldr	r3, [r4, #12]
 131:../Motor_Control/src/motor_control.c ****       {
 651              		.loc 1 131 24 view .LVU150
 652 0018 C31A     		subs	r3, r0, r3
 131:../Motor_Control/src/motor_control.c ****       {
 653              		.loc 1 131 63 view .LVU151
 654 001a A268     		ldr	r2, [r4, #8]
 131:../Motor_Control/src/motor_control.c ****       {
ARM GAS  C:\Users\10963\AppData\Local\Temp\ccm8kV9q.s 			page 21


 655              		.loc 1 131 10 view .LVU152
 656 001c 9342     		cmp	r3, r2
 657 001e F7D3     		bcc	.L37
 134:../Motor_Control/src/motor_control.c ****         
 658              		.loc 1 134 9 is_stmt 1 view .LVU153
 134:../Motor_Control/src/motor_control.c ****         
 659              		.loc 1 134 38 is_stmt 0 view .LVU154
 660 0020 E060     		str	r0, [r4, #12]
 137:../Motor_Control/src/motor_control.c ****       }
 661              		.loc 1 137 9 is_stmt 1 view .LVU155
 662 0022 2046     		mov	r0, r4
 663              	.LVL64:
 137:../Motor_Control/src/motor_control.c ****       }
 664              		.loc 1 137 9 is_stmt 0 view .LVU156
 665 0024 FFF7FEFF 		bl	motor_next_commutation_state
 666              	.LVL65:
 145:../Motor_Control/src/motor_control.c ****   }
 667              		.loc 1 145 5 is_stmt 1 view .LVU157
 147:../Motor_Control/src/motor_control.c **** 
 668              		.loc 1 147 1 is_stmt 0 view .LVU158
 669 0028 F2E7     		b	.L37
 670              		.cfi_endproc
 671              	.LFE144:
 673              		.section	.text.motor_start,"ax",%progbits
 674              		.align	1
 675              		.global	motor_start
 676              		.syntax unified
 677              		.thumb
 678              		.thumb_func
 680              	motor_start:
 681              	.LVL66:
 682              	.LFB145:
 157:../Motor_Control/src/motor_control.c ****   /* set motor parameters */
 683              		.loc 1 157 1 is_stmt 1 view -0
 684              		.cfi_startproc
 685              		@ args = 0, pretend = 0, frame = 0
 686              		@ frame_needed = 0, uses_anonymous_args = 0
 157:../Motor_Control/src/motor_control.c ****   /* set motor parameters */
 687              		.loc 1 157 1 is_stmt 0 view .LVU160
 688 0000 70B5     		push	{r4, r5, r6, lr}
 689              	.LCFI6:
 690              		.cfi_def_cfa_offset 16
 691              		.cfi_offset 4, -16
 692              		.cfi_offset 5, -12
 693              		.cfi_offset 6, -8
 694              		.cfi_offset 14, -4
 695 0002 0446     		mov	r4, r0
 696 0004 0846     		mov	r0, r1
 697              	.LVL67:
 159:../Motor_Control/src/motor_control.c ****   motor->direction = direction;
 698              		.loc 1 159 3 is_stmt 1 view .LVU161
 159:../Motor_Control/src/motor_control.c ****   motor->direction = direction;
 699              		.loc 1 159 16 is_stmt 0 view .LVU162
 700 0006 A180     		strh	r1, [r4, #4]	@ movhi
 160:../Motor_Control/src/motor_control.c ****   motor->duty_cycle = 250; /* Set initial duty cycle to 250 */
 701              		.loc 1 160 3 is_stmt 1 view .LVU163
 160:../Motor_Control/src/motor_control.c ****   motor->duty_cycle = 250; /* Set initial duty cycle to 250 */
ARM GAS  C:\Users\10963\AppData\Local\Temp\ccm8kV9q.s 			page 22


 702              		.loc 1 160 20 is_stmt 0 view .LVU164
 703 0008 6270     		strb	r2, [r4, #1]
 161:../Motor_Control/src/motor_control.c ****   motor->commutation_interval = calculate_commutation_interval(speed);
 704              		.loc 1 161 3 is_stmt 1 view .LVU165
 161:../Motor_Control/src/motor_control.c ****   motor->commutation_interval = calculate_commutation_interval(speed);
 705              		.loc 1 161 21 is_stmt 0 view .LVU166
 706 000a FA25     		movs	r5, #250
 707 000c E580     		strh	r5, [r4, #6]	@ movhi
 162:../Motor_Control/src/motor_control.c ****   motor->last_commutation_time = wk_timebase_get();
 708              		.loc 1 162 3 is_stmt 1 view .LVU167
 162:../Motor_Control/src/motor_control.c ****   motor->last_commutation_time = wk_timebase_get();
 709              		.loc 1 162 33 is_stmt 0 view .LVU168
 710 000e FFF7FEFF 		bl	calculate_commutation_interval
 711              	.LVL68:
 162:../Motor_Control/src/motor_control.c ****   motor->last_commutation_time = wk_timebase_get();
 712              		.loc 1 162 31 discriminator 1 view .LVU169
 713 0012 A060     		str	r0, [r4, #8]
 163:../Motor_Control/src/motor_control.c ****   motor->state = MOTOR_STATE_RUNNING;
 714              		.loc 1 163 3 is_stmt 1 view .LVU170
 163:../Motor_Control/src/motor_control.c ****   motor->state = MOTOR_STATE_RUNNING;
 715              		.loc 1 163 34 is_stmt 0 view .LVU171
 716 0014 FFF7FEFF 		bl	wk_timebase_get
 717              	.LVL69:
 163:../Motor_Control/src/motor_control.c ****   motor->state = MOTOR_STATE_RUNNING;
 718              		.loc 1 163 32 discriminator 1 view .LVU172
 719 0018 E060     		str	r0, [r4, #12]
 164:../Motor_Control/src/motor_control.c ****   
 720              		.loc 1 164 3 is_stmt 1 view .LVU173
 164:../Motor_Control/src/motor_control.c ****   
 721              		.loc 1 164 16 is_stmt 0 view .LVU174
 722 001a 0123     		movs	r3, #1
 723 001c 2370     		strb	r3, [r4]
 167:../Motor_Control/src/motor_control.c ****   motor_set_commutation_state(motor, motor->comm_state);
 724              		.loc 1 167 3 is_stmt 1 view .LVU175
 167:../Motor_Control/src/motor_control.c ****   motor_set_commutation_state(motor, motor->comm_state);
 725              		.loc 1 167 21 is_stmt 0 view .LVU176
 726 001e 3226     		movs	r6, #50
 727 0020 E680     		strh	r6, [r4, #6]	@ movhi
 168:../Motor_Control/src/motor_control.c ****   
 728              		.loc 1 168 3 is_stmt 1 view .LVU177
 729 0022 A178     		ldrb	r1, [r4, #2]	@ zero_extendqisi2
 730 0024 2046     		mov	r0, r4
 731 0026 FFF7FEFF 		bl	motor_set_commutation_state
 732              	.LVL70:
 171:../Motor_Control/src/motor_control.c ****   
 733              		.loc 1 171 3 view .LVU178
 734 002a 3046     		mov	r0, r6
 735 002c FFF7FEFF 		bl	vTaskDelay
 736              	.LVL71:
 174:../Motor_Control/src/motor_control.c ****   motor_set_commutation_state(motor, motor->comm_state);
 737              		.loc 1 174 3 view .LVU179
 174:../Motor_Control/src/motor_control.c ****   motor_set_commutation_state(motor, motor->comm_state);
 738              		.loc 1 174 21 is_stmt 0 view .LVU180
 739 0030 E580     		strh	r5, [r4, #6]	@ movhi
 175:../Motor_Control/src/motor_control.c **** }
 740              		.loc 1 175 3 is_stmt 1 view .LVU181
 741 0032 A178     		ldrb	r1, [r4, #2]	@ zero_extendqisi2
ARM GAS  C:\Users\10963\AppData\Local\Temp\ccm8kV9q.s 			page 23


 742 0034 2046     		mov	r0, r4
 743 0036 FFF7FEFF 		bl	motor_set_commutation_state
 744              	.LVL72:
 176:../Motor_Control/src/motor_control.c **** 
 745              		.loc 1 176 1 is_stmt 0 view .LVU182
 746 003a 70BD     		pop	{r4, r5, r6, pc}
 176:../Motor_Control/src/motor_control.c **** 
 747              		.loc 1 176 1 view .LVU183
 748              		.cfi_endproc
 749              	.LFE145:
 751              		.section	.text.motor_stop,"ax",%progbits
 752              		.align	1
 753              		.global	motor_stop
 754              		.syntax unified
 755              		.thumb
 756              		.thumb_func
 758              	motor_stop:
 759              	.LVL73:
 760              	.LFB146:
 184:../Motor_Control/src/motor_control.c ****   /* set all outputs to low */
 761              		.loc 1 184 1 is_stmt 1 view -0
 762              		.cfi_startproc
 763              		@ args = 0, pretend = 0, frame = 0
 764              		@ frame_needed = 0, uses_anonymous_args = 0
 184:../Motor_Control/src/motor_control.c ****   /* set all outputs to low */
 765              		.loc 1 184 1 is_stmt 0 view .LVU185
 766 0000 38B5     		push	{r3, r4, r5, lr}
 767              	.LCFI7:
 768              		.cfi_def_cfa_offset 16
 769              		.cfi_offset 3, -16
 770              		.cfi_offset 4, -12
 771              		.cfi_offset 5, -8
 772              		.cfi_offset 14, -4
 773 0002 0446     		mov	r4, r0
 186:../Motor_Control/src/motor_control.c ****   tmr_channel_value_set(TMR1, TMR_SELECT_CHANNEL_2, 0);
 774              		.loc 1 186 3 is_stmt 1 view .LVU186
 775 0004 0A4D     		ldr	r5, .L49
 776 0006 0022     		movs	r2, #0
 777 0008 1146     		mov	r1, r2
 778 000a 2846     		mov	r0, r5
 779              	.LVL74:
 186:../Motor_Control/src/motor_control.c ****   tmr_channel_value_set(TMR1, TMR_SELECT_CHANNEL_2, 0);
 780              		.loc 1 186 3 is_stmt 0 view .LVU187
 781 000c FFF7FEFF 		bl	tmr_channel_value_set
 782              	.LVL75:
 187:../Motor_Control/src/motor_control.c ****   tmr_channel_value_set(TMR1, TMR_SELECT_CHANNEL_3, 0);
 783              		.loc 1 187 3 is_stmt 1 view .LVU188
 784 0010 0022     		movs	r2, #0
 785 0012 0221     		movs	r1, #2
 786 0014 2846     		mov	r0, r5
 787 0016 FFF7FEFF 		bl	tmr_channel_value_set
 788              	.LVL76:
 188:../Motor_Control/src/motor_control.c ****   
 789              		.loc 1 188 3 view .LVU189
 790 001a 0022     		movs	r2, #0
 791 001c 0421     		movs	r1, #4
 792 001e 2846     		mov	r0, r5
ARM GAS  C:\Users\10963\AppData\Local\Temp\ccm8kV9q.s 			page 24


 793 0020 FFF7FEFF 		bl	tmr_channel_value_set
 794              	.LVL77:
 191:../Motor_Control/src/motor_control.c ****   motor->speed = 0;
 795              		.loc 1 191 3 view .LVU190
 191:../Motor_Control/src/motor_control.c ****   motor->speed = 0;
 796              		.loc 1 191 16 is_stmt 0 view .LVU191
 797 0024 0023     		movs	r3, #0
 798 0026 2370     		strb	r3, [r4]
 192:../Motor_Control/src/motor_control.c ****   motor->duty_cycle = 0;
 799              		.loc 1 192 3 is_stmt 1 view .LVU192
 192:../Motor_Control/src/motor_control.c ****   motor->duty_cycle = 0;
 800              		.loc 1 192 16 is_stmt 0 view .LVU193
 801 0028 A380     		strh	r3, [r4, #4]	@ movhi
 193:../Motor_Control/src/motor_control.c **** }
 802              		.loc 1 193 3 is_stmt 1 view .LVU194
 193:../Motor_Control/src/motor_control.c **** }
 803              		.loc 1 193 21 is_stmt 0 view .LVU195
 804 002a E380     		strh	r3, [r4, #6]	@ movhi
 194:../Motor_Control/src/motor_control.c **** 
 805              		.loc 1 194 1 view .LVU196
 806 002c 38BD     		pop	{r3, r4, r5, pc}
 807              	.LVL78:
 808              	.L50:
 194:../Motor_Control/src/motor_control.c **** 
 809              		.loc 1 194 1 view .LVU197
 810 002e 00BF     		.align	2
 811              	.L49:
 812 0030 002C0140 		.word	1073818624
 813              		.cfi_endproc
 814              	.LFE146:
 816              		.section	.text.motor_set_speed,"ax",%progbits
 817              		.align	1
 818              		.global	motor_set_speed
 819              		.syntax unified
 820              		.thumb
 821              		.thumb_func
 823              	motor_set_speed:
 824              	.LVL79:
 825              	.LFB147:
 203:../Motor_Control/src/motor_control.c ****   motor->speed = speed;
 826              		.loc 1 203 1 is_stmt 1 view -0
 827              		.cfi_startproc
 828              		@ args = 0, pretend = 0, frame = 0
 829              		@ frame_needed = 0, uses_anonymous_args = 0
 203:../Motor_Control/src/motor_control.c ****   motor->speed = speed;
 830              		.loc 1 203 1 is_stmt 0 view .LVU199
 831 0000 10B5     		push	{r4, lr}
 832              	.LCFI8:
 833              		.cfi_def_cfa_offset 8
 834              		.cfi_offset 4, -8
 835              		.cfi_offset 14, -4
 836 0002 0446     		mov	r4, r0
 837 0004 0846     		mov	r0, r1
 838              	.LVL80:
 204:../Motor_Control/src/motor_control.c ****   motor->commutation_interval = calculate_commutation_interval(speed);
 839              		.loc 1 204 3 is_stmt 1 view .LVU200
 204:../Motor_Control/src/motor_control.c ****   motor->commutation_interval = calculate_commutation_interval(speed);
ARM GAS  C:\Users\10963\AppData\Local\Temp\ccm8kV9q.s 			page 25


 840              		.loc 1 204 16 is_stmt 0 view .LVU201
 841 0006 A180     		strh	r1, [r4, #4]	@ movhi
 205:../Motor_Control/src/motor_control.c **** }
 842              		.loc 1 205 3 is_stmt 1 view .LVU202
 205:../Motor_Control/src/motor_control.c **** }
 843              		.loc 1 205 33 is_stmt 0 view .LVU203
 844 0008 FFF7FEFF 		bl	calculate_commutation_interval
 845              	.LVL81:
 205:../Motor_Control/src/motor_control.c **** }
 846              		.loc 1 205 31 discriminator 1 view .LVU204
 847 000c A060     		str	r0, [r4, #8]
 206:../Motor_Control/src/motor_control.c **** 
 848              		.loc 1 206 1 view .LVU205
 849 000e 10BD     		pop	{r4, pc}
 206:../Motor_Control/src/motor_control.c **** 
 850              		.loc 1 206 1 view .LVU206
 851              		.cfi_endproc
 852              	.LFE147:
 854              		.section	.text.motor_set_duty_cycle,"ax",%progbits
 855              		.align	1
 856              		.global	motor_set_duty_cycle
 857              		.syntax unified
 858              		.thumb
 859              		.thumb_func
 861              	motor_set_duty_cycle:
 862              	.LVL82:
 863              	.LFB148:
 215:../Motor_Control/src/motor_control.c ****   /* limit duty cycle */
 864              		.loc 1 215 1 is_stmt 1 view -0
 865              		.cfi_startproc
 866              		@ args = 0, pretend = 0, frame = 0
 867              		@ frame_needed = 0, uses_anonymous_args = 0
 215:../Motor_Control/src/motor_control.c ****   /* limit duty cycle */
 868              		.loc 1 215 1 is_stmt 0 view .LVU208
 869 0000 08B5     		push	{r3, lr}
 870              	.LCFI9:
 871              		.cfi_def_cfa_offset 8
 872              		.cfi_offset 3, -8
 873              		.cfi_offset 14, -4
 217:../Motor_Control/src/motor_control.c ****   {
 874              		.loc 1 217 3 is_stmt 1 view .LVU209
 217:../Motor_Control/src/motor_control.c ****   {
 875              		.loc 1 217 6 is_stmt 0 view .LVU210
 876 0002 B1F52F7F 		cmp	r1, #700
 877 0006 03D8     		bhi	.L55
 221:../Motor_Control/src/motor_control.c ****   {
 878              		.loc 1 221 8 is_stmt 1 view .LVU211
 221:../Motor_Control/src/motor_control.c ****   {
 879              		.loc 1 221 11 is_stmt 0 view .LVU212
 880 0008 3129     		cmp	r1, #49
 881 000a 03D8     		bhi	.L54
 223:../Motor_Control/src/motor_control.c ****   }
 882              		.loc 1 223 16 view .LVU213
 883 000c 3221     		movs	r1, #50
 884              	.LVL83:
 223:../Motor_Control/src/motor_control.c ****   }
 885              		.loc 1 223 16 view .LVU214
ARM GAS  C:\Users\10963\AppData\Local\Temp\ccm8kV9q.s 			page 26


 886 000e 01E0     		b	.L54
 887              	.LVL84:
 888              	.L55:
 219:../Motor_Control/src/motor_control.c ****   }
 889              		.loc 1 219 16 view .LVU215
 890 0010 4FF42F71 		mov	r1, #700
 891              	.LVL85:
 892              	.L54:
 226:../Motor_Control/src/motor_control.c ****   
 893              		.loc 1 226 3 is_stmt 1 view .LVU216
 226:../Motor_Control/src/motor_control.c ****   
 894              		.loc 1 226 21 is_stmt 0 view .LVU217
 895 0014 C180     		strh	r1, [r0, #6]	@ movhi
 229:../Motor_Control/src/motor_control.c **** }
 896              		.loc 1 229 3 is_stmt 1 view .LVU218
 897 0016 8178     		ldrb	r1, [r0, #2]	@ zero_extendqisi2
 898              	.LVL86:
 229:../Motor_Control/src/motor_control.c **** }
 899              		.loc 1 229 3 is_stmt 0 view .LVU219
 900 0018 FFF7FEFF 		bl	motor_set_commutation_state
 901              	.LVL87:
 230:../Motor_Control/src/motor_control.c **** 
 902              		.loc 1 230 1 view .LVU220
 903 001c 08BD     		pop	{r3, pc}
 904              		.cfi_endproc
 905              	.LFE148:
 907              		.text
 908              	.Letext0:
 909              		.file 2 "C:/Program Files (x86)/Arm/GNU Toolchain mingw-w64-i686-arm-none-eabi/arm-none-eabi/inclu
 910              		.file 3 "C:/Program Files (x86)/Arm/GNU Toolchain mingw-w64-i686-arm-none-eabi/arm-none-eabi/inclu
 911              		.file 4 "libraries/drivers/inc/at32f403a_407_tmr.h"
 912              		.file 5 "../Motor_Control/inc/motor_params.h"
 913              		.file 6 "../Motor_Control/inc/foc.h"
 914              		.file 7 "middlewares/freertos/source/portable/GCC/ARM_CM4F/portmacro.h"
 915              		.file 8 "middlewares/freertos/source/include/task.h"
 916              		.file 9 "C:/Program Files (x86)/Arm/GNU Toolchain mingw-w64-i686-arm-none-eabi/arm-none-eabi/inclu
ARM GAS  C:\Users\10963\AppData\Local\Temp\ccm8kV9q.s 			page 27


DEFINED SYMBOLS
                            *ABS*:00000000 motor_control.c
C:\Users\10963\AppData\Local\Temp\ccm8kV9q.s:21     .text.calculate_commutation_interval:00000000 $t
C:\Users\10963\AppData\Local\Temp\ccm8kV9q.s:26     .text.calculate_commutation_interval:00000000 calculate_commutation_interval
C:\Users\10963\AppData\Local\Temp\ccm8kV9q.s:82     .text.calculate_commutation_interval:0000004c $d
C:\Users\10963\AppData\Local\Temp\ccm8kV9q.s:87     .text.motor_set_commutation_state:00000000 $t
C:\Users\10963\AppData\Local\Temp\ccm8kV9q.s:92     .text.motor_set_commutation_state:00000000 motor_set_commutation_state
C:\Users\10963\AppData\Local\Temp\ccm8kV9q.s:343    .text.motor_set_commutation_state:00000168 $d
C:\Users\10963\AppData\Local\Temp\ccm8kV9q.s:348    .text.motor_next_commutation_state:00000000 $t
C:\Users\10963\AppData\Local\Temp\ccm8kV9q.s:353    .text.motor_next_commutation_state:00000000 motor_next_commutation_state
C:\Users\10963\AppData\Local\Temp\ccm8kV9q.s:414    .text.motor_control_init:00000000 $t
C:\Users\10963\AppData\Local\Temp\ccm8kV9q.s:420    .text.motor_control_init:00000000 motor_control_init
C:\Users\10963\AppData\Local\Temp\ccm8kV9q.s:505    .text.motor_control_init:00000058 $d
C:\Users\10963\AppData\Local\Temp\ccm8kV9q.s:510    .text.motor_foc_init:00000000 $t
C:\Users\10963\AppData\Local\Temp\ccm8kV9q.s:516    .text.motor_foc_init:00000000 motor_foc_init
C:\Users\10963\AppData\Local\Temp\ccm8kV9q.s:557    .text.motor_foc_control:00000000 $t
C:\Users\10963\AppData\Local\Temp\ccm8kV9q.s:563    .text.motor_foc_control:00000000 motor_foc_control
C:\Users\10963\AppData\Local\Temp\ccm8kV9q.s:604    .text.motor_control_process:00000000 $t
C:\Users\10963\AppData\Local\Temp\ccm8kV9q.s:610    .text.motor_control_process:00000000 motor_control_process
C:\Users\10963\AppData\Local\Temp\ccm8kV9q.s:674    .text.motor_start:00000000 $t
C:\Users\10963\AppData\Local\Temp\ccm8kV9q.s:680    .text.motor_start:00000000 motor_start
C:\Users\10963\AppData\Local\Temp\ccm8kV9q.s:752    .text.motor_stop:00000000 $t
C:\Users\10963\AppData\Local\Temp\ccm8kV9q.s:758    .text.motor_stop:00000000 motor_stop
C:\Users\10963\AppData\Local\Temp\ccm8kV9q.s:812    .text.motor_stop:00000030 $d
C:\Users\10963\AppData\Local\Temp\ccm8kV9q.s:817    .text.motor_set_speed:00000000 $t
C:\Users\10963\AppData\Local\Temp\ccm8kV9q.s:823    .text.motor_set_speed:00000000 motor_set_speed
C:\Users\10963\AppData\Local\Temp\ccm8kV9q.s:855    .text.motor_set_duty_cycle:00000000 $t
C:\Users\10963\AppData\Local\Temp\ccm8kV9q.s:861    .text.motor_set_duty_cycle:00000000 motor_set_duty_cycle

UNDEFINED SYMBOLS
tmr_output_channel_mode_select
tmr_channel_value_set
malloc
foc_init
foc_control
wk_timebase_get
vTaskDelay
