ARM GAS  C:\Users\10963\AppData\Local\Temp\cc6IUeV7.s 			page 1


   1              		.cpu cortex-m4
   2              		.arch armv7e-m
   3              		.fpu fpv4-sp-d16
   4              		.eabi_attribute 27, 1
   5              		.eabi_attribute 28, 1
   6              		.eabi_attribute 20, 1
   7              		.eabi_attribute 21, 1
   8              		.eabi_attribute 23, 3
   9              		.eabi_attribute 24, 1
  10              		.eabi_attribute 25, 1
  11              		.eabi_attribute 26, 1
  12              		.eabi_attribute 30, 1
  13              		.eabi_attribute 34, 1
  14              		.eabi_attribute 18, 4
  15              		.file	"rtc.c"
  16              		.text
  17              	.Ltext0:
  18              		.cfi_sections	.debug_frame
  19              		.file 1 "project/src/rtc.c"
  20              		.section	.text.is_leap_year,"ax",%progbits
  21              		.align	1
  22              		.global	is_leap_year
  23              		.syntax unified
  24              		.thumb
  25              		.thumb_func
  27              	is_leap_year:
  28              	.LVL0:
  29              	.LFB135:
   1:project/src/rtc.c **** /**
   2:project/src/rtc.c ****   **************************************************************************
   3:project/src/rtc.c ****   * @file     rtc.c
   4:project/src/rtc.c ****   * @brief    this file provides template for calendar api.
   5:project/src/rtc.c ****   **************************************************************************
   6:project/src/rtc.c ****   * Copyright (c) 2025, Artery Technology, All rights reserved.
   7:project/src/rtc.c ****   *
   8:project/src/rtc.c ****   * The software Board Support Package (BSP) that is made available to
   9:project/src/rtc.c ****   * download from Artery official website is the copyrighted work of Artery.
  10:project/src/rtc.c ****   * Artery authorizes customers to use, copy, and distribute the BSP
  11:project/src/rtc.c ****   * software and its related documentation for the purpose of design and
  12:project/src/rtc.c ****   * development in conjunction with Artery microcontrollers. Use of the
  13:project/src/rtc.c ****   * software is governed by this copyright notice and the following disclaimer.
  14:project/src/rtc.c ****   *
  15:project/src/rtc.c ****   * THIS SOFTWARE IS PROVIDED ON "AS IS" BASIS WITHOUT WARRANTIES,
  16:project/src/rtc.c ****   * GUARANTEES OR REPRESENTATIONS OF ANY KIND. ARTERY EXPRESSLY DISCLAIMS,
  17:project/src/rtc.c ****   * TO THE FULLEST EXTENT PERMITTED BY LAW, ALL EXPRESS, IMPLIED OR
  18:project/src/rtc.c ****   * STATUTORY OR OTHER WARRANTIES, GUARANTEES OR REPRESENTATIONS,
  19:project/src/rtc.c ****   * INCLUDING BUT NOT LIMITED TO, THE IMPLIED WARRANTIES OF MERCHANTABILITY,
  20:project/src/rtc.c ****   * FITNESS FOR A PARTICULAR PURPOSE, OR NON-INFRINGEMENT.
  21:project/src/rtc.c ****   *
  22:project/src/rtc.c ****   **************************************************************************
  23:project/src/rtc.c ****   */
  24:project/src/rtc.c **** 
  25:project/src/rtc.c **** #include "rtc.h"
  26:project/src/rtc.c **** 
  27:project/src/rtc.c **** /** @addtogroup AT32F403A_F407_periph_examples
  28:project/src/rtc.c ****   * @{
  29:project/src/rtc.c ****   */
ARM GAS  C:\Users\10963\AppData\Local\Temp\cc6IUeV7.s 			page 2


  30:project/src/rtc.c **** 
  31:project/src/rtc.c **** /** @addtogroup F403A_F407_RTC_calendar
  32:project/src/rtc.c ****   * @{
  33:project/src/rtc.c ****   */
  34:project/src/rtc.c **** 
  35:project/src/rtc.c **** calendar_type calendar;
  36:project/src/rtc.c **** 
  37:project/src/rtc.c **** /* monthly correction data sheet */
  38:project/src/rtc.c **** const uint8_t table_week[12] = {0, 3, 3, 6, 1, 4, 6, 2, 5, 0, 3, 5};
  39:project/src/rtc.c **** 
  40:project/src/rtc.c **** /* monmonth data table of common year */
  41:project/src/rtc.c **** const uint8_t mon_table[12] = {31, 28, 31, 30, 31, 30, 31, 31, 30, 31, 30, 31};
  42:project/src/rtc.c **** 
  43:project/src/rtc.c **** /**
  44:project/src/rtc.c ****   * @brief  rtc peripheral initialization.
  45:project/src/rtc.c ****   * @param  calendar
  46:project/src/rtc.c ****   * @retval 0: rtc already init
  47:project/src/rtc.c ****             1: rtc init
  48:project/src/rtc.c ****   */
  49:project/src/rtc.c **** uint8_t rtc_init(calendar_type *calendar)
  50:project/src/rtc.c **** {
  51:project/src/rtc.c ****   /* enable pwc and bpr clocks */
  52:project/src/rtc.c ****   crm_periph_clock_enable(CRM_PWC_PERIPH_CLOCK, TRUE);
  53:project/src/rtc.c ****   crm_periph_clock_enable(CRM_BPR_PERIPH_CLOCK, TRUE);
  54:project/src/rtc.c **** 
  55:project/src/rtc.c ****   /* enable the battery-powered domain write operations */
  56:project/src/rtc.c ****   pwc_battery_powered_domain_access(TRUE);
  57:project/src/rtc.c **** 
  58:project/src/rtc.c ****   /* check if rtc is initialized */
  59:project/src/rtc.c ****   if(bpr_data_read(BPR_DATA1) != 0x1234)
  60:project/src/rtc.c ****   {
  61:project/src/rtc.c ****     /* reset battery-powered domain register */
  62:project/src/rtc.c ****     bpr_reset();
  63:project/src/rtc.c **** 
  64:project/src/rtc.c ****     /* enable the lext osc */
  65:project/src/rtc.c ****     crm_clock_source_enable(CRM_CLOCK_SOURCE_LEXT, TRUE);
  66:project/src/rtc.c ****     /* wait lext is ready */
  67:project/src/rtc.c ****     while(crm_flag_get(CRM_LEXT_STABLE_FLAG) == RESET);
  68:project/src/rtc.c ****     /* select the rtc clock source */
  69:project/src/rtc.c ****     crm_rtc_clock_select(CRM_RTC_CLOCK_LEXT);
  70:project/src/rtc.c **** 
  71:project/src/rtc.c ****     /* enable rtc clock */
  72:project/src/rtc.c ****     crm_rtc_clock_enable(TRUE);
  73:project/src/rtc.c **** 
  74:project/src/rtc.c ****     /* wait for rtc registers update */
  75:project/src/rtc.c ****     rtc_wait_update_finish();
  76:project/src/rtc.c **** 
  77:project/src/rtc.c ****     /* wait for the register write to complete */
  78:project/src/rtc.c ****     rtc_wait_config_finish();
  79:project/src/rtc.c **** 
  80:project/src/rtc.c ****     /* set rtc divider: set rtc period to 1sec */
  81:project/src/rtc.c ****     rtc_divider_set(32767);
  82:project/src/rtc.c **** 
  83:project/src/rtc.c ****     /* wait for the register write to complete */
  84:project/src/rtc.c ****     rtc_wait_config_finish();
  85:project/src/rtc.c **** 
  86:project/src/rtc.c ****     /* set time */
ARM GAS  C:\Users\10963\AppData\Local\Temp\cc6IUeV7.s 			page 3


  87:project/src/rtc.c ****     rtc_time_set(calendar);
  88:project/src/rtc.c **** 
  89:project/src/rtc.c ****     /* writes data to bpr register */
  90:project/src/rtc.c ****     bpr_data_write(BPR_DATA1, 0x1234);
  91:project/src/rtc.c **** 
  92:project/src/rtc.c ****     return 1;
  93:project/src/rtc.c ****   }
  94:project/src/rtc.c ****   else
  95:project/src/rtc.c ****   {
  96:project/src/rtc.c ****     /* wait for rtc registers update */
  97:project/src/rtc.c ****     rtc_wait_update_finish();
  98:project/src/rtc.c **** 
  99:project/src/rtc.c ****     /* wait for the register write to complete */
 100:project/src/rtc.c ****     rtc_wait_config_finish();
 101:project/src/rtc.c **** 
 102:project/src/rtc.c ****     return 0;
 103:project/src/rtc.c ****   }
 104:project/src/rtc.c **** }
 105:project/src/rtc.c **** 
 106:project/src/rtc.c **** /**
 107:project/src/rtc.c ****   * @brief  judeg the leap year or common year.
 108:project/src/rtc.c ****   *         - month       1  2  3  4  5  6  7  8  9  10 11 12
 109:project/src/rtc.c ****   *         - leap year   31 29 31 30 31 30 31 31 30 31 30 31
 110:project/src/rtc.c ****   *         - common year 31 28 31 30 31 30 31 31 30 31 30 31
 111:project/src/rtc.c ****   * @param  year
 112:project/src/rtc.c ****   * @retval 1: leap year
 113:project/src/rtc.c ****             2: common year
 114:project/src/rtc.c ****   */
 115:project/src/rtc.c **** uint8_t is_leap_year(uint16_t year)
 116:project/src/rtc.c **** {
  30              		.loc 1 116 1 view -0
  31              		.cfi_startproc
  32              		@ args = 0, pretend = 0, frame = 0
  33              		@ frame_needed = 0, uses_anonymous_args = 0
  34              		@ link register save eliminated.
 117:project/src/rtc.c ****   if(year % 4 == 0)
  35              		.loc 1 117 3 view .LVU1
  36              		.loc 1 117 5 is_stmt 0 view .LVU2
  37 0000 10F0030F 		tst	r0, #3
  38 0004 14D1     		bne	.L3
 118:project/src/rtc.c ****   {
 119:project/src/rtc.c ****     if(year % 100 == 0)
  39              		.loc 1 119 5 is_stmt 1 view .LVU3
  40              		.loc 1 119 19 is_stmt 0 view .LVU4
  41 0006 0D4B     		ldr	r3, .L6
  42 0008 A3FB0023 		umull	r2, r3, r3, r0
  43 000c 5B09     		lsrs	r3, r3, #5
  44 000e 6422     		movs	r2, #100
  45 0010 02FB1303 		mls	r3, r2, r3, r0
  46 0014 9BB2     		uxth	r3, r3
  47              		.loc 1 119 7 view .LVU5
  48 0016 6BB9     		cbnz	r3, .L4
 120:project/src/rtc.c ****     {
 121:project/src/rtc.c ****       if(year % 400 == 0)
  49              		.loc 1 121 7 is_stmt 1 view .LVU6
  50              		.loc 1 121 21 is_stmt 0 view .LVU7
  51 0018 084B     		ldr	r3, .L6
ARM GAS  C:\Users\10963\AppData\Local\Temp\cc6IUeV7.s 			page 4


  52 001a A3FB0023 		umull	r2, r3, r3, r0
  53 001e DB09     		lsrs	r3, r3, #7
  54 0020 4FF4C872 		mov	r2, #400
  55 0024 02FB1300 		mls	r0, r2, r3, r0
  56              	.LVL1:
  57              		.loc 1 121 21 view .LVU8
  58 0028 80B2     		uxth	r0, r0
  59              		.loc 1 121 9 view .LVU9
  60 002a 28B9     		cbnz	r0, .L5
 122:project/src/rtc.c ****       {
 123:project/src/rtc.c ****         return 1;
  61              		.loc 1 123 16 view .LVU10
  62 002c 0120     		movs	r0, #1
  63 002e 7047     		bx	lr
  64              	.LVL2:
  65              	.L3:
 124:project/src/rtc.c ****       }
 125:project/src/rtc.c ****       else
 126:project/src/rtc.c ****       {
 127:project/src/rtc.c ****         return 0;
 128:project/src/rtc.c ****       }
 129:project/src/rtc.c ****     }
 130:project/src/rtc.c ****     else
 131:project/src/rtc.c ****     {
 132:project/src/rtc.c ****       return 1;
 133:project/src/rtc.c ****     }
 134:project/src/rtc.c ****   }
 135:project/src/rtc.c ****   else
 136:project/src/rtc.c ****   {
 137:project/src/rtc.c ****     return 0;
  66              		.loc 1 137 12 view .LVU11
  67 0030 0020     		movs	r0, #0
  68              	.LVL3:
  69              		.loc 1 137 12 view .LVU12
  70 0032 7047     		bx	lr
  71              	.LVL4:
  72              	.L4:
 132:project/src/rtc.c ****     }
  73              		.loc 1 132 14 view .LVU13
  74 0034 0120     		movs	r0, #1
  75              	.LVL5:
 132:project/src/rtc.c ****     }
  76              		.loc 1 132 14 view .LVU14
  77 0036 7047     		bx	lr
  78              	.L5:
 127:project/src/rtc.c ****       }
  79              		.loc 1 127 16 view .LVU15
  80 0038 0020     		movs	r0, #0
 138:project/src/rtc.c ****   }
 139:project/src/rtc.c **** }
  81              		.loc 1 139 1 view .LVU16
  82 003a 7047     		bx	lr
  83              	.L7:
  84              		.align	2
  85              	.L6:
  86 003c 1F85EB51 		.word	1374389535
  87              		.cfi_endproc
ARM GAS  C:\Users\10963\AppData\Local\Temp\cc6IUeV7.s 			page 5


  88              	.LFE135:
  90              		.section	.text.rtc_time_set,"ax",%progbits
  91              		.align	1
  92              		.global	rtc_time_set
  93              		.syntax unified
  94              		.thumb
  95              		.thumb_func
  97              	rtc_time_set:
  98              	.LVL6:
  99              	.LFB136:
 140:project/src/rtc.c **** 
 141:project/src/rtc.c **** /**
 142:project/src/rtc.c ****   * @brief  set time. convert the input clock to a second.
 143:project/src/rtc.c ****   *         the time basic : 1970.1.1
 144:project/src/rtc.c ****   *         legitimate year: 1970 ~ 2099
 145:project/src/rtc.c ****   * @param  calendar
 146:project/src/rtc.c ****   * @retval 0: set time right.
 147:project/src/rtc.c ****   *         1: set time failed.
 148:project/src/rtc.c ****   */
 149:project/src/rtc.c **** uint8_t rtc_time_set(calendar_type *calendar)
 150:project/src/rtc.c **** {
 100              		.loc 1 150 1 is_stmt 1 view -0
 101              		.cfi_startproc
 102              		@ args = 0, pretend = 0, frame = 0
 103              		@ frame_needed = 0, uses_anonymous_args = 0
 151:project/src/rtc.c ****   uint32_t t;
 104              		.loc 1 151 3 view .LVU18
 152:project/src/rtc.c ****   uint32_t seccount = 0;
 105              		.loc 1 152 3 view .LVU19
 153:project/src/rtc.c **** 
 154:project/src/rtc.c ****   if(calendar->year < 1970 || calendar->year > 2099)
 106              		.loc 1 154 3 view .LVU20
 107              		.loc 1 154 14 is_stmt 0 view .LVU21
 108 0000 0388     		ldrh	r3, [r0]
 109 0002 9BB2     		uxth	r3, r3
 110              		.loc 1 154 5 view .LVU22
 111 0004 40F2B172 		movw	r2, #1969
 112 0008 9342     		cmp	r3, r2
 113 000a 61D9     		bls	.L17
 150:project/src/rtc.c ****   uint32_t t;
 114              		.loc 1 150 1 view .LVU23
 115 000c 70B5     		push	{r4, r5, r6, lr}
 116              	.LCFI0:
 117              		.cfi_def_cfa_offset 16
 118              		.cfi_offset 4, -16
 119              		.cfi_offset 5, -12
 120              		.cfi_offset 6, -8
 121              		.cfi_offset 14, -4
 122 000e 0546     		mov	r5, r0
 123              		.loc 1 154 39 discriminator 1 view .LVU24
 124 0010 0388     		ldrh	r3, [r0]
 125 0012 9BB2     		uxth	r3, r3
 126              		.loc 1 154 28 discriminator 1 view .LVU25
 127 0014 40F63302 		movw	r2, #2099
 128 0018 9342     		cmp	r3, r2
 129 001a 5BD8     		bhi	.L18
 152:project/src/rtc.c ****   uint32_t seccount = 0;
ARM GAS  C:\Users\10963\AppData\Local\Temp\cc6IUeV7.s 			page 6


 130              		.loc 1 152 12 view .LVU26
 131 001c 0024     		movs	r4, #0
 155:project/src/rtc.c ****   {
 156:project/src/rtc.c ****     return 1;
 157:project/src/rtc.c ****   }
 158:project/src/rtc.c **** 
 159:project/src/rtc.c ****   for(t = 1970; t < calendar->year; t++)
 132              		.loc 1 159 9 view .LVU27
 133 001e 40F2B276 		movw	r6, #1970
 134 0022 06E0     		b	.L10
 135              	.LVL7:
 136              	.L11:
 160:project/src/rtc.c ****   {
 161:project/src/rtc.c ****     if(is_leap_year(t))
 162:project/src/rtc.c ****     {
 163:project/src/rtc.c ****       seccount += 31622400;
 164:project/src/rtc.c ****     }
 165:project/src/rtc.c ****     else
 166:project/src/rtc.c ****     {
 167:project/src/rtc.c ****       seccount += 31536000;
 137              		.loc 1 167 7 is_stmt 1 view .LVU28
 138              		.loc 1 167 16 is_stmt 0 view .LVU29
 139 0024 04F1F074 		add	r4, r4, #31457280
 140              	.LVL8:
 141              		.loc 1 167 16 view .LVU30
 142 0028 04F59934 		add	r4, r4, #78336
 143              	.LVL9:
 144              		.loc 1 167 16 view .LVU31
 145 002c 04F5C074 		add	r4, r4, #384
 146              	.LVL10:
 147              	.L12:
 159:project/src/rtc.c ****   {
 148              		.loc 1 159 38 is_stmt 1 discriminator 2 view .LVU32
 149 0030 0136     		adds	r6, r6, #1
 150              	.LVL11:
 151              	.L10:
 159:project/src/rtc.c ****   {
 152              		.loc 1 159 19 discriminator 1 view .LVU33
 159:project/src/rtc.c ****   {
 153              		.loc 1 159 29 is_stmt 0 discriminator 1 view .LVU34
 154 0032 2B88     		ldrh	r3, [r5]
 155 0034 9BB2     		uxth	r3, r3
 159:project/src/rtc.c ****   {
 156              		.loc 1 159 19 discriminator 1 view .LVU35
 157 0036 B342     		cmp	r3, r6
 158 0038 09D9     		bls	.L23
 161:project/src/rtc.c ****     {
 159              		.loc 1 161 5 is_stmt 1 view .LVU36
 161:project/src/rtc.c ****     {
 160              		.loc 1 161 8 is_stmt 0 view .LVU37
 161 003a B0B2     		uxth	r0, r6
 162 003c FFF7FEFF 		bl	is_leap_year
 163              	.LVL12:
 161:project/src/rtc.c ****     {
 164              		.loc 1 161 7 discriminator 1 view .LVU38
 165 0040 0028     		cmp	r0, #0
 166 0042 EFD0     		beq	.L11
ARM GAS  C:\Users\10963\AppData\Local\Temp\cc6IUeV7.s 			page 7


 163:project/src/rtc.c ****     }
 167              		.loc 1 163 7 is_stmt 1 view .LVU39
 163:project/src/rtc.c ****     }
 168              		.loc 1 163 16 is_stmt 0 view .LVU40
 169 0044 04F1F174 		add	r4, r4, #31588352
 170              	.LVL13:
 163:project/src/rtc.c ****     }
 171              		.loc 1 163 16 view .LVU41
 172 0048 04F50544 		add	r4, r4, #34048
 173              	.LVL14:
 163:project/src/rtc.c ****     }
 174              		.loc 1 163 16 view .LVU42
 175 004c F0E7     		b	.L12
 176              	.L23:
 168:project/src/rtc.c ****     }
 169:project/src/rtc.c ****   }
 170:project/src/rtc.c **** 
 171:project/src/rtc.c ****   calendar->month -= 1;
 177              		.loc 1 171 3 is_stmt 1 view .LVU43
 178              		.loc 1 171 11 is_stmt 0 view .LVU44
 179 004e AB78     		ldrb	r3, [r5, #2]	@ zero_extendqisi2
 180              		.loc 1 171 19 view .LVU45
 181 0050 013B     		subs	r3, r3, #1
 182 0052 DBB2     		uxtb	r3, r3
 183 0054 AB70     		strb	r3, [r5, #2]
 172:project/src/rtc.c **** 
 173:project/src/rtc.c ****   for(t = 0; t < calendar->month; t++)
 184              		.loc 1 173 3 is_stmt 1 view .LVU46
 185              	.LVL15:
 186              		.loc 1 173 9 is_stmt 0 view .LVU47
 187 0056 0026     		movs	r6, #0
 188              		.loc 1 173 3 view .LVU48
 189 0058 00E0     		b	.L14
 190              	.LVL16:
 191              	.L15:
 192              		.loc 1 173 36 is_stmt 1 discriminator 2 view .LVU49
 193 005a 0136     		adds	r6, r6, #1
 194              	.LVL17:
 195              	.L14:
 196              		.loc 1 173 16 discriminator 1 view .LVU50
 197              		.loc 1 173 26 is_stmt 0 discriminator 1 view .LVU51
 198 005c AB78     		ldrb	r3, [r5, #2]	@ zero_extendqisi2
 199              		.loc 1 173 16 discriminator 1 view .LVU52
 200 005e B342     		cmp	r3, r6
 201 0060 11D9     		bls	.L24
 174:project/src/rtc.c ****   {
 175:project/src/rtc.c ****     seccount += (uint8_t)mon_table[t] * 86400;
 202              		.loc 1 175 5 is_stmt 1 view .LVU53
 203              		.loc 1 175 35 is_stmt 0 view .LVU54
 204 0062 1D4B     		ldr	r3, .L25
 205 0064 9B5D     		ldrb	r3, [r3, r6]	@ zero_extendqisi2
 206              		.loc 1 175 14 view .LVU55
 207 0066 1D4A     		ldr	r2, .L25+4
 208 0068 02FB0344 		mla	r4, r2, r3, r4
 209              	.LVL18:
 176:project/src/rtc.c **** 
 177:project/src/rtc.c ****     if(is_leap_year(calendar->year) && t == 1)
ARM GAS  C:\Users\10963\AppData\Local\Temp\cc6IUeV7.s 			page 8


 210              		.loc 1 177 5 is_stmt 1 view .LVU56
 211              		.loc 1 177 29 is_stmt 0 view .LVU57
 212 006c 2888     		ldrh	r0, [r5]
 213              		.loc 1 177 8 view .LVU58
 214 006e 80B2     		uxth	r0, r0
 215 0070 FFF7FEFF 		bl	is_leap_year
 216              	.LVL19:
 217              		.loc 1 177 7 discriminator 1 view .LVU59
 218 0074 0028     		cmp	r0, #0
 219 0076 F0D0     		beq	.L15
 220              		.loc 1 177 37 discriminator 2 view .LVU60
 221 0078 012E     		cmp	r6, #1
 222 007a EED1     		bne	.L15
 178:project/src/rtc.c ****     {
 179:project/src/rtc.c ****       seccount += 86400;
 223              		.loc 1 179 7 is_stmt 1 view .LVU61
 224              		.loc 1 179 16 is_stmt 0 view .LVU62
 225 007c 04F5A834 		add	r4, r4, #86016
 226              	.LVL20:
 227              		.loc 1 179 16 view .LVU63
 228 0080 04F5C074 		add	r4, r4, #384
 229              	.LVL21:
 230              		.loc 1 179 16 view .LVU64
 231 0084 E9E7     		b	.L15
 232              	.LVL22:
 233              	.L24:
 180:project/src/rtc.c ****     }
 181:project/src/rtc.c ****   }
 182:project/src/rtc.c **** 
 183:project/src/rtc.c ****   seccount += (uint8_t)(calendar->date - 1) * 86400;
 234              		.loc 1 183 3 is_stmt 1 view .LVU65
 235              		.loc 1 183 33 is_stmt 0 view .LVU66
 236 0086 EB78     		ldrb	r3, [r5, #3]	@ zero_extendqisi2
 237              		.loc 1 183 15 view .LVU67
 238 0088 013B     		subs	r3, r3, #1
 239 008a DBB2     		uxtb	r3, r3
 240              		.loc 1 183 12 view .LVU68
 241 008c 134A     		ldr	r2, .L25+4
 242 008e 02FB0344 		mla	r4, r2, r3, r4
 243              	.LVL23:
 184:project/src/rtc.c **** 
 185:project/src/rtc.c ****   seccount += (uint8_t)calendar->hour * 3600;
 244              		.loc 1 185 3 is_stmt 1 view .LVU69
 245              		.loc 1 185 32 is_stmt 0 view .LVU70
 246 0092 2A79     		ldrb	r2, [r5, #4]	@ zero_extendqisi2
 247              		.loc 1 185 12 view .LVU71
 248 0094 4FF46163 		mov	r3, #3600
 249 0098 02FB0344 		mla	r4, r2, r3, r4
 250              	.LVL24:
 186:project/src/rtc.c **** 
 187:project/src/rtc.c ****   seccount += (uint8_t)calendar->min * 60;
 251              		.loc 1 187 3 is_stmt 1 view .LVU72
 252              		.loc 1 187 32 is_stmt 0 view .LVU73
 253 009c 6B79     		ldrb	r3, [r5, #5]	@ zero_extendqisi2
 254              		.loc 1 187 38 view .LVU74
 255 009e C3EB0313 		rsb	r3, r3, r3, lsl #4
 256              		.loc 1 187 12 view .LVU75
ARM GAS  C:\Users\10963\AppData\Local\Temp\cc6IUeV7.s 			page 9


 257 00a2 04EB8304 		add	r4, r4, r3, lsl #2
 258              	.LVL25:
 188:project/src/rtc.c **** 
 189:project/src/rtc.c ****   seccount += calendar->sec;
 259              		.loc 1 189 3 is_stmt 1 view .LVU76
 260              		.loc 1 189 23 is_stmt 0 view .LVU77
 261 00a6 AB79     		ldrb	r3, [r5, #6]	@ zero_extendqisi2
 262              		.loc 1 189 12 view .LVU78
 263 00a8 1C44     		add	r4, r4, r3
 264              	.LVL26:
 190:project/src/rtc.c **** 
 191:project/src/rtc.c ****   /* enable pwc and bpr clocks */
 192:project/src/rtc.c ****   crm_periph_clock_enable(CRM_PWC_PERIPH_CLOCK, TRUE);
 265              		.loc 1 192 3 is_stmt 1 view .LVU79
 266 00aa 0121     		movs	r1, #1
 267 00ac 4FF01C10 		mov	r0, #1835036
 268 00b0 FFF7FEFF 		bl	crm_periph_clock_enable
 269              	.LVL27:
 193:project/src/rtc.c ****   crm_periph_clock_enable(CRM_BPR_PERIPH_CLOCK, TRUE);
 270              		.loc 1 193 3 view .LVU80
 271 00b4 0121     		movs	r1, #1
 272 00b6 0A48     		ldr	r0, .L25+8
 273 00b8 FFF7FEFF 		bl	crm_periph_clock_enable
 274              	.LVL28:
 194:project/src/rtc.c **** 
 195:project/src/rtc.c ****   /* enable write access to bpr domain */
 196:project/src/rtc.c ****   pwc_battery_powered_domain_access(TRUE);
 275              		.loc 1 196 3 view .LVU81
 276 00bc 0120     		movs	r0, #1
 277 00be FFF7FEFF 		bl	pwc_battery_powered_domain_access
 278              	.LVL29:
 197:project/src/rtc.c **** 
 198:project/src/rtc.c ****   /* set the rtc counter value */
 199:project/src/rtc.c ****   rtc_counter_set(seccount);
 279              		.loc 1 199 3 view .LVU82
 280 00c2 2046     		mov	r0, r4
 281 00c4 FFF7FEFF 		bl	rtc_counter_set
 282              	.LVL30:
 200:project/src/rtc.c **** 
 201:project/src/rtc.c ****   /* wait for the register write to complete */
 202:project/src/rtc.c ****   rtc_wait_config_finish();
 283              		.loc 1 202 3 view .LVU83
 284 00c8 FFF7FEFF 		bl	rtc_wait_config_finish
 285              	.LVL31:
 203:project/src/rtc.c **** 
 204:project/src/rtc.c ****   return 0;
 286              		.loc 1 204 3 view .LVU84
 287              		.loc 1 204 10 is_stmt 0 view .LVU85
 288 00cc 0020     		movs	r0, #0
 289              	.LVL32:
 290              	.L9:
 205:project/src/rtc.c **** }
 291              		.loc 1 205 1 view .LVU86
 292 00ce 70BD     		pop	{r4, r5, r6, pc}
 293              	.LVL33:
 294              	.L17:
 295              	.LCFI1:
ARM GAS  C:\Users\10963\AppData\Local\Temp\cc6IUeV7.s 			page 10


 296              		.cfi_def_cfa_offset 0
 297              		.cfi_restore 4
 298              		.cfi_restore 5
 299              		.cfi_restore 6
 300              		.cfi_restore 14
 156:project/src/rtc.c ****   }
 301              		.loc 1 156 12 view .LVU87
 302 00d0 0120     		movs	r0, #1
 303              	.LVL34:
 304              		.loc 1 205 1 view .LVU88
 305 00d2 7047     		bx	lr
 306              	.LVL35:
 307              	.L18:
 308              	.LCFI2:
 309              		.cfi_def_cfa_offset 16
 310              		.cfi_offset 4, -16
 311              		.cfi_offset 5, -12
 312              		.cfi_offset 6, -8
 313              		.cfi_offset 14, -4
 156:project/src/rtc.c ****   }
 314              		.loc 1 156 12 view .LVU89
 315 00d4 0120     		movs	r0, #1
 316              	.LVL36:
 156:project/src/rtc.c ****   }
 317              		.loc 1 156 12 view .LVU90
 318 00d6 FAE7     		b	.L9
 319              	.L26:
 320              		.align	2
 321              	.L25:
 322 00d8 00000000 		.word	mon_table
 323 00dc 80510100 		.word	86400
 324 00e0 1B001C00 		.word	1835035
 325              		.cfi_endproc
 326              	.LFE136:
 328              		.section	.text.rtc_init,"ax",%progbits
 329              		.align	1
 330              		.global	rtc_init
 331              		.syntax unified
 332              		.thumb
 333              		.thumb_func
 335              	rtc_init:
 336              	.LVL37:
 337              	.LFB134:
  50:project/src/rtc.c ****   /* enable pwc and bpr clocks */
 338              		.loc 1 50 1 is_stmt 1 view -0
 339              		.cfi_startproc
 340              		@ args = 0, pretend = 0, frame = 0
 341              		@ frame_needed = 0, uses_anonymous_args = 0
  50:project/src/rtc.c ****   /* enable pwc and bpr clocks */
 342              		.loc 1 50 1 is_stmt 0 view .LVU92
 343 0000 10B5     		push	{r4, lr}
 344              	.LCFI3:
 345              		.cfi_def_cfa_offset 8
 346              		.cfi_offset 4, -8
 347              		.cfi_offset 14, -4
 348 0002 0446     		mov	r4, r0
  52:project/src/rtc.c ****   crm_periph_clock_enable(CRM_BPR_PERIPH_CLOCK, TRUE);
ARM GAS  C:\Users\10963\AppData\Local\Temp\cc6IUeV7.s 			page 11


 349              		.loc 1 52 3 is_stmt 1 view .LVU93
 350 0004 0121     		movs	r1, #1
 351 0006 4FF01C10 		mov	r0, #1835036
 352              	.LVL38:
  52:project/src/rtc.c ****   crm_periph_clock_enable(CRM_BPR_PERIPH_CLOCK, TRUE);
 353              		.loc 1 52 3 is_stmt 0 view .LVU94
 354 000a FFF7FEFF 		bl	crm_periph_clock_enable
 355              	.LVL39:
  53:project/src/rtc.c **** 
 356              		.loc 1 53 3 is_stmt 1 view .LVU95
 357 000e 0121     		movs	r1, #1
 358 0010 1B48     		ldr	r0, .L32
 359 0012 FFF7FEFF 		bl	crm_periph_clock_enable
 360              	.LVL40:
  56:project/src/rtc.c **** 
 361              		.loc 1 56 3 view .LVU96
 362 0016 0120     		movs	r0, #1
 363 0018 FFF7FEFF 		bl	pwc_battery_powered_domain_access
 364              	.LVL41:
  59:project/src/rtc.c ****   {
 365              		.loc 1 59 3 view .LVU97
  59:project/src/rtc.c ****   {
 366              		.loc 1 59 6 is_stmt 0 view .LVU98
 367 001c 0420     		movs	r0, #4
 368 001e FFF7FEFF 		bl	bpr_data_read
 369              	.LVL42:
  59:project/src/rtc.c ****   {
 370              		.loc 1 59 5 discriminator 1 view .LVU99
 371 0022 41F23423 		movw	r3, #4660
 372 0026 9842     		cmp	r0, r3
 373 0028 24D0     		beq	.L28
  62:project/src/rtc.c **** 
 374              		.loc 1 62 5 is_stmt 1 view .LVU100
 375 002a FFF7FEFF 		bl	bpr_reset
 376              	.LVL43:
  65:project/src/rtc.c ****     /* wait lext is ready */
 377              		.loc 1 65 5 view .LVU101
 378 002e 0121     		movs	r1, #1
 379 0030 0320     		movs	r0, #3
 380 0032 FFF7FEFF 		bl	crm_clock_source_enable
 381              	.LVL44:
  67:project/src/rtc.c ****     /* select the rtc clock source */
 382              		.loc 1 67 5 view .LVU102
 383              	.L29:
  67:project/src/rtc.c ****     /* select the rtc clock source */
 384              		.loc 1 67 46 discriminator 2 view .LVU103
  67:project/src/rtc.c ****     /* select the rtc clock source */
 385              		.loc 1 67 11 is_stmt 0 discriminator 2 view .LVU104
 386 0036 1348     		ldr	r0, .L32+4
 387 0038 FFF7FEFF 		bl	crm_flag_get
 388              	.LVL45:
  67:project/src/rtc.c ****     /* select the rtc clock source */
 389              		.loc 1 67 46 discriminator 2 view .LVU105
 390 003c 0028     		cmp	r0, #0
 391 003e FAD0     		beq	.L29
  69:project/src/rtc.c **** 
 392              		.loc 1 69 5 is_stmt 1 view .LVU106
ARM GAS  C:\Users\10963\AppData\Local\Temp\cc6IUeV7.s 			page 12


 393 0040 0120     		movs	r0, #1
 394 0042 FFF7FEFF 		bl	crm_rtc_clock_select
 395              	.LVL46:
  72:project/src/rtc.c **** 
 396              		.loc 1 72 5 view .LVU107
 397 0046 0120     		movs	r0, #1
 398 0048 FFF7FEFF 		bl	crm_rtc_clock_enable
 399              	.LVL47:
  75:project/src/rtc.c **** 
 400              		.loc 1 75 5 view .LVU108
 401 004c FFF7FEFF 		bl	rtc_wait_update_finish
 402              	.LVL48:
  78:project/src/rtc.c **** 
 403              		.loc 1 78 5 view .LVU109
 404 0050 FFF7FEFF 		bl	rtc_wait_config_finish
 405              	.LVL49:
  81:project/src/rtc.c **** 
 406              		.loc 1 81 5 view .LVU110
 407 0054 47F6FF70 		movw	r0, #32767
 408 0058 FFF7FEFF 		bl	rtc_divider_set
 409              	.LVL50:
  84:project/src/rtc.c **** 
 410              		.loc 1 84 5 view .LVU111
 411 005c FFF7FEFF 		bl	rtc_wait_config_finish
 412              	.LVL51:
  87:project/src/rtc.c **** 
 413              		.loc 1 87 5 view .LVU112
 414 0060 2046     		mov	r0, r4
 415 0062 FFF7FEFF 		bl	rtc_time_set
 416              	.LVL52:
  90:project/src/rtc.c **** 
 417              		.loc 1 90 5 view .LVU113
 418 0066 41F23421 		movw	r1, #4660
 419 006a 0420     		movs	r0, #4
 420 006c FFF7FEFF 		bl	bpr_data_write
 421              	.LVL53:
  92:project/src/rtc.c ****   }
 422              		.loc 1 92 5 view .LVU114
  92:project/src/rtc.c ****   }
 423              		.loc 1 92 12 is_stmt 0 view .LVU115
 424 0070 0120     		movs	r0, #1
 425              	.L30:
 104:project/src/rtc.c **** 
 426              		.loc 1 104 1 view .LVU116
 427 0072 10BD     		pop	{r4, pc}
 428              	.LVL54:
 429              	.L28:
  97:project/src/rtc.c **** 
 430              		.loc 1 97 5 is_stmt 1 view .LVU117
 431 0074 FFF7FEFF 		bl	rtc_wait_update_finish
 432              	.LVL55:
 100:project/src/rtc.c **** 
 433              		.loc 1 100 5 view .LVU118
 434 0078 FFF7FEFF 		bl	rtc_wait_config_finish
 435              	.LVL56:
 102:project/src/rtc.c ****   }
 436              		.loc 1 102 5 view .LVU119
ARM GAS  C:\Users\10963\AppData\Local\Temp\cc6IUeV7.s 			page 13


 102:project/src/rtc.c ****   }
 437              		.loc 1 102 12 is_stmt 0 view .LVU120
 438 007c 0020     		movs	r0, #0
 439 007e F8E7     		b	.L30
 440              	.L33:
 441              		.align	2
 442              	.L32:
 443 0080 1B001C00 		.word	1835035
 444 0084 01002000 		.word	2097153
 445              		.cfi_endproc
 446              	.LFE134:
 448              		.section	.text.rtc_alarm_clock_set,"ax",%progbits
 449              		.align	1
 450              		.global	rtc_alarm_clock_set
 451              		.syntax unified
 452              		.thumb
 453              		.thumb_func
 455              	rtc_alarm_clock_set:
 456              	.LVL57:
 457              	.LFB137:
 206:project/src/rtc.c **** 
 207:project/src/rtc.c **** /**
 208:project/src/rtc.c ****   * @brief  set rtc alarm clock.
 209:project/src/rtc.c ****   *         the time basic : 1970.1.1
 210:project/src/rtc.c ****   *         legitimate year: 1970 ~ 2099
 211:project/src/rtc.c ****   * @param  calendar
 212:project/src/rtc.c ****   * @retval 0: set alarm right.
 213:project/src/rtc.c ****   *         1: set alarm failed.
 214:project/src/rtc.c ****   */
 215:project/src/rtc.c **** uint8_t rtc_alarm_clock_set(calendar_type *calendar)
 216:project/src/rtc.c **** {
 458              		.loc 1 216 1 is_stmt 1 view -0
 459              		.cfi_startproc
 460              		@ args = 0, pretend = 0, frame = 0
 461              		@ frame_needed = 0, uses_anonymous_args = 0
 217:project/src/rtc.c ****   uint16_t t;
 462              		.loc 1 217 3 view .LVU122
 218:project/src/rtc.c ****   uint32_t seccount = 0;
 463              		.loc 1 218 3 view .LVU123
 219:project/src/rtc.c **** 
 220:project/src/rtc.c ****   if(calendar->year < 1970 || calendar->year > 2099)
 464              		.loc 1 220 3 view .LVU124
 465              		.loc 1 220 14 is_stmt 0 view .LVU125
 466 0000 0388     		ldrh	r3, [r0]
 467 0002 9BB2     		uxth	r3, r3
 468              		.loc 1 220 5 view .LVU126
 469 0004 40F2B172 		movw	r2, #1969
 470 0008 9342     		cmp	r3, r2
 471 000a 63D9     		bls	.L43
 216:project/src/rtc.c ****   uint16_t t;
 472              		.loc 1 216 1 view .LVU127
 473 000c 70B5     		push	{r4, r5, r6, lr}
 474              	.LCFI4:
 475              		.cfi_def_cfa_offset 16
 476              		.cfi_offset 4, -16
 477              		.cfi_offset 5, -12
 478              		.cfi_offset 6, -8
ARM GAS  C:\Users\10963\AppData\Local\Temp\cc6IUeV7.s 			page 14


 479              		.cfi_offset 14, -4
 480 000e 0646     		mov	r6, r0
 481              		.loc 1 220 39 discriminator 1 view .LVU128
 482 0010 0388     		ldrh	r3, [r0]
 483 0012 9BB2     		uxth	r3, r3
 484              		.loc 1 220 28 discriminator 1 view .LVU129
 485 0014 40F63302 		movw	r2, #2099
 486 0018 9342     		cmp	r3, r2
 487 001a 5DD8     		bhi	.L44
 218:project/src/rtc.c ****   uint32_t seccount = 0;
 488              		.loc 1 218 12 view .LVU130
 489 001c 0024     		movs	r4, #0
 221:project/src/rtc.c ****   {
 222:project/src/rtc.c ****     return 1;
 223:project/src/rtc.c ****   }
 224:project/src/rtc.c **** 
 225:project/src/rtc.c ****   for(t = 1970; t < calendar->year; t++)
 490              		.loc 1 225 9 view .LVU131
 491 001e 40F2B275 		movw	r5, #1970
 492 0022 07E0     		b	.L36
 493              	.LVL58:
 494              	.L37:
 226:project/src/rtc.c ****   {
 227:project/src/rtc.c ****     if(is_leap_year(t))
 228:project/src/rtc.c ****     {
 229:project/src/rtc.c ****       seccount += 31622400;
 230:project/src/rtc.c ****     }
 231:project/src/rtc.c ****     else
 232:project/src/rtc.c ****     {
 233:project/src/rtc.c ****       seccount += 31536000;
 495              		.loc 1 233 7 is_stmt 1 view .LVU132
 496              		.loc 1 233 16 is_stmt 0 view .LVU133
 497 0024 04F1F074 		add	r4, r4, #31457280
 498              	.LVL59:
 499              		.loc 1 233 16 view .LVU134
 500 0028 04F59934 		add	r4, r4, #78336
 501              	.LVL60:
 502              		.loc 1 233 16 view .LVU135
 503 002c 04F5C074 		add	r4, r4, #384
 504              	.LVL61:
 505              	.L38:
 225:project/src/rtc.c ****   {
 506              		.loc 1 225 38 is_stmt 1 discriminator 2 view .LVU136
 507 0030 0135     		adds	r5, r5, #1
 508              	.LVL62:
 225:project/src/rtc.c ****   {
 509              		.loc 1 225 38 is_stmt 0 discriminator 2 view .LVU137
 510 0032 ADB2     		uxth	r5, r5
 511              	.LVL63:
 512              	.L36:
 225:project/src/rtc.c ****   {
 513              		.loc 1 225 19 is_stmt 1 discriminator 1 view .LVU138
 225:project/src/rtc.c ****   {
 514              		.loc 1 225 29 is_stmt 0 discriminator 1 view .LVU139
 515 0034 3388     		ldrh	r3, [r6]
 516 0036 9BB2     		uxth	r3, r3
 225:project/src/rtc.c ****   {
ARM GAS  C:\Users\10963\AppData\Local\Temp\cc6IUeV7.s 			page 15


 517              		.loc 1 225 19 discriminator 1 view .LVU140
 518 0038 AB42     		cmp	r3, r5
 519 003a 09D9     		bls	.L49
 227:project/src/rtc.c ****     {
 520              		.loc 1 227 5 is_stmt 1 view .LVU141
 227:project/src/rtc.c ****     {
 521              		.loc 1 227 8 is_stmt 0 view .LVU142
 522 003c 2846     		mov	r0, r5
 523 003e FFF7FEFF 		bl	is_leap_year
 524              	.LVL64:
 227:project/src/rtc.c ****     {
 525              		.loc 1 227 7 discriminator 1 view .LVU143
 526 0042 0028     		cmp	r0, #0
 527 0044 EED0     		beq	.L37
 229:project/src/rtc.c ****     }
 528              		.loc 1 229 7 is_stmt 1 view .LVU144
 229:project/src/rtc.c ****     }
 529              		.loc 1 229 16 is_stmt 0 view .LVU145
 530 0046 04F1F174 		add	r4, r4, #31588352
 531              	.LVL65:
 229:project/src/rtc.c ****     }
 532              		.loc 1 229 16 view .LVU146
 533 004a 04F50544 		add	r4, r4, #34048
 534              	.LVL66:
 229:project/src/rtc.c ****     }
 535              		.loc 1 229 16 view .LVU147
 536 004e EFE7     		b	.L38
 537              	.L49:
 234:project/src/rtc.c ****     }
 235:project/src/rtc.c ****   }
 236:project/src/rtc.c **** 
 237:project/src/rtc.c ****   calendar->month -= 1;
 538              		.loc 1 237 3 is_stmt 1 view .LVU148
 539              		.loc 1 237 11 is_stmt 0 view .LVU149
 540 0050 B378     		ldrb	r3, [r6, #2]	@ zero_extendqisi2
 541              		.loc 1 237 19 view .LVU150
 542 0052 013B     		subs	r3, r3, #1
 543 0054 DBB2     		uxtb	r3, r3
 544 0056 B370     		strb	r3, [r6, #2]
 238:project/src/rtc.c **** 
 239:project/src/rtc.c ****   for(t = 0; t < calendar->month; t++)
 545              		.loc 1 239 3 is_stmt 1 view .LVU151
 546              	.LVL67:
 547              		.loc 1 239 9 is_stmt 0 view .LVU152
 548 0058 0025     		movs	r5, #0
 549              		.loc 1 239 3 view .LVU153
 550 005a 01E0     		b	.L40
 551              	.LVL68:
 552              	.L41:
 553              		.loc 1 239 36 is_stmt 1 discriminator 2 view .LVU154
 554 005c 0135     		adds	r5, r5, #1
 555              	.LVL69:
 556              		.loc 1 239 36 is_stmt 0 discriminator 2 view .LVU155
 557 005e ADB2     		uxth	r5, r5
 558              	.LVL70:
 559              	.L40:
 560              		.loc 1 239 16 is_stmt 1 discriminator 1 view .LVU156
ARM GAS  C:\Users\10963\AppData\Local\Temp\cc6IUeV7.s 			page 16


 561              		.loc 1 239 26 is_stmt 0 discriminator 1 view .LVU157
 562 0060 B378     		ldrb	r3, [r6, #2]	@ zero_extendqisi2
 563              		.loc 1 239 16 discriminator 1 view .LVU158
 564 0062 AB42     		cmp	r3, r5
 565 0064 11D9     		bls	.L50
 240:project/src/rtc.c ****   {
 241:project/src/rtc.c ****     seccount += (uint8_t)mon_table[t] * 86400;
 566              		.loc 1 241 5 is_stmt 1 view .LVU159
 567              		.loc 1 241 35 is_stmt 0 view .LVU160
 568 0066 1D4B     		ldr	r3, .L51
 569 0068 5B5D     		ldrb	r3, [r3, r5]	@ zero_extendqisi2
 570              		.loc 1 241 14 view .LVU161
 571 006a 1D4A     		ldr	r2, .L51+4
 572 006c 02FB0344 		mla	r4, r2, r3, r4
 573              	.LVL71:
 242:project/src/rtc.c **** 
 243:project/src/rtc.c ****     if(is_leap_year(calendar->year) && t == 1)
 574              		.loc 1 243 5 is_stmt 1 view .LVU162
 575              		.loc 1 243 29 is_stmt 0 view .LVU163
 576 0070 3088     		ldrh	r0, [r6]
 577              		.loc 1 243 8 view .LVU164
 578 0072 80B2     		uxth	r0, r0
 579 0074 FFF7FEFF 		bl	is_leap_year
 580              	.LVL72:
 581              		.loc 1 243 7 discriminator 1 view .LVU165
 582 0078 0028     		cmp	r0, #0
 583 007a EFD0     		beq	.L41
 584              		.loc 1 243 37 discriminator 2 view .LVU166
 585 007c 012D     		cmp	r5, #1
 586 007e EDD1     		bne	.L41
 244:project/src/rtc.c ****     {
 245:project/src/rtc.c ****       seccount += 86400;
 587              		.loc 1 245 7 is_stmt 1 view .LVU167
 588              		.loc 1 245 16 is_stmt 0 view .LVU168
 589 0080 04F5A834 		add	r4, r4, #86016
 590              	.LVL73:
 591              		.loc 1 245 16 view .LVU169
 592 0084 04F5C074 		add	r4, r4, #384
 593              	.LVL74:
 594              		.loc 1 245 16 view .LVU170
 595 0088 E8E7     		b	.L41
 596              	.LVL75:
 597              	.L50:
 246:project/src/rtc.c ****     }
 247:project/src/rtc.c ****   }
 248:project/src/rtc.c **** 
 249:project/src/rtc.c ****   seccount += (uint8_t)(calendar->date - 1) * 86400;
 598              		.loc 1 249 3 is_stmt 1 view .LVU171
 599              		.loc 1 249 33 is_stmt 0 view .LVU172
 600 008a F378     		ldrb	r3, [r6, #3]	@ zero_extendqisi2
 601              		.loc 1 249 15 view .LVU173
 602 008c 013B     		subs	r3, r3, #1
 603 008e DBB2     		uxtb	r3, r3
 604              		.loc 1 249 12 view .LVU174
 605 0090 134A     		ldr	r2, .L51+4
 606 0092 02FB0344 		mla	r4, r2, r3, r4
 607              	.LVL76:
ARM GAS  C:\Users\10963\AppData\Local\Temp\cc6IUeV7.s 			page 17


 250:project/src/rtc.c ****   seccount += (uint8_t)calendar->hour * 3600;
 608              		.loc 1 250 3 is_stmt 1 view .LVU175
 609              		.loc 1 250 32 is_stmt 0 view .LVU176
 610 0096 3279     		ldrb	r2, [r6, #4]	@ zero_extendqisi2
 611              		.loc 1 250 12 view .LVU177
 612 0098 4FF46163 		mov	r3, #3600
 613 009c 02FB0344 		mla	r4, r2, r3, r4
 614              	.LVL77:
 251:project/src/rtc.c ****   seccount += (uint8_t)calendar->min * 60;
 615              		.loc 1 251 3 is_stmt 1 view .LVU178
 616              		.loc 1 251 32 is_stmt 0 view .LVU179
 617 00a0 7379     		ldrb	r3, [r6, #5]	@ zero_extendqisi2
 618              		.loc 1 251 38 view .LVU180
 619 00a2 C3EB0313 		rsb	r3, r3, r3, lsl #4
 620              		.loc 1 251 12 view .LVU181
 621 00a6 04EB8304 		add	r4, r4, r3, lsl #2
 622              	.LVL78:
 252:project/src/rtc.c ****   seccount += calendar->sec;
 623              		.loc 1 252 3 is_stmt 1 view .LVU182
 624              		.loc 1 252 23 is_stmt 0 view .LVU183
 625 00aa B379     		ldrb	r3, [r6, #6]	@ zero_extendqisi2
 626              		.loc 1 252 12 view .LVU184
 627 00ac 1C44     		add	r4, r4, r3
 628              	.LVL79:
 253:project/src/rtc.c **** 
 254:project/src/rtc.c ****   /* enable pwc and bpr clocks */
 255:project/src/rtc.c ****   crm_periph_clock_enable(CRM_PWC_PERIPH_CLOCK, TRUE);
 629              		.loc 1 255 3 is_stmt 1 view .LVU185
 630 00ae 0121     		movs	r1, #1
 631 00b0 4FF01C10 		mov	r0, #1835036
 632 00b4 FFF7FEFF 		bl	crm_periph_clock_enable
 633              	.LVL80:
 256:project/src/rtc.c ****   crm_periph_clock_enable(CRM_BPR_PERIPH_CLOCK, TRUE);
 634              		.loc 1 256 3 view .LVU186
 635 00b8 0121     		movs	r1, #1
 636 00ba 0A48     		ldr	r0, .L51+8
 637 00bc FFF7FEFF 		bl	crm_periph_clock_enable
 638              	.LVL81:
 257:project/src/rtc.c **** 
 258:project/src/rtc.c ****   /* enable write access to bpr domain */
 259:project/src/rtc.c ****   pwc_battery_powered_domain_access(TRUE);
 639              		.loc 1 259 3 view .LVU187
 640 00c0 0120     		movs	r0, #1
 641 00c2 FFF7FEFF 		bl	pwc_battery_powered_domain_access
 642              	.LVL82:
 260:project/src/rtc.c **** 
 261:project/src/rtc.c ****   /* set the rtc counter value */
 262:project/src/rtc.c ****   rtc_alarm_set(seccount);
 643              		.loc 1 262 3 view .LVU188
 644 00c6 2046     		mov	r0, r4
 645 00c8 FFF7FEFF 		bl	rtc_alarm_set
 646              	.LVL83:
 263:project/src/rtc.c **** 
 264:project/src/rtc.c ****   /* wait for the register write to complete */
 265:project/src/rtc.c ****   rtc_wait_config_finish();
 647              		.loc 1 265 3 view .LVU189
 648 00cc FFF7FEFF 		bl	rtc_wait_config_finish
ARM GAS  C:\Users\10963\AppData\Local\Temp\cc6IUeV7.s 			page 18


 649              	.LVL84:
 266:project/src/rtc.c **** 
 267:project/src/rtc.c ****   return 0;
 650              		.loc 1 267 3 view .LVU190
 651              		.loc 1 267 10 is_stmt 0 view .LVU191
 652 00d0 0020     		movs	r0, #0
 653              	.LVL85:
 654              	.L35:
 268:project/src/rtc.c **** }
 655              		.loc 1 268 1 view .LVU192
 656 00d2 70BD     		pop	{r4, r5, r6, pc}
 657              	.LVL86:
 658              	.L43:
 659              	.LCFI5:
 660              		.cfi_def_cfa_offset 0
 661              		.cfi_restore 4
 662              		.cfi_restore 5
 663              		.cfi_restore 6
 664              		.cfi_restore 14
 222:project/src/rtc.c ****   }
 665              		.loc 1 222 12 view .LVU193
 666 00d4 0120     		movs	r0, #1
 667              	.LVL87:
 668              		.loc 1 268 1 view .LVU194
 669 00d6 7047     		bx	lr
 670              	.LVL88:
 671              	.L44:
 672              	.LCFI6:
 673              		.cfi_def_cfa_offset 16
 674              		.cfi_offset 4, -16
 675              		.cfi_offset 5, -12
 676              		.cfi_offset 6, -8
 677              		.cfi_offset 14, -4
 222:project/src/rtc.c ****   }
 678              		.loc 1 222 12 view .LVU195
 679 00d8 0120     		movs	r0, #1
 680              	.LVL89:
 222:project/src/rtc.c ****   }
 681              		.loc 1 222 12 view .LVU196
 682 00da FAE7     		b	.L35
 683              	.L52:
 684              		.align	2
 685              	.L51:
 686 00dc 00000000 		.word	mon_table
 687 00e0 80510100 		.word	86400
 688 00e4 1B001C00 		.word	1835035
 689              		.cfi_endproc
 690              	.LFE137:
 692              		.section	.text.rtc_week_get,"ax",%progbits
 693              		.align	1
 694              		.global	rtc_week_get
 695              		.syntax unified
 696              		.thumb
 697              		.thumb_func
 699              	rtc_week_get:
 700              	.LVL90:
 701              	.LFB138:
ARM GAS  C:\Users\10963\AppData\Local\Temp\cc6IUeV7.s 			page 19


 269:project/src/rtc.c **** 
 270:project/src/rtc.c **** /**
 271:project/src/rtc.c ****   * @brief  get current week by input leap year\mouth\day.
 272:project/src/rtc.c ****   * @param  year : year
 273:project/src/rtc.c ****   * @param  mon  : month
 274:project/src/rtc.c ****   * @param  day  : day
 275:project/src/rtc.c ****   * @retval week number.
 276:project/src/rtc.c ****   */
 277:project/src/rtc.c **** uint8_t rtc_week_get(uint16_t year, uint8_t month, uint8_t day)
 278:project/src/rtc.c **** {
 702              		.loc 1 278 1 is_stmt 1 view -0
 703              		.cfi_startproc
 704              		@ args = 0, pretend = 0, frame = 0
 705              		@ frame_needed = 0, uses_anonymous_args = 0
 706              		.loc 1 278 1 is_stmt 0 view .LVU198
 707 0000 00B5     		push	{lr}
 708              	.LCFI7:
 709              		.cfi_def_cfa_offset 4
 710              		.cfi_offset 14, -4
 711 0002 9646     		mov	lr, r2
 279:project/src/rtc.c ****   uint16_t temp2;
 712              		.loc 1 279 3 is_stmt 1 view .LVU199
 280:project/src/rtc.c ****   uint8_t yearh, yearl;
 713              		.loc 1 280 3 view .LVU200
 281:project/src/rtc.c **** 
 282:project/src/rtc.c ****   yearh = year / 100;
 714              		.loc 1 282 3 view .LVU201
 715              		.loc 1 282 9 is_stmt 0 view .LVU202
 716 0004 1D4B     		ldr	r3, .L57
 717 0006 A3FB003C 		umull	r3, ip, r3, r0
 718 000a 4FEA5C13 		lsr	r3, ip, #5
 719 000e CCF3471C 		ubfx	ip, ip, #5, #8
 720              	.LVL91:
 283:project/src/rtc.c ****   yearl = year % 100;
 721              		.loc 1 283 3 is_stmt 1 view .LVU203
 722              		.loc 1 283 9 is_stmt 0 view .LVU204
 723 0012 6422     		movs	r2, #100
 724              	.LVL92:
 725              		.loc 1 283 9 view .LVU205
 726 0014 02FB1300 		mls	r0, r2, r3, r0
 727              	.LVL93:
 728              		.loc 1 283 9 view .LVU206
 729 0018 C3B2     		uxtb	r3, r0
 730              	.LVL94:
 284:project/src/rtc.c **** 
 285:project/src/rtc.c ****   if(yearh > 19)
 731              		.loc 1 285 3 is_stmt 1 view .LVU207
 732              		.loc 1 285 5 is_stmt 0 view .LVU208
 733 001a BCF1130F 		cmp	ip, #19
 734 001e 01D9     		bls	.L54
 286:project/src/rtc.c ****   {
 287:project/src/rtc.c ****     yearl += 100;
 735              		.loc 1 287 5 is_stmt 1 view .LVU209
 736              		.loc 1 287 11 is_stmt 0 view .LVU210
 737 0020 1344     		add	r3, r3, r2
 738              	.LVL95:
 739              		.loc 1 287 11 view .LVU211
ARM GAS  C:\Users\10963\AppData\Local\Temp\cc6IUeV7.s 			page 20


 740 0022 DBB2     		uxtb	r3, r3
 741              	.LVL96:
 742              	.L54:
 288:project/src/rtc.c ****   }
 289:project/src/rtc.c **** 
 290:project/src/rtc.c ****   temp2 = yearl + yearl / 4;
 743              		.loc 1 290 3 is_stmt 1 view .LVU212
 744              		.loc 1 290 9 is_stmt 0 view .LVU213
 745 0024 03EB9300 		add	r0, r3, r3, lsr #2
 746              	.LVL97:
 291:project/src/rtc.c ****   temp2 = temp2 % 7;
 747              		.loc 1 291 3 is_stmt 1 view .LVU214
 748              		.loc 1 291 9 is_stmt 0 view .LVU215
 749 0028 154A     		ldr	r2, .L57+4
 750 002a A2FB002C 		umull	r2, ip, r2, r0
 751              	.LVL98:
 752              		.loc 1 291 9 view .LVU216
 753 002e A0EB0C02 		sub	r2, r0, ip
 754 0032 0CEB520C 		add	ip, ip, r2, lsr #1
 755 0036 4FEA9C0C 		lsr	ip, ip, #2
 756 003a CCEBCC0C 		rsb	ip, ip, ip, lsl #3
 757 003e A0EB0C00 		sub	r0, r0, ip
 758              	.LVL99:
 292:project/src/rtc.c ****   temp2 = temp2 + day + table_week[month - 1];
 759              		.loc 1 292 3 is_stmt 1 view .LVU217
 760              		.loc 1 292 17 is_stmt 0 view .LVU218
 761 0042 1EFA80F0 		uxtah	r0, lr, r0
 762              	.LVL100:
 763              		.loc 1 292 42 view .LVU219
 764 0046 4A1E     		subs	r2, r1, #1
 765              		.loc 1 292 35 view .LVU220
 766 0048 DFF838C0 		ldr	ip, .L57+8
 767              	.LVL101:
 768              		.loc 1 292 35 view .LVU221
 769 004c 1CF80220 		ldrb	r2, [ip, r2]	@ zero_extendqisi2
 770              		.loc 1 292 9 view .LVU222
 771 0050 12FA80F0 		uxtah	r0, r2, r0
 772 0054 80B2     		uxth	r0, r0
 773              	.LVL102:
 293:project/src/rtc.c **** 
 294:project/src/rtc.c ****   if(yearl % 4 == 0 && month < 3)
 774              		.loc 1 294 3 is_stmt 1 view .LVU223
 775              		.loc 1 294 5 is_stmt 0 view .LVU224
 776 0056 13F0030F 		tst	r3, #3
 777 005a 03D1     		bne	.L55
 778              		.loc 1 294 21 discriminator 1 view .LVU225
 779 005c 0229     		cmp	r1, #2
 780 005e 01D8     		bhi	.L55
 295:project/src/rtc.c ****   {
 296:project/src/rtc.c ****     temp2--;
 781              		.loc 1 296 5 is_stmt 1 view .LVU226
 782              		.loc 1 296 10 is_stmt 0 view .LVU227
 783 0060 0138     		subs	r0, r0, #1
 784              	.LVL103:
 785              		.loc 1 296 10 view .LVU228
 786 0062 80B2     		uxth	r0, r0
 787              	.LVL104:
ARM GAS  C:\Users\10963\AppData\Local\Temp\cc6IUeV7.s 			page 21


 788              	.L55:
 297:project/src/rtc.c ****   }
 298:project/src/rtc.c **** 
 299:project/src/rtc.c ****   return(temp2 % 7);
 789              		.loc 1 299 3 is_stmt 1 view .LVU229
 790              		.loc 1 299 16 is_stmt 0 view .LVU230
 791 0064 064B     		ldr	r3, .L57+4
 792              	.LVL105:
 793              		.loc 1 299 16 view .LVU231
 794 0066 A3FB0023 		umull	r2, r3, r3, r0
 795 006a C21A     		subs	r2, r0, r3
 796 006c 03EB5203 		add	r3, r3, r2, lsr #1
 797 0070 9B08     		lsrs	r3, r3, #2
 798 0072 C3EBC303 		rsb	r3, r3, r3, lsl #3
 799 0076 C01A     		subs	r0, r0, r3
 800              	.LVL106:
 300:project/src/rtc.c **** }
 801              		.loc 1 300 1 view .LVU232
 802 0078 C0B2     		uxtb	r0, r0
 803 007a 00BD     		pop	{pc}
 804              	.L58:
 805              		.align	2
 806              	.L57:
 807 007c 1F85EB51 		.word	1374389535
 808 0080 25499224 		.word	613566757
 809 0084 00000000 		.word	table_week
 810              		.cfi_endproc
 811              	.LFE138:
 813              		.section	.text.rtc_time_get,"ax",%progbits
 814              		.align	1
 815              		.global	rtc_time_get
 816              		.syntax unified
 817              		.thumb
 818              		.thumb_func
 820              	rtc_time_get:
 821              	.LFB139:
 301:project/src/rtc.c **** 
 302:project/src/rtc.c **** /**
 303:project/src/rtc.c ****   * @brief  get current time.
 304:project/src/rtc.c ****   * @param  none.
 305:project/src/rtc.c ****   * @retval none.
 306:project/src/rtc.c ****   */
 307:project/src/rtc.c **** void rtc_time_get(void)
 308:project/src/rtc.c **** {
 822              		.loc 1 308 1 is_stmt 1 view -0
 823              		.cfi_startproc
 824              		@ args = 0, pretend = 0, frame = 0
 825              		@ frame_needed = 0, uses_anonymous_args = 0
 826 0000 70B5     		push	{r4, r5, r6, lr}
 827              	.LCFI8:
 828              		.cfi_def_cfa_offset 16
 829              		.cfi_offset 4, -16
 830              		.cfi_offset 5, -12
 831              		.cfi_offset 6, -8
 832              		.cfi_offset 14, -4
 309:project/src/rtc.c ****   static uint16_t daycnt = 0;
 833              		.loc 1 309 3 view .LVU234
ARM GAS  C:\Users\10963\AppData\Local\Temp\cc6IUeV7.s 			page 22


 310:project/src/rtc.c ****   uint32_t timecount = 0;
 834              		.loc 1 310 3 view .LVU235
 835              	.LVL107:
 311:project/src/rtc.c ****   uint32_t temp = 0;
 836              		.loc 1 311 3 view .LVU236
 312:project/src/rtc.c ****   uint32_t temp1 = 0;
 837              		.loc 1 312 3 view .LVU237
 313:project/src/rtc.c **** 
 314:project/src/rtc.c ****   timecount = rtc_counter_get();
 838              		.loc 1 314 3 view .LVU238
 839              		.loc 1 314 15 is_stmt 0 view .LVU239
 840 0002 FFF7FEFF 		bl	rtc_counter_get
 841              	.LVL108:
 842 0006 0646     		mov	r6, r0
 843              	.LVL109:
 315:project/src/rtc.c ****   temp = timecount / 86400;
 844              		.loc 1 315 3 is_stmt 1 view .LVU240
 845              		.loc 1 315 8 is_stmt 0 view .LVU241
 846 0008 334B     		ldr	r3, .L72
 847 000a A3FB0023 		umull	r2, r3, r3, r0
 848              	.LVL110:
 316:project/src/rtc.c **** 
 317:project/src/rtc.c ****   if(daycnt != temp)
 849              		.loc 1 317 3 is_stmt 1 view .LVU242
 850              		.loc 1 317 13 is_stmt 0 view .LVU243
 851 000e 334A     		ldr	r2, .L72+4
 852 0010 1288     		ldrh	r2, [r2]
 853              		.loc 1 317 5 view .LVU244
 854 0012 B2EB134F 		cmp	r2, r3, lsr #16
 855 0016 37D0     		beq	.L60
 856 0018 1C0C     		lsrs	r4, r3, #16
 857              	.LVL111:
 318:project/src/rtc.c ****   {
 319:project/src/rtc.c ****     daycnt = temp;
 858              		.loc 1 319 5 is_stmt 1 view .LVU245
 859              		.loc 1 319 12 is_stmt 0 view .LVU246
 860 001a 304B     		ldr	r3, .L72+4
 861 001c 1C80     		strh	r4, [r3]	@ movhi
 320:project/src/rtc.c ****     temp1 = 1970;
 862              		.loc 1 320 5 is_stmt 1 view .LVU247
 863              	.LVL112:
 321:project/src/rtc.c **** 
 322:project/src/rtc.c ****     while(temp >= 365)
 864              		.loc 1 322 5 view .LVU248
 320:project/src/rtc.c ****     temp1 = 1970;
 865              		.loc 1 320 11 is_stmt 0 view .LVU249
 866 001e 40F2B275 		movw	r5, #1970
 867              		.loc 1 322 10 view .LVU250
 868 0022 02E0     		b	.L61
 869              	.LVL113:
 870              	.L62:
 323:project/src/rtc.c ****     {
 324:project/src/rtc.c ****       if(is_leap_year(temp1))
 325:project/src/rtc.c ****       {
 326:project/src/rtc.c ****         if(temp >= 366)
 327:project/src/rtc.c ****         {
 328:project/src/rtc.c ****           temp -= 366;
ARM GAS  C:\Users\10963\AppData\Local\Temp\cc6IUeV7.s 			page 23


 329:project/src/rtc.c ****         }
 330:project/src/rtc.c ****         else
 331:project/src/rtc.c ****         {
 332:project/src/rtc.c ****           break;
 333:project/src/rtc.c ****         }
 334:project/src/rtc.c ****       }
 335:project/src/rtc.c ****       else
 336:project/src/rtc.c ****       {
 337:project/src/rtc.c ****         temp -= 365;
 871              		.loc 1 337 9 is_stmt 1 view .LVU251
 872              		.loc 1 337 14 is_stmt 0 view .LVU252
 873 0024 A4F26D14 		subw	r4, r4, #365
 874              	.LVL114:
 875              	.L64:
 338:project/src/rtc.c ****       }
 339:project/src/rtc.c **** 
 340:project/src/rtc.c ****       temp1++;
 876              		.loc 1 340 7 is_stmt 1 view .LVU253
 877              		.loc 1 340 12 is_stmt 0 view .LVU254
 878 0028 0135     		adds	r5, r5, #1
 879              	.LVL115:
 880              	.L61:
 322:project/src/rtc.c ****     {
 881              		.loc 1 322 16 is_stmt 1 view .LVU255
 882 002a B4F5B67F 		cmp	r4, #364
 883 002e 0AD9     		bls	.L63
 324:project/src/rtc.c ****       {
 884              		.loc 1 324 7 view .LVU256
 324:project/src/rtc.c ****       {
 885              		.loc 1 324 10 is_stmt 0 view .LVU257
 886 0030 A8B2     		uxth	r0, r5
 887 0032 FFF7FEFF 		bl	is_leap_year
 888              	.LVL116:
 324:project/src/rtc.c ****       {
 889              		.loc 1 324 9 discriminator 1 view .LVU258
 890 0036 0028     		cmp	r0, #0
 891 0038 F4D0     		beq	.L62
 326:project/src/rtc.c ****         {
 892              		.loc 1 326 9 is_stmt 1 view .LVU259
 326:project/src/rtc.c ****         {
 893              		.loc 1 326 11 is_stmt 0 view .LVU260
 894 003a B4F5B77F 		cmp	r4, #366
 895 003e 02D3     		bcc	.L63
 328:project/src/rtc.c ****         }
 896              		.loc 1 328 11 is_stmt 1 view .LVU261
 328:project/src/rtc.c ****         }
 897              		.loc 1 328 16 is_stmt 0 view .LVU262
 898 0040 A4F5B774 		sub	r4, r4, #366
 899              	.LVL117:
 328:project/src/rtc.c ****         }
 900              		.loc 1 328 16 view .LVU263
 901 0044 F0E7     		b	.L64
 902              	.L63:
 341:project/src/rtc.c ****     }
 342:project/src/rtc.c **** 
 343:project/src/rtc.c ****     calendar.year = temp1;
 903              		.loc 1 343 5 is_stmt 1 view .LVU264
ARM GAS  C:\Users\10963\AppData\Local\Temp\cc6IUeV7.s 			page 24


 904              		.loc 1 343 19 is_stmt 0 view .LVU265
 905 0046 ADB2     		uxth	r5, r5
 906              	.LVL118:
 907              		.loc 1 343 19 view .LVU266
 908 0048 254B     		ldr	r3, .L72+8
 909 004a 1D80     		strh	r5, [r3]	@ movhi
 344:project/src/rtc.c ****     temp1 = 0;
 910              		.loc 1 344 5 is_stmt 1 view .LVU267
 911              	.LVL119:
 345:project/src/rtc.c **** 
 346:project/src/rtc.c ****     while(temp >= 28)
 912              		.loc 1 346 5 view .LVU268
 344:project/src/rtc.c ****     temp1 = 0;
 913              		.loc 1 344 11 is_stmt 0 view .LVU269
 914 004c 0025     		movs	r5, #0
 915              		.loc 1 346 10 view .LVU270
 916 004e 05E0     		b	.L66
 917              	.LVL120:
 918              	.L67:
 347:project/src/rtc.c ****     {
 348:project/src/rtc.c ****       if(is_leap_year(calendar.year) && temp1 == 1)
 349:project/src/rtc.c ****       {
 350:project/src/rtc.c ****         if(temp >= 29)
 351:project/src/rtc.c ****         {
 352:project/src/rtc.c ****           temp -= 29;
 353:project/src/rtc.c ****         }
 354:project/src/rtc.c ****         else
 355:project/src/rtc.c ****         {
 356:project/src/rtc.c ****           break;
 357:project/src/rtc.c ****         }
 358:project/src/rtc.c ****       }
 359:project/src/rtc.c ****       else
 360:project/src/rtc.c ****       {
 361:project/src/rtc.c ****         if(temp >= mon_table[temp1])
 919              		.loc 1 361 9 is_stmt 1 view .LVU271
 920              		.loc 1 361 29 is_stmt 0 view .LVU272
 921 0050 244B     		ldr	r3, .L72+12
 922 0052 5B5D     		ldrb	r3, [r3, r5]	@ zero_extendqisi2
 923              		.loc 1 361 11 view .LVU273
 924 0054 A342     		cmp	r3, r4
 925 0056 10D8     		bhi	.L68
 362:project/src/rtc.c ****         {
 363:project/src/rtc.c ****           temp -= mon_table[temp1];
 926              		.loc 1 363 11 is_stmt 1 view .LVU274
 927              		.loc 1 363 16 is_stmt 0 view .LVU275
 928 0058 E41A     		subs	r4, r4, r3
 929              	.LVL121:
 930              	.L69:
 364:project/src/rtc.c ****         }
 365:project/src/rtc.c ****         else
 366:project/src/rtc.c ****         {
 367:project/src/rtc.c ****           break;
 368:project/src/rtc.c ****         }
 369:project/src/rtc.c ****       }
 370:project/src/rtc.c **** 
 371:project/src/rtc.c ****       temp1++;
 931              		.loc 1 371 7 is_stmt 1 view .LVU276
ARM GAS  C:\Users\10963\AppData\Local\Temp\cc6IUeV7.s 			page 25


 932              		.loc 1 371 12 is_stmt 0 view .LVU277
 933 005a 0135     		adds	r5, r5, #1
 934              	.LVL122:
 935              	.L66:
 346:project/src/rtc.c ****     {
 936              		.loc 1 346 16 is_stmt 1 view .LVU278
 937 005c 1B2C     		cmp	r4, #27
 938 005e 0CD9     		bls	.L68
 348:project/src/rtc.c ****       {
 939              		.loc 1 348 7 view .LVU279
 348:project/src/rtc.c ****       {
 940              		.loc 1 348 31 is_stmt 0 view .LVU280
 941 0060 1F4B     		ldr	r3, .L72+8
 942 0062 1888     		ldrh	r0, [r3]
 348:project/src/rtc.c ****       {
 943              		.loc 1 348 10 view .LVU281
 944 0064 80B2     		uxth	r0, r0
 945 0066 FFF7FEFF 		bl	is_leap_year
 946              	.LVL123:
 348:project/src/rtc.c ****       {
 947              		.loc 1 348 9 discriminator 1 view .LVU282
 948 006a 0028     		cmp	r0, #0
 949 006c F0D0     		beq	.L67
 348:project/src/rtc.c ****       {
 950              		.loc 1 348 38 discriminator 2 view .LVU283
 951 006e 012D     		cmp	r5, #1
 952 0070 EED1     		bne	.L67
 350:project/src/rtc.c ****         {
 953              		.loc 1 350 9 is_stmt 1 view .LVU284
 350:project/src/rtc.c ****         {
 954              		.loc 1 350 11 is_stmt 0 view .LVU285
 955 0072 1C2C     		cmp	r4, #28
 956 0074 01D9     		bls	.L68
 352:project/src/rtc.c ****         }
 957              		.loc 1 352 11 is_stmt 1 view .LVU286
 352:project/src/rtc.c ****         }
 958              		.loc 1 352 16 is_stmt 0 view .LVU287
 959 0076 1D3C     		subs	r4, r4, #29
 960              	.LVL124:
 350:project/src/rtc.c ****         {
 961              		.loc 1 350 11 view .LVU288
 962 0078 EFE7     		b	.L69
 963              	.L68:
 372:project/src/rtc.c ****     }
 373:project/src/rtc.c **** 
 374:project/src/rtc.c ****     calendar.month = temp1 + 1;
 964              		.loc 1 374 5 is_stmt 1 view .LVU289
 965              		.loc 1 374 28 is_stmt 0 view .LVU290
 966 007a 0135     		adds	r5, r5, #1
 967              	.LVL125:
 968              		.loc 1 374 28 view .LVU291
 969 007c EDB2     		uxtb	r5, r5
 970              	.LVL126:
 971              		.loc 1 374 20 view .LVU292
 972 007e 184B     		ldr	r3, .L72+8
 973 0080 9D70     		strb	r5, [r3, #2]
 375:project/src/rtc.c ****     calendar.date = temp + 1;
ARM GAS  C:\Users\10963\AppData\Local\Temp\cc6IUeV7.s 			page 26


 974              		.loc 1 375 5 is_stmt 1 view .LVU293
 975              		.loc 1 375 26 is_stmt 0 view .LVU294
 976 0082 0134     		adds	r4, r4, #1
 977              	.LVL127:
 978              		.loc 1 375 26 view .LVU295
 979 0084 E4B2     		uxtb	r4, r4
 980              	.LVL128:
 981              		.loc 1 375 19 view .LVU296
 982 0086 DC70     		strb	r4, [r3, #3]
 983              	.LVL129:
 984              	.L60:
 376:project/src/rtc.c ****   }
 377:project/src/rtc.c **** 
 378:project/src/rtc.c ****   temp = timecount % 86400;
 985              		.loc 1 378 3 is_stmt 1 view .LVU297
 986              		.loc 1 378 8 is_stmt 0 view .LVU298
 987 0088 134B     		ldr	r3, .L72
 988 008a A3FB0623 		umull	r2, r3, r3, r6
 989 008e 1B0C     		lsrs	r3, r3, #16
 990 0090 154A     		ldr	r2, .L72+16
 991 0092 02FB1363 		mls	r3, r2, r3, r6
 992              	.LVL130:
 379:project/src/rtc.c ****   calendar.hour = temp / 3600;
 993              		.loc 1 379 3 is_stmt 1 view .LVU299
 994              		.loc 1 379 24 is_stmt 0 view .LVU300
 995 0096 154A     		ldr	r2, .L72+20
 996 0098 A2FB0312 		umull	r1, r2, r2, r3
 997 009c D10A     		lsrs	r1, r2, #11
 998              		.loc 1 379 17 view .LVU301
 999 009e C2F3C722 		ubfx	r2, r2, #11, #8
 1000 00a2 0F4C     		ldr	r4, .L72+8
 1001 00a4 2271     		strb	r2, [r4, #4]
 380:project/src/rtc.c ****   calendar.min = (temp % 3600) / 60;
 1002              		.loc 1 380 3 is_stmt 1 view .LVU302
 1003              		.loc 1 380 24 is_stmt 0 view .LVU303
 1004 00a6 4FF46162 		mov	r2, #3600
 1005 00aa 02FB1133 		mls	r3, r2, r1, r3
 1006              	.LVL131:
 1007              		.loc 1 380 32 view .LVU304
 1008 00ae 104A     		ldr	r2, .L72+24
 1009 00b0 A2FB0312 		umull	r1, r2, r2, r3
 1010 00b4 5109     		lsrs	r1, r2, #5
 1011              		.loc 1 380 16 view .LVU305
 1012 00b6 C2F34712 		ubfx	r2, r2, #5, #8
 1013 00ba 6271     		strb	r2, [r4, #5]
 381:project/src/rtc.c ****   calendar.sec = (temp % 3600) % 60;
 1014              		.loc 1 381 3 is_stmt 1 view .LVU306
 1015              		.loc 1 381 32 is_stmt 0 view .LVU307
 1016 00bc C1EB0111 		rsb	r1, r1, r1, lsl #4
 1017 00c0 A3EB8103 		sub	r3, r3, r1, lsl #2
 1018              		.loc 1 381 16 view .LVU308
 1019 00c4 DBB2     		uxtb	r3, r3
 1020 00c6 A371     		strb	r3, [r4, #6]
 382:project/src/rtc.c ****   calendar.week = rtc_week_get(calendar.year, calendar.month, calendar.date);
 1021              		.loc 1 382 3 is_stmt 1 view .LVU309
 1022              		.loc 1 382 40 is_stmt 0 view .LVU310
 1023 00c8 2088     		ldrh	r0, [r4]
ARM GAS  C:\Users\10963\AppData\Local\Temp\cc6IUeV7.s 			page 27


 1024              		.loc 1 382 55 view .LVU311
 1025 00ca A178     		ldrb	r1, [r4, #2]	@ zero_extendqisi2
 1026              		.loc 1 382 71 view .LVU312
 1027 00cc E278     		ldrb	r2, [r4, #3]	@ zero_extendqisi2
 1028              		.loc 1 382 19 view .LVU313
 1029 00ce 80B2     		uxth	r0, r0
 1030 00d0 FFF7FEFF 		bl	rtc_week_get
 1031              	.LVL132:
 1032              		.loc 1 382 17 discriminator 1 view .LVU314
 1033 00d4 E071     		strb	r0, [r4, #7]
 383:project/src/rtc.c **** }
 1034              		.loc 1 383 1 view .LVU315
 1035 00d6 70BD     		pop	{r4, r5, r6, pc}
 1036              	.LVL133:
 1037              	.L73:
 1038              		.loc 1 383 1 view .LVU316
 1039              		.align	2
 1040              	.L72:
 1041 00d8 07452EC2 		.word	-1037155065
 1042 00dc 00000000 		.word	daycnt.0
 1043 00e0 00000000 		.word	calendar
 1044 00e4 00000000 		.word	mon_table
 1045 00e8 80510100 		.word	86400
 1046 00ec C5B3A291 		.word	-1851608123
 1047 00f0 89888888 		.word	-2004318071
 1048              		.cfi_endproc
 1049              	.LFE139:
 1051              		.section	.bss.daycnt.0,"aw",%nobits
 1052              		.align	1
 1055              	daycnt.0:
 1056 0000 0000     		.space	2
 1057              		.global	mon_table
 1058              		.section	.rodata.mon_table,"a"
 1059              		.align	2
 1062              	mon_table:
 1063 0000 1F1C1F1E 		.ascii	"\037\034\037\036\037\036\037\037\036\037\036\037"
 1063      1F1E1F1F 
 1063      1E1F1E1F 
 1064              		.global	table_week
 1065              		.section	.rodata.table_week,"a"
 1066              		.align	2
 1069              	table_week:
 1070 0000 00030306 		.ascii	"\000\003\003\006\001\004\006\002\005\000\003\005"
 1070      01040602 
 1070      05000305 
 1071              		.global	calendar
 1072              		.section	.bss.calendar,"aw",%nobits
 1073              		.align	2
 1076              	calendar:
 1077 0000 00000000 		.space	8
 1077      00000000 
 1078              		.text
 1079              	.Letext0:
 1080              		.file 2 "C:/Program Files (x86)/Arm/GNU Toolchain mingw-w64-i686-arm-none-eabi/arm-none-eabi/inclu
 1081              		.file 3 "C:/Program Files (x86)/Arm/GNU Toolchain mingw-w64-i686-arm-none-eabi/arm-none-eabi/inclu
 1082              		.file 4 "libraries/cmsis/cm4/device_support/at32f403a_407.h"
 1083              		.file 5 "libraries/drivers/inc/at32f403a_407_bpr.h"
ARM GAS  C:\Users\10963\AppData\Local\Temp\cc6IUeV7.s 			page 28


 1084              		.file 6 "libraries/drivers/inc/at32f403a_407_crm.h"
 1085              		.file 7 "libraries/drivers/inc/at32f403a_407_tmr.h"
 1086              		.file 8 "project/inc/rtc.h"
 1087              		.file 9 "libraries/drivers/inc/at32f403a_407_rtc.h"
 1088              		.file 10 "libraries/drivers/inc/at32f403a_407_pwc.h"
ARM GAS  C:\Users\10963\AppData\Local\Temp\cc6IUeV7.s 			page 29

