ARM GAS  C:\Users\10963\AppData\Local\Temp\cc0xkZc1.s 			page 1


   1              		.cpu cortex-m4
   2              		.arch armv7e-m
   3              		.fpu fpv4-sp-d16
   4              		.eabi_attribute 27, 1
   5              		.eabi_attribute 28, 1
   6              		.eabi_attribute 20, 1
   7              		.eabi_attribute 21, 1
   8              		.eabi_attribute 23, 3
   9              		.eabi_attribute 24, 1
  10              		.eabi_attribute 25, 1
  11              		.eabi_attribute 26, 1
  12              		.eabi_attribute 30, 1
  13              		.eabi_attribute 34, 1
  14              		.eabi_attribute 18, 4
  15              		.file	"usb_printf.c"
  16              		.text
  17              	.Ltext0:
  18              		.cfi_sections	.debug_frame
  19              		.file 1 "../USB_Debug/src/usb_printf.c"
  20              		.section	.text.float_to_string,"ax",%progbits
  21              		.align	1
  22              		.global	float_to_string
  23              		.syntax unified
  24              		.thumb
  25              		.thumb_func
  27              	float_to_string:
  28              	.LVL0:
  29              	.LFB137:
   1:../USB_Debug/src/usb_printf.c **** #include <stdio.h>
   2:../USB_Debug/src/usb_printf.c **** #include <stdint.h>
   3:../USB_Debug/src/usb_printf.c **** #include <string.h>
   4:../USB_Debug/src/usb_printf.c **** #include "usbd_core.h"
   5:../USB_Debug/src/usb_printf.c **** #include "cdc_class.h"
   6:../USB_Debug/src/usb_printf.c **** 
   7:../USB_Debug/src/usb_printf.c **** extern usbd_core_type usb_core_dev;
   8:../USB_Debug/src/usb_printf.c **** 
   9:../USB_Debug/src/usb_printf.c **** /**
  10:../USB_Debug/src/usb_printf.c ****  * @brief 将浮点数转换为字符串
  11:../USB_Debug/src/usb_printf.c ****  * @param value 浮点数
  12:../USB_Debug/src/usb_printf.c ****  * @param buf 输出缓冲区
  13:../USB_Debug/src/usb_printf.c ****  * @param precision 小数位数
  14:../USB_Debug/src/usb_printf.c ****  * @return 转换后的字符串长度
  15:../USB_Debug/src/usb_printf.c ****  */
  16:../USB_Debug/src/usb_printf.c **** int float_to_string(float value, char *buf, int precision)
  17:../USB_Debug/src/usb_printf.c **** {
  30              		.loc 1 17 1 view -0
  31              		.cfi_startproc
  32              		@ args = 0, pretend = 0, frame = 16
  33              		@ frame_needed = 0, uses_anonymous_args = 0
  34              		.loc 1 17 1 is_stmt 0 view .LVU1
  35 0000 F0B5     		push	{r4, r5, r6, r7, lr}
  36              	.LCFI0:
  37              		.cfi_def_cfa_offset 20
  38              		.cfi_offset 4, -20
  39              		.cfi_offset 5, -16
  40              		.cfi_offset 6, -12
  41              		.cfi_offset 7, -8
ARM GAS  C:\Users\10963\AppData\Local\Temp\cc0xkZc1.s 			page 2


  42              		.cfi_offset 14, -4
  43 0002 2DED028B 		vpush.64	{d8}
  44              	.LCFI1:
  45              		.cfi_def_cfa_offset 28
  46              		.cfi_offset 80, -28
  47              		.cfi_offset 81, -24
  48 0006 85B0     		sub	sp, sp, #20
  49              	.LCFI2:
  50              		.cfi_def_cfa_offset 48
  51 0008 0646     		mov	r6, r0
  52 000a 0F46     		mov	r7, r1
  18:../USB_Debug/src/usb_printf.c ****     int integer_part = (int)value;
  53              		.loc 1 18 5 is_stmt 1 view .LVU2
  54              		.loc 1 18 9 is_stmt 0 view .LVU3
  55 000c FDEEC07A 		vcvt.s32.f32	s15, s0
  56 0010 17EE902A 		vmov	r2, s15	@ int
  57              	.LVL1:
  19:../USB_Debug/src/usb_printf.c ****     float fractional_part = value - integer_part;
  58              		.loc 1 19 5 is_stmt 1 view .LVU4
  59              		.loc 1 19 35 is_stmt 0 view .LVU5
  60 0014 F8EEE77A 		vcvt.f32.s32	s15, s15
  61              		.loc 1 19 11 view .LVU6
  62 0018 30EE678A 		vsub.f32	s16, s0, s15
  63              	.LVL2:
  20:../USB_Debug/src/usb_printf.c ****     int len = 0;
  64              		.loc 1 20 5 is_stmt 1 view .LVU7
  21:../USB_Debug/src/usb_printf.c ****     
  22:../USB_Debug/src/usb_printf.c ****     // 处理负号
  23:../USB_Debug/src/usb_printf.c ****     if (value < 0)
  65              		.loc 1 23 5 view .LVU8
  66              		.loc 1 23 8 is_stmt 0 view .LVU9
  67 001c B5EEC00A 		vcmpe.f32	s0, #0
  68 0020 F1EE10FA 		vmrs	APSR_nzcv, FPSCR
  69 0024 12D4     		bmi	.L17
  20:../USB_Debug/src/usb_printf.c ****     int len = 0;
  70              		.loc 1 20 9 view .LVU10
  71 0026 0025     		movs	r5, #0
  72              	.LVL3:
  73              	.L2:
  24:../USB_Debug/src/usb_printf.c ****     {
  25:../USB_Debug/src/usb_printf.c ****         buf[len++] = '-';
  26:../USB_Debug/src/usb_printf.c ****         integer_part = -integer_part;
  27:../USB_Debug/src/usb_printf.c ****         fractional_part = -fractional_part;
  28:../USB_Debug/src/usb_printf.c ****     }
  29:../USB_Debug/src/usb_printf.c ****     
  30:../USB_Debug/src/usb_printf.c ****     // 转换整数部分
  31:../USB_Debug/src/usb_printf.c ****     char int_buf[10];
  74              		.loc 1 31 5 is_stmt 1 view .LVU11
  32:../USB_Debug/src/usb_printf.c ****     int int_len = 0;
  75              		.loc 1 32 5 view .LVU12
  33:../USB_Debug/src/usb_printf.c ****     if (integer_part == 0)
  76              		.loc 1 33 5 view .LVU13
  77              		.loc 1 33 8 is_stmt 0 view .LVU14
  78 0028 72BB     		cbnz	r2, .L13
  34:../USB_Debug/src/usb_printf.c ****     {
  35:../USB_Debug/src/usb_printf.c ****         int_buf[int_len++] = '0';
  79              		.loc 1 35 9 is_stmt 1 view .LVU15
ARM GAS  C:\Users\10963\AppData\Local\Temp\cc0xkZc1.s 			page 3


  80              	.LVL4:
  81              		.loc 1 35 28 is_stmt 0 view .LVU16
  82 002a 3023     		movs	r3, #48
  83 002c 8DF80430 		strb	r3, [sp, #4]
  84              		.loc 1 35 24 view .LVU17
  85 0030 0124     		movs	r4, #1
  86              	.LVL5:
  87              	.L5:
  36:../USB_Debug/src/usb_printf.c ****     }
  37:../USB_Debug/src/usb_printf.c ****     else
  38:../USB_Debug/src/usb_printf.c ****     {
  39:../USB_Debug/src/usb_printf.c ****         while (integer_part > 0)
  40:../USB_Debug/src/usb_printf.c ****         {
  41:../USB_Debug/src/usb_printf.c ****             int_buf[int_len++] = (integer_part % 10) + '0';
  42:../USB_Debug/src/usb_printf.c ****             integer_part /= 10;
  43:../USB_Debug/src/usb_printf.c ****         }
  44:../USB_Debug/src/usb_printf.c ****         // 反转整数部分
  45:../USB_Debug/src/usb_printf.c ****         for (int i = 0; i < int_len / 2; i++)
  46:../USB_Debug/src/usb_printf.c ****         {
  47:../USB_Debug/src/usb_printf.c ****             char temp = int_buf[i];
  48:../USB_Debug/src/usb_printf.c ****             int_buf[i] = int_buf[int_len - 1 - i];
  49:../USB_Debug/src/usb_printf.c ****             int_buf[int_len - 1 - i] = temp;
  50:../USB_Debug/src/usb_printf.c ****         }
  51:../USB_Debug/src/usb_printf.c ****     }
  52:../USB_Debug/src/usb_printf.c ****     
  53:../USB_Debug/src/usb_printf.c ****     // 复制整数部分到输出缓冲区
  54:../USB_Debug/src/usb_printf.c ****     memcpy(buf + len, int_buf, int_len);
  88              		.loc 1 54 5 is_stmt 1 view .LVU18
  89 0032 2246     		mov	r2, r4
  90 0034 01A9     		add	r1, sp, #4
  91 0036 7019     		adds	r0, r6, r5
  92 0038 FFF7FEFF 		bl	memcpy
  93              	.LVL6:
  55:../USB_Debug/src/usb_printf.c ****     len += int_len;
  94              		.loc 1 55 5 view .LVU19
  95              		.loc 1 55 9 is_stmt 0 view .LVU20
  96 003c 2819     		adds	r0, r5, r4
  97              	.LVL7:
  56:../USB_Debug/src/usb_printf.c ****     
  57:../USB_Debug/src/usb_printf.c ****     // 处理小数部分
  58:../USB_Debug/src/usb_printf.c ****     if (precision > 0)
  98              		.loc 1 58 5 is_stmt 1 view .LVU21
  99              		.loc 1 58 8 is_stmt 0 view .LVU22
 100 003e 002F     		cmp	r7, #0
 101 0040 4DDD     		ble	.L9
  59:../USB_Debug/src/usb_printf.c ****     {
  60:../USB_Debug/src/usb_printf.c ****         buf[len++] = '.';
 102              		.loc 1 60 9 is_stmt 1 view .LVU23
 103              	.LVL8:
 104              		.loc 1 60 20 is_stmt 0 view .LVU24
 105 0042 2E23     		movs	r3, #46
 106 0044 3354     		strb	r3, [r6, r0]
  61:../USB_Debug/src/usb_printf.c ****         for (int i = 0; i < precision; i++)
 107              		.loc 1 61 9 is_stmt 1 view .LVU25
 108              	.LBB2:
 109              		.loc 1 61 14 view .LVU26
 110              	.LVL9:
ARM GAS  C:\Users\10963\AppData\Local\Temp\cc0xkZc1.s 			page 4


 111              		.loc 1 61 14 is_stmt 0 view .LVU27
 112              	.LBE2:
  60:../USB_Debug/src/usb_printf.c ****         for (int i = 0; i < precision; i++)
 113              		.loc 1 60 16 view .LVU28
 114 0046 0130     		adds	r0, r0, #1
 115              	.LVL10:
 116              	.LBB5:
 117              		.loc 1 61 18 view .LVU29
 118 0048 0023     		movs	r3, #0
 119              		.loc 1 61 9 view .LVU30
 120 004a 46E0     		b	.L10
 121              	.LVL11:
 122              	.L17:
 123              		.loc 1 61 9 view .LVU31
 124              	.LBE5:
  25:../USB_Debug/src/usb_printf.c ****         integer_part = -integer_part;
 125              		.loc 1 25 9 is_stmt 1 view .LVU32
  25:../USB_Debug/src/usb_printf.c ****         integer_part = -integer_part;
 126              		.loc 1 25 20 is_stmt 0 view .LVU33
 127 004c 2D23     		movs	r3, #45
 128 004e 0370     		strb	r3, [r0]
  26:../USB_Debug/src/usb_printf.c ****         fractional_part = -fractional_part;
 129              		.loc 1 26 9 is_stmt 1 view .LVU34
  26:../USB_Debug/src/usb_printf.c ****         fractional_part = -fractional_part;
 130              		.loc 1 26 22 is_stmt 0 view .LVU35
 131 0050 5242     		rsbs	r2, r2, #0
 132              	.LVL12:
  27:../USB_Debug/src/usb_printf.c ****     }
 133              		.loc 1 27 9 is_stmt 1 view .LVU36
  27:../USB_Debug/src/usb_printf.c ****     }
 134              		.loc 1 27 25 is_stmt 0 view .LVU37
 135 0052 B1EE488A 		vneg.f32	s16, s16
 136              	.LVL13:
  25:../USB_Debug/src/usb_printf.c ****         integer_part = -integer_part;
 137              		.loc 1 25 16 view .LVU38
 138 0056 0125     		movs	r5, #1
 139 0058 E6E7     		b	.L2
 140              	.LVL14:
 141              	.L6:
  41:../USB_Debug/src/usb_printf.c ****             integer_part /= 10;
 142              		.loc 1 41 13 is_stmt 1 view .LVU39
  41:../USB_Debug/src/usb_printf.c ****             integer_part /= 10;
 143              		.loc 1 41 48 is_stmt 0 view .LVU40
 144 005a 2449     		ldr	r1, .L18
 145 005c 81FB0231 		smull	r3, r1, r1, r2
 146 0060 D317     		asrs	r3, r2, #31
 147 0062 C3EBA103 		rsb	r3, r3, r1, asr #2
 148 0066 1946     		mov	r1, r3
 149 0068 03EB8303 		add	r3, r3, r3, lsl #2
 150 006c A2EB4303 		sub	r3, r2, r3, lsl #1
 151              	.LVL15:
  41:../USB_Debug/src/usb_printf.c ****             integer_part /= 10;
 152              		.loc 1 41 54 view .LVU41
 153 0070 3033     		adds	r3, r3, #48
  41:../USB_Debug/src/usb_printf.c ****             integer_part /= 10;
 154              		.loc 1 41 32 view .LVU42
 155 0072 04F11002 		add	r2, r4, #16
ARM GAS  C:\Users\10963\AppData\Local\Temp\cc0xkZc1.s 			page 5


 156              	.LVL16:
  41:../USB_Debug/src/usb_printf.c ****             integer_part /= 10;
 157              		.loc 1 41 32 view .LVU43
 158 0076 6A44     		add	r2, sp, r2
 159 0078 02F80C3C 		strb	r3, [r2, #-12]
  42:../USB_Debug/src/usb_printf.c ****         }
 160              		.loc 1 42 13 is_stmt 1 view .LVU44
  42:../USB_Debug/src/usb_printf.c ****         }
 161              		.loc 1 42 26 is_stmt 0 view .LVU45
 162 007c 0A46     		mov	r2, r1
 163              	.LVL17:
  41:../USB_Debug/src/usb_printf.c ****             integer_part /= 10;
 164              		.loc 1 41 28 view .LVU46
 165 007e 0134     		adds	r4, r4, #1
 166              	.LVL18:
 167              	.L4:
  39:../USB_Debug/src/usb_printf.c ****         {
 168              		.loc 1 39 29 is_stmt 1 view .LVU47
 169 0080 002A     		cmp	r2, #0
 170 0082 EADC     		bgt	.L6
 171              	.LBB6:
  45:../USB_Debug/src/usb_printf.c ****         {
 172              		.loc 1 45 18 is_stmt 0 view .LVU48
 173 0084 0022     		movs	r2, #0
 174              	.LVL19:
  45:../USB_Debug/src/usb_printf.c ****         {
 175              		.loc 1 45 18 view .LVU49
 176 0086 12E0     		b	.L7
 177              	.LVL20:
 178              	.L13:
  45:../USB_Debug/src/usb_printf.c ****         {
 179              		.loc 1 45 18 view .LVU50
 180              	.LBE6:
  32:../USB_Debug/src/usb_printf.c ****     if (integer_part == 0)
 181              		.loc 1 32 9 view .LVU51
 182 0088 0024     		movs	r4, #0
 183 008a F9E7     		b	.L4
 184              	.LVL21:
 185              	.L8:
 186              	.LBB8:
 187              	.LBB7:
  47:../USB_Debug/src/usb_printf.c ****             int_buf[i] = int_buf[int_len - 1 - i];
 188              		.loc 1 47 13 is_stmt 1 view .LVU52
  47:../USB_Debug/src/usb_printf.c ****             int_buf[i] = int_buf[int_len - 1 - i];
 189              		.loc 1 47 18 is_stmt 0 view .LVU53
 190 008c 02F11003 		add	r3, r2, #16
 191 0090 0DEB0301 		add	r1, sp, r3
 192 0094 11F80C0C 		ldrb	r0, [r1, #-12]	@ zero_extendqisi2
 193              	.LVL22:
  48:../USB_Debug/src/usb_printf.c ****             int_buf[int_len - 1 - i] = temp;
 194              		.loc 1 48 13 is_stmt 1 view .LVU54
  48:../USB_Debug/src/usb_printf.c ****             int_buf[int_len - 1 - i] = temp;
 195              		.loc 1 48 42 is_stmt 0 view .LVU55
 196 0098 631E     		subs	r3, r4, #1
  48:../USB_Debug/src/usb_printf.c ****             int_buf[int_len - 1 - i] = temp;
 197              		.loc 1 48 46 view .LVU56
 198 009a 9B1A     		subs	r3, r3, r2
ARM GAS  C:\Users\10963\AppData\Local\Temp\cc0xkZc1.s 			page 6


  48:../USB_Debug/src/usb_printf.c ****             int_buf[int_len - 1 - i] = temp;
 199              		.loc 1 48 33 view .LVU57
 200 009c 1033     		adds	r3, r3, #16
 201 009e 6B44     		add	r3, sp, r3
 202 00a0 13F80CCC 		ldrb	ip, [r3, #-12]	@ zero_extendqisi2
  48:../USB_Debug/src/usb_printf.c ****             int_buf[int_len - 1 - i] = temp;
 203              		.loc 1 48 24 view .LVU58
 204 00a4 01F80CCC 		strb	ip, [r1, #-12]
  49:../USB_Debug/src/usb_printf.c ****         }
 205              		.loc 1 49 13 is_stmt 1 view .LVU59
  49:../USB_Debug/src/usb_printf.c ****         }
 206              		.loc 1 49 38 is_stmt 0 view .LVU60
 207 00a8 03F80C0C 		strb	r0, [r3, #-12]
 208              	.LBE7:
  45:../USB_Debug/src/usb_printf.c ****         {
 209              		.loc 1 45 43 is_stmt 1 discriminator 3 view .LVU61
 210 00ac 0132     		adds	r2, r2, #1
 211              	.LVL23:
 212              	.L7:
  45:../USB_Debug/src/usb_printf.c ****         {
 213              		.loc 1 45 27 discriminator 1 view .LVU62
  45:../USB_Debug/src/usb_printf.c ****         {
 214              		.loc 1 45 37 is_stmt 0 discriminator 1 view .LVU63
 215 00ae 04EBD473 		add	r3, r4, r4, lsr #31
  45:../USB_Debug/src/usb_printf.c ****         {
 216              		.loc 1 45 27 discriminator 1 view .LVU64
 217 00b2 B2EB630F 		cmp	r2, r3, asr #1
 218 00b6 E9DB     		blt	.L8
 219 00b8 BBE7     		b	.L5
 220              	.LVL24:
 221              	.L11:
  45:../USB_Debug/src/usb_printf.c ****         {
 222              		.loc 1 45 27 discriminator 1 view .LVU65
 223              	.LBE8:
 224              	.LBB9:
 225              	.LBB3:
  62:../USB_Debug/src/usb_printf.c ****         {
  63:../USB_Debug/src/usb_printf.c ****             fractional_part *= 10;
 226              		.loc 1 63 13 is_stmt 1 view .LVU66
 227              		.loc 1 63 29 is_stmt 0 view .LVU67
 228 00ba F2EE047A 		vmov.f32	s15, #1.0e+1
 229 00be 68EE277A 		vmul.f32	s15, s16, s15
 230              	.LVL25:
  64:../USB_Debug/src/usb_printf.c ****             int digit = (int)fractional_part;
 231              		.loc 1 64 13 is_stmt 1 view .LVU68
 232              		.loc 1 64 17 is_stmt 0 view .LVU69
 233 00c2 BDEEE77A 		vcvt.s32.f32	s14, s15
 234              	.LVL26:
  65:../USB_Debug/src/usb_printf.c ****             buf[len++] = digit + '0';
 235              		.loc 1 65 13 is_stmt 1 view .LVU70
 236              		.loc 1 65 32 is_stmt 0 view .LVU71
 237 00c6 17EE102A 		vmov	r2, s14	@ int
 238 00ca 3032     		adds	r2, r2, #48
 239              		.loc 1 65 24 view .LVU72
 240 00cc 3254     		strb	r2, [r6, r0]
  66:../USB_Debug/src/usb_printf.c ****             fractional_part -= digit;
 241              		.loc 1 66 13 is_stmt 1 view .LVU73
ARM GAS  C:\Users\10963\AppData\Local\Temp\cc0xkZc1.s 			page 7


 242              		.loc 1 66 29 is_stmt 0 view .LVU74
 243 00ce B8EEC77A 		vcvt.f32.s32	s14, s14
 244              	.LVL27:
 245              		.loc 1 66 29 view .LVU75
 246 00d2 37EEC78A 		vsub.f32	s16, s15, s14
 247              	.LVL28:
 248              		.loc 1 66 29 view .LVU76
 249              	.LBE3:
  61:../USB_Debug/src/usb_printf.c ****         {
 250              		.loc 1 61 41 is_stmt 1 discriminator 3 view .LVU77
 251 00d6 0133     		adds	r3, r3, #1
 252              	.LVL29:
 253              	.LBB4:
  65:../USB_Debug/src/usb_printf.c ****             buf[len++] = digit + '0';
 254              		.loc 1 65 20 is_stmt 0 view .LVU78
 255 00d8 0130     		adds	r0, r0, #1
 256              	.LVL30:
 257              	.L10:
  65:../USB_Debug/src/usb_printf.c ****             buf[len++] = digit + '0';
 258              		.loc 1 65 20 view .LVU79
 259              	.LBE4:
  61:../USB_Debug/src/usb_printf.c ****         {
 260              		.loc 1 61 27 is_stmt 1 discriminator 1 view .LVU80
 261 00da BB42     		cmp	r3, r7
 262 00dc EDDB     		blt	.L11
 263              	.LVL31:
 264              	.L9:
  61:../USB_Debug/src/usb_printf.c ****         {
 265              		.loc 1 61 27 is_stmt 0 discriminator 1 view .LVU81
 266              	.LBE9:
  67:../USB_Debug/src/usb_printf.c ****         }
  68:../USB_Debug/src/usb_printf.c ****     }
  69:../USB_Debug/src/usb_printf.c ****     
  70:../USB_Debug/src/usb_printf.c ****     buf[len] = '\0';
 267              		.loc 1 70 5 is_stmt 1 view .LVU82
 268              		.loc 1 70 14 is_stmt 0 view .LVU83
 269 00de 0023     		movs	r3, #0
 270 00e0 3354     		strb	r3, [r6, r0]
  71:../USB_Debug/src/usb_printf.c ****     return len;
 271              		.loc 1 71 5 is_stmt 1 view .LVU84
  72:../USB_Debug/src/usb_printf.c **** }
 272              		.loc 1 72 1 is_stmt 0 view .LVU85
 273 00e2 05B0     		add	sp, sp, #20
 274              	.LCFI3:
 275              		.cfi_def_cfa_offset 28
 276              		@ sp needed
 277 00e4 BDEC028B 		vldm	sp!, {d8}
 278              	.LCFI4:
 279              		.cfi_restore 80
 280              		.cfi_restore 81
 281              		.cfi_def_cfa_offset 20
 282              	.LVL32:
 283              		.loc 1 72 1 view .LVU86
 284 00e8 F0BD     		pop	{r4, r5, r6, r7, pc}
 285              	.LVL33:
 286              	.L19:
 287              		.loc 1 72 1 view .LVU87
ARM GAS  C:\Users\10963\AppData\Local\Temp\cc0xkZc1.s 			page 8


 288 00ea 00BF     		.align	2
 289              	.L18:
 290 00ec 67666666 		.word	1717986919
 291              		.cfi_endproc
 292              	.LFE137:
 294              		.section	.text.usb_send_string,"ax",%progbits
 295              		.align	1
 296              		.global	usb_send_string
 297              		.syntax unified
 298              		.thumb
 299              		.thumb_func
 301              	usb_send_string:
 302              	.LVL34:
 303              	.LFB138:
  73:../USB_Debug/src/usb_printf.c **** 
  74:../USB_Debug/src/usb_printf.c **** /**
  75:../USB_Debug/src/usb_printf.c ****  * @brief 发送字符串到USB
  76:../USB_Debug/src/usb_printf.c ****  * @param str 字符串
  77:../USB_Debug/src/usb_printf.c ****  * @return 发送的字符数
  78:../USB_Debug/src/usb_printf.c ****  */
  79:../USB_Debug/src/usb_printf.c **** int usb_send_string(const char *str)
  80:../USB_Debug/src/usb_printf.c **** {
 304              		.loc 1 80 1 is_stmt 1 view -0
 305              		.cfi_startproc
 306              		@ args = 0, pretend = 0, frame = 0
 307              		@ frame_needed = 0, uses_anonymous_args = 0
 308              		.loc 1 80 1 is_stmt 0 view .LVU89
 309 0000 70B5     		push	{r4, r5, r6, lr}
 310              	.LCFI5:
 311              		.cfi_def_cfa_offset 16
 312              		.cfi_offset 4, -16
 313              		.cfi_offset 5, -12
 314              		.cfi_offset 6, -8
 315              		.cfi_offset 14, -4
 316 0002 0546     		mov	r5, r0
  81:../USB_Debug/src/usb_printf.c ****     int len = strlen(str);
 317              		.loc 1 81 5 is_stmt 1 view .LVU90
 318              		.loc 1 81 15 is_stmt 0 view .LVU91
 319 0004 FFF7FEFF 		bl	strlen
 320              	.LVL35:
 321              		.loc 1 81 15 view .LVU92
 322 0008 0646     		mov	r6, r0
 323              	.LVL36:
  82:../USB_Debug/src/usb_printf.c ****     error_status status;
 324              		.loc 1 82 5 is_stmt 1 view .LVU93
  83:../USB_Debug/src/usb_printf.c ****     uint16_t i = 0;
 325              		.loc 1 83 5 view .LVU94
  84:../USB_Debug/src/usb_printf.c ****     
  85:../USB_Debug/src/usb_printf.c ****     while (i < len)
 326              		.loc 1 85 5 view .LVU95
  83:../USB_Debug/src/usb_printf.c ****     uint16_t i = 0;
 327              		.loc 1 83 14 is_stmt 0 view .LVU96
 328 000a 0024     		movs	r4, #0
 329              		.loc 1 85 11 view .LVU97
 330 000c 08E0     		b	.L21
 331              	.LVL37:
 332              	.L22:
ARM GAS  C:\Users\10963\AppData\Local\Temp\cc0xkZc1.s 			page 9


  86:../USB_Debug/src/usb_printf.c ****     {
  87:../USB_Debug/src/usb_printf.c ****         do
 333              		.loc 1 87 9 is_stmt 1 view .LVU98
  88:../USB_Debug/src/usb_printf.c ****         {
  89:../USB_Debug/src/usb_printf.c ****             status = usb_vcp_send_data(&usb_core_dev, (uint8_t *)&str[i], 1);
 334              		.loc 1 89 13 view .LVU99
 335              		.loc 1 89 22 is_stmt 0 view .LVU100
 336 000e 0122     		movs	r2, #1
 337 0010 2919     		adds	r1, r5, r4
 338 0012 0548     		ldr	r0, .L24
 339 0014 FFF7FEFF 		bl	usb_vcp_send_data
 340              	.LVL38:
  90:../USB_Debug/src/usb_printf.c ****         } while (status == ERROR);
 341              		.loc 1 90 25 is_stmt 1 discriminator 1 view .LVU101
 342 0018 0028     		cmp	r0, #0
 343 001a F8D0     		beq	.L22
  91:../USB_Debug/src/usb_printf.c ****         i++;
 344              		.loc 1 91 9 view .LVU102
 345              		.loc 1 91 10 is_stmt 0 view .LVU103
 346 001c 0134     		adds	r4, r4, #1
 347              	.LVL39:
 348              		.loc 1 91 10 view .LVU104
 349 001e A4B2     		uxth	r4, r4
 350              	.LVL40:
 351              	.L21:
  85:../USB_Debug/src/usb_printf.c ****     {
 352              		.loc 1 85 14 is_stmt 1 view .LVU105
 353 0020 B442     		cmp	r4, r6
 354 0022 F4DB     		blt	.L22
  92:../USB_Debug/src/usb_printf.c ****     }
  93:../USB_Debug/src/usb_printf.c ****     
  94:../USB_Debug/src/usb_printf.c ****     return len;
 355              		.loc 1 94 5 view .LVU106
  95:../USB_Debug/src/usb_printf.c **** }
 356              		.loc 1 95 1 is_stmt 0 view .LVU107
 357 0024 3046     		mov	r0, r6
 358 0026 70BD     		pop	{r4, r5, r6, pc}
 359              	.LVL41:
 360              	.L25:
 361              		.loc 1 95 1 view .LVU108
 362              		.align	2
 363              	.L24:
 364 0028 00000000 		.word	usb_core_dev
 365              		.cfi_endproc
 366              	.LFE138:
 368              		.section	.text.usb_send_float,"ax",%progbits
 369              		.align	1
 370              		.global	usb_send_float
 371              		.syntax unified
 372              		.thumb
 373              		.thumb_func
 375              	usb_send_float:
 376              	.LVL42:
 377              	.LFB139:
  96:../USB_Debug/src/usb_printf.c **** 
  97:../USB_Debug/src/usb_printf.c **** /**
  98:../USB_Debug/src/usb_printf.c ****  * @brief 发送浮点数到USB
ARM GAS  C:\Users\10963\AppData\Local\Temp\cc0xkZc1.s 			page 10


  99:../USB_Debug/src/usb_printf.c ****  * @param value 浮点数
 100:../USB_Debug/src/usb_printf.c ****  * @param precision 小数位数
 101:../USB_Debug/src/usb_printf.c ****  * @return 发送的字符数
 102:../USB_Debug/src/usb_printf.c ****  */
 103:../USB_Debug/src/usb_printf.c **** int usb_send_float(float value, int precision)
 104:../USB_Debug/src/usb_printf.c **** {
 378              		.loc 1 104 1 is_stmt 1 view -0
 379              		.cfi_startproc
 380              		@ args = 0, pretend = 0, frame = 24
 381              		@ frame_needed = 0, uses_anonymous_args = 0
 382              		.loc 1 104 1 is_stmt 0 view .LVU110
 383 0000 10B5     		push	{r4, lr}
 384              	.LCFI6:
 385              		.cfi_def_cfa_offset 8
 386              		.cfi_offset 4, -8
 387              		.cfi_offset 14, -4
 388 0002 86B0     		sub	sp, sp, #24
 389              	.LCFI7:
 390              		.cfi_def_cfa_offset 32
 391 0004 0146     		mov	r1, r0
 105:../USB_Debug/src/usb_printf.c ****     char buf[20];
 392              		.loc 1 105 5 is_stmt 1 view .LVU111
 106:../USB_Debug/src/usb_printf.c ****     float_to_string(value, buf, precision);
 393              		.loc 1 106 5 view .LVU112
 394 0006 01AC     		add	r4, sp, #4
 395 0008 2046     		mov	r0, r4
 396              	.LVL43:
 397              		.loc 1 106 5 is_stmt 0 view .LVU113
 398 000a FFF7FEFF 		bl	float_to_string
 399              	.LVL44:
 107:../USB_Debug/src/usb_printf.c ****     return usb_send_string(buf);
 400              		.loc 1 107 5 is_stmt 1 view .LVU114
 401              		.loc 1 107 12 is_stmt 0 view .LVU115
 402 000e 2046     		mov	r0, r4
 403 0010 FFF7FEFF 		bl	usb_send_string
 404              	.LVL45:
 108:../USB_Debug/src/usb_printf.c **** }
 405              		.loc 1 108 1 view .LVU116
 406 0014 06B0     		add	sp, sp, #24
 407              	.LCFI8:
 408              		.cfi_def_cfa_offset 8
 409              		@ sp needed
 410 0016 10BD     		pop	{r4, pc}
 411              		.cfi_endproc
 412              	.LFE139:
 414              		.section	.text._write,"ax",%progbits
 415              		.align	1
 416              		.global	_write
 417              		.syntax unified
 418              		.thumb
 419              		.thumb_func
 421              	_write:
 422              	.LVL46:
 423              	.LFB140:
 109:../USB_Debug/src/usb_printf.c **** 
 110:../USB_Debug/src/usb_printf.c **** /**
 111:../USB_Debug/src/usb_printf.c ****  * @brief 重定向printf到USB
ARM GAS  C:\Users\10963\AppData\Local\Temp\cc0xkZc1.s 			page 11


 112:../USB_Debug/src/usb_printf.c ****  */
 113:../USB_Debug/src/usb_printf.c **** int _write(int file, char *ptr, int len)
 114:../USB_Debug/src/usb_printf.c **** {
 424              		.loc 1 114 1 is_stmt 1 view -0
 425              		.cfi_startproc
 426              		@ args = 0, pretend = 0, frame = 0
 427              		@ frame_needed = 0, uses_anonymous_args = 0
 428              		.loc 1 114 1 is_stmt 0 view .LVU118
 429 0000 70B5     		push	{r4, r5, r6, lr}
 430              	.LCFI9:
 431              		.cfi_def_cfa_offset 16
 432              		.cfi_offset 4, -16
 433              		.cfi_offset 5, -12
 434              		.cfi_offset 6, -8
 435              		.cfi_offset 14, -4
 115:../USB_Debug/src/usb_printf.c ****     // 只处理标准输出和标准错误
 116:../USB_Debug/src/usb_printf.c ****     if (file == 1 || file == 2)
 436              		.loc 1 116 5 is_stmt 1 view .LVU119
 437              		.loc 1 116 19 is_stmt 0 view .LVU120
 438 0002 0138     		subs	r0, r0, #1
 439              	.LVL47:
 440              		.loc 1 116 8 view .LVU121
 441 0004 0128     		cmp	r0, #1
 442 0006 03D8     		bhi	.L34
 443 0008 0D46     		mov	r5, r1
 444 000a 1646     		mov	r6, r2
 445              	.LBB10:
 117:../USB_Debug/src/usb_printf.c ****     {
 118:../USB_Debug/src/usb_printf.c ****         error_status status;
 119:../USB_Debug/src/usb_printf.c ****         uint16_t i = 0;
 446              		.loc 1 119 18 view .LVU122
 447 000c 0024     		movs	r4, #0
 448 000e 0BE0     		b	.L29
 449              	.L34:
 450              		.loc 1 119 18 view .LVU123
 451              	.LBE10:
 120:../USB_Debug/src/usb_printf.c ****         
 121:../USB_Debug/src/usb_printf.c ****         while (i < len)
 122:../USB_Debug/src/usb_printf.c ****         {
 123:../USB_Debug/src/usb_printf.c ****             do
 124:../USB_Debug/src/usb_printf.c ****             {
 125:../USB_Debug/src/usb_printf.c ****                 status = usb_vcp_send_data(&usb_core_dev, (uint8_t *)&ptr[i], 1);
 126:../USB_Debug/src/usb_printf.c ****             } while (status == ERROR);
 127:../USB_Debug/src/usb_printf.c ****             i++;
 128:../USB_Debug/src/usb_printf.c ****         }
 129:../USB_Debug/src/usb_printf.c ****         
 130:../USB_Debug/src/usb_printf.c ****         return len;
 131:../USB_Debug/src/usb_printf.c ****     }
 132:../USB_Debug/src/usb_printf.c ****     
 133:../USB_Debug/src/usb_printf.c ****     return -1;
 452              		.loc 1 133 12 view .LVU124
 453 0010 4FF0FF36 		mov	r6, #-1
 454 0014 0AE0     		b	.L30
 455              	.LVL48:
 456              	.L31:
 457              	.LBB11:
 123:../USB_Debug/src/usb_printf.c ****             {
ARM GAS  C:\Users\10963\AppData\Local\Temp\cc0xkZc1.s 			page 12


 458              		.loc 1 123 13 is_stmt 1 view .LVU125
 125:../USB_Debug/src/usb_printf.c ****             } while (status == ERROR);
 459              		.loc 1 125 17 view .LVU126
 125:../USB_Debug/src/usb_printf.c ****             } while (status == ERROR);
 460              		.loc 1 125 26 is_stmt 0 view .LVU127
 461 0016 0122     		movs	r2, #1
 462 0018 2919     		adds	r1, r5, r4
 463 001a 0548     		ldr	r0, .L35
 464 001c FFF7FEFF 		bl	usb_vcp_send_data
 465              	.LVL49:
 126:../USB_Debug/src/usb_printf.c ****             i++;
 466              		.loc 1 126 29 is_stmt 1 discriminator 1 view .LVU128
 467 0020 0028     		cmp	r0, #0
 468 0022 F8D0     		beq	.L31
 127:../USB_Debug/src/usb_printf.c ****         }
 469              		.loc 1 127 13 view .LVU129
 127:../USB_Debug/src/usb_printf.c ****         }
 470              		.loc 1 127 14 is_stmt 0 view .LVU130
 471 0024 0134     		adds	r4, r4, #1
 472              	.LVL50:
 127:../USB_Debug/src/usb_printf.c ****         }
 473              		.loc 1 127 14 view .LVU131
 474 0026 A4B2     		uxth	r4, r4
 475              	.LVL51:
 476              	.L29:
 121:../USB_Debug/src/usb_printf.c ****         {
 477              		.loc 1 121 18 is_stmt 1 view .LVU132
 478 0028 B442     		cmp	r4, r6
 479 002a F4DB     		blt	.L31
 480              	.LVL52:
 481              	.L30:
 121:../USB_Debug/src/usb_printf.c ****         {
 482              		.loc 1 121 18 is_stmt 0 view .LVU133
 483              	.LBE11:
 134:../USB_Debug/src/usb_printf.c **** }
 484              		.loc 1 134 1 view .LVU134
 485 002c 3046     		mov	r0, r6
 486 002e 70BD     		pop	{r4, r5, r6, pc}
 487              	.L36:
 488              		.align	2
 489              	.L35:
 490 0030 00000000 		.word	usb_core_dev
 491              		.cfi_endproc
 492              	.LFE140:
 494              		.section	.text.__io_putchar,"ax",%progbits
 495              		.align	1
 496              		.global	__io_putchar
 497              		.syntax unified
 498              		.thumb
 499              		.thumb_func
 501              	__io_putchar:
 502              	.LVL53:
 503              	.LFB141:
 135:../USB_Debug/src/usb_printf.c **** 
 136:../USB_Debug/src/usb_printf.c **** /**
 137:../USB_Debug/src/usb_printf.c ****  * @brief 实现__io_putchar函数，确保printf正常工作
 138:../USB_Debug/src/usb_printf.c ****  */
ARM GAS  C:\Users\10963\AppData\Local\Temp\cc0xkZc1.s 			page 13


 139:../USB_Debug/src/usb_printf.c **** int __io_putchar(int ch)
 140:../USB_Debug/src/usb_printf.c **** {
 504              		.loc 1 140 1 is_stmt 1 view -0
 505              		.cfi_startproc
 506              		@ args = 0, pretend = 0, frame = 8
 507              		@ frame_needed = 0, uses_anonymous_args = 0
 508              		.loc 1 140 1 is_stmt 0 view .LVU136
 509 0000 00B5     		push	{lr}
 510              	.LCFI10:
 511              		.cfi_def_cfa_offset 4
 512              		.cfi_offset 14, -4
 513 0002 83B0     		sub	sp, sp, #12
 514              	.LCFI11:
 515              		.cfi_def_cfa_offset 16
 516 0004 0190     		str	r0, [sp, #4]
 517              	.LVL54:
 518              	.L38:
 141:../USB_Debug/src/usb_printf.c ****     error_status status;
 519              		.loc 1 141 5 is_stmt 1 view .LVU137
 142:../USB_Debug/src/usb_printf.c ****     do
 520              		.loc 1 142 5 view .LVU138
 143:../USB_Debug/src/usb_printf.c ****     {
 144:../USB_Debug/src/usb_printf.c ****         status = usb_vcp_send_data(&usb_core_dev, (uint8_t *)&ch, 1);
 521              		.loc 1 144 9 view .LVU139
 522              		.loc 1 144 18 is_stmt 0 view .LVU140
 523 0006 0122     		movs	r2, #1
 524 0008 01A9     		add	r1, sp, #4
 525 000a 0448     		ldr	r0, .L40
 526 000c FFF7FEFF 		bl	usb_vcp_send_data
 527              	.LVL55:
 145:../USB_Debug/src/usb_printf.c ****     } while (status == ERROR);
 528              		.loc 1 145 21 is_stmt 1 discriminator 1 view .LVU141
 529 0010 0028     		cmp	r0, #0
 530 0012 F8D0     		beq	.L38
 146:../USB_Debug/src/usb_printf.c ****     return ch;
 531              		.loc 1 146 5 view .LVU142
 147:../USB_Debug/src/usb_printf.c **** }
 532              		.loc 1 147 1 is_stmt 0 view .LVU143
 533 0014 0198     		ldr	r0, [sp, #4]
 534              	.LVL56:
 535              		.loc 1 147 1 view .LVU144
 536 0016 03B0     		add	sp, sp, #12
 537              	.LCFI12:
 538              		.cfi_def_cfa_offset 4
 539              		@ sp needed
 540 0018 00BD     		pop	{pc}
 541              	.L41:
 542 001a 00BF     		.align	2
 543              	.L40:
 544 001c 00000000 		.word	usb_core_dev
 545              		.cfi_endproc
 546              	.LFE141:
 548              		.text
 549              	.Letext0:
 550              		.file 2 "C:/Program Files (x86)/Arm/GNU Toolchain mingw-w64-i686-arm-none-eabi/arm-none-eabi/inclu
 551              		.file 3 "C:/Program Files (x86)/Arm/GNU Toolchain mingw-w64-i686-arm-none-eabi/lib/gcc/arm-none-ea
 552              		.file 4 "C:/Program Files (x86)/Arm/GNU Toolchain mingw-w64-i686-arm-none-eabi/arm-none-eabi/inclu
ARM GAS  C:\Users\10963\AppData\Local\Temp\cc0xkZc1.s 			page 14


 553              		.file 5 "libraries/cmsis/cm4/device_support/at32f403a_407.h"
 554              		.file 6 "libraries/drivers/inc/at32f403a_407_usb.h"
 555              		.file 7 "middlewares/usbd_drivers/inc/usb_std.h"
 556              		.file 8 "middlewares/usbd_drivers/inc/usbd_core.h"
 557              		.file 9 "project/inc/cdc_class.h"
 558              		.file 10 "C:/Program Files (x86)/Arm/GNU Toolchain mingw-w64-i686-arm-none-eabi/arm-none-eabi/incl
 559              		.file 11 "<built-in>"
ARM GAS  C:\Users\10963\AppData\Local\Temp\cc0xkZc1.s 			page 15

