ARM GAS  C:\Users\10963\AppData\Local\Temp\cc0oOjro.s 			page 1


   1              		.cpu cortex-m4
   2              		.arch armv7e-m
   3              		.fpu fpv4-sp-d16
   4              		.eabi_attribute 27, 1
   5              		.eabi_attribute 28, 1
   6              		.eabi_attribute 20, 1
   7              		.eabi_attribute 21, 1
   8              		.eabi_attribute 23, 3
   9              		.eabi_attribute 24, 1
  10              		.eabi_attribute 25, 1
  11              		.eabi_attribute 26, 1
  12              		.eabi_attribute 30, 1
  13              		.eabi_attribute 34, 1
  14              		.eabi_attribute 18, 4
  15              		.file	"usb_app.c"
  16              		.text
  17              	.Ltext0:
  18              		.cfi_sections	.debug_frame
  19              		.file 1 "project/src/usb_app.c"
  20              		.section	.text.wk_usb_app_init,"ax",%progbits
  21              		.align	1
  22              		.global	wk_usb_app_init
  23              		.syntax unified
  24              		.thumb
  25              		.thumb_func
  27              	wk_usb_app_init:
  28              	.LFB137:
   1:project/src/usb_app.c **** /* add user code begin Header */
   2:project/src/usb_app.c **** /**
   3:project/src/usb_app.c ****   **************************************************************************
   4:project/src/usb_app.c ****   * @file     usbd_app.c
   5:project/src/usb_app.c ****   * @brief    usb device app
   6:project/src/usb_app.c ****   **************************************************************************
   7:project/src/usb_app.c ****   * Copyright (c) 2025, Artery Technology, All rights reserved.
   8:project/src/usb_app.c ****   *
   9:project/src/usb_app.c ****   * The software Board Support Package (BSP) that is made available to
  10:project/src/usb_app.c ****   * download from Artery official website is the copyrighted work of Artery.
  11:project/src/usb_app.c ****   * Artery authorizes customers to use, copy, and distribute the BSP
  12:project/src/usb_app.c ****   * software and its related documentation for the purpose of design and
  13:project/src/usb_app.c ****   * development in conjunction with Artery microcontrollers. Use of the
  14:project/src/usb_app.c ****   * software is governed by this copyright notice and the following disclaimer.
  15:project/src/usb_app.c ****   *
  16:project/src/usb_app.c ****   * THIS SOFTWARE IS PROVIDED ON "AS IS" BASIS WITHOUT WARRANTIES,
  17:project/src/usb_app.c ****   * GUARANTEES OR REPRESENTATIONS OF ANY KIND. ARTERY EXPRESSLY DISCLAIMS,
  18:project/src/usb_app.c ****   * TO THE FULLEST EXTENT PERMITTED BY LAW, ALL EXPRESS, IMPLIED OR
  19:project/src/usb_app.c ****   * STATUTORY OR OTHER WARRANTIES, GUARANTEES OR REPRESENTATIONS,
  20:project/src/usb_app.c ****   * INCLUDING BUT NOT LIMITED TO, THE IMPLIED WARRANTIES OF MERCHANTABILITY,
  21:project/src/usb_app.c ****   * FITNESS FOR A PARTICULAR PURPOSE, OR NON-INFRINGEMENT.
  22:project/src/usb_app.c ****   *
  23:project/src/usb_app.c ****   **************************************************************************
  24:project/src/usb_app.c ****   */
  25:project/src/usb_app.c **** /* add user code end Header */
  26:project/src/usb_app.c **** 
  27:project/src/usb_app.c **** #include "usb_conf.h"
  28:project/src/usb_app.c **** #include "wk_system.h"
  29:project/src/usb_app.c **** 
  30:project/src/usb_app.c **** #include "usbd_int.h"
ARM GAS  C:\Users\10963\AppData\Local\Temp\cc0oOjro.s 			page 2


  31:project/src/usb_app.c **** #include "cdc_class.h"
  32:project/src/usb_app.c **** #include "cdc_desc.h"
  33:project/src/usb_app.c **** 
  34:project/src/usb_app.c **** /* private includes ----------------------------------------------------------*/
  35:project/src/usb_app.c **** /* add user code begin private includes */
  36:project/src/usb_app.c **** 
  37:project/src/usb_app.c **** /* add user code end private includes */
  38:project/src/usb_app.c **** 
  39:project/src/usb_app.c **** /* private typedef -----------------------------------------------------------*/
  40:project/src/usb_app.c **** /* add user code begin private typedef */
  41:project/src/usb_app.c **** 
  42:project/src/usb_app.c **** /* add user code end private typedef */
  43:project/src/usb_app.c **** 
  44:project/src/usb_app.c **** /* private define ------------------------------------------------------------*/
  45:project/src/usb_app.c **** /* add user code begin private define */
  46:project/src/usb_app.c **** 
  47:project/src/usb_app.c **** /* add user code end private define */
  48:project/src/usb_app.c **** 
  49:project/src/usb_app.c **** /* private macro -------------------------------------------------------------*/
  50:project/src/usb_app.c **** /* add user code begin private macro */
  51:project/src/usb_app.c **** 
  52:project/src/usb_app.c **** /* add user code end private macro */
  53:project/src/usb_app.c **** 
  54:project/src/usb_app.c **** /* private variables ---------------------------------------------------------*/
  55:project/src/usb_app.c **** /* add user code begin private variables */
  56:project/src/usb_app.c **** 
  57:project/src/usb_app.c **** /* add user code end private variables */
  58:project/src/usb_app.c **** 
  59:project/src/usb_app.c **** /* private function prototypes --------------------------------------------*/
  60:project/src/usb_app.c **** /* add user code begin function prototypes */
  61:project/src/usb_app.c **** 
  62:project/src/usb_app.c **** /* add user code end function prototypes */
  63:project/src/usb_app.c **** 
  64:project/src/usb_app.c **** usbd_core_type usb_core_dev;
  65:project/src/usb_app.c **** 
  66:project/src/usb_app.c **** uint32_t usbd_app_buffer_fs1[128];
  67:project/src/usb_app.c **** 
  68:project/src/usb_app.c **** /* private user code ---------------------------------------------------------*/
  69:project/src/usb_app.c **** /* add user code begin 0 */
  70:project/src/usb_app.c **** 
  71:project/src/usb_app.c **** /* add user code end 0 */
  72:project/src/usb_app.c **** 
  73:project/src/usb_app.c **** /**
  74:project/src/usb_app.c ****   * @brief  usb application initialization
  75:project/src/usb_app.c ****   * @param  none
  76:project/src/usb_app.c ****   * @retval none
  77:project/src/usb_app.c ****   */
  78:project/src/usb_app.c **** void wk_usb_app_init(void)
  79:project/src/usb_app.c **** {
  29              		.loc 1 79 1 view -0
  30              		.cfi_startproc
  31              		@ args = 0, pretend = 0, frame = 0
  32              		@ frame_needed = 0, uses_anonymous_args = 0
  33 0000 10B5     		push	{r4, lr}
  34              	.LCFI0:
  35              		.cfi_def_cfa_offset 8
  36              		.cfi_offset 4, -8
ARM GAS  C:\Users\10963\AppData\Local\Temp\cc0oOjro.s 			page 3


  37              		.cfi_offset 14, -4
  38 0002 82B0     		sub	sp, sp, #8
  39              	.LCFI1:
  40              		.cfi_def_cfa_offset 16
  80:project/src/usb_app.c ****   /* add user code begin usb_app_init 0 */
  81:project/src/usb_app.c **** 
  82:project/src/usb_app.c ****   /* add user code end usb_app_init 0 */
  83:project/src/usb_app.c **** 
  84:project/src/usb_app.c ****   /*fs1 device cdc*/
  85:project/src/usb_app.c ****   usbd_core_init(&usb_core_dev, USB, &cdc_class_handler, &cdc_desc_handler, 0);
  41              		.loc 1 85 3 view .LVU1
  42 0004 064C     		ldr	r4, .L3
  43 0006 0023     		movs	r3, #0
  44 0008 0093     		str	r3, [sp]
  45 000a 064B     		ldr	r3, .L3+4
  46 000c 064A     		ldr	r2, .L3+8
  47 000e 0749     		ldr	r1, .L3+12
  48 0010 2046     		mov	r0, r4
  49 0012 FFF7FEFF 		bl	usbd_core_init
  50              	.LVL0:
  86:project/src/usb_app.c **** 
  87:project/src/usb_app.c ****   /* enable usb pull-up */
  88:project/src/usb_app.c ****   usbd_connect(&usb_core_dev);
  51              		.loc 1 88 3 view .LVU2
  52 0016 2046     		mov	r0, r4
  53 0018 FFF7FEFF 		bl	usbd_connect
  54              	.LVL1:
  89:project/src/usb_app.c **** 
  90:project/src/usb_app.c ****   /* add user code begin usb_app_init 1 */
  91:project/src/usb_app.c **** 
  92:project/src/usb_app.c ****   /* add user code end usb_app_init 1 */
  93:project/src/usb_app.c **** }
  55              		.loc 1 93 1 is_stmt 0 view .LVU3
  56 001c 02B0     		add	sp, sp, #8
  57              	.LCFI2:
  58              		.cfi_def_cfa_offset 8
  59              		@ sp needed
  60 001e 10BD     		pop	{r4, pc}
  61              	.L4:
  62              		.align	2
  63              	.L3:
  64 0020 00000000 		.word	usb_core_dev
  65 0024 00000000 		.word	cdc_desc_handler
  66 0028 00000000 		.word	cdc_class_handler
  67 002c 005C0040 		.word	1073765376
  68              		.cfi_endproc
  69              	.LFE137:
  71              		.section	.text.wk_usb_app_task,"ax",%progbits
  72              		.align	1
  73              		.global	wk_usb_app_task
  74              		.syntax unified
  75              		.thumb
  76              		.thumb_func
  78              	wk_usb_app_task:
  79              	.LFB138:
  94:project/src/usb_app.c **** 
  95:project/src/usb_app.c **** /**
ARM GAS  C:\Users\10963\AppData\Local\Temp\cc0oOjro.s 			page 4


  96:project/src/usb_app.c ****   * @brief  usb application task
  97:project/src/usb_app.c ****   * @param  none
  98:project/src/usb_app.c ****   * @retval none
  99:project/src/usb_app.c ****   */
 100:project/src/usb_app.c **** void wk_usb_app_task(void)
 101:project/src/usb_app.c **** {
  80              		.loc 1 101 1 is_stmt 1 view -0
  81              		.cfi_startproc
  82              		@ args = 0, pretend = 0, frame = 0
  83              		@ frame_needed = 0, uses_anonymous_args = 0
  84 0000 38B5     		push	{r3, r4, r5, lr}
  85              	.LCFI3:
  86              		.cfi_def_cfa_offset 16
  87              		.cfi_offset 3, -16
  88              		.cfi_offset 4, -12
  89              		.cfi_offset 5, -8
  90              		.cfi_offset 14, -4
 102:project/src/usb_app.c ****   /* add user code begin usb_app_task 0 */
 103:project/src/usb_app.c **** 
 104:project/src/usb_app.c ****   /* add user code end usb_app_task 0 */
 105:project/src/usb_app.c **** 
 106:project/src/usb_app.c ****   uint32_t length = 0;
  91              		.loc 1 106 3 view .LVU5
  92              	.LVL2:
 107:project/src/usb_app.c **** 
 108:project/src/usb_app.c ****   uint32_t timeout = 5000000;
  93              		.loc 1 108 3 view .LVU6
 109:project/src/usb_app.c ****   static uint8_t send_zero_packet = 0;
  94              		.loc 1 109 3 view .LVU7
 110:project/src/usb_app.c **** 
 111:project/src/usb_app.c ****   /* add user code begin usb_app_task 1 */
 112:project/src/usb_app.c **** 
 113:project/src/usb_app.c ****   /* add user code end usb_app_task 1 */
 114:project/src/usb_app.c **** 
 115:project/src/usb_app.c ****   /* fs1 device cdc */
 116:project/src/usb_app.c ****   length = usb_vcp_get_rxdata(&usb_core_dev, (uint8_t *)usbd_app_buffer_fs1);
  95              		.loc 1 116 3 view .LVU8
  96              		.loc 1 116 12 is_stmt 0 view .LVU9
  97 0002 0F49     		ldr	r1, .L13
  98 0004 0F48     		ldr	r0, .L13+4
  99 0006 FFF7FEFF 		bl	usb_vcp_get_rxdata
 100              	.LVL3:
 117:project/src/usb_app.c ****   if(length > 0 || send_zero_packet == 1)
 101              		.loc 1 117 3 is_stmt 1 view .LVU10
 102              		.loc 1 117 5 is_stmt 0 view .LVU11
 103 000a 0546     		mov	r5, r0
 104 000c 38B9     		cbnz	r0, .L6
 105              		.loc 1 117 37 discriminator 1 view .LVU12
 106 000e 0E4B     		ldr	r3, .L13+8
 107 0010 1B78     		ldrb	r3, [r3]	@ zero_extendqisi2
 108              		.loc 1 117 17 discriminator 1 view .LVU13
 109 0012 012B     		cmp	r3, #1
 110 0014 00D0     		beq	.L12
 111              	.LVL4:
 112              	.L5:
 118:project/src/usb_app.c ****   {
 119:project/src/usb_app.c ****     if(length > 0)
ARM GAS  C:\Users\10963\AppData\Local\Temp\cc0oOjro.s 			page 5


 120:project/src/usb_app.c ****       send_zero_packet = 1;
 121:project/src/usb_app.c **** 
 122:project/src/usb_app.c ****     if(length == 0)
 123:project/src/usb_app.c ****       send_zero_packet = 0;
 124:project/src/usb_app.c ****     
 125:project/src/usb_app.c ****     do
 126:project/src/usb_app.c ****     {
 127:project/src/usb_app.c ****       /* send data to host */
 128:project/src/usb_app.c ****       if(usb_vcp_send_data(&usb_core_dev, (uint8_t *)usbd_app_buffer_fs1, length) == SUCCESS)
 129:project/src/usb_app.c ****       {
 130:project/src/usb_app.c ****         break;
 131:project/src/usb_app.c ****       }
 132:project/src/usb_app.c ****     }while(timeout --);
 133:project/src/usb_app.c ****   }
 134:project/src/usb_app.c **** 
 135:project/src/usb_app.c ****   /* add user code begin usb_app_task 2 */
 136:project/src/usb_app.c **** 
 137:project/src/usb_app.c ****   /* add user code end usb_app_task 2 */
 138:project/src/usb_app.c **** }
 113              		.loc 1 138 1 view .LVU14
 114 0016 38BD     		pop	{r3, r4, r5, pc}
 115              	.LVL5:
 116              	.L12:
 119:project/src/usb_app.c ****       send_zero_packet = 1;
 117              		.loc 1 119 5 is_stmt 1 view .LVU15
 122:project/src/usb_app.c ****       send_zero_packet = 0;
 118              		.loc 1 122 5 view .LVU16
 123:project/src/usb_app.c ****     
 119              		.loc 1 123 7 view .LVU17
 123:project/src/usb_app.c ****     
 120              		.loc 1 123 24 is_stmt 0 view .LVU18
 121 0018 0B4B     		ldr	r3, .L13+8
 122 001a 1870     		strb	r0, [r3]
 123 001c 02E0     		b	.L8
 124              	.L6:
 119:project/src/usb_app.c ****       send_zero_packet = 1;
 125              		.loc 1 119 5 is_stmt 1 view .LVU19
 120:project/src/usb_app.c **** 
 126              		.loc 1 120 7 view .LVU20
 120:project/src/usb_app.c **** 
 127              		.loc 1 120 24 is_stmt 0 view .LVU21
 128 001e 0A4B     		ldr	r3, .L13+8
 129 0020 0122     		movs	r2, #1
 130 0022 1A70     		strb	r2, [r3]
 122:project/src/usb_app.c ****       send_zero_packet = 0;
 131              		.loc 1 122 5 is_stmt 1 view .LVU22
 132              	.L8:
 101:project/src/usb_app.c ****   /* add user code begin usb_app_task 0 */
 133              		.loc 1 101 1 is_stmt 0 view .LVU23
 134 0024 094C     		ldr	r4, .L13+12
 135 0026 00E0     		b	.L9
 136              	.LVL6:
 137              	.L10:
 132:project/src/usb_app.c ****   }
 138              		.loc 1 132 20 view .LVU24
 139 0028 1C46     		mov	r4, r3
 140              	.LVL7:
ARM GAS  C:\Users\10963\AppData\Local\Temp\cc0oOjro.s 			page 6


 141              	.L9:
 125:project/src/usb_app.c ****     {
 142              		.loc 1 125 5 is_stmt 1 view .LVU25
 128:project/src/usb_app.c ****       {
 143              		.loc 1 128 7 view .LVU26
 128:project/src/usb_app.c ****       {
 144              		.loc 1 128 10 is_stmt 0 view .LVU27
 145 002a 2A46     		mov	r2, r5
 146 002c 0449     		ldr	r1, .L13
 147 002e 0548     		ldr	r0, .L13+4
 148 0030 FFF7FEFF 		bl	usb_vcp_send_data
 149              	.LVL8:
 128:project/src/usb_app.c ****       {
 150              		.loc 1 128 9 discriminator 1 view .LVU28
 151 0034 0128     		cmp	r0, #1
 152 0036 EED0     		beq	.L5
 132:project/src/usb_app.c ****   }
 153              		.loc 1 132 12 is_stmt 1 view .LVU29
 132:project/src/usb_app.c ****   }
 154              		.loc 1 132 20 is_stmt 0 view .LVU30
 155 0038 631E     		subs	r3, r4, #1
 156              	.LVL9:
 132:project/src/usb_app.c ****   }
 157              		.loc 1 132 12 view .LVU31
 158 003a 002C     		cmp	r4, #0
 159 003c F4D1     		bne	.L10
 160 003e EAE7     		b	.L5
 161              	.L14:
 162              		.align	2
 163              	.L13:
 164 0040 00000000 		.word	usbd_app_buffer_fs1
 165 0044 00000000 		.word	usb_core_dev
 166 0048 00000000 		.word	send_zero_packet.0
 167 004c 404B4C00 		.word	5000000
 168              		.cfi_endproc
 169              	.LFE138:
 171              		.section	.text.wk_usbfs_irq_handler,"ax",%progbits
 172              		.align	1
 173              		.global	wk_usbfs_irq_handler
 174              		.syntax unified
 175              		.thumb
 176              		.thumb_func
 178              	wk_usbfs_irq_handler:
 179              	.LFB139:
 139:project/src/usb_app.c **** 
 140:project/src/usb_app.c **** /**
 141:project/src/usb_app.c ****   * @brief  usb interrupt handler
 142:project/src/usb_app.c ****   * @param  none
 143:project/src/usb_app.c ****   * @retval none
 144:project/src/usb_app.c ****   */
 145:project/src/usb_app.c **** void wk_usbfs_irq_handler(void)
 146:project/src/usb_app.c **** {
 180              		.loc 1 146 1 is_stmt 1 view -0
 181              		.cfi_startproc
 182              		@ args = 0, pretend = 0, frame = 0
 183              		@ frame_needed = 0, uses_anonymous_args = 0
 184 0000 08B5     		push	{r3, lr}
ARM GAS  C:\Users\10963\AppData\Local\Temp\cc0oOjro.s 			page 7


 185              	.LCFI4:
 186              		.cfi_def_cfa_offset 8
 187              		.cfi_offset 3, -8
 188              		.cfi_offset 14, -4
 147:project/src/usb_app.c ****   /* add user code begin otgfs1_irq_handler 0 */
 148:project/src/usb_app.c **** 
 149:project/src/usb_app.c ****   /* add user code end otgfs1_irq_handler 0 */
 150:project/src/usb_app.c **** 
 151:project/src/usb_app.c ****   usbd_irq_handler(&usb_core_dev);
 189              		.loc 1 151 3 view .LVU33
 190 0002 0248     		ldr	r0, .L17
 191 0004 FFF7FEFF 		bl	usbd_irq_handler
 192              	.LVL10:
 152:project/src/usb_app.c **** 
 153:project/src/usb_app.c ****   /* add user code begin otgfs1_irq_handler 1 */
 154:project/src/usb_app.c **** 
 155:project/src/usb_app.c ****   /* add user code end otgfs1_irq_handler 1 */
 156:project/src/usb_app.c **** }
 193              		.loc 1 156 1 is_stmt 0 view .LVU34
 194 0008 08BD     		pop	{r3, pc}
 195              	.L18:
 196 000a 00BF     		.align	2
 197              	.L17:
 198 000c 00000000 		.word	usb_core_dev
 199              		.cfi_endproc
 200              	.LFE139:
 202              		.section	.text.usb_delay_ms,"ax",%progbits
 203              		.align	1
 204              		.global	usb_delay_ms
 205              		.syntax unified
 206              		.thumb
 207              		.thumb_func
 209              	usb_delay_ms:
 210              	.LVL11:
 211              	.LFB140:
 157:project/src/usb_app.c **** 
 158:project/src/usb_app.c **** /**
 159:project/src/usb_app.c ****   * @brief  usb delay function
 160:project/src/usb_app.c ****   * @param  ms: delay number of milliseconds.
 161:project/src/usb_app.c ****   * @retval none
 162:project/src/usb_app.c ****   */
 163:project/src/usb_app.c **** void usb_delay_ms(uint32_t ms)
 164:project/src/usb_app.c **** {
 212              		.loc 1 164 1 is_stmt 1 view -0
 213              		.cfi_startproc
 214              		@ args = 0, pretend = 0, frame = 0
 215              		@ frame_needed = 0, uses_anonymous_args = 0
 216              		.loc 1 164 1 is_stmt 0 view .LVU36
 217 0000 08B5     		push	{r3, lr}
 218              	.LCFI5:
 219              		.cfi_def_cfa_offset 8
 220              		.cfi_offset 3, -8
 221              		.cfi_offset 14, -4
 165:project/src/usb_app.c ****   /* add user code begin delay_ms 0 */
 166:project/src/usb_app.c **** 
 167:project/src/usb_app.c ****   /* add user code end delay_ms 0 */
 168:project/src/usb_app.c **** 
ARM GAS  C:\Users\10963\AppData\Local\Temp\cc0oOjro.s 			page 8


 169:project/src/usb_app.c ****   wk_delay_ms(ms);
 222              		.loc 1 169 3 is_stmt 1 view .LVU37
 223 0002 FFF7FEFF 		bl	wk_delay_ms
 224              	.LVL12:
 170:project/src/usb_app.c **** 
 171:project/src/usb_app.c ****   /* add user code begin delay_ms 1 */
 172:project/src/usb_app.c **** 
 173:project/src/usb_app.c ****   /* add user code end delay_ms 1*/
 174:project/src/usb_app.c **** }
 225              		.loc 1 174 1 is_stmt 0 view .LVU38
 226 0006 08BD     		pop	{r3, pc}
 227              		.cfi_endproc
 228              	.LFE140:
 230              		.section	.bss.send_zero_packet.0,"aw",%nobits
 233              	send_zero_packet.0:
 234 0000 00       		.space	1
 235              		.global	usbd_app_buffer_fs1
 236              		.section	.bss.usbd_app_buffer_fs1,"aw",%nobits
 237              		.align	2
 240              	usbd_app_buffer_fs1:
 241 0000 00000000 		.space	512
 241      00000000 
 241      00000000 
 241      00000000 
 241      00000000 
 242              		.global	usb_core_dev
 243              		.section	.bss.usb_core_dev,"aw",%nobits
 244              		.align	2
 247              	usb_core_dev:
 248 0000 00000000 		.space	556
 248      00000000 
 248      00000000 
 248      00000000 
 248      00000000 
 249              		.text
 250              	.Letext0:
 251              		.file 2 "C:/Program Files (x86)/Arm/GNU Toolchain mingw-w64-i686-arm-none-eabi/arm-none-eabi/inclu
 252              		.file 3 "C:/Program Files (x86)/Arm/GNU Toolchain mingw-w64-i686-arm-none-eabi/arm-none-eabi/inclu
 253              		.file 4 "libraries/cmsis/cm4/device_support/at32f403a_407.h"
 254              		.file 5 "libraries/drivers/inc/at32f403a_407_tmr.h"
 255              		.file 6 "libraries/drivers/inc/at32f403a_407_usb.h"
 256              		.file 7 "middlewares/usbd_drivers/inc/usb_std.h"
 257              		.file 8 "middlewares/usbd_drivers/inc/usbd_core.h"
 258              		.file 9 "project/inc/cdc_class.h"
 259              		.file 10 "project/inc/cdc_desc.h"
 260              		.file 11 "project/inc/wk_system.h"
 261              		.file 12 "middlewares/usbd_drivers/inc/usbd_int.h"
ARM GAS  C:\Users\10963\AppData\Local\Temp\cc0oOjro.s 			page 9


DEFINED SYMBOLS
                            *ABS*:00000000 usb_app.c
C:\Users\10963\AppData\Local\Temp\cc0oOjro.s:21     .text.wk_usb_app_init:00000000 $t
C:\Users\10963\AppData\Local\Temp\cc0oOjro.s:27     .text.wk_usb_app_init:00000000 wk_usb_app_init
C:\Users\10963\AppData\Local\Temp\cc0oOjro.s:64     .text.wk_usb_app_init:00000020 $d
C:\Users\10963\AppData\Local\Temp\cc0oOjro.s:247    .bss.usb_core_dev:00000000 usb_core_dev
C:\Users\10963\AppData\Local\Temp\cc0oOjro.s:72     .text.wk_usb_app_task:00000000 $t
C:\Users\10963\AppData\Local\Temp\cc0oOjro.s:78     .text.wk_usb_app_task:00000000 wk_usb_app_task
C:\Users\10963\AppData\Local\Temp\cc0oOjro.s:164    .text.wk_usb_app_task:00000040 $d
C:\Users\10963\AppData\Local\Temp\cc0oOjro.s:240    .bss.usbd_app_buffer_fs1:00000000 usbd_app_buffer_fs1
C:\Users\10963\AppData\Local\Temp\cc0oOjro.s:233    .bss.send_zero_packet.0:00000000 send_zero_packet.0
C:\Users\10963\AppData\Local\Temp\cc0oOjro.s:172    .text.wk_usbfs_irq_handler:00000000 $t
C:\Users\10963\AppData\Local\Temp\cc0oOjro.s:178    .text.wk_usbfs_irq_handler:00000000 wk_usbfs_irq_handler
C:\Users\10963\AppData\Local\Temp\cc0oOjro.s:198    .text.wk_usbfs_irq_handler:0000000c $d
C:\Users\10963\AppData\Local\Temp\cc0oOjro.s:203    .text.usb_delay_ms:00000000 $t
C:\Users\10963\AppData\Local\Temp\cc0oOjro.s:209    .text.usb_delay_ms:00000000 usb_delay_ms
C:\Users\10963\AppData\Local\Temp\cc0oOjro.s:234    .bss.send_zero_packet.0:00000000 $d
C:\Users\10963\AppData\Local\Temp\cc0oOjro.s:237    .bss.usbd_app_buffer_fs1:00000000 $d
C:\Users\10963\AppData\Local\Temp\cc0oOjro.s:244    .bss.usb_core_dev:00000000 $d

UNDEFINED SYMBOLS
usbd_core_init
usbd_connect
cdc_desc_handler
cdc_class_handler
usb_vcp_get_rxdata
usb_vcp_send_data
usbd_irq_handler
wk_delay_ms
