ARM GAS  C:\Users\10963\AppData\Local\Temp\cco3dbGC.s 			page 1


   1              		.cpu cortex-m4
   2              		.arch armv7e-m
   3              		.fpu fpv4-sp-d16
   4              		.eabi_attribute 27, 1
   5              		.eabi_attribute 28, 1
   6              		.eabi_attribute 20, 1
   7              		.eabi_attribute 21, 1
   8              		.eabi_attribute 23, 3
   9              		.eabi_attribute 24, 1
  10              		.eabi_attribute 25, 1
  11              		.eabi_attribute 26, 1
  12              		.eabi_attribute 30, 1
  13              		.eabi_attribute 34, 1
  14              		.eabi_attribute 18, 4
  15              		.file	"usb_cdc.c"
  16              		.text
  17              	.Ltext0:
  18              		.cfi_sections	.debug_frame
  19              		.file 1 "../Common/src/usb_cdc.c"
  20              		.section	.text.cdc_init,"ax",%progbits
  21              		.align	1
  22              		.global	cdc_init
  23              		.syntax unified
  24              		.thumb
  25              		.thumb_func
  27              	cdc_init:
  28              	.LFB137:
   1:../Common/src/usb_cdc.c **** #include "usb_cdc.h"
   2:../Common/src/usb_cdc.c **** #include <string.h>
   3:../Common/src/usb_cdc.c **** #include "usbd_core.h"
   4:../Common/src/usb_cdc.c **** #include "usbd_int.h"
   5:../Common/src/usb_cdc.c **** #include "cdc_class.h"
   6:../Common/src/usb_cdc.c **** #include "usb_std.h"
   7:../Common/src/usb_cdc.c **** 
   8:../Common/src/usb_cdc.c **** /* 外部变量 */
   9:../Common/src/usb_cdc.c **** extern usbd_core_type usb_core_dev;
  10:../Common/src/usb_cdc.c **** 
  11:../Common/src/usb_cdc.c **** cdc_handle_t cdc_dev = {
  12:../Common/src/usb_cdc.c ****   .rx_len = 0,
  13:../Common/src/usb_cdc.c ****   .tx_len = 0,
  14:../Common/src/usb_cdc.c ****   .is_connected = 0,
  15:../Common/src/usb_cdc.c ****   .baudrate = 115200
  16:../Common/src/usb_cdc.c **** };
  17:../Common/src/usb_cdc.c **** 
  18:../Common/src/usb_cdc.c **** void cdc_init(void)
  19:../Common/src/usb_cdc.c **** {
  29              		.loc 1 19 1 view -0
  30              		.cfi_startproc
  31              		@ args = 0, pretend = 0, frame = 0
  32              		@ frame_needed = 0, uses_anonymous_args = 0
  33              		@ link register save eliminated.
  20:../Common/src/usb_cdc.c ****   /* USB初始化已经在usb_app.c中完成 */
  21:../Common/src/usb_cdc.c **** }
  34              		.loc 1 21 1 view .LVU1
  35 0000 7047     		bx	lr
  36              		.cfi_endproc
  37              	.LFE137:
ARM GAS  C:\Users\10963\AppData\Local\Temp\cco3dbGC.s 			page 2


  39              		.section	.text.cdc_process,"ax",%progbits
  40              		.align	1
  41              		.global	cdc_process
  42              		.syntax unified
  43              		.thumb
  44              		.thumb_func
  46              	cdc_process:
  47              	.LFB138:
  22:../Common/src/usb_cdc.c **** 
  23:../Common/src/usb_cdc.c **** void cdc_process(void)
  24:../Common/src/usb_cdc.c **** {
  48              		.loc 1 24 1 view -0
  49              		.cfi_startproc
  50              		@ args = 0, pretend = 0, frame = 0
  51              		@ frame_needed = 0, uses_anonymous_args = 0
  52              		@ link register save eliminated.
  25:../Common/src/usb_cdc.c ****   /* USB处理已经在usb_app.c中完成 */
  26:../Common/src/usb_cdc.c **** }
  53              		.loc 1 26 1 view .LVU3
  54 0000 7047     		bx	lr
  55              		.cfi_endproc
  56              	.LFE138:
  58              		.section	.text.cdc_send_data,"ax",%progbits
  59              		.align	1
  60              		.global	cdc_send_data
  61              		.syntax unified
  62              		.thumb
  63              		.thumb_func
  65              	cdc_send_data:
  66              	.LVL0:
  67              	.LFB139:
  27:../Common/src/usb_cdc.c **** 
  28:../Common/src/usb_cdc.c **** uint16_t cdc_send_data(uint8_t *data, uint16_t len)
  29:../Common/src/usb_cdc.c **** {
  68              		.loc 1 29 1 view -0
  69              		.cfi_startproc
  70              		@ args = 0, pretend = 0, frame = 0
  71              		@ frame_needed = 0, uses_anonymous_args = 0
  72              		.loc 1 29 1 is_stmt 0 view .LVU5
  73 0000 08B5     		push	{r3, lr}
  74              	.LCFI0:
  75              		.cfi_def_cfa_offset 8
  76              		.cfi_offset 3, -8
  77              		.cfi_offset 14, -4
  30:../Common/src/usb_cdc.c ****   if (!cdc_dev.is_connected)
  78              		.loc 1 30 3 is_stmt 1 view .LVU6
  79              		.loc 1 30 15 is_stmt 0 view .LVU7
  80 0002 084B     		ldr	r3, .L9
  81 0004 93F80432 		ldrb	r3, [r3, #516]	@ zero_extendqisi2
  82              		.loc 1 30 6 view .LVU8
  83 0008 53B1     		cbz	r3, .L6
  84 000a 0A46     		mov	r2, r1
  31:../Common/src/usb_cdc.c ****   {
  32:../Common/src/usb_cdc.c ****     return 0;
  33:../Common/src/usb_cdc.c ****   }
  34:../Common/src/usb_cdc.c ****   
  35:../Common/src/usb_cdc.c ****   if (len > CDC_TX_BUFFER_SIZE)
ARM GAS  C:\Users\10963\AppData\Local\Temp\cco3dbGC.s 			page 3


  85              		.loc 1 35 3 is_stmt 1 view .LVU9
  86              		.loc 1 35 6 is_stmt 0 view .LVU10
  87 000c B1F5807F 		cmp	r1, #256
  88 0010 01D9     		bls	.L5
  36:../Common/src/usb_cdc.c ****   {
  37:../Common/src/usb_cdc.c ****     len = CDC_TX_BUFFER_SIZE;
  89              		.loc 1 37 9 view .LVU11
  90 0012 4FF48072 		mov	r2, #256
  91              	.L5:
  92              	.LVL1:
  38:../Common/src/usb_cdc.c ****   }
  39:../Common/src/usb_cdc.c ****   
  40:../Common/src/usb_cdc.c ****   return usb_vcp_send_data(&usb_core_dev, data, len);
  93              		.loc 1 40 3 is_stmt 1 view .LVU12
  94              		.loc 1 40 10 is_stmt 0 view .LVU13
  95 0016 0146     		mov	r1, r0
  96 0018 0348     		ldr	r0, .L9+4
  97              	.LVL2:
  98              		.loc 1 40 10 view .LVU14
  99 001a FFF7FEFF 		bl	usb_vcp_send_data
 100              	.LVL3:
 101              	.L4:
  41:../Common/src/usb_cdc.c **** }
 102              		.loc 1 41 1 view .LVU15
 103 001e 08BD     		pop	{r3, pc}
 104              	.LVL4:
 105              	.L6:
  32:../Common/src/usb_cdc.c ****   }
 106              		.loc 1 32 12 view .LVU16
 107 0020 1846     		mov	r0, r3
 108              	.LVL5:
  32:../Common/src/usb_cdc.c ****   }
 109              		.loc 1 32 12 view .LVU17
 110 0022 FCE7     		b	.L4
 111              	.L10:
 112              		.align	2
 113              	.L9:
 114 0024 00000000 		.word	cdc_dev
 115 0028 00000000 		.word	usb_core_dev
 116              		.cfi_endproc
 117              	.LFE139:
 119              		.section	.text.cdc_receive_data,"ax",%progbits
 120              		.align	1
 121              		.global	cdc_receive_data
 122              		.syntax unified
 123              		.thumb
 124              		.thumb_func
 126              	cdc_receive_data:
 127              	.LVL6:
 128              	.LFB140:
  42:../Common/src/usb_cdc.c **** 
  43:../Common/src/usb_cdc.c **** uint16_t cdc_receive_data(uint8_t *data, uint16_t len)
  44:../Common/src/usb_cdc.c **** {
 129              		.loc 1 44 1 is_stmt 1 view -0
 130              		.cfi_startproc
 131              		@ args = 0, pretend = 0, frame = 0
 132              		@ frame_needed = 0, uses_anonymous_args = 0
ARM GAS  C:\Users\10963\AppData\Local\Temp\cco3dbGC.s 			page 4


 133              		.loc 1 44 1 is_stmt 0 view .LVU19
 134 0000 10B5     		push	{r4, lr}
 135              	.LCFI1:
 136              		.cfi_def_cfa_offset 8
 137              		.cfi_offset 4, -8
 138              		.cfi_offset 14, -4
  45:../Common/src/usb_cdc.c ****   if (cdc_dev.rx_len == 0)
 139              		.loc 1 45 3 is_stmt 1 view .LVU20
 140              		.loc 1 45 14 is_stmt 0 view .LVU21
 141 0002 0F4B     		ldr	r3, .L17
 142 0004 B3F80041 		ldrh	r4, [r3, #256]
 143              		.loc 1 45 6 view .LVU22
 144 0008 8CB1     		cbz	r4, .L12
  46:../Common/src/usb_cdc.c ****   {
  47:../Common/src/usb_cdc.c ****     return 0;
  48:../Common/src/usb_cdc.c ****   }
  49:../Common/src/usb_cdc.c ****   
  50:../Common/src/usb_cdc.c ****   if (len > cdc_dev.rx_len)
 145              		.loc 1 50 3 is_stmt 1 view .LVU23
 146              		.loc 1 50 6 is_stmt 0 view .LVU24
 147 000a 8C42     		cmp	r4, r1
 148 000c 00D3     		bcc	.L13
 149 000e 0C46     		mov	r4, r1
 150              	.L13:
 151              	.LVL7:
  51:../Common/src/usb_cdc.c ****   {
  52:../Common/src/usb_cdc.c ****     len = cdc_dev.rx_len;
  53:../Common/src/usb_cdc.c ****   }
  54:../Common/src/usb_cdc.c ****   
  55:../Common/src/usb_cdc.c ****   /* 使用标准库的memcpy函数 */
  56:../Common/src/usb_cdc.c ****   memcpy(data, cdc_dev.rx_buffer, len);
 152              		.loc 1 56 3 is_stmt 1 view .LVU25
 153 0010 2246     		mov	r2, r4
 154 0012 0B49     		ldr	r1, .L17
 155 0014 FFF7FEFF 		bl	memcpy
 156              	.LVL8:
  57:../Common/src/usb_cdc.c ****   
  58:../Common/src/usb_cdc.c ****   // 从缓冲区中移除已读取的数据
  59:../Common/src/usb_cdc.c ****   if (len < cdc_dev.rx_len)
 157              		.loc 1 59 3 view .LVU26
 158              		.loc 1 59 20 is_stmt 0 view .LVU27
 159 0018 094B     		ldr	r3, .L17
 160 001a B3F80021 		ldrh	r2, [r3, #256]
 161              		.loc 1 59 6 view .LVU28
 162 001e A242     		cmp	r2, r4
 163 0020 07D8     		bhi	.L16
 164              	.L14:
  60:../Common/src/usb_cdc.c ****   {
  61:../Common/src/usb_cdc.c ****     memmove(cdc_dev.rx_buffer, cdc_dev.rx_buffer + len, cdc_dev.rx_len - len);
  62:../Common/src/usb_cdc.c ****   }
  63:../Common/src/usb_cdc.c ****   cdc_dev.rx_len -= len;
 165              		.loc 1 63 3 is_stmt 1 view .LVU29
 166              		.loc 1 63 10 is_stmt 0 view .LVU30
 167 0022 074A     		ldr	r2, .L17
 168 0024 B2F80031 		ldrh	r3, [r2, #256]
 169              		.loc 1 63 18 view .LVU31
 170 0028 1B1B     		subs	r3, r3, r4
ARM GAS  C:\Users\10963\AppData\Local\Temp\cco3dbGC.s 			page 5


 171 002a A2F80031 		strh	r3, [r2, #256]	@ movhi
  64:../Common/src/usb_cdc.c ****   
  65:../Common/src/usb_cdc.c ****   return len;
 172              		.loc 1 65 3 is_stmt 1 view .LVU32
 173              	.LVL9:
 174              	.L12:
  66:../Common/src/usb_cdc.c **** }
 175              		.loc 1 66 1 is_stmt 0 view .LVU33
 176 002e 2046     		mov	r0, r4
 177 0030 10BD     		pop	{r4, pc}
 178              	.LVL10:
 179              	.L16:
  61:../Common/src/usb_cdc.c ****   }
 180              		.loc 1 61 5 is_stmt 1 view .LVU34
 181 0032 1846     		mov	r0, r3
 182 0034 121B     		subs	r2, r2, r4
 183 0036 1919     		adds	r1, r3, r4
 184 0038 FFF7FEFF 		bl	memmove
 185              	.LVL11:
 186 003c F1E7     		b	.L14
 187              	.L18:
 188 003e 00BF     		.align	2
 189              	.L17:
 190 0040 00000000 		.word	cdc_dev
 191              		.cfi_endproc
 192              	.LFE140:
 194              		.section	.text.cdc_is_connected,"ax",%progbits
 195              		.align	1
 196              		.global	cdc_is_connected
 197              		.syntax unified
 198              		.thumb
 199              		.thumb_func
 201              	cdc_is_connected:
 202              	.LFB141:
  67:../Common/src/usb_cdc.c **** 
  68:../Common/src/usb_cdc.c **** uint8_t cdc_is_connected(void)
  69:../Common/src/usb_cdc.c **** {
 203              		.loc 1 69 1 view -0
 204              		.cfi_startproc
 205              		@ args = 0, pretend = 0, frame = 0
 206              		@ frame_needed = 0, uses_anonymous_args = 0
 207              		@ link register save eliminated.
  70:../Common/src/usb_cdc.c ****   return cdc_dev.is_connected;
 208              		.loc 1 70 3 view .LVU36
  71:../Common/src/usb_cdc.c **** }
 209              		.loc 1 71 1 is_stmt 0 view .LVU37
 210 0000 014B     		ldr	r3, .L20
 211 0002 93F80402 		ldrb	r0, [r3, #516]	@ zero_extendqisi2
 212 0006 7047     		bx	lr
 213              	.L21:
 214              		.align	2
 215              	.L20:
 216 0008 00000000 		.word	cdc_dev
 217              		.cfi_endproc
 218              	.LFE141:
 220              		.section	.text.cdc_class_data_received,"ax",%progbits
 221              		.align	1
ARM GAS  C:\Users\10963\AppData\Local\Temp\cco3dbGC.s 			page 6


 222              		.global	cdc_class_data_received
 223              		.syntax unified
 224              		.thumb
 225              		.thumb_func
 227              	cdc_class_data_received:
 228              	.LVL12:
 229              	.LFB142:
  72:../Common/src/usb_cdc.c **** 
  73:../Common/src/usb_cdc.c **** /* USB CDC回调函数 */
  74:../Common/src/usb_cdc.c **** void cdc_class_data_received(uint8_t *data, uint16_t len)
  75:../Common/src/usb_cdc.c **** {
 230              		.loc 1 75 1 is_stmt 1 view -0
 231              		.cfi_startproc
 232              		@ args = 0, pretend = 0, frame = 0
 233              		@ frame_needed = 0, uses_anonymous_args = 0
 234              		.loc 1 75 1 is_stmt 0 view .LVU39
 235 0000 38B5     		push	{r3, r4, r5, lr}
 236              	.LCFI2:
 237              		.cfi_def_cfa_offset 16
 238              		.cfi_offset 3, -16
 239              		.cfi_offset 4, -12
 240              		.cfi_offset 5, -8
 241              		.cfi_offset 14, -4
 242 0002 0C46     		mov	r4, r1
  76:../Common/src/usb_cdc.c ****   if (len > CDC_RX_BUFFER_SIZE - cdc_dev.rx_len)
 243              		.loc 1 76 3 is_stmt 1 view .LVU40
 244              		.loc 1 76 41 is_stmt 0 view .LVU41
 245 0004 094B     		ldr	r3, .L25
 246 0006 B3F80031 		ldrh	r3, [r3, #256]
 247              		.loc 1 76 32 view .LVU42
 248 000a C3F58072 		rsb	r2, r3, #256
 249              		.loc 1 76 6 view .LVU43
 250 000e 9142     		cmp	r1, r2
 251 0010 00DD     		ble	.L23
  77:../Common/src/usb_cdc.c ****   {
  78:../Common/src/usb_cdc.c ****     len = CDC_RX_BUFFER_SIZE - cdc_dev.rx_len;
 252              		.loc 1 78 5 is_stmt 1 view .LVU44
 253              		.loc 1 78 9 is_stmt 0 view .LVU45
 254 0012 94B2     		uxth	r4, r2
 255              	.L23:
 256              	.LVL13:
  79:../Common/src/usb_cdc.c ****   }
  80:../Common/src/usb_cdc.c ****   
  81:../Common/src/usb_cdc.c ****   /* 使用标准库的memcpy函数追加数据 */
  82:../Common/src/usb_cdc.c ****   memcpy(cdc_dev.rx_buffer + cdc_dev.rx_len, data, len);
 257              		.loc 1 82 3 is_stmt 1 view .LVU46
 258 0014 054D     		ldr	r5, .L25
 259 0016 2246     		mov	r2, r4
 260 0018 0146     		mov	r1, r0
 261 001a E818     		adds	r0, r5, r3
 262              	.LVL14:
 263              		.loc 1 82 3 is_stmt 0 view .LVU47
 264 001c FFF7FEFF 		bl	memcpy
 265              	.LVL15:
  83:../Common/src/usb_cdc.c ****   cdc_dev.rx_len += len;
 266              		.loc 1 83 3 is_stmt 1 view .LVU48
 267              		.loc 1 83 10 is_stmt 0 view .LVU49
ARM GAS  C:\Users\10963\AppData\Local\Temp\cco3dbGC.s 			page 7


 268 0020 B5F80031 		ldrh	r3, [r5, #256]
 269              		.loc 1 83 18 view .LVU50
 270 0024 2344     		add	r3, r3, r4
 271 0026 A5F80031 		strh	r3, [r5, #256]	@ movhi
  84:../Common/src/usb_cdc.c **** }
 272              		.loc 1 84 1 view .LVU51
 273 002a 38BD     		pop	{r3, r4, r5, pc}
 274              	.LVL16:
 275              	.L26:
 276              		.loc 1 84 1 view .LVU52
 277              		.align	2
 278              	.L25:
 279 002c 00000000 		.word	cdc_dev
 280              		.cfi_endproc
 281              	.LFE142:
 283              		.section	.text.cdc_class_set_line_coding,"ax",%progbits
 284              		.align	1
 285              		.global	cdc_class_set_line_coding
 286              		.syntax unified
 287              		.thumb
 288              		.thumb_func
 290              	cdc_class_set_line_coding:
 291              	.LVL17:
 292              	.LFB143:
  85:../Common/src/usb_cdc.c **** 
  86:../Common/src/usb_cdc.c **** void cdc_class_set_line_coding(uint8_t *line_coding)
  87:../Common/src/usb_cdc.c **** {
 293              		.loc 1 87 1 is_stmt 1 view -0
 294              		.cfi_startproc
 295              		@ args = 0, pretend = 0, frame = 0
 296              		@ frame_needed = 0, uses_anonymous_args = 0
 297              		@ link register save eliminated.
  88:../Common/src/usb_cdc.c ****   /* 处理线路编码设置 */
  89:../Common/src/usb_cdc.c ****   linecoding_type *lc = (linecoding_type *)line_coding;
 298              		.loc 1 89 3 view .LVU54
  90:../Common/src/usb_cdc.c ****   cdc_dev.baudrate = lc->bitrate;
 299              		.loc 1 90 3 view .LVU55
 300              		.loc 1 90 24 is_stmt 0 view .LVU56
 301 0000 0268     		ldr	r2, [r0]
 302              		.loc 1 90 20 view .LVU57
 303 0002 024B     		ldr	r3, .L28
 304 0004 C3F80822 		str	r2, [r3, #520]
  91:../Common/src/usb_cdc.c **** }
 305              		.loc 1 91 1 view .LVU58
 306 0008 7047     		bx	lr
 307              	.L29:
 308 000a 00BF     		.align	2
 309              	.L28:
 310 000c 00000000 		.word	cdc_dev
 311              		.cfi_endproc
 312              	.LFE143:
 314              		.section	.text.cdc_class_set_control_line_state,"ax",%progbits
 315              		.align	1
 316              		.global	cdc_class_set_control_line_state
 317              		.syntax unified
 318              		.thumb
 319              		.thumb_func
ARM GAS  C:\Users\10963\AppData\Local\Temp\cco3dbGC.s 			page 8


 321              	cdc_class_set_control_line_state:
 322              	.LVL18:
 323              	.LFB144:
  92:../Common/src/usb_cdc.c **** 
  93:../Common/src/usb_cdc.c **** void cdc_class_set_control_line_state(uint8_t state)
  94:../Common/src/usb_cdc.c **** {
 324              		.loc 1 94 1 is_stmt 1 view -0
 325              		.cfi_startproc
 326              		@ args = 0, pretend = 0, frame = 0
 327              		@ frame_needed = 0, uses_anonymous_args = 0
 328              		@ link register save eliminated.
  95:../Common/src/usb_cdc.c ****   /* 处理控制线状态 */
  96:../Common/src/usb_cdc.c **** }
 329              		.loc 1 96 1 view .LVU60
 330 0000 7047     		bx	lr
 331              		.cfi_endproc
 332              	.LFE144:
 334              		.section	.text.cdc_class_connection_changed,"ax",%progbits
 335              		.align	1
 336              		.global	cdc_class_connection_changed
 337              		.syntax unified
 338              		.thumb
 339              		.thumb_func
 341              	cdc_class_connection_changed:
 342              	.LVL19:
 343              	.LFB145:
  97:../Common/src/usb_cdc.c **** 
  98:../Common/src/usb_cdc.c **** void cdc_class_connection_changed(uint8_t connected)
  99:../Common/src/usb_cdc.c **** {
 344              		.loc 1 99 1 view -0
 345              		.cfi_startproc
 346              		@ args = 0, pretend = 0, frame = 0
 347              		@ frame_needed = 0, uses_anonymous_args = 0
 348              		@ link register save eliminated.
 100:../Common/src/usb_cdc.c ****   cdc_dev.is_connected = connected;
 349              		.loc 1 100 3 view .LVU62
 350              		.loc 1 100 24 is_stmt 0 view .LVU63
 351 0000 014B     		ldr	r3, .L32
 352 0002 83F80402 		strb	r0, [r3, #516]
 101:../Common/src/usb_cdc.c **** }...
 353              		.loc 1 101 1 view .LVU64
 354 0006 7047     		bx	lr
 355              	.L33:
 356              		.align	2
 357              	.L32:
 358 0008 00000000 		.word	cdc_dev
 359              		.cfi_endproc
 360              	.LFE145:
 362              		.global	cdc_dev
 363              		.section	.data.cdc_dev,"aw"
 364              		.align	2
 367              	cdc_dev:
 368 0000 00000000 		.space	256
 368      00000000 
 368      00000000 
 368      00000000 
 368      00000000 
ARM GAS  C:\Users\10963\AppData\Local\Temp\cco3dbGC.s 			page 9


 369 0100 0000     		.short	0
 370 0102 00000000 		.space	256
 370      00000000 
 370      00000000 
 370      00000000 
 370      00000000 
 371 0202 0000     		.short	0
 372 0204 00       		.byte	0
 373 0205 000000   		.space	3
 374 0208 00C20100 		.word	115200
 375              		.text
 376              	.Letext0:
 377              		.file 2 "C:/Program Files (x86)/Arm/GNU Toolchain mingw-w64-i686-arm-none-eabi/arm-none-eabi/inclu
 378              		.file 3 "C:/Program Files (x86)/Arm/GNU Toolchain mingw-w64-i686-arm-none-eabi/arm-none-eabi/inclu
 379              		.file 4 "libraries/cmsis/cm4/device_support/at32f403a_407.h"
 380              		.file 5 "libraries/drivers/inc/at32f403a_407_tmr.h"
 381              		.file 6 "libraries/drivers/inc/at32f403a_407_usb.h"
 382              		.file 7 "../Common/inc/usb_cdc.h"
 383              		.file 8 "middlewares/usbd_drivers/inc/usb_std.h"
 384              		.file 9 "middlewares/usbd_drivers/inc/usbd_core.h"
 385              		.file 10 "C:/Program Files (x86)/Arm/GNU Toolchain mingw-w64-i686-arm-none-eabi/arm-none-eabi/incl
 386              		.file 11 "project/inc/cdc_class.h"
 387              		.file 12 "<built-in>"
ARM GAS  C:\Users\10963\AppData\Local\Temp\cco3dbGC.s 			page 10

