ARM GAS  C:\Users\10963\AppData\Local\Temp\ccYJeOyp.s 			page 1


   1              		.cpu cortex-m4
   2              		.arch armv7e-m
   3              		.fpu fpv4-sp-d16
   4              		.eabi_attribute 27, 1
   5              		.eabi_attribute 28, 1
   6              		.eabi_attribute 20, 1
   7              		.eabi_attribute 21, 1
   8              		.eabi_attribute 23, 3
   9              		.eabi_attribute 24, 1
  10              		.eabi_attribute 25, 1
  11              		.eabi_attribute 26, 1
  12              		.eabi_attribute 30, 1
  13              		.eabi_attribute 34, 1
  14              		.eabi_attribute 18, 4
  15              		.file	"usbd_int.c"
  16              		.text
  17              	.Ltext0:
  18              		.cfi_sections	.debug_frame
  19              		.file 1 "middlewares/usbd_drivers/src/usbd_int.c"
  20              		.section	.text.usbd_eptn_handler,"ax",%progbits
  21              		.align	1
  22              		.global	usbd_eptn_handler
  23              		.syntax unified
  24              		.thumb
  25              		.thumb_func
  27              	usbd_eptn_handler:
  28              	.LVL0:
  29              	.LFB138:
   1:middlewares/usbd_drivers/src/usbd_int.c **** /**
   2:middlewares/usbd_drivers/src/usbd_int.c ****   **************************************************************************
   3:middlewares/usbd_drivers/src/usbd_int.c ****   * @file     usbd_int.c
   4:middlewares/usbd_drivers/src/usbd_int.c ****   * @brief    usb interrupt request
   5:middlewares/usbd_drivers/src/usbd_int.c ****   **************************************************************************
   6:middlewares/usbd_drivers/src/usbd_int.c ****   *
   7:middlewares/usbd_drivers/src/usbd_int.c ****   * Copyright (c) 2025, Artery Technology, All rights reserved.
   8:middlewares/usbd_drivers/src/usbd_int.c ****   *
   9:middlewares/usbd_drivers/src/usbd_int.c ****   * The software Board Support Package (BSP) that is made available to
  10:middlewares/usbd_drivers/src/usbd_int.c ****   * download from Artery official website is the copyrighted work of Artery.
  11:middlewares/usbd_drivers/src/usbd_int.c ****   * Artery authorizes customers to use, copy, and distribute the BSP
  12:middlewares/usbd_drivers/src/usbd_int.c ****   * software and its related documentation for the purpose of design and
  13:middlewares/usbd_drivers/src/usbd_int.c ****   * development in conjunction with Artery microcontrollers. Use of the
  14:middlewares/usbd_drivers/src/usbd_int.c ****   * software is governed by this copyright notice and the following disclaimer.
  15:middlewares/usbd_drivers/src/usbd_int.c ****   *
  16:middlewares/usbd_drivers/src/usbd_int.c ****   * THIS SOFTWARE IS PROVIDED ON "AS IS" BASIS WITHOUT WARRANTIES,
  17:middlewares/usbd_drivers/src/usbd_int.c ****   * GUARANTEES OR REPRESENTATIONS OF ANY KIND. ARTERY EXPRESSLY DISCLAIMS,
  18:middlewares/usbd_drivers/src/usbd_int.c ****   * TO THE FULLEST EXTENT PERMITTED BY LAW, ALL EXPRESS, IMPLIED OR
  19:middlewares/usbd_drivers/src/usbd_int.c ****   * STATUTORY OR OTHER WARRANTIES, GUARANTEES OR REPRESENTATIONS,
  20:middlewares/usbd_drivers/src/usbd_int.c ****   * INCLUDING BUT NOT LIMITED TO, THE IMPLIED WARRANTIES OF MERCHANTABILITY,
  21:middlewares/usbd_drivers/src/usbd_int.c ****   * FITNESS FOR A PARTICULAR PURPOSE, OR NON-INFRINGEMENT.
  22:middlewares/usbd_drivers/src/usbd_int.c ****   *
  23:middlewares/usbd_drivers/src/usbd_int.c ****   **************************************************************************
  24:middlewares/usbd_drivers/src/usbd_int.c ****   */
  25:middlewares/usbd_drivers/src/usbd_int.c **** #include "usbd_int.h"
  26:middlewares/usbd_drivers/src/usbd_int.c **** 
  27:middlewares/usbd_drivers/src/usbd_int.c **** /** @addtogroup AT32F403A_407_middlewares_usbd_drivers
  28:middlewares/usbd_drivers/src/usbd_int.c ****   * @{
  29:middlewares/usbd_drivers/src/usbd_int.c ****   */
ARM GAS  C:\Users\10963\AppData\Local\Temp\ccYJeOyp.s 			page 2


  30:middlewares/usbd_drivers/src/usbd_int.c **** 
  31:middlewares/usbd_drivers/src/usbd_int.c **** /** @defgroup USBD_drivers_interrupt
  32:middlewares/usbd_drivers/src/usbd_int.c ****   * @brief usb device interrupt
  33:middlewares/usbd_drivers/src/usbd_int.c ****   * @{
  34:middlewares/usbd_drivers/src/usbd_int.c ****   */
  35:middlewares/usbd_drivers/src/usbd_int.c **** 
  36:middlewares/usbd_drivers/src/usbd_int.c **** /** @defgroup USBD_int_private_functions
  37:middlewares/usbd_drivers/src/usbd_int.c ****   * @{
  38:middlewares/usbd_drivers/src/usbd_int.c ****   */
  39:middlewares/usbd_drivers/src/usbd_int.c **** 
  40:middlewares/usbd_drivers/src/usbd_int.c **** /**
  41:middlewares/usbd_drivers/src/usbd_int.c ****   * @brief  usb device interrput request handler.
  42:middlewares/usbd_drivers/src/usbd_int.c ****   * @param  udev: to the structure of usbd_core_type
  43:middlewares/usbd_drivers/src/usbd_int.c ****   * @retval none
  44:middlewares/usbd_drivers/src/usbd_int.c ****   */
  45:middlewares/usbd_drivers/src/usbd_int.c **** void usbd_irq_handler(usbd_core_type *udev)
  46:middlewares/usbd_drivers/src/usbd_int.c **** {
  47:middlewares/usbd_drivers/src/usbd_int.c ****   usbd_type *usbx = udev->usb_reg;
  48:middlewares/usbd_drivers/src/usbd_int.c ****   uint32_t sts_val = usbx->intsts;
  49:middlewares/usbd_drivers/src/usbd_int.c ****   uint32_t sts_ien = usbx->ctrl;
  50:middlewares/usbd_drivers/src/usbd_int.c **** 
  51:middlewares/usbd_drivers/src/usbd_int.c ****   if(sts_val & USB_TC_FLAG)
  52:middlewares/usbd_drivers/src/usbd_int.c ****   {
  53:middlewares/usbd_drivers/src/usbd_int.c ****     /* endpoint tc interrupt handler */
  54:middlewares/usbd_drivers/src/usbd_int.c ****     usbd_ept_loop_handler(udev);
  55:middlewares/usbd_drivers/src/usbd_int.c ****   }
  56:middlewares/usbd_drivers/src/usbd_int.c **** 
  57:middlewares/usbd_drivers/src/usbd_int.c ****   if(sts_val & USB_RST_FLAG)
  58:middlewares/usbd_drivers/src/usbd_int.c ****   {
  59:middlewares/usbd_drivers/src/usbd_int.c ****     /* clear reset flag */
  60:middlewares/usbd_drivers/src/usbd_int.c ****     usb_flag_clear(usbx, USB_RST_FLAG);
  61:middlewares/usbd_drivers/src/usbd_int.c **** 
  62:middlewares/usbd_drivers/src/usbd_int.c ****     /* reset interrupt handler */
  63:middlewares/usbd_drivers/src/usbd_int.c ****     usbd_reset_handler(udev);
  64:middlewares/usbd_drivers/src/usbd_int.c ****   }
  65:middlewares/usbd_drivers/src/usbd_int.c **** 
  66:middlewares/usbd_drivers/src/usbd_int.c ****   if((sts_val & USB_SOF_FLAG) &&
  67:middlewares/usbd_drivers/src/usbd_int.c ****     (sts_ien & USB_SOF_INT))
  68:middlewares/usbd_drivers/src/usbd_int.c ****   {
  69:middlewares/usbd_drivers/src/usbd_int.c ****     /* clear sof flag */
  70:middlewares/usbd_drivers/src/usbd_int.c ****     usb_flag_clear(usbx, USB_SOF_FLAG);
  71:middlewares/usbd_drivers/src/usbd_int.c **** 
  72:middlewares/usbd_drivers/src/usbd_int.c ****     /* sof interrupt handler */
  73:middlewares/usbd_drivers/src/usbd_int.c ****     usbd_sof_handler(udev);
  74:middlewares/usbd_drivers/src/usbd_int.c ****   }
  75:middlewares/usbd_drivers/src/usbd_int.c **** 
  76:middlewares/usbd_drivers/src/usbd_int.c ****   if((sts_val & USB_LSOF_FLAG) &&
  77:middlewares/usbd_drivers/src/usbd_int.c ****     (sts_ien & USB_LSOF_INT))
  78:middlewares/usbd_drivers/src/usbd_int.c ****   {
  79:middlewares/usbd_drivers/src/usbd_int.c ****     /* clear lsof flag */
  80:middlewares/usbd_drivers/src/usbd_int.c ****     usb_flag_clear(usbx, USB_LSOF_FLAG);
  81:middlewares/usbd_drivers/src/usbd_int.c ****   }
  82:middlewares/usbd_drivers/src/usbd_int.c **** 
  83:middlewares/usbd_drivers/src/usbd_int.c ****   if((sts_val & USB_SP_FLAG) &&
  84:middlewares/usbd_drivers/src/usbd_int.c ****     (sts_ien & USB_SP_INT))
  85:middlewares/usbd_drivers/src/usbd_int.c ****   {
  86:middlewares/usbd_drivers/src/usbd_int.c ****     /* clear suspend flag */
ARM GAS  C:\Users\10963\AppData\Local\Temp\ccYJeOyp.s 			page 3


  87:middlewares/usbd_drivers/src/usbd_int.c ****     usb_flag_clear(usbx, USB_SP_FLAG);
  88:middlewares/usbd_drivers/src/usbd_int.c **** 
  89:middlewares/usbd_drivers/src/usbd_int.c ****     /* usb suspend interrupt handler */
  90:middlewares/usbd_drivers/src/usbd_int.c ****     usbd_suspend_handler(udev);
  91:middlewares/usbd_drivers/src/usbd_int.c ****   }
  92:middlewares/usbd_drivers/src/usbd_int.c **** 
  93:middlewares/usbd_drivers/src/usbd_int.c ****   if((sts_val & USB_WK_FLAG) &&
  94:middlewares/usbd_drivers/src/usbd_int.c ****     (sts_ien & USB_WK_INT))
  95:middlewares/usbd_drivers/src/usbd_int.c ****   {
  96:middlewares/usbd_drivers/src/usbd_int.c ****     /* usb wakeup interrupt handler */
  97:middlewares/usbd_drivers/src/usbd_int.c ****     usbd_wakeup_handler(udev);
  98:middlewares/usbd_drivers/src/usbd_int.c **** 
  99:middlewares/usbd_drivers/src/usbd_int.c ****     /* clear wakeup flag */
 100:middlewares/usbd_drivers/src/usbd_int.c ****     usb_flag_clear(usbx, USB_WK_FLAG);
 101:middlewares/usbd_drivers/src/usbd_int.c ****   }
 102:middlewares/usbd_drivers/src/usbd_int.c **** }
 103:middlewares/usbd_drivers/src/usbd_int.c **** 
 104:middlewares/usbd_drivers/src/usbd_int.c **** /**
 105:middlewares/usbd_drivers/src/usbd_int.c ****   * @brief  usb device endpoint request handler.
 106:middlewares/usbd_drivers/src/usbd_int.c ****   * @param  udev: to the structure of usbd_core_type
 107:middlewares/usbd_drivers/src/usbd_int.c ****   * @param  ept_num: endpoint number
 108:middlewares/usbd_drivers/src/usbd_int.c ****   * @retval none
 109:middlewares/usbd_drivers/src/usbd_int.c ****   */
 110:middlewares/usbd_drivers/src/usbd_int.c **** void usbd_eptn_handler(usbd_core_type *udev, usb_ept_number_type ept_num)
 111:middlewares/usbd_drivers/src/usbd_int.c **** {
  30              		.loc 1 111 1 view -0
  31              		.cfi_startproc
  32              		@ args = 0, pretend = 0, frame = 0
  33              		@ frame_needed = 0, uses_anonymous_args = 0
  34              		.loc 1 111 1 is_stmt 0 view .LVU1
  35 0000 70B5     		push	{r4, r5, r6, lr}
  36              	.LCFI0:
  37              		.cfi_def_cfa_offset 16
  38              		.cfi_offset 4, -16
  39              		.cfi_offset 5, -12
  40              		.cfi_offset 6, -8
  41              		.cfi_offset 14, -4
  42 0002 0546     		mov	r5, r0
  43 0004 0C46     		mov	r4, r1
 112:middlewares/usbd_drivers/src/usbd_int.c ****   usbd_type *usbx = udev->usb_reg;
  44              		.loc 1 112 3 is_stmt 1 view .LVU2
  45              		.loc 1 112 14 is_stmt 0 view .LVU3
  46 0006 0368     		ldr	r3, [r0]
  47              	.LVL1:
 113:middlewares/usbd_drivers/src/usbd_int.c ****   usb_ept_info *ept_info;
  48              		.loc 1 113 3 is_stmt 1 view .LVU4
 114:middlewares/usbd_drivers/src/usbd_int.c ****   uint32_t ept_val = usbx->ept[ept_num];
  49              		.loc 1 114 3 view .LVU5
  50              		.loc 1 114 12 is_stmt 0 view .LVU6
  51 0008 53F82130 		ldr	r3, [r3, r1, lsl #2]
  52              	.LVL2:
 115:middlewares/usbd_drivers/src/usbd_int.c ****   uint16_t length;
  53              		.loc 1 115 3 is_stmt 1 view .LVU7
 116:middlewares/usbd_drivers/src/usbd_int.c **** 
 117:middlewares/usbd_drivers/src/usbd_int.c ****   /* in interrupt request  */
 118:middlewares/usbd_drivers/src/usbd_int.c ****   if(ept_val & USB_TXTC)
  54              		.loc 1 118 3 view .LVU8
ARM GAS  C:\Users\10963\AppData\Local\Temp\ccYJeOyp.s 			page 4


  55              		.loc 1 118 5 is_stmt 0 view .LVU9
  56 000c 13F0800F 		tst	r3, #128
  57 0010 35D0     		beq	.L2
 119:middlewares/usbd_drivers/src/usbd_int.c ****   {
 120:middlewares/usbd_drivers/src/usbd_int.c ****     /* get endpoint register and in transfer info struct */
 121:middlewares/usbd_drivers/src/usbd_int.c ****     ept_info = &udev->ept_in[ept_num];
  58              		.loc 1 121 5 is_stmt 1 view .LVU10
  59              	.LVL3:
 122:middlewares/usbd_drivers/src/usbd_int.c **** 
 123:middlewares/usbd_drivers/src/usbd_int.c ****     /* clear endpoint tc flag */
 124:middlewares/usbd_drivers/src/usbd_int.c ****     USB_CLEAR_TXTC(ept_num);
  60              		.loc 1 124 5 view .LVU11
  61 0012 6E4B     		ldr	r3, .L18
  62              	.LVL4:
  63              		.loc 1 124 5 is_stmt 0 view .LVU12
  64 0014 53F82120 		ldr	r2, [r3, r1, lsl #2]
  65 0018 22F4E142 		bic	r2, r2, #28800
  66 001c 22F07002 		bic	r2, r2, #112
  67 0020 1204     		lsls	r2, r2, #16
  68 0022 120C     		lsrs	r2, r2, #16
  69 0024 43F82120 		str	r2, [r3, r1, lsl #2]
  70              	.LVL5:
 125:middlewares/usbd_drivers/src/usbd_int.c **** 
 126:middlewares/usbd_drivers/src/usbd_int.c ****     /* get endpoint tx length */
 127:middlewares/usbd_drivers/src/usbd_int.c ****     ept_info->trans_len = USB_GET_TX_LEN(ept_num);
  71              		.loc 1 127 5 is_stmt 1 view .LVU13
  72              		.loc 1 127 27 is_stmt 0 view .LVU14
  73 0028 1B6D     		ldr	r3, [r3, #80]
  74 002a 03EBC103 		add	r3, r3, r1, lsl #3
  75 002e 0233     		adds	r3, r3, #2
  76 0030 674A     		ldr	r2, .L18+4
  77 0032 1268     		ldr	r2, [r2]
  78 0034 52F81310 		ldr	r1, [r2, r3, lsl #1]
  79              	.LVL6:
  80              		.loc 1 127 27 view .LVU15
  81 0038 C1F30901 		ubfx	r1, r1, #0, #10
  82              		.loc 1 127 25 view .LVU16
  83 003c 00EB4413 		add	r3, r0, r4, lsl #5
  84 0040 9983     		strh	r1, [r3, #28]	@ movhi
 128:middlewares/usbd_drivers/src/usbd_int.c **** 
 129:middlewares/usbd_drivers/src/usbd_int.c ****     /* offset the trans buffer */
 130:middlewares/usbd_drivers/src/usbd_int.c ****     ept_info->trans_buf += ept_info->trans_len;
  85              		.loc 1 130 5 is_stmt 1 view .LVU17
  86              		.loc 1 130 13 is_stmt 0 view .LVU18
  87 0042 1A6A     		ldr	r2, [r3, #32]
  88              		.loc 1 130 25 view .LVU19
  89 0044 0A44     		add	r2, r2, r1
  90 0046 1A62     		str	r2, [r3, #32]
 131:middlewares/usbd_drivers/src/usbd_int.c **** 
 132:middlewares/usbd_drivers/src/usbd_int.c ****     if(ept_info->total_len == 0 || ept_num == USB_EPT0)
  91              		.loc 1 132 5 is_stmt 1 view .LVU20
  92              		.loc 1 132 16 is_stmt 0 view .LVU21
  93 0048 5B8B     		ldrh	r3, [r3, #26]
  94              		.loc 1 132 7 view .LVU22
  95 004a 03B1     		cbz	r3, .L3
  96              		.loc 1 132 33 discriminator 1 view .LVU23
  97 004c 44B9     		cbnz	r4, .L4
ARM GAS  C:\Users\10963\AppData\Local\Temp\ccYJeOyp.s 			page 5


  98              	.L3:
 133:middlewares/usbd_drivers/src/usbd_int.c ****     {
 134:middlewares/usbd_drivers/src/usbd_int.c ****       /* in transfer complete */
 135:middlewares/usbd_drivers/src/usbd_int.c ****       usbd_core_in_handler(udev, ept_num);
  99              		.loc 1 135 7 is_stmt 1 view .LVU24
 100 004e 2146     		mov	r1, r4
 101 0050 2846     		mov	r0, r5
 102              	.LVL7:
 103              		.loc 1 135 7 is_stmt 0 view .LVU25
 104 0052 FFF7FEFF 		bl	usbd_core_in_handler
 105              	.LVL8:
 106              	.L5:
 136:middlewares/usbd_drivers/src/usbd_int.c ****     }
 137:middlewares/usbd_drivers/src/usbd_int.c ****     else
 138:middlewares/usbd_drivers/src/usbd_int.c ****     {
 139:middlewares/usbd_drivers/src/usbd_int.c ****       /* endpoint continue send data */
 140:middlewares/usbd_drivers/src/usbd_int.c ****       usbd_ept_send(udev, ept_num, ept_info->trans_buf, ept_info->total_len);
 141:middlewares/usbd_drivers/src/usbd_int.c ****     }
 142:middlewares/usbd_drivers/src/usbd_int.c ****     /* set the host assignment address */
 143:middlewares/usbd_drivers/src/usbd_int.c ****     if(udev->conn_state == USB_CONN_STATE_ADDRESSED && udev->device_addr > 0)
 107              		.loc 1 143 5 is_stmt 1 view .LVU26
 108              		.loc 1 143 12 is_stmt 0 view .LVU27
 109 0056 95F82432 		ldrb	r3, [r5, #548]	@ zero_extendqisi2
 110              		.loc 1 143 7 view .LVU28
 111 005a 022B     		cmp	r3, #2
 112 005c 04D0     		beq	.L15
 113              	.LVL9:
 114              	.L1:
 144:middlewares/usbd_drivers/src/usbd_int.c ****     {
 145:middlewares/usbd_drivers/src/usbd_int.c ****       usb_set_address(udev->usb_reg, udev->device_addr);
 146:middlewares/usbd_drivers/src/usbd_int.c ****       udev->device_addr = 0;
 147:middlewares/usbd_drivers/src/usbd_int.c ****     }
 148:middlewares/usbd_drivers/src/usbd_int.c ****   }
 149:middlewares/usbd_drivers/src/usbd_int.c ****   else
 150:middlewares/usbd_drivers/src/usbd_int.c ****   {
 151:middlewares/usbd_drivers/src/usbd_int.c ****     /* setup and out interrupt request */
 152:middlewares/usbd_drivers/src/usbd_int.c **** 
 153:middlewares/usbd_drivers/src/usbd_int.c ****     /* get endpoint register and out transfer info struct */
 154:middlewares/usbd_drivers/src/usbd_int.c ****     ept_info = &udev->ept_out[ept_num];
 155:middlewares/usbd_drivers/src/usbd_int.c **** 
 156:middlewares/usbd_drivers/src/usbd_int.c ****     if((ept_val & USB_SETUPTC) != 0)
 157:middlewares/usbd_drivers/src/usbd_int.c ****     {
 158:middlewares/usbd_drivers/src/usbd_int.c ****       /* endpoint setup interrupt request */
 159:middlewares/usbd_drivers/src/usbd_int.c **** 
 160:middlewares/usbd_drivers/src/usbd_int.c ****       /* get endpoint received data length */
 161:middlewares/usbd_drivers/src/usbd_int.c ****       ept_info->trans_len = USB_GET_RX_LEN(ept_num);
 162:middlewares/usbd_drivers/src/usbd_int.c **** 
 163:middlewares/usbd_drivers/src/usbd_int.c ****       /* read endpoint received data */
 164:middlewares/usbd_drivers/src/usbd_int.c ****       usb_read_packet(udev->setup_buffer, ept_info->rx_addr, ept_info->trans_len);
 165:middlewares/usbd_drivers/src/usbd_int.c **** 
 166:middlewares/usbd_drivers/src/usbd_int.c ****       /* clear endpoint rx tc flag */
 167:middlewares/usbd_drivers/src/usbd_int.c ****       USB_CLEAR_RXTC(USB_EPT0);
 168:middlewares/usbd_drivers/src/usbd_int.c **** 
 169:middlewares/usbd_drivers/src/usbd_int.c ****       /* endpoint setup complete handler */
 170:middlewares/usbd_drivers/src/usbd_int.c ****       usbd_core_setup_handler(udev, ept_num);
 171:middlewares/usbd_drivers/src/usbd_int.c ****     }
 172:middlewares/usbd_drivers/src/usbd_int.c ****     else if(ept_val & USB_RXTC )
ARM GAS  C:\Users\10963\AppData\Local\Temp\ccYJeOyp.s 			page 6


 173:middlewares/usbd_drivers/src/usbd_int.c ****     {
 174:middlewares/usbd_drivers/src/usbd_int.c ****       /* endpoint out interrupt request */
 175:middlewares/usbd_drivers/src/usbd_int.c ****       USB_CLEAR_RXTC(ept_num);
 176:middlewares/usbd_drivers/src/usbd_int.c **** 
 177:middlewares/usbd_drivers/src/usbd_int.c ****       if(ept_info->is_double_buffer == 0)
 178:middlewares/usbd_drivers/src/usbd_int.c ****       {
 179:middlewares/usbd_drivers/src/usbd_int.c ****         /* get endpoint received data length */
 180:middlewares/usbd_drivers/src/usbd_int.c ****         length = USB_GET_RX_LEN(ept_num);
 181:middlewares/usbd_drivers/src/usbd_int.c **** 
 182:middlewares/usbd_drivers/src/usbd_int.c ****         /* read endpoint received data */
 183:middlewares/usbd_drivers/src/usbd_int.c ****         usb_read_packet(ept_info->trans_buf, ept_info->rx_addr, length);
 184:middlewares/usbd_drivers/src/usbd_int.c ****       }
 185:middlewares/usbd_drivers/src/usbd_int.c ****       else
 186:middlewares/usbd_drivers/src/usbd_int.c ****       {
 187:middlewares/usbd_drivers/src/usbd_int.c ****         if( ept_val & USB_RXDTS)
 188:middlewares/usbd_drivers/src/usbd_int.c ****         {
 189:middlewares/usbd_drivers/src/usbd_int.c ****           length = USB_DBUF0_GET_LEN(ept_num);
 190:middlewares/usbd_drivers/src/usbd_int.c ****           usb_read_packet(ept_info->trans_buf, ept_info->tx_addr, length);
 191:middlewares/usbd_drivers/src/usbd_int.c ****         }
 192:middlewares/usbd_drivers/src/usbd_int.c ****         else
 193:middlewares/usbd_drivers/src/usbd_int.c ****         {
 194:middlewares/usbd_drivers/src/usbd_int.c ****           length = USB_DBUF1_GET_LEN(ept_num);
 195:middlewares/usbd_drivers/src/usbd_int.c ****           usb_read_packet(ept_info->trans_buf, ept_info->rx_addr, length);
 196:middlewares/usbd_drivers/src/usbd_int.c ****         }
 197:middlewares/usbd_drivers/src/usbd_int.c ****         USB_FREE_DB_USER_BUFFER(ept_num, DATA_TRANS_OUT);
 198:middlewares/usbd_drivers/src/usbd_int.c ****       }
 199:middlewares/usbd_drivers/src/usbd_int.c **** 
 200:middlewares/usbd_drivers/src/usbd_int.c ****       /* set received data length */
 201:middlewares/usbd_drivers/src/usbd_int.c ****       ept_info->trans_len += length;
 202:middlewares/usbd_drivers/src/usbd_int.c ****       ept_info->trans_buf += length;
 203:middlewares/usbd_drivers/src/usbd_int.c **** 
 204:middlewares/usbd_drivers/src/usbd_int.c ****       if(ept_info->total_len == 0 || length < ept_info->maxpacket || ept_num == USB_EPT0)
 205:middlewares/usbd_drivers/src/usbd_int.c ****       {
 206:middlewares/usbd_drivers/src/usbd_int.c ****         /* out transfer complete */
 207:middlewares/usbd_drivers/src/usbd_int.c ****         usbd_core_out_handler(udev, ept_num);
 208:middlewares/usbd_drivers/src/usbd_int.c ****       }
 209:middlewares/usbd_drivers/src/usbd_int.c ****       else
 210:middlewares/usbd_drivers/src/usbd_int.c ****       {
 211:middlewares/usbd_drivers/src/usbd_int.c ****         /* endpoint continue receive data  */
 212:middlewares/usbd_drivers/src/usbd_int.c ****         usbd_ept_recv(udev, ept_num, ept_info->trans_buf, ept_info->total_len);
 213:middlewares/usbd_drivers/src/usbd_int.c ****       }
 214:middlewares/usbd_drivers/src/usbd_int.c ****     }
 215:middlewares/usbd_drivers/src/usbd_int.c ****   }
 216:middlewares/usbd_drivers/src/usbd_int.c **** }
 115              		.loc 1 216 1 view .LVU29
 116 005e 70BD     		pop	{r4, r5, r6, pc}
 117              	.LVL10:
 118              	.L4:
 140:middlewares/usbd_drivers/src/usbd_int.c ****     }
 119              		.loc 1 140 7 is_stmt 1 view .LVU30
 120 0060 2146     		mov	r1, r4
 121 0062 FFF7FEFF 		bl	usbd_ept_send
 122              	.LVL11:
 140:middlewares/usbd_drivers/src/usbd_int.c ****     }
 123              		.loc 1 140 7 is_stmt 0 view .LVU31
 124 0066 F6E7     		b	.L5
 125              	.L15:
ARM GAS  C:\Users\10963\AppData\Local\Temp\ccYJeOyp.s 			page 7


 143:middlewares/usbd_drivers/src/usbd_int.c ****     {
 126              		.loc 1 143 60 discriminator 1 view .LVU32
 127 0068 95F82612 		ldrb	r1, [r5, #550]	@ zero_extendqisi2
 143:middlewares/usbd_drivers/src/usbd_int.c ****     {
 128              		.loc 1 143 53 discriminator 1 view .LVU33
 129 006c 0029     		cmp	r1, #0
 130 006e F6D0     		beq	.L1
 145:middlewares/usbd_drivers/src/usbd_int.c ****       udev->device_addr = 0;
 131              		.loc 1 145 7 is_stmt 1 view .LVU34
 132 0070 2868     		ldr	r0, [r5]
 133 0072 FFF7FEFF 		bl	usb_set_address
 134              	.LVL12:
 146:middlewares/usbd_drivers/src/usbd_int.c ****     }
 135              		.loc 1 146 7 view .LVU35
 146:middlewares/usbd_drivers/src/usbd_int.c ****     }
 136              		.loc 1 146 25 is_stmt 0 view .LVU36
 137 0076 0023     		movs	r3, #0
 138 0078 85F82632 		strb	r3, [r5, #550]
 139 007c EFE7     		b	.L1
 140              	.LVL13:
 141              	.L2:
 154:middlewares/usbd_drivers/src/usbd_int.c **** 
 142              		.loc 1 154 5 is_stmt 1 view .LVU37
 156:middlewares/usbd_drivers/src/usbd_int.c ****     {
 143              		.loc 1 156 5 view .LVU38
 156:middlewares/usbd_drivers/src/usbd_int.c ****     {
 144              		.loc 1 156 7 is_stmt 0 view .LVU39
 145 007e 13F4006F 		tst	r3, #2048
 146 0082 52D1     		bne	.L16
 172:middlewares/usbd_drivers/src/usbd_int.c ****     {
 147              		.loc 1 172 10 is_stmt 1 view .LVU40
 172:middlewares/usbd_drivers/src/usbd_int.c ****     {
 148              		.loc 1 172 12 is_stmt 0 view .LVU41
 149 0084 13F4004F 		tst	r3, #32768
 150 0088 E9D0     		beq	.L1
 175:middlewares/usbd_drivers/src/usbd_int.c **** 
 151              		.loc 1 175 7 is_stmt 1 view .LVU42
 152 008a 5049     		ldr	r1, .L18
 153              	.LVL14:
 175:middlewares/usbd_drivers/src/usbd_int.c **** 
 154              		.loc 1 175 7 is_stmt 0 view .LVU43
 155 008c 51F82420 		ldr	r2, [r1, r4, lsl #2]
 156 0090 22F07002 		bic	r2, r2, #112
 157 0094 1205     		lsls	r2, r2, #20
 158 0096 120D     		lsrs	r2, r2, #20
 159 0098 41F82420 		str	r2, [r1, r4, lsl #2]
 160              	.LVL15:
 177:middlewares/usbd_drivers/src/usbd_int.c ****       {
 161              		.loc 1 177 7 is_stmt 1 view .LVU44
 177:middlewares/usbd_drivers/src/usbd_int.c ****       {
 162              		.loc 1 177 18 is_stmt 0 view .LVU45
 163 009c 00EB4412 		add	r2, r0, r4, lsl #5
 164 00a0 92F81621 		ldrb	r2, [r2, #278]	@ zero_extendqisi2
 177:middlewares/usbd_drivers/src/usbd_int.c ****       {
 165              		.loc 1 177 9 view .LVU46
 166 00a4 002A     		cmp	r2, #0
 167 00a6 60D0     		beq	.L17
ARM GAS  C:\Users\10963\AppData\Local\Temp\ccYJeOyp.s 			page 8


 187:middlewares/usbd_drivers/src/usbd_int.c ****         {
 168              		.loc 1 187 9 is_stmt 1 view .LVU47
 187:middlewares/usbd_drivers/src/usbd_int.c ****         {
 169              		.loc 1 187 11 is_stmt 0 view .LVU48
 170 00a8 13F4804F 		tst	r3, #16384
 171 00ac 72D0     		beq	.L10
 189:middlewares/usbd_drivers/src/usbd_int.c ****           usb_read_packet(ept_info->trans_buf, ept_info->tx_addr, length);
 172              		.loc 1 189 11 is_stmt 1 view .LVU49
 189:middlewares/usbd_drivers/src/usbd_int.c ****           usb_read_packet(ept_info->trans_buf, ept_info->tx_addr, length);
 173              		.loc 1 189 20 is_stmt 0 view .LVU50
 174 00ae 474B     		ldr	r3, .L18
 175              	.LVL16:
 189:middlewares/usbd_drivers/src/usbd_int.c ****           usb_read_packet(ept_info->trans_buf, ept_info->tx_addr, length);
 176              		.loc 1 189 20 view .LVU51
 177 00b0 1B6D     		ldr	r3, [r3, #80]
 178 00b2 03EBC403 		add	r3, r3, r4, lsl #3
 179 00b6 0233     		adds	r3, r3, #2
 180 00b8 454A     		ldr	r2, .L18+4
 181 00ba 1268     		ldr	r2, [r2]
 182 00bc 32F81330 		ldrh	r3, [r2, r3, lsl #1]
 189:middlewares/usbd_drivers/src/usbd_int.c ****           usb_read_packet(ept_info->trans_buf, ept_info->tx_addr, length);
 183              		.loc 1 189 18 view .LVU52
 184 00c0 C3F30903 		ubfx	r3, r3, #0, #10
 185 00c4 1A46     		mov	r2, r3
 186 00c6 1E46     		mov	r6, r3
 187              	.LVL17:
 190:middlewares/usbd_drivers/src/usbd_int.c ****         }
 188              		.loc 1 190 11 is_stmt 1 view .LVU53
 189 00c8 00EB4413 		add	r3, r0, r4, lsl #5
 190 00cc B3F81011 		ldrh	r1, [r3, #272]
 191 00d0 D3F82001 		ldr	r0, [r3, #288]
 192              	.LVL18:
 190:middlewares/usbd_drivers/src/usbd_int.c ****         }
 193              		.loc 1 190 11 is_stmt 0 view .LVU54
 194 00d4 FFF7FEFF 		bl	usb_read_packet
 195              	.LVL19:
 196              	.L11:
 197:middlewares/usbd_drivers/src/usbd_int.c ****       }
 197              		.loc 1 197 9 is_stmt 1 view .LVU55
 197:middlewares/usbd_drivers/src/usbd_int.c ****       }
 198              		.loc 1 197 9 discriminator 2 view .LVU56
 199 00d8 3C4A     		ldr	r2, .L18
 200 00da 52F82430 		ldr	r3, [r2, r4, lsl #2]
 201 00de 23F0F003 		bic	r3, r3, #240
 202 00e2 1B05     		lsls	r3, r3, #20
 203 00e4 1B0D     		lsrs	r3, r3, #20
 204 00e6 43F40043 		orr	r3, r3, #32768
 205 00ea 43F0C003 		orr	r3, r3, #192
 206 00ee 42F82430 		str	r3, [r2, r4, lsl #2]
 207              	.LVL20:
 208              	.L9:
 197:middlewares/usbd_drivers/src/usbd_int.c ****       }
 209              		.loc 1 197 57 view .LVU57
 201:middlewares/usbd_drivers/src/usbd_int.c ****       ept_info->trans_buf += length;
 210              		.loc 1 201 7 view .LVU58
 201:middlewares/usbd_drivers/src/usbd_int.c ****       ept_info->trans_buf += length;
 211              		.loc 1 201 15 is_stmt 0 view .LVU59
ARM GAS  C:\Users\10963\AppData\Local\Temp\ccYJeOyp.s 			page 9


 212 00f2 05EB4413 		add	r3, r5, r4, lsl #5
 213 00f6 B3F81C21 		ldrh	r2, [r3, #284]
 201:middlewares/usbd_drivers/src/usbd_int.c ****       ept_info->trans_buf += length;
 214              		.loc 1 201 27 view .LVU60
 215 00fa 3244     		add	r2, r2, r6
 216 00fc A3F81C21 		strh	r2, [r3, #284]	@ movhi
 202:middlewares/usbd_drivers/src/usbd_int.c **** 
 217              		.loc 1 202 7 is_stmt 1 view .LVU61
 202:middlewares/usbd_drivers/src/usbd_int.c **** 
 218              		.loc 1 202 15 is_stmt 0 view .LVU62
 219 0100 D3F82021 		ldr	r2, [r3, #288]
 202:middlewares/usbd_drivers/src/usbd_int.c **** 
 220              		.loc 1 202 27 view .LVU63
 221 0104 3244     		add	r2, r2, r6
 222 0106 C3F82021 		str	r2, [r3, #288]
 204:middlewares/usbd_drivers/src/usbd_int.c ****       {
 223              		.loc 1 204 7 is_stmt 1 view .LVU64
 204:middlewares/usbd_drivers/src/usbd_int.c ****       {
 224              		.loc 1 204 18 is_stmt 0 view .LVU65
 225 010a B3F81A31 		ldrh	r3, [r3, #282]
 204:middlewares/usbd_drivers/src/usbd_int.c ****       {
 226              		.loc 1 204 9 view .LVU66
 227 010e 3BB1     		cbz	r3, .L12
 204:middlewares/usbd_drivers/src/usbd_int.c ****       {
 228              		.loc 1 204 55 discriminator 1 view .LVU67
 229 0110 05EB4411 		add	r1, r5, r4, lsl #5
 230 0114 B1F81411 		ldrh	r1, [r1, #276]
 204:middlewares/usbd_drivers/src/usbd_int.c ****       {
 231              		.loc 1 204 35 discriminator 1 view .LVU68
 232 0118 8E42     		cmp	r6, r1
 233 011a 01D3     		bcc	.L12
 204:middlewares/usbd_drivers/src/usbd_int.c ****       {
 234              		.loc 1 204 67 discriminator 2 view .LVU69
 235 011c 002C     		cmp	r4, #0
 236 011e 4FD1     		bne	.L13
 237              	.L12:
 207:middlewares/usbd_drivers/src/usbd_int.c ****       }
 238              		.loc 1 207 9 is_stmt 1 view .LVU70
 239 0120 2146     		mov	r1, r4
 240 0122 2846     		mov	r0, r5
 241 0124 FFF7FEFF 		bl	usbd_core_out_handler
 242              	.LVL21:
 243 0128 99E7     		b	.L1
 244              	.LVL22:
 245              	.L16:
 161:middlewares/usbd_drivers/src/usbd_int.c **** 
 246              		.loc 1 161 7 view .LVU71
 161:middlewares/usbd_drivers/src/usbd_int.c **** 
 247              		.loc 1 161 29 is_stmt 0 view .LVU72
 248 012a 284E     		ldr	r6, .L18
 249 012c 336D     		ldr	r3, [r6, #80]
 250              	.LVL23:
 161:middlewares/usbd_drivers/src/usbd_int.c **** 
 251              		.loc 1 161 29 view .LVU73
 252 012e 03EBC103 		add	r3, r3, r1, lsl #3
 253 0132 0633     		adds	r3, r3, #6
 254 0134 264A     		ldr	r2, .L18+4
ARM GAS  C:\Users\10963\AppData\Local\Temp\ccYJeOyp.s 			page 10


 255 0136 1268     		ldr	r2, [r2]
 256 0138 52F81320 		ldr	r2, [r2, r3, lsl #1]
 257 013c C2F30902 		ubfx	r2, r2, #0, #10
 161:middlewares/usbd_drivers/src/usbd_int.c **** 
 258              		.loc 1 161 27 view .LVU74
 259 0140 00EB4113 		add	r3, r0, r1, lsl #5
 260 0144 A3F81C21 		strh	r2, [r3, #284]	@ movhi
 261              	.LVL24:
 164:middlewares/usbd_drivers/src/usbd_int.c **** 
 262              		.loc 1 164 7 is_stmt 1 view .LVU75
 263 0148 B3F81211 		ldrh	r1, [r3, #274]
 264              	.LVL25:
 164:middlewares/usbd_drivers/src/usbd_int.c **** 
 265              		.loc 1 164 7 is_stmt 0 view .LVU76
 266 014c 00F50570 		add	r0, r0, #532
 267              	.LVL26:
 164:middlewares/usbd_drivers/src/usbd_int.c **** 
 268              		.loc 1 164 7 view .LVU77
 269 0150 FFF7FEFF 		bl	usb_read_packet
 270              	.LVL27:
 167:middlewares/usbd_drivers/src/usbd_int.c **** 
 271              		.loc 1 167 7 is_stmt 1 view .LVU78
 272 0154 3368     		ldr	r3, [r6]
 273 0156 23F07003 		bic	r3, r3, #112
 274 015a 1B05     		lsls	r3, r3, #20
 275 015c 1B0D     		lsrs	r3, r3, #20
 276 015e 3360     		str	r3, [r6]
 170:middlewares/usbd_drivers/src/usbd_int.c ****     }
 277              		.loc 1 170 7 view .LVU79
 278 0160 2146     		mov	r1, r4
 279 0162 2846     		mov	r0, r5
 280 0164 FFF7FEFF 		bl	usbd_core_setup_handler
 281              	.LVL28:
 282 0168 79E7     		b	.L1
 283              	.LVL29:
 284              	.L17:
 180:middlewares/usbd_drivers/src/usbd_int.c **** 
 285              		.loc 1 180 9 view .LVU80
 180:middlewares/usbd_drivers/src/usbd_int.c **** 
 286              		.loc 1 180 18 is_stmt 0 view .LVU81
 287 016a 0B6D     		ldr	r3, [r1, #80]
 288              	.LVL30:
 180:middlewares/usbd_drivers/src/usbd_int.c **** 
 289              		.loc 1 180 18 view .LVU82
 290 016c 03EBC403 		add	r3, r3, r4, lsl #3
 291 0170 0633     		adds	r3, r3, #6
 292 0172 174A     		ldr	r2, .L18+4
 293 0174 1268     		ldr	r2, [r2]
 294 0176 32F81330 		ldrh	r3, [r2, r3, lsl #1]
 180:middlewares/usbd_drivers/src/usbd_int.c **** 
 295              		.loc 1 180 16 view .LVU83
 296 017a C3F30903 		ubfx	r3, r3, #0, #10
 297 017e 1A46     		mov	r2, r3
 298 0180 1E46     		mov	r6, r3
 299              	.LVL31:
 183:middlewares/usbd_drivers/src/usbd_int.c ****       }
 300              		.loc 1 183 9 is_stmt 1 view .LVU84
ARM GAS  C:\Users\10963\AppData\Local\Temp\ccYJeOyp.s 			page 11


 301 0182 00EB4413 		add	r3, r0, r4, lsl #5
 302 0186 B3F81211 		ldrh	r1, [r3, #274]
 303 018a D3F82001 		ldr	r0, [r3, #288]
 304              	.LVL32:
 183:middlewares/usbd_drivers/src/usbd_int.c ****       }
 305              		.loc 1 183 9 is_stmt 0 view .LVU85
 306 018e FFF7FEFF 		bl	usb_read_packet
 307              	.LVL33:
 183:middlewares/usbd_drivers/src/usbd_int.c ****       }
 308              		.loc 1 183 9 view .LVU86
 309 0192 AEE7     		b	.L9
 310              	.LVL34:
 311              	.L10:
 194:middlewares/usbd_drivers/src/usbd_int.c ****           usb_read_packet(ept_info->trans_buf, ept_info->rx_addr, length);
 312              		.loc 1 194 11 is_stmt 1 view .LVU87
 194:middlewares/usbd_drivers/src/usbd_int.c ****           usb_read_packet(ept_info->trans_buf, ept_info->rx_addr, length);
 313              		.loc 1 194 20 is_stmt 0 view .LVU88
 314 0194 0D4B     		ldr	r3, .L18
 315              	.LVL35:
 194:middlewares/usbd_drivers/src/usbd_int.c ****           usb_read_packet(ept_info->trans_buf, ept_info->rx_addr, length);
 316              		.loc 1 194 20 view .LVU89
 317 0196 1B6D     		ldr	r3, [r3, #80]
 318 0198 03EBC403 		add	r3, r3, r4, lsl #3
 319 019c 0633     		adds	r3, r3, #6
 320 019e 0C4A     		ldr	r2, .L18+4
 321 01a0 1268     		ldr	r2, [r2]
 322 01a2 32F81330 		ldrh	r3, [r2, r3, lsl #1]
 194:middlewares/usbd_drivers/src/usbd_int.c ****           usb_read_packet(ept_info->trans_buf, ept_info->rx_addr, length);
 323              		.loc 1 194 18 view .LVU90
 324 01a6 C3F30903 		ubfx	r3, r3, #0, #10
 325 01aa 1A46     		mov	r2, r3
 326 01ac 1E46     		mov	r6, r3
 327              	.LVL36:
 195:middlewares/usbd_drivers/src/usbd_int.c ****         }
 328              		.loc 1 195 11 is_stmt 1 view .LVU91
 329 01ae 00EB4413 		add	r3, r0, r4, lsl #5
 330 01b2 B3F81211 		ldrh	r1, [r3, #274]
 331 01b6 D3F82001 		ldr	r0, [r3, #288]
 332              	.LVL37:
 195:middlewares/usbd_drivers/src/usbd_int.c ****         }
 333              		.loc 1 195 11 is_stmt 0 view .LVU92
 334 01ba FFF7FEFF 		bl	usb_read_packet
 335              	.LVL38:
 195:middlewares/usbd_drivers/src/usbd_int.c ****         }
 336              		.loc 1 195 11 view .LVU93
 337 01be 8BE7     		b	.L11
 338              	.L13:
 212:middlewares/usbd_drivers/src/usbd_int.c ****       }
 339              		.loc 1 212 9 is_stmt 1 view .LVU94
 340 01c0 2146     		mov	r1, r4
 341 01c2 2846     		mov	r0, r5
 342 01c4 FFF7FEFF 		bl	usbd_ept_recv
 343              	.LVL39:
 344              		.loc 1 216 1 is_stmt 0 view .LVU95
 345 01c8 49E7     		b	.L1
 346              	.L19:
 347 01ca 00BF     		.align	2
ARM GAS  C:\Users\10963\AppData\Local\Temp\ccYJeOyp.s 			page 12


 348              	.L18:
 349 01cc 005C0040 		.word	1073765376
 350 01d0 00000000 		.word	g_usb_packet_address
 351              		.cfi_endproc
 352              	.LFE138:
 354              		.section	.text.usbd_ept_loop_handler,"ax",%progbits
 355              		.align	1
 356              		.global	usbd_ept_loop_handler
 357              		.syntax unified
 358              		.thumb
 359              		.thumb_func
 361              	usbd_ept_loop_handler:
 362              	.LVL40:
 363              	.LFB139:
 217:middlewares/usbd_drivers/src/usbd_int.c **** 
 218:middlewares/usbd_drivers/src/usbd_int.c **** /**
 219:middlewares/usbd_drivers/src/usbd_int.c ****   * @brief  usb device endpoint loop handler.
 220:middlewares/usbd_drivers/src/usbd_int.c ****   * @param  udev: to the structure of usbd_core_type
 221:middlewares/usbd_drivers/src/usbd_int.c ****   * @retval none
 222:middlewares/usbd_drivers/src/usbd_int.c ****   */
 223:middlewares/usbd_drivers/src/usbd_int.c **** void usbd_ept_loop_handler(usbd_core_type *udev)
 224:middlewares/usbd_drivers/src/usbd_int.c **** {
 364              		.loc 1 224 1 is_stmt 1 view -0
 365              		.cfi_startproc
 366              		@ args = 0, pretend = 0, frame = 0
 367              		@ frame_needed = 0, uses_anonymous_args = 0
 368              		.loc 1 224 1 is_stmt 0 view .LVU97
 369 0000 38B5     		push	{r3, r4, r5, lr}
 370              	.LCFI1:
 371              		.cfi_def_cfa_offset 16
 372              		.cfi_offset 3, -16
 373              		.cfi_offset 4, -12
 374              		.cfi_offset 5, -8
 375              		.cfi_offset 14, -4
 376 0002 0446     		mov	r4, r0
 225:middlewares/usbd_drivers/src/usbd_int.c ****   usbd_type *usbx = udev->usb_reg;
 377              		.loc 1 225 3 is_stmt 1 view .LVU98
 378              		.loc 1 225 14 is_stmt 0 view .LVU99
 379 0004 0568     		ldr	r5, [r0]
 380              	.LVL41:
 226:middlewares/usbd_drivers/src/usbd_int.c ****   usb_ept_number_type ept_num = USB_EPT0;
 381              		.loc 1 226 3 is_stmt 1 view .LVU100
 227:middlewares/usbd_drivers/src/usbd_int.c ****   uint32_t sts_val;
 382              		.loc 1 227 3 view .LVU101
 228:middlewares/usbd_drivers/src/usbd_int.c **** 
 229:middlewares/usbd_drivers/src/usbd_int.c ****   while((sts_val = usbx->intsts) & USB_TC_FLAG)
 383              		.loc 1 229 3 view .LVU102
 384              		.loc 1 229 8 is_stmt 0 view .LVU103
 385 0006 04E0     		b	.L21
 386              	.LVL42:
 387              	.L22:
 230:middlewares/usbd_drivers/src/usbd_int.c ****   {
 231:middlewares/usbd_drivers/src/usbd_int.c ****     /* get the interrupt endpoint number */
 232:middlewares/usbd_drivers/src/usbd_int.c ****     ept_num = (usb_ept_number_type)(sts_val & USB_EPT_NUM_FLAG);
 388              		.loc 1 232 5 is_stmt 1 view .LVU104
 233:middlewares/usbd_drivers/src/usbd_int.c **** 
 234:middlewares/usbd_drivers/src/usbd_int.c ****     usbd_eptn_handler(udev, ept_num);
ARM GAS  C:\Users\10963\AppData\Local\Temp\ccYJeOyp.s 			page 13


 389              		.loc 1 234 5 view .LVU105
 390 0008 01F00F01 		and	r1, r1, #15
 391              	.LVL43:
 392              		.loc 1 234 5 is_stmt 0 view .LVU106
 393 000c 2046     		mov	r0, r4
 394 000e FFF7FEFF 		bl	usbd_eptn_handler
 395              	.LVL44:
 396              	.L21:
 229:middlewares/usbd_drivers/src/usbd_int.c ****   {
 397              		.loc 1 229 9 is_stmt 1 view .LVU107
 229:middlewares/usbd_drivers/src/usbd_int.c ****   {
 398              		.loc 1 229 18 is_stmt 0 view .LVU108
 399 0012 696C     		ldr	r1, [r5, #68]
 400              	.LVL45:
 229:middlewares/usbd_drivers/src/usbd_int.c ****   {
 401              		.loc 1 229 9 view .LVU109
 402 0014 11F4004F 		tst	r1, #32768
 403 0018 F6D1     		bne	.L22
 235:middlewares/usbd_drivers/src/usbd_int.c ****   }
 236:middlewares/usbd_drivers/src/usbd_int.c **** }
 404              		.loc 1 236 1 view .LVU110
 405 001a 38BD     		pop	{r3, r4, r5, pc}
 406              		.loc 1 236 1 view .LVU111
 407              		.cfi_endproc
 408              	.LFE139:
 410              		.section	.text.usbd_reset_handler,"ax",%progbits
 411              		.align	1
 412              		.global	usbd_reset_handler
 413              		.syntax unified
 414              		.thumb
 415              		.thumb_func
 417              	usbd_reset_handler:
 418              	.LVL46:
 419              	.LFB140:
 237:middlewares/usbd_drivers/src/usbd_int.c **** 
 238:middlewares/usbd_drivers/src/usbd_int.c **** /**
 239:middlewares/usbd_drivers/src/usbd_int.c ****   * @brief  usb device reset interrupt request handler.
 240:middlewares/usbd_drivers/src/usbd_int.c ****   * @param  udev: to the structure of usbd_core_type
 241:middlewares/usbd_drivers/src/usbd_int.c ****   * @retval none
 242:middlewares/usbd_drivers/src/usbd_int.c ****   */
 243:middlewares/usbd_drivers/src/usbd_int.c **** void usbd_reset_handler(usbd_core_type *udev)
 244:middlewares/usbd_drivers/src/usbd_int.c **** {
 420              		.loc 1 244 1 is_stmt 1 view -0
 421              		.cfi_startproc
 422              		@ args = 0, pretend = 0, frame = 0
 423              		@ frame_needed = 0, uses_anonymous_args = 0
 424              		.loc 1 244 1 is_stmt 0 view .LVU113
 425 0000 10B5     		push	{r4, lr}
 426              	.LCFI2:
 427              		.cfi_def_cfa_offset 8
 428              		.cfi_offset 4, -8
 429              		.cfi_offset 14, -4
 430 0002 0446     		mov	r4, r0
 245:middlewares/usbd_drivers/src/usbd_int.c ****   /* free usb buffer */
 246:middlewares/usbd_drivers/src/usbd_int.c ****   usb_buffer_free();
 431              		.loc 1 246 3 is_stmt 1 view .LVU114
 432 0004 FFF7FEFF 		bl	usb_buffer_free
ARM GAS  C:\Users\10963\AppData\Local\Temp\ccYJeOyp.s 			page 14


 433              	.LVL47:
 247:middlewares/usbd_drivers/src/usbd_int.c **** 
 248:middlewares/usbd_drivers/src/usbd_int.c ****   usbd_ept_defaut_init(udev);
 434              		.loc 1 248 3 view .LVU115
 435 0008 2046     		mov	r0, r4
 436 000a FFF7FEFF 		bl	usbd_ept_defaut_init
 437              	.LVL48:
 249:middlewares/usbd_drivers/src/usbd_int.c **** #ifndef USB_EPT_AUTO_MALLOC_BUFFER
 250:middlewares/usbd_drivers/src/usbd_int.c ****   usbd_ept_buf_custom_define(udev, 0x80, EPT0_TX_ADDR);
 251:middlewares/usbd_drivers/src/usbd_int.c ****   usbd_ept_buf_custom_define(udev, 0x00, EPT0_RX_ADDR);
 252:middlewares/usbd_drivers/src/usbd_int.c **** #endif
 253:middlewares/usbd_drivers/src/usbd_int.c **** 
 254:middlewares/usbd_drivers/src/usbd_int.c ****   /* open endpoint 0 out */
 255:middlewares/usbd_drivers/src/usbd_int.c ****   usbd_ept_open(udev, 0x00, EPT_CONTROL_TYPE, 0x40);
 438              		.loc 1 255 3 view .LVU116
 439 000e 4023     		movs	r3, #64
 440 0010 0022     		movs	r2, #0
 441 0012 1146     		mov	r1, r2
 442 0014 2046     		mov	r0, r4
 443 0016 FFF7FEFF 		bl	usbd_ept_open
 444              	.LVL49:
 256:middlewares/usbd_drivers/src/usbd_int.c **** 
 257:middlewares/usbd_drivers/src/usbd_int.c ****   /* open endpoint 0 in */
 258:middlewares/usbd_drivers/src/usbd_int.c ****   usbd_ept_open(udev, 0x80, EPT_CONTROL_TYPE, 0x40);
 445              		.loc 1 258 3 view .LVU117
 446 001a 4023     		movs	r3, #64
 447 001c 0022     		movs	r2, #0
 448 001e 8021     		movs	r1, #128
 449 0020 2046     		mov	r0, r4
 450 0022 FFF7FEFF 		bl	usbd_ept_open
 451              	.LVL50:
 259:middlewares/usbd_drivers/src/usbd_int.c **** 
 260:middlewares/usbd_drivers/src/usbd_int.c ****   /* set device address to 0 */
 261:middlewares/usbd_drivers/src/usbd_int.c ****   usb_set_address(udev->usb_reg, 0);
 452              		.loc 1 261 3 view .LVU118
 453 0026 0021     		movs	r1, #0
 454 0028 2068     		ldr	r0, [r4]
 455 002a FFF7FEFF 		bl	usb_set_address
 456              	.LVL51:
 262:middlewares/usbd_drivers/src/usbd_int.c **** 
 263:middlewares/usbd_drivers/src/usbd_int.c ****   /* usb connect state set to default */
 264:middlewares/usbd_drivers/src/usbd_int.c ****   udev->conn_state = USB_CONN_STATE_DEFAULT;
 457              		.loc 1 264 3 view .LVU119
 458              		.loc 1 264 20 is_stmt 0 view .LVU120
 459 002e 0123     		movs	r3, #1
 460 0030 84F82432 		strb	r3, [r4, #548]
 265:middlewares/usbd_drivers/src/usbd_int.c **** 
 266:middlewares/usbd_drivers/src/usbd_int.c ****   /* user define reset event */
 267:middlewares/usbd_drivers/src/usbd_int.c ****   if(udev->class_handler->event_handler)
 461              		.loc 1 267 3 is_stmt 1 view .LVU121
 462              		.loc 1 267 10 is_stmt 0 view .LVU122
 463 0034 6368     		ldr	r3, [r4, #4]
 464              		.loc 1 267 25 view .LVU123
 465 0036 1B6A     		ldr	r3, [r3, #32]
 466              		.loc 1 267 5 view .LVU124
 467 0038 13B1     		cbz	r3, .L24
 268:middlewares/usbd_drivers/src/usbd_int.c ****     udev->class_handler->event_handler(udev, USBD_RESET_EVENT);
ARM GAS  C:\Users\10963\AppData\Local\Temp\ccYJeOyp.s 			page 15


 468              		.loc 1 268 5 is_stmt 1 view .LVU125
 469 003a 0121     		movs	r1, #1
 470 003c 2046     		mov	r0, r4
 471 003e 9847     		blx	r3
 472              	.LVL52:
 473              	.L24:
 269:middlewares/usbd_drivers/src/usbd_int.c **** }
 474              		.loc 1 269 1 is_stmt 0 view .LVU126
 475 0040 10BD     		pop	{r4, pc}
 476              		.loc 1 269 1 view .LVU127
 477              		.cfi_endproc
 478              	.LFE140:
 480              		.section	.text.usbd_sof_handler,"ax",%progbits
 481              		.align	1
 482              		.global	usbd_sof_handler
 483              		.syntax unified
 484              		.thumb
 485              		.thumb_func
 487              	usbd_sof_handler:
 488              	.LVL53:
 489              	.LFB141:
 270:middlewares/usbd_drivers/src/usbd_int.c **** 
 271:middlewares/usbd_drivers/src/usbd_int.c **** /**
 272:middlewares/usbd_drivers/src/usbd_int.c ****   * @brief  usb device sof interrupt request handler.
 273:middlewares/usbd_drivers/src/usbd_int.c ****   * @param  udev: to the structure of usbd_core_type
 274:middlewares/usbd_drivers/src/usbd_int.c ****   * @retval none
 275:middlewares/usbd_drivers/src/usbd_int.c ****   */
 276:middlewares/usbd_drivers/src/usbd_int.c **** void usbd_sof_handler(usbd_core_type *udev)
 277:middlewares/usbd_drivers/src/usbd_int.c **** {
 490              		.loc 1 277 1 is_stmt 1 view -0
 491              		.cfi_startproc
 492              		@ args = 0, pretend = 0, frame = 0
 493              		@ frame_needed = 0, uses_anonymous_args = 0
 494              		.loc 1 277 1 is_stmt 0 view .LVU129
 495 0000 08B5     		push	{r3, lr}
 496              	.LCFI3:
 497              		.cfi_def_cfa_offset 8
 498              		.cfi_offset 3, -8
 499              		.cfi_offset 14, -4
 278:middlewares/usbd_drivers/src/usbd_int.c ****   /* user sof handler in class define*/
 279:middlewares/usbd_drivers/src/usbd_int.c ****   if(udev->class_handler->sof_handler)
 500              		.loc 1 279 3 is_stmt 1 view .LVU130
 501              		.loc 1 279 10 is_stmt 0 view .LVU131
 502 0002 4368     		ldr	r3, [r0, #4]
 503              		.loc 1 279 25 view .LVU132
 504 0004 DB69     		ldr	r3, [r3, #28]
 505              		.loc 1 279 5 view .LVU133
 506 0006 03B1     		cbz	r3, .L27
 280:middlewares/usbd_drivers/src/usbd_int.c ****     udev->class_handler->sof_handler(udev);
 507              		.loc 1 280 5 is_stmt 1 view .LVU134
 508 0008 9847     		blx	r3
 509              	.LVL54:
 510              	.L27:
 281:middlewares/usbd_drivers/src/usbd_int.c **** }
 511              		.loc 1 281 1 is_stmt 0 view .LVU135
 512 000a 08BD     		pop	{r3, pc}
 513              		.cfi_endproc
ARM GAS  C:\Users\10963\AppData\Local\Temp\ccYJeOyp.s 			page 16


 514              	.LFE141:
 516              		.section	.text.usbd_suspend_handler,"ax",%progbits
 517              		.align	1
 518              		.global	usbd_suspend_handler
 519              		.syntax unified
 520              		.thumb
 521              		.thumb_func
 523              	usbd_suspend_handler:
 524              	.LVL55:
 525              	.LFB142:
 282:middlewares/usbd_drivers/src/usbd_int.c **** 
 283:middlewares/usbd_drivers/src/usbd_int.c **** /**
 284:middlewares/usbd_drivers/src/usbd_int.c ****   * @brief  usb device suspend interrupt request handler.
 285:middlewares/usbd_drivers/src/usbd_int.c ****   * @param  udev: to the structure of usbd_core_type
 286:middlewares/usbd_drivers/src/usbd_int.c ****   * @retval none
 287:middlewares/usbd_drivers/src/usbd_int.c ****   */
 288:middlewares/usbd_drivers/src/usbd_int.c **** void usbd_suspend_handler(usbd_core_type *udev)
 289:middlewares/usbd_drivers/src/usbd_int.c **** {
 526              		.loc 1 289 1 is_stmt 1 view -0
 527              		.cfi_startproc
 528              		@ args = 0, pretend = 0, frame = 0
 529              		@ frame_needed = 0, uses_anonymous_args = 0
 530              		.loc 1 289 1 is_stmt 0 view .LVU137
 531 0000 10B5     		push	{r4, lr}
 532              	.LCFI4:
 533              		.cfi_def_cfa_offset 8
 534              		.cfi_offset 4, -8
 535              		.cfi_offset 14, -4
 536 0002 0446     		mov	r4, r0
 290:middlewares/usbd_drivers/src/usbd_int.c ****   /* save connect state */
 291:middlewares/usbd_drivers/src/usbd_int.c ****   udev->old_conn_state = udev->conn_state;
 537              		.loc 1 291 3 is_stmt 1 view .LVU138
 538              		.loc 1 291 30 is_stmt 0 view .LVU139
 539 0004 90F82432 		ldrb	r3, [r0, #548]	@ zero_extendqisi2
 540              		.loc 1 291 24 view .LVU140
 541 0008 80F82532 		strb	r3, [r0, #549]
 292:middlewares/usbd_drivers/src/usbd_int.c **** 
 293:middlewares/usbd_drivers/src/usbd_int.c ****   /* set current state to suspend */
 294:middlewares/usbd_drivers/src/usbd_int.c ****   udev->conn_state = USB_CONN_STATE_SUSPENDED;
 542              		.loc 1 294 3 is_stmt 1 view .LVU141
 543              		.loc 1 294 20 is_stmt 0 view .LVU142
 544 000c 0423     		movs	r3, #4
 545 000e 80F82432 		strb	r3, [r0, #548]
 295:middlewares/usbd_drivers/src/usbd_int.c **** 
 296:middlewares/usbd_drivers/src/usbd_int.c ****   /* enter suspend mode */
 297:middlewares/usbd_drivers/src/usbd_int.c ****   usbd_enter_suspend(udev);
 546              		.loc 1 297 3 is_stmt 1 view .LVU143
 547 0012 FFF7FEFF 		bl	usbd_enter_suspend
 548              	.LVL56:
 298:middlewares/usbd_drivers/src/usbd_int.c **** 
 299:middlewares/usbd_drivers/src/usbd_int.c ****   /* user define suspend event */
 300:middlewares/usbd_drivers/src/usbd_int.c ****   if(udev->class_handler->event_handler)
 549              		.loc 1 300 3 view .LVU144
 550              		.loc 1 300 10 is_stmt 0 view .LVU145
 551 0016 6368     		ldr	r3, [r4, #4]
 552              		.loc 1 300 25 view .LVU146
 553 0018 1B6A     		ldr	r3, [r3, #32]
ARM GAS  C:\Users\10963\AppData\Local\Temp\ccYJeOyp.s 			page 17


 554              		.loc 1 300 5 view .LVU147
 555 001a 13B1     		cbz	r3, .L30
 301:middlewares/usbd_drivers/src/usbd_int.c ****     udev->class_handler->event_handler(udev, USBD_SUSPEND_EVENT);
 556              		.loc 1 301 5 is_stmt 1 view .LVU148
 557 001c 0221     		movs	r1, #2
 558 001e 2046     		mov	r0, r4
 559 0020 9847     		blx	r3
 560              	.LVL57:
 561              	.L30:
 302:middlewares/usbd_drivers/src/usbd_int.c **** }
 562              		.loc 1 302 1 is_stmt 0 view .LVU149
 563 0022 10BD     		pop	{r4, pc}
 564              		.loc 1 302 1 view .LVU150
 565              		.cfi_endproc
 566              	.LFE142:
 568              		.section	.text.usbd_wakeup_handler,"ax",%progbits
 569              		.align	1
 570              		.global	usbd_wakeup_handler
 571              		.syntax unified
 572              		.thumb
 573              		.thumb_func
 575              	usbd_wakeup_handler:
 576              	.LVL58:
 577              	.LFB143:
 303:middlewares/usbd_drivers/src/usbd_int.c **** 
 304:middlewares/usbd_drivers/src/usbd_int.c **** /**
 305:middlewares/usbd_drivers/src/usbd_int.c ****   * @brief  usb device wakup interrupt request handler.
 306:middlewares/usbd_drivers/src/usbd_int.c ****   * @param  udev: to the structure of usbd_core_type
 307:middlewares/usbd_drivers/src/usbd_int.c ****   * @retval none
 308:middlewares/usbd_drivers/src/usbd_int.c ****   */
 309:middlewares/usbd_drivers/src/usbd_int.c **** void usbd_wakeup_handler(usbd_core_type *udev)
 310:middlewares/usbd_drivers/src/usbd_int.c **** {
 578              		.loc 1 310 1 is_stmt 1 view -0
 579              		.cfi_startproc
 580              		@ args = 0, pretend = 0, frame = 0
 581              		@ frame_needed = 0, uses_anonymous_args = 0
 582              		.loc 1 310 1 is_stmt 0 view .LVU152
 583 0000 10B5     		push	{r4, lr}
 584              	.LCFI5:
 585              		.cfi_def_cfa_offset 8
 586              		.cfi_offset 4, -8
 587              		.cfi_offset 14, -4
 588 0002 0446     		mov	r4, r0
 311:middlewares/usbd_drivers/src/usbd_int.c ****   /* exit suspend mode */
 312:middlewares/usbd_drivers/src/usbd_int.c ****   usb_exit_suspend(udev->usb_reg);
 589              		.loc 1 312 3 is_stmt 1 view .LVU153
 590 0004 0068     		ldr	r0, [r0]
 591              	.LVL59:
 592              		.loc 1 312 3 is_stmt 0 view .LVU154
 593 0006 FFF7FEFF 		bl	usb_exit_suspend
 594              	.LVL60:
 313:middlewares/usbd_drivers/src/usbd_int.c **** 
 314:middlewares/usbd_drivers/src/usbd_int.c ****   /* restore connect state */
 315:middlewares/usbd_drivers/src/usbd_int.c ****   udev->conn_state = udev->old_conn_state;
 595              		.loc 1 315 3 is_stmt 1 view .LVU155
 596              		.loc 1 315 26 is_stmt 0 view .LVU156
 597 000a 94F82532 		ldrb	r3, [r4, #549]	@ zero_extendqisi2
ARM GAS  C:\Users\10963\AppData\Local\Temp\ccYJeOyp.s 			page 18


 598              		.loc 1 315 20 view .LVU157
 599 000e 84F82432 		strb	r3, [r4, #548]
 316:middlewares/usbd_drivers/src/usbd_int.c **** 
 317:middlewares/usbd_drivers/src/usbd_int.c ****   /* user define wakeup event */
 318:middlewares/usbd_drivers/src/usbd_int.c ****   if(udev->class_handler->event_handler)
 600              		.loc 1 318 3 is_stmt 1 view .LVU158
 601              		.loc 1 318 10 is_stmt 0 view .LVU159
 602 0012 6368     		ldr	r3, [r4, #4]
 603              		.loc 1 318 25 view .LVU160
 604 0014 1B6A     		ldr	r3, [r3, #32]
 605              		.loc 1 318 5 view .LVU161
 606 0016 13B1     		cbz	r3, .L33
 319:middlewares/usbd_drivers/src/usbd_int.c ****     udev->class_handler->event_handler(udev, USBD_WAKEUP_EVENT);
 607              		.loc 1 319 5 is_stmt 1 view .LVU162
 608 0018 0321     		movs	r1, #3
 609 001a 2046     		mov	r0, r4
 610 001c 9847     		blx	r3
 611              	.LVL61:
 612              	.L33:
 320:middlewares/usbd_drivers/src/usbd_int.c **** }
 613              		.loc 1 320 1 is_stmt 0 view .LVU163
 614 001e 10BD     		pop	{r4, pc}
 615              		.loc 1 320 1 view .LVU164
 616              		.cfi_endproc
 617              	.LFE143:
 619              		.section	.text.usbd_irq_handler,"ax",%progbits
 620              		.align	1
 621              		.global	usbd_irq_handler
 622              		.syntax unified
 623              		.thumb
 624              		.thumb_func
 626              	usbd_irq_handler:
 627              	.LVL62:
 628              	.LFB137:
  46:middlewares/usbd_drivers/src/usbd_int.c ****   usbd_type *usbx = udev->usb_reg;
 629              		.loc 1 46 1 is_stmt 1 view -0
 630              		.cfi_startproc
 631              		@ args = 0, pretend = 0, frame = 0
 632              		@ frame_needed = 0, uses_anonymous_args = 0
  46:middlewares/usbd_drivers/src/usbd_int.c ****   usbd_type *usbx = udev->usb_reg;
 633              		.loc 1 46 1 is_stmt 0 view .LVU166
 634 0000 F8B5     		push	{r3, r4, r5, r6, r7, lr}
 635              	.LCFI6:
 636              		.cfi_def_cfa_offset 24
 637              		.cfi_offset 3, -24
 638              		.cfi_offset 4, -20
 639              		.cfi_offset 5, -16
 640              		.cfi_offset 6, -12
 641              		.cfi_offset 7, -8
 642              		.cfi_offset 14, -4
 643 0002 0546     		mov	r5, r0
  47:middlewares/usbd_drivers/src/usbd_int.c ****   uint32_t sts_val = usbx->intsts;
 644              		.loc 1 47 3 is_stmt 1 view .LVU167
  47:middlewares/usbd_drivers/src/usbd_int.c ****   uint32_t sts_val = usbx->intsts;
 645              		.loc 1 47 14 is_stmt 0 view .LVU168
 646 0004 0668     		ldr	r6, [r0]
 647              	.LVL63:
ARM GAS  C:\Users\10963\AppData\Local\Temp\ccYJeOyp.s 			page 19


  48:middlewares/usbd_drivers/src/usbd_int.c ****   uint32_t sts_ien = usbx->ctrl;
 648              		.loc 1 48 3 is_stmt 1 view .LVU169
  48:middlewares/usbd_drivers/src/usbd_int.c ****   uint32_t sts_ien = usbx->ctrl;
 649              		.loc 1 48 12 is_stmt 0 view .LVU170
 650 0006 746C     		ldr	r4, [r6, #68]
 651              	.LVL64:
  49:middlewares/usbd_drivers/src/usbd_int.c **** 
 652              		.loc 1 49 3 is_stmt 1 view .LVU171
  49:middlewares/usbd_drivers/src/usbd_int.c **** 
 653              		.loc 1 49 12 is_stmt 0 view .LVU172
 654 0008 376C     		ldr	r7, [r6, #64]
 655              	.LVL65:
  51:middlewares/usbd_drivers/src/usbd_int.c ****   {
 656              		.loc 1 51 3 is_stmt 1 view .LVU173
  51:middlewares/usbd_drivers/src/usbd_int.c ****   {
 657              		.loc 1 51 5 is_stmt 0 view .LVU174
 658 000a 14F4004F 		tst	r4, #32768
 659 000e 1BD1     		bne	.L44
 660              	.LVL66:
 661              	.L37:
  57:middlewares/usbd_drivers/src/usbd_int.c ****   {
 662              		.loc 1 57 3 is_stmt 1 view .LVU175
  57:middlewares/usbd_drivers/src/usbd_int.c ****   {
 663              		.loc 1 57 5 is_stmt 0 view .LVU176
 664 0010 14F4806F 		tst	r4, #1024
 665 0014 1BD1     		bne	.L45
 666              	.L38:
  66:middlewares/usbd_drivers/src/usbd_int.c ****     (sts_ien & USB_SOF_INT))
 667              		.loc 1 66 3 is_stmt 1 view .LVU177
  66:middlewares/usbd_drivers/src/usbd_int.c ****     (sts_ien & USB_SOF_INT))
 668              		.loc 1 66 5 is_stmt 0 view .LVU178
 669 0016 14F4007F 		tst	r4, #512
 670 001a 02D0     		beq	.L39
  66:middlewares/usbd_drivers/src/usbd_int.c ****     (sts_ien & USB_SOF_INT))
 671              		.loc 1 66 31 discriminator 1 view .LVU179
 672 001c 17F4007F 		tst	r7, #512
 673 0020 1ED1     		bne	.L46
 674              	.L39:
  76:middlewares/usbd_drivers/src/usbd_int.c ****     (sts_ien & USB_LSOF_INT))
 675              		.loc 1 76 3 is_stmt 1 view .LVU180
  76:middlewares/usbd_drivers/src/usbd_int.c ****     (sts_ien & USB_LSOF_INT))
 676              		.loc 1 76 5 is_stmt 0 view .LVU181
 677 0022 14F4807F 		tst	r4, #256
 678 0026 02D0     		beq	.L40
  76:middlewares/usbd_drivers/src/usbd_int.c ****     (sts_ien & USB_LSOF_INT))
 679              		.loc 1 76 32 discriminator 1 view .LVU182
 680 0028 17F4807F 		tst	r7, #256
 681 002c 21D1     		bne	.L47
 682              	.L40:
  83:middlewares/usbd_drivers/src/usbd_int.c ****     (sts_ien & USB_SP_INT))
 683              		.loc 1 83 3 is_stmt 1 view .LVU183
  83:middlewares/usbd_drivers/src/usbd_int.c ****     (sts_ien & USB_SP_INT))
 684              		.loc 1 83 5 is_stmt 0 view .LVU184
 685 002e 14F4006F 		tst	r4, #2048
 686 0032 02D0     		beq	.L41
  83:middlewares/usbd_drivers/src/usbd_int.c ****     (sts_ien & USB_SP_INT))
 687              		.loc 1 83 30 discriminator 1 view .LVU185
ARM GAS  C:\Users\10963\AppData\Local\Temp\ccYJeOyp.s 			page 20


 688 0034 17F4006F 		tst	r7, #2048
 689 0038 21D1     		bne	.L48
 690              	.L41:
  93:middlewares/usbd_drivers/src/usbd_int.c ****     (sts_ien & USB_WK_INT))
 691              		.loc 1 93 3 is_stmt 1 view .LVU186
  93:middlewares/usbd_drivers/src/usbd_int.c ****     (sts_ien & USB_WK_INT))
 692              		.loc 1 93 5 is_stmt 0 view .LVU187
 693 003a 14F4805F 		tst	r4, #4096
 694 003e 02D0     		beq	.L36
  93:middlewares/usbd_drivers/src/usbd_int.c ****     (sts_ien & USB_WK_INT))
 695              		.loc 1 93 30 discriminator 1 view .LVU188
 696 0040 17F4805F 		tst	r7, #4096
 697 0044 24D1     		bne	.L49
 698              	.L36:
 102:middlewares/usbd_drivers/src/usbd_int.c **** 
 699              		.loc 1 102 1 view .LVU189
 700 0046 F8BD     		pop	{r3, r4, r5, r6, r7, pc}
 701              	.LVL67:
 702              	.L44:
  54:middlewares/usbd_drivers/src/usbd_int.c ****   }
 703              		.loc 1 54 5 is_stmt 1 view .LVU190
 704 0048 FFF7FEFF 		bl	usbd_ept_loop_handler
 705              	.LVL68:
  54:middlewares/usbd_drivers/src/usbd_int.c ****   }
 706              		.loc 1 54 5 is_stmt 0 view .LVU191
 707 004c E0E7     		b	.L37
 708              	.L45:
  60:middlewares/usbd_drivers/src/usbd_int.c **** 
 709              		.loc 1 60 5 is_stmt 1 view .LVU192
 710 004e 4FF48061 		mov	r1, #1024
 711 0052 3046     		mov	r0, r6
 712 0054 FFF7FEFF 		bl	usb_flag_clear
 713              	.LVL69:
  63:middlewares/usbd_drivers/src/usbd_int.c ****   }
 714              		.loc 1 63 5 view .LVU193
 715 0058 2846     		mov	r0, r5
 716 005a FFF7FEFF 		bl	usbd_reset_handler
 717              	.LVL70:
 718 005e DAE7     		b	.L38
 719              	.L46:
  70:middlewares/usbd_drivers/src/usbd_int.c **** 
 720              		.loc 1 70 5 view .LVU194
 721 0060 4FF40071 		mov	r1, #512
 722 0064 3046     		mov	r0, r6
 723 0066 FFF7FEFF 		bl	usb_flag_clear
 724              	.LVL71:
  73:middlewares/usbd_drivers/src/usbd_int.c ****   }
 725              		.loc 1 73 5 view .LVU195
 726 006a 2846     		mov	r0, r5
 727 006c FFF7FEFF 		bl	usbd_sof_handler
 728              	.LVL72:
 729 0070 D7E7     		b	.L39
 730              	.L47:
  80:middlewares/usbd_drivers/src/usbd_int.c ****   }
 731              		.loc 1 80 5 view .LVU196
 732 0072 4FF48071 		mov	r1, #256
 733 0076 3046     		mov	r0, r6
ARM GAS  C:\Users\10963\AppData\Local\Temp\ccYJeOyp.s 			page 21


 734 0078 FFF7FEFF 		bl	usb_flag_clear
 735              	.LVL73:
 736 007c D7E7     		b	.L40
 737              	.L48:
  87:middlewares/usbd_drivers/src/usbd_int.c **** 
 738              		.loc 1 87 5 view .LVU197
 739 007e 4FF40061 		mov	r1, #2048
 740 0082 3046     		mov	r0, r6
 741 0084 FFF7FEFF 		bl	usb_flag_clear
 742              	.LVL74:
  90:middlewares/usbd_drivers/src/usbd_int.c ****   }
 743              		.loc 1 90 5 view .LVU198
 744 0088 2846     		mov	r0, r5
 745 008a FFF7FEFF 		bl	usbd_suspend_handler
 746              	.LVL75:
 747 008e D4E7     		b	.L41
 748              	.L49:
  97:middlewares/usbd_drivers/src/usbd_int.c **** 
 749              		.loc 1 97 5 view .LVU199
 750 0090 2846     		mov	r0, r5
 751 0092 FFF7FEFF 		bl	usbd_wakeup_handler
 752              	.LVL76:
 100:middlewares/usbd_drivers/src/usbd_int.c ****   }
 753              		.loc 1 100 5 view .LVU200
 754 0096 4FF48051 		mov	r1, #4096
 755 009a 3046     		mov	r0, r6
 756 009c FFF7FEFF 		bl	usb_flag_clear
 757              	.LVL77:
 102:middlewares/usbd_drivers/src/usbd_int.c **** 
 758              		.loc 1 102 1 is_stmt 0 view .LVU201
 759 00a0 D1E7     		b	.L36
 760              		.cfi_endproc
 761              	.LFE137:
 763              		.text
 764              	.Letext0:
 765              		.file 2 "C:/Program Files (x86)/Arm/GNU Toolchain mingw-w64-i686-arm-none-eabi/arm-none-eabi/inclu
 766              		.file 3 "C:/Program Files (x86)/Arm/GNU Toolchain mingw-w64-i686-arm-none-eabi/arm-none-eabi/inclu
 767              		.file 4 "libraries/drivers/inc/at32f403a_407_usb.h"
 768              		.file 5 "middlewares/usbd_drivers/inc/usb_std.h"
 769              		.file 6 "middlewares/usbd_drivers/inc/usbd_core.h"
ARM GAS  C:\Users\10963\AppData\Local\Temp\ccYJeOyp.s 			page 22

