ARM GAS  C:\Users\10963\AppData\Local\Temp\ccbSz4Fj.s 			page 1


   1              		.cpu cortex-m4
   2              		.arch armv7e-m
   3              		.fpu fpv4-sp-d16
   4              		.eabi_attribute 27, 1
   5              		.eabi_attribute 28, 1
   6              		.eabi_attribute 20, 1
   7              		.eabi_attribute 21, 1
   8              		.eabi_attribute 23, 3
   9              		.eabi_attribute 24, 1
  10              		.eabi_attribute 25, 1
  11              		.eabi_attribute 26, 1
  12              		.eabi_attribute 30, 1
  13              		.eabi_attribute 34, 1
  14              		.eabi_attribute 18, 4
  15              		.file	"usbd_sdr.c"
  16              		.text
  17              	.Ltext0:
  18              		.cfi_sections	.debug_frame
  19              		.file 1 "middlewares/usbd_drivers/src/usbd_sdr.c"
  20              		.section	.text.usbd_get_status,"ax",%progbits
  21              		.align	1
  22              		.syntax unified
  23              		.thumb
  24              		.thumb_func
  26              	usbd_get_status:
  27              	.LVL0:
  28              	.LFB140:
   1:middlewares/usbd_drivers/src/usbd_sdr.c **** /**
   2:middlewares/usbd_drivers/src/usbd_sdr.c ****   **************************************************************************
   3:middlewares/usbd_drivers/src/usbd_sdr.c ****   * @file     usbd_sdr.c
   4:middlewares/usbd_drivers/src/usbd_sdr.c ****   * @brief    usb standard device request
   5:middlewares/usbd_drivers/src/usbd_sdr.c ****   **************************************************************************
   6:middlewares/usbd_drivers/src/usbd_sdr.c ****   *
   7:middlewares/usbd_drivers/src/usbd_sdr.c ****   * Copyright (c) 2025, Artery Technology, All rights reserved.
   8:middlewares/usbd_drivers/src/usbd_sdr.c ****   *
   9:middlewares/usbd_drivers/src/usbd_sdr.c ****   * The software Board Support Package (BSP) that is made available to
  10:middlewares/usbd_drivers/src/usbd_sdr.c ****   * download from Artery official website is the copyrighted work of Artery.
  11:middlewares/usbd_drivers/src/usbd_sdr.c ****   * Artery authorizes customers to use, copy, and distribute the BSP
  12:middlewares/usbd_drivers/src/usbd_sdr.c ****   * software and its related documentation for the purpose of design and
  13:middlewares/usbd_drivers/src/usbd_sdr.c ****   * development in conjunction with Artery microcontrollers. Use of the
  14:middlewares/usbd_drivers/src/usbd_sdr.c ****   * software is governed by this copyright notice and the following disclaimer.
  15:middlewares/usbd_drivers/src/usbd_sdr.c ****   *
  16:middlewares/usbd_drivers/src/usbd_sdr.c ****   * THIS SOFTWARE IS PROVIDED ON "AS IS" BASIS WITHOUT WARRANTIES,
  17:middlewares/usbd_drivers/src/usbd_sdr.c ****   * GUARANTEES OR REPRESENTATIONS OF ANY KIND. ARTERY EXPRESSLY DISCLAIMS,
  18:middlewares/usbd_drivers/src/usbd_sdr.c ****   * TO THE FULLEST EXTENT PERMITTED BY LAW, ALL EXPRESS, IMPLIED OR
  19:middlewares/usbd_drivers/src/usbd_sdr.c ****   * STATUTORY OR OTHER WARRANTIES, GUARANTEES OR REPRESENTATIONS,
  20:middlewares/usbd_drivers/src/usbd_sdr.c ****   * INCLUDING BUT NOT LIMITED TO, THE IMPLIED WARRANTIES OF MERCHANTABILITY,
  21:middlewares/usbd_drivers/src/usbd_sdr.c ****   * FITNESS FOR A PARTICULAR PURPOSE, OR NON-INFRINGEMENT.
  22:middlewares/usbd_drivers/src/usbd_sdr.c ****   *
  23:middlewares/usbd_drivers/src/usbd_sdr.c ****   **************************************************************************
  24:middlewares/usbd_drivers/src/usbd_sdr.c ****   */
  25:middlewares/usbd_drivers/src/usbd_sdr.c **** #include "usbd_sdr.h"
  26:middlewares/usbd_drivers/src/usbd_sdr.c **** 
  27:middlewares/usbd_drivers/src/usbd_sdr.c **** /** @addtogroup AT32F403A_407_middlewares_usbd_drivers
  28:middlewares/usbd_drivers/src/usbd_sdr.c ****   * @{
  29:middlewares/usbd_drivers/src/usbd_sdr.c ****   */
  30:middlewares/usbd_drivers/src/usbd_sdr.c **** 
ARM GAS  C:\Users\10963\AppData\Local\Temp\ccbSz4Fj.s 			page 2


  31:middlewares/usbd_drivers/src/usbd_sdr.c **** /** @defgroup USBD_drivers_standard_request
  32:middlewares/usbd_drivers/src/usbd_sdr.c ****   * @brief usb device standard_request
  33:middlewares/usbd_drivers/src/usbd_sdr.c ****   * @{
  34:middlewares/usbd_drivers/src/usbd_sdr.c ****   */
  35:middlewares/usbd_drivers/src/usbd_sdr.c **** 
  36:middlewares/usbd_drivers/src/usbd_sdr.c **** /** @defgroup USBD_sdr_private_functions
  37:middlewares/usbd_drivers/src/usbd_sdr.c ****   * @{
  38:middlewares/usbd_drivers/src/usbd_sdr.c ****   */
  39:middlewares/usbd_drivers/src/usbd_sdr.c **** 
  40:middlewares/usbd_drivers/src/usbd_sdr.c **** static usb_sts_type usbd_get_descriptor(usbd_core_type *udev);
  41:middlewares/usbd_drivers/src/usbd_sdr.c **** static usb_sts_type usbd_set_address(usbd_core_type *udev);
  42:middlewares/usbd_drivers/src/usbd_sdr.c **** static usb_sts_type usbd_get_status(usbd_core_type *udev);
  43:middlewares/usbd_drivers/src/usbd_sdr.c **** static usb_sts_type usbd_clear_feature(usbd_core_type *udev);
  44:middlewares/usbd_drivers/src/usbd_sdr.c **** static usb_sts_type usbd_set_feature(usbd_core_type *udev);
  45:middlewares/usbd_drivers/src/usbd_sdr.c **** static usb_sts_type usbd_get_configuration(usbd_core_type *udev);
  46:middlewares/usbd_drivers/src/usbd_sdr.c **** static usb_sts_type usbd_set_configuration(usbd_core_type *udev);
  47:middlewares/usbd_drivers/src/usbd_sdr.c **** 
  48:middlewares/usbd_drivers/src/usbd_sdr.c **** /**
  49:middlewares/usbd_drivers/src/usbd_sdr.c ****   * @brief  usb parse standard setup request
  50:middlewares/usbd_drivers/src/usbd_sdr.c ****   * @param  setup: setup structure
  51:middlewares/usbd_drivers/src/usbd_sdr.c ****   * @param  buf: setup buffer
  52:middlewares/usbd_drivers/src/usbd_sdr.c ****   * @retval none
  53:middlewares/usbd_drivers/src/usbd_sdr.c ****   */
  54:middlewares/usbd_drivers/src/usbd_sdr.c **** void usbd_setup_request_parse(usb_setup_type *setup, uint8_t *buf)
  55:middlewares/usbd_drivers/src/usbd_sdr.c **** {
  56:middlewares/usbd_drivers/src/usbd_sdr.c ****   setup->bmRequestType         = *(uint8_t *) buf;
  57:middlewares/usbd_drivers/src/usbd_sdr.c ****   setup->bRequest              = *(uint8_t *) (buf + 1);
  58:middlewares/usbd_drivers/src/usbd_sdr.c ****   setup->wValue                = SWAPBYTE(buf + 2);
  59:middlewares/usbd_drivers/src/usbd_sdr.c ****   setup->wIndex                = SWAPBYTE(buf + 4);
  60:middlewares/usbd_drivers/src/usbd_sdr.c ****   setup->wLength               = SWAPBYTE(buf + 6);
  61:middlewares/usbd_drivers/src/usbd_sdr.c **** }
  62:middlewares/usbd_drivers/src/usbd_sdr.c **** 
  63:middlewares/usbd_drivers/src/usbd_sdr.c **** /**
  64:middlewares/usbd_drivers/src/usbd_sdr.c ****   * @brief  get usb standard device description request
  65:middlewares/usbd_drivers/src/usbd_sdr.c ****   * @param  udev: to the structure of usbd_core_type
  66:middlewares/usbd_drivers/src/usbd_sdr.c ****   * @retval status of usb_sts_type
  67:middlewares/usbd_drivers/src/usbd_sdr.c ****   */
  68:middlewares/usbd_drivers/src/usbd_sdr.c **** static usb_sts_type usbd_get_descriptor(usbd_core_type *udev)
  69:middlewares/usbd_drivers/src/usbd_sdr.c **** {
  70:middlewares/usbd_drivers/src/usbd_sdr.c ****   usb_sts_type ret = USB_OK;
  71:middlewares/usbd_drivers/src/usbd_sdr.c ****   uint16_t len = 0;
  72:middlewares/usbd_drivers/src/usbd_sdr.c ****   usbd_desc_t *desc = NULL;
  73:middlewares/usbd_drivers/src/usbd_sdr.c ****   uint8_t desc_type = udev->setup.wValue >> 8;
  74:middlewares/usbd_drivers/src/usbd_sdr.c ****   switch(desc_type)
  75:middlewares/usbd_drivers/src/usbd_sdr.c ****   {
  76:middlewares/usbd_drivers/src/usbd_sdr.c ****     case USB_DESCIPTOR_TYPE_DEVICE:
  77:middlewares/usbd_drivers/src/usbd_sdr.c ****       desc = udev->desc_handler->get_device_descriptor();
  78:middlewares/usbd_drivers/src/usbd_sdr.c ****       break;
  79:middlewares/usbd_drivers/src/usbd_sdr.c ****     case USB_DESCIPTOR_TYPE_CONFIGURATION:
  80:middlewares/usbd_drivers/src/usbd_sdr.c ****       desc = udev->desc_handler->get_device_configuration();
  81:middlewares/usbd_drivers/src/usbd_sdr.c ****       break;
  82:middlewares/usbd_drivers/src/usbd_sdr.c ****     case USB_DESCIPTOR_TYPE_STRING:
  83:middlewares/usbd_drivers/src/usbd_sdr.c ****     {
  84:middlewares/usbd_drivers/src/usbd_sdr.c ****       uint8_t str_desc = (uint8_t)udev->setup.wValue;
  85:middlewares/usbd_drivers/src/usbd_sdr.c ****       switch(str_desc)
  86:middlewares/usbd_drivers/src/usbd_sdr.c ****       {
  87:middlewares/usbd_drivers/src/usbd_sdr.c ****         case USB_LANGID_STRING:
ARM GAS  C:\Users\10963\AppData\Local\Temp\ccbSz4Fj.s 			page 3


  88:middlewares/usbd_drivers/src/usbd_sdr.c ****           desc = udev->desc_handler->get_device_lang_id();
  89:middlewares/usbd_drivers/src/usbd_sdr.c ****           break;
  90:middlewares/usbd_drivers/src/usbd_sdr.c ****         case USB_MFC_STRING:
  91:middlewares/usbd_drivers/src/usbd_sdr.c ****           desc = udev->desc_handler->get_device_manufacturer_string();
  92:middlewares/usbd_drivers/src/usbd_sdr.c ****           break;
  93:middlewares/usbd_drivers/src/usbd_sdr.c ****         case USB_PRODUCT_STRING:
  94:middlewares/usbd_drivers/src/usbd_sdr.c ****           desc = udev->desc_handler->get_device_product_string();
  95:middlewares/usbd_drivers/src/usbd_sdr.c ****           break;
  96:middlewares/usbd_drivers/src/usbd_sdr.c ****         case USB_SERIAL_STRING:
  97:middlewares/usbd_drivers/src/usbd_sdr.c ****           desc = udev->desc_handler->get_device_serial_string();
  98:middlewares/usbd_drivers/src/usbd_sdr.c ****           break;
  99:middlewares/usbd_drivers/src/usbd_sdr.c ****         case USB_CONFIG_STRING:
 100:middlewares/usbd_drivers/src/usbd_sdr.c ****           desc = udev->desc_handler->get_device_config_string();
 101:middlewares/usbd_drivers/src/usbd_sdr.c ****           break;
 102:middlewares/usbd_drivers/src/usbd_sdr.c ****         case USB_INTERFACE_STRING:
 103:middlewares/usbd_drivers/src/usbd_sdr.c ****           desc = udev->desc_handler->get_device_interface_string();
 104:middlewares/usbd_drivers/src/usbd_sdr.c ****           break;
 105:middlewares/usbd_drivers/src/usbd_sdr.c ****         case USB_WINUSB_OS_STRING:
 106:middlewares/usbd_drivers/src/usbd_sdr.c **** #if (USBD_SUPPORT_WINUSB == 1)
 107:middlewares/usbd_drivers/src/usbd_sdr.c ****           if(udev->desc_handler->get_device_winusb_os_string != NULL)
 108:middlewares/usbd_drivers/src/usbd_sdr.c ****           {
 109:middlewares/usbd_drivers/src/usbd_sdr.c ****             desc = udev->desc_handler->get_device_winusb_os_string();
 110:middlewares/usbd_drivers/src/usbd_sdr.c ****           }
 111:middlewares/usbd_drivers/src/usbd_sdr.c ****           else
 112:middlewares/usbd_drivers/src/usbd_sdr.c ****           {
 113:middlewares/usbd_drivers/src/usbd_sdr.c ****             usbd_ctrl_unsupport(udev);
 114:middlewares/usbd_drivers/src/usbd_sdr.c ****           }
 115:middlewares/usbd_drivers/src/usbd_sdr.c **** #else
 116:middlewares/usbd_drivers/src/usbd_sdr.c ****           usbd_ctrl_unsupport(udev);
 117:middlewares/usbd_drivers/src/usbd_sdr.c **** #endif
 118:middlewares/usbd_drivers/src/usbd_sdr.c ****           break;
 119:middlewares/usbd_drivers/src/usbd_sdr.c ****         default:
 120:middlewares/usbd_drivers/src/usbd_sdr.c ****           udev->class_handler->setup_handler(udev, &udev->setup);
 121:middlewares/usbd_drivers/src/usbd_sdr.c ****           return ret;
 122:middlewares/usbd_drivers/src/usbd_sdr.c ****       }
 123:middlewares/usbd_drivers/src/usbd_sdr.c ****       break;
 124:middlewares/usbd_drivers/src/usbd_sdr.c ****     }
 125:middlewares/usbd_drivers/src/usbd_sdr.c ****     case USB_DESCIPTOR_TYPE_DEVICE_QUALIFIER:
 126:middlewares/usbd_drivers/src/usbd_sdr.c ****       usbd_ctrl_unsupport(udev);
 127:middlewares/usbd_drivers/src/usbd_sdr.c ****       break;
 128:middlewares/usbd_drivers/src/usbd_sdr.c ****     case USB_DESCIPTOR_TYPE_OTHER_SPEED:
 129:middlewares/usbd_drivers/src/usbd_sdr.c ****       usbd_ctrl_unsupport(udev);
 130:middlewares/usbd_drivers/src/usbd_sdr.c ****       return ret;
 131:middlewares/usbd_drivers/src/usbd_sdr.c ****     default:
 132:middlewares/usbd_drivers/src/usbd_sdr.c ****       usbd_ctrl_unsupport(udev);
 133:middlewares/usbd_drivers/src/usbd_sdr.c ****       return ret;
 134:middlewares/usbd_drivers/src/usbd_sdr.c ****   }
 135:middlewares/usbd_drivers/src/usbd_sdr.c **** 
 136:middlewares/usbd_drivers/src/usbd_sdr.c ****   if(desc != NULL)
 137:middlewares/usbd_drivers/src/usbd_sdr.c ****   {
 138:middlewares/usbd_drivers/src/usbd_sdr.c ****     if((desc->length != 0) && (udev->setup.wLength != 0))
 139:middlewares/usbd_drivers/src/usbd_sdr.c ****     {
 140:middlewares/usbd_drivers/src/usbd_sdr.c ****       len = MIN(desc->length , udev->setup.wLength);
 141:middlewares/usbd_drivers/src/usbd_sdr.c ****       usbd_ctrl_send(udev, desc->descriptor, len);
 142:middlewares/usbd_drivers/src/usbd_sdr.c ****     }
 143:middlewares/usbd_drivers/src/usbd_sdr.c ****   }
 144:middlewares/usbd_drivers/src/usbd_sdr.c ****   return ret;
ARM GAS  C:\Users\10963\AppData\Local\Temp\ccbSz4Fj.s 			page 4


 145:middlewares/usbd_drivers/src/usbd_sdr.c **** }
 146:middlewares/usbd_drivers/src/usbd_sdr.c **** 
 147:middlewares/usbd_drivers/src/usbd_sdr.c **** /**
 148:middlewares/usbd_drivers/src/usbd_sdr.c ****   * @brief  this request sets the device address
 149:middlewares/usbd_drivers/src/usbd_sdr.c ****   * @param  udev: to the structure of usbd_core_type
 150:middlewares/usbd_drivers/src/usbd_sdr.c ****   * @retval status of usb_sts_type
 151:middlewares/usbd_drivers/src/usbd_sdr.c ****   */
 152:middlewares/usbd_drivers/src/usbd_sdr.c **** static usb_sts_type usbd_set_address(usbd_core_type *udev)
 153:middlewares/usbd_drivers/src/usbd_sdr.c **** {
 154:middlewares/usbd_drivers/src/usbd_sdr.c ****   usb_sts_type ret = USB_OK;
 155:middlewares/usbd_drivers/src/usbd_sdr.c ****   usb_setup_type *setup = &udev->setup;
 156:middlewares/usbd_drivers/src/usbd_sdr.c ****   uint8_t dev_addr;
 157:middlewares/usbd_drivers/src/usbd_sdr.c **** 
 158:middlewares/usbd_drivers/src/usbd_sdr.c ****   /* if wIndex or wLength are non-zero, then the behavior of
 159:middlewares/usbd_drivers/src/usbd_sdr.c ****      the device is not specified
 160:middlewares/usbd_drivers/src/usbd_sdr.c ****   */
 161:middlewares/usbd_drivers/src/usbd_sdr.c ****   if(setup->wIndex == 0 && setup->wLength == 0)
 162:middlewares/usbd_drivers/src/usbd_sdr.c ****   {
 163:middlewares/usbd_drivers/src/usbd_sdr.c ****     dev_addr = (uint8_t)(setup->wValue) & 0x7f;
 164:middlewares/usbd_drivers/src/usbd_sdr.c **** 
 165:middlewares/usbd_drivers/src/usbd_sdr.c ****     /* device behavior when this request is received
 166:middlewares/usbd_drivers/src/usbd_sdr.c ****        while the device is in the configured state is not specified.*/
 167:middlewares/usbd_drivers/src/usbd_sdr.c ****     if(udev->conn_state == USB_CONN_STATE_CONFIGURED )
 168:middlewares/usbd_drivers/src/usbd_sdr.c ****     {
 169:middlewares/usbd_drivers/src/usbd_sdr.c ****       usbd_ctrl_unsupport(udev);
 170:middlewares/usbd_drivers/src/usbd_sdr.c ****     }
 171:middlewares/usbd_drivers/src/usbd_sdr.c ****     else
 172:middlewares/usbd_drivers/src/usbd_sdr.c ****     {
 173:middlewares/usbd_drivers/src/usbd_sdr.c ****       udev->device_addr = dev_addr;
 174:middlewares/usbd_drivers/src/usbd_sdr.c **** 
 175:middlewares/usbd_drivers/src/usbd_sdr.c ****       if(dev_addr != 0)
 176:middlewares/usbd_drivers/src/usbd_sdr.c ****       {
 177:middlewares/usbd_drivers/src/usbd_sdr.c ****         udev->conn_state = USB_CONN_STATE_ADDRESSED;
 178:middlewares/usbd_drivers/src/usbd_sdr.c ****       }
 179:middlewares/usbd_drivers/src/usbd_sdr.c ****       else
 180:middlewares/usbd_drivers/src/usbd_sdr.c ****       {
 181:middlewares/usbd_drivers/src/usbd_sdr.c ****         udev->conn_state = USB_CONN_STATE_DEFAULT;
 182:middlewares/usbd_drivers/src/usbd_sdr.c ****       }
 183:middlewares/usbd_drivers/src/usbd_sdr.c ****       usbd_ctrl_send_status(udev);
 184:middlewares/usbd_drivers/src/usbd_sdr.c ****     }
 185:middlewares/usbd_drivers/src/usbd_sdr.c ****   }
 186:middlewares/usbd_drivers/src/usbd_sdr.c ****   else
 187:middlewares/usbd_drivers/src/usbd_sdr.c ****   {
 188:middlewares/usbd_drivers/src/usbd_sdr.c ****     usbd_ctrl_unsupport(udev);
 189:middlewares/usbd_drivers/src/usbd_sdr.c ****   }
 190:middlewares/usbd_drivers/src/usbd_sdr.c ****   return ret;
 191:middlewares/usbd_drivers/src/usbd_sdr.c **** }
 192:middlewares/usbd_drivers/src/usbd_sdr.c **** 
 193:middlewares/usbd_drivers/src/usbd_sdr.c **** /**
 194:middlewares/usbd_drivers/src/usbd_sdr.c ****   * @brief  get usb status request
 195:middlewares/usbd_drivers/src/usbd_sdr.c ****   * @param  udev: to the structure of usbd_core_type
 196:middlewares/usbd_drivers/src/usbd_sdr.c ****   * @retval status of usb_sts_type
 197:middlewares/usbd_drivers/src/usbd_sdr.c ****   */
 198:middlewares/usbd_drivers/src/usbd_sdr.c **** static usb_sts_type usbd_get_status(usbd_core_type *udev)
 199:middlewares/usbd_drivers/src/usbd_sdr.c **** {
  29              		.loc 1 199 1 view -0
  30              		.cfi_startproc
ARM GAS  C:\Users\10963\AppData\Local\Temp\ccbSz4Fj.s 			page 5


  31              		@ args = 0, pretend = 0, frame = 0
  32              		@ frame_needed = 0, uses_anonymous_args = 0
  33              		.loc 1 199 1 is_stmt 0 view .LVU1
  34 0000 08B5     		push	{r3, lr}
  35              	.LCFI0:
  36              		.cfi_def_cfa_offset 8
  37              		.cfi_offset 3, -8
  38              		.cfi_offset 14, -4
 200:middlewares/usbd_drivers/src/usbd_sdr.c ****   usb_sts_type ret = USB_OK;
  39              		.loc 1 200 3 is_stmt 1 view .LVU2
  40              	.LVL1:
 201:middlewares/usbd_drivers/src/usbd_sdr.c ****   switch(udev->conn_state)
  41              		.loc 1 201 3 view .LVU3
  42              		.loc 1 201 14 is_stmt 0 view .LVU4
  43 0002 90F82432 		ldrb	r3, [r0, #548]	@ zero_extendqisi2
  44              		.loc 1 201 3 view .LVU5
  45 0006 023B     		subs	r3, r3, #2
  46 0008 012B     		cmp	r3, #1
  47 000a 0FD8     		bhi	.L2
 202:middlewares/usbd_drivers/src/usbd_sdr.c ****   {
 203:middlewares/usbd_drivers/src/usbd_sdr.c ****     case USB_CONN_STATE_ADDRESSED:
 204:middlewares/usbd_drivers/src/usbd_sdr.c ****     case USB_CONN_STATE_CONFIGURED:
 205:middlewares/usbd_drivers/src/usbd_sdr.c ****       if(udev->remote_wakup)
  48              		.loc 1 205 7 is_stmt 1 view .LVU6
  49              		.loc 1 205 14 is_stmt 0 view .LVU7
  50 000c 90F82732 		ldrb	r3, [r0, #551]	@ zero_extendqisi2
  51              		.loc 1 205 9 view .LVU8
  52 0010 2BB1     		cbz	r3, .L3
 206:middlewares/usbd_drivers/src/usbd_sdr.c ****       {
 207:middlewares/usbd_drivers/src/usbd_sdr.c ****         udev->config_status |= USB_CONF_REMOTE_WAKEUP;
  53              		.loc 1 207 9 is_stmt 1 view .LVU9
  54              		.loc 1 207 13 is_stmt 0 view .LVU10
  55 0012 B0F82A32 		ldrh	r3, [r0, #554]
  56              		.loc 1 207 29 view .LVU11
  57 0016 43F00203 		orr	r3, r3, #2
  58 001a A0F82A32 		strh	r3, [r0, #554]	@ movhi
  59              	.L3:
 208:middlewares/usbd_drivers/src/usbd_sdr.c ****       }
 209:middlewares/usbd_drivers/src/usbd_sdr.c ****       usbd_ctrl_send(udev, (uint8_t *)(&udev->config_status), 2);
  60              		.loc 1 209 7 is_stmt 1 view .LVU12
  61 001e 0222     		movs	r2, #2
  62 0020 00F22A21 		addw	r1, r0, #554
  63 0024 FFF7FEFF 		bl	usbd_ctrl_send
  64              	.LVL2:
 210:middlewares/usbd_drivers/src/usbd_sdr.c ****       break;
  65              		.loc 1 210 7 view .LVU13
  66              	.L4:
 211:middlewares/usbd_drivers/src/usbd_sdr.c ****     default:
 212:middlewares/usbd_drivers/src/usbd_sdr.c ****       usbd_ctrl_unsupport(udev);
 213:middlewares/usbd_drivers/src/usbd_sdr.c ****       break;
 214:middlewares/usbd_drivers/src/usbd_sdr.c ****   }
 215:middlewares/usbd_drivers/src/usbd_sdr.c ****   return ret;
  67              		.loc 1 215 3 view .LVU14
 216:middlewares/usbd_drivers/src/usbd_sdr.c **** }
  68              		.loc 1 216 1 is_stmt 0 view .LVU15
  69 0028 0020     		movs	r0, #0
  70 002a 08BD     		pop	{r3, pc}
ARM GAS  C:\Users\10963\AppData\Local\Temp\ccbSz4Fj.s 			page 6


  71              	.LVL3:
  72              	.L2:
 212:middlewares/usbd_drivers/src/usbd_sdr.c ****       break;
  73              		.loc 1 212 7 is_stmt 1 view .LVU16
  74 002c FFF7FEFF 		bl	usbd_ctrl_unsupport
  75              	.LVL4:
 213:middlewares/usbd_drivers/src/usbd_sdr.c ****   }
  76              		.loc 1 213 7 view .LVU17
  77 0030 FAE7     		b	.L4
  78              		.cfi_endproc
  79              	.LFE140:
  81              		.section	.text.usbd_get_descriptor,"ax",%progbits
  82              		.align	1
  83              		.syntax unified
  84              		.thumb
  85              		.thumb_func
  87              	usbd_get_descriptor:
  88              	.LVL5:
  89              	.LFB138:
  69:middlewares/usbd_drivers/src/usbd_sdr.c ****   usb_sts_type ret = USB_OK;
  90              		.loc 1 69 1 view -0
  91              		.cfi_startproc
  92              		@ args = 0, pretend = 0, frame = 0
  93              		@ frame_needed = 0, uses_anonymous_args = 0
  69:middlewares/usbd_drivers/src/usbd_sdr.c ****   usb_sts_type ret = USB_OK;
  94              		.loc 1 69 1 is_stmt 0 view .LVU19
  95 0000 10B5     		push	{r4, lr}
  96              	.LCFI1:
  97              		.cfi_def_cfa_offset 8
  98              		.cfi_offset 4, -8
  99              		.cfi_offset 14, -4
 100 0002 0446     		mov	r4, r0
  70:middlewares/usbd_drivers/src/usbd_sdr.c ****   uint16_t len = 0;
 101              		.loc 1 70 3 is_stmt 1 view .LVU20
 102              	.LVL6:
  71:middlewares/usbd_drivers/src/usbd_sdr.c ****   usbd_desc_t *desc = NULL;
 103              		.loc 1 71 3 view .LVU21
  72:middlewares/usbd_drivers/src/usbd_sdr.c ****   uint8_t desc_type = udev->setup.wValue >> 8;
 104              		.loc 1 72 3 view .LVU22
  73:middlewares/usbd_drivers/src/usbd_sdr.c ****   switch(desc_type)
 105              		.loc 1 73 3 view .LVU23
  73:middlewares/usbd_drivers/src/usbd_sdr.c ****   switch(desc_type)
 106              		.loc 1 73 34 is_stmt 0 view .LVU24
 107 0004 B0F80E22 		ldrh	r2, [r0, #526]
  73:middlewares/usbd_drivers/src/usbd_sdr.c ****   switch(desc_type)
 108              		.loc 1 73 11 view .LVU25
 109 0008 130A     		lsrs	r3, r2, #8
 110              	.LVL7:
  74:middlewares/usbd_drivers/src/usbd_sdr.c ****   {
 111              		.loc 1 74 3 is_stmt 1 view .LVU26
 112 000a 032B     		cmp	r3, #3
 113 000c 23D0     		beq	.L7
 114 000e 06D9     		bls	.L26
 115 0010 062B     		cmp	r3, #6
 116 0012 51D0     		beq	.L12
 117 0014 072B     		cmp	r3, #7
 118 0016 53D1     		bne	.L11
ARM GAS  C:\Users\10963\AppData\Local\Temp\ccbSz4Fj.s 			page 7


 129:middlewares/usbd_drivers/src/usbd_sdr.c ****       return ret;
 119              		.loc 1 129 7 view .LVU27
 120 0018 FFF7FEFF 		bl	usbd_ctrl_unsupport
 121              	.LVL8:
 130:middlewares/usbd_drivers/src/usbd_sdr.c ****     default:
 122              		.loc 1 130 7 view .LVU28
 130:middlewares/usbd_drivers/src/usbd_sdr.c ****     default:
 123              		.loc 1 130 14 is_stmt 0 view .LVU29
 124 001c 4EE0     		b	.L24
 125              	.LVL9:
 126              	.L26:
  74:middlewares/usbd_drivers/src/usbd_sdr.c ****   {
 127              		.loc 1 74 3 view .LVU30
 128 001e 012B     		cmp	r3, #1
 129 0020 05D0     		beq	.L9
 130 0022 022B     		cmp	r3, #2
 131 0024 4CD1     		bne	.L11
  80:middlewares/usbd_drivers/src/usbd_sdr.c ****       break;
 132              		.loc 1 80 7 is_stmt 1 view .LVU31
  80:middlewares/usbd_drivers/src/usbd_sdr.c ****       break;
 133              		.loc 1 80 18 is_stmt 0 view .LVU32
 134 0026 8368     		ldr	r3, [r0, #8]
 135              	.LVL10:
  80:middlewares/usbd_drivers/src/usbd_sdr.c ****       break;
 136              		.loc 1 80 32 view .LVU33
 137 0028 9B68     		ldr	r3, [r3, #8]
  80:middlewares/usbd_drivers/src/usbd_sdr.c ****       break;
 138              		.loc 1 80 14 view .LVU34
 139 002a 9847     		blx	r3
 140              	.LVL11:
  81:middlewares/usbd_drivers/src/usbd_sdr.c ****     case USB_DESCIPTOR_TYPE_STRING:
 141              		.loc 1 81 7 is_stmt 1 view .LVU35
 142 002c 02E0     		b	.L14
 143              	.LVL12:
 144              	.L9:
  77:middlewares/usbd_drivers/src/usbd_sdr.c ****       break;
 145              		.loc 1 77 7 view .LVU36
  77:middlewares/usbd_drivers/src/usbd_sdr.c ****       break;
 146              		.loc 1 77 18 is_stmt 0 view .LVU37
 147 002e 8368     		ldr	r3, [r0, #8]
 148              	.LVL13:
  77:middlewares/usbd_drivers/src/usbd_sdr.c ****       break;
 149              		.loc 1 77 32 view .LVU38
 150 0030 1B68     		ldr	r3, [r3]
  77:middlewares/usbd_drivers/src/usbd_sdr.c ****       break;
 151              		.loc 1 77 14 view .LVU39
 152 0032 9847     		blx	r3
 153              	.LVL14:
  78:middlewares/usbd_drivers/src/usbd_sdr.c ****     case USB_DESCIPTOR_TYPE_CONFIGURATION:
 154              		.loc 1 78 7 is_stmt 1 view .LVU40
 155              	.L14:
 136:middlewares/usbd_drivers/src/usbd_sdr.c ****   {
 156              		.loc 1 136 3 view .LVU41
 136:middlewares/usbd_drivers/src/usbd_sdr.c ****   {
 157              		.loc 1 136 5 is_stmt 0 view .LVU42
 158 0034 0028     		cmp	r0, #0
 159 0036 41D0     		beq	.L24
ARM GAS  C:\Users\10963\AppData\Local\Temp\ccbSz4Fj.s 			page 8


 138:middlewares/usbd_drivers/src/usbd_sdr.c ****     {
 160              		.loc 1 138 5 is_stmt 1 view .LVU43
 138:middlewares/usbd_drivers/src/usbd_sdr.c ****     {
 161              		.loc 1 138 13 is_stmt 0 view .LVU44
 162 0038 0388     		ldrh	r3, [r0]
 138:middlewares/usbd_drivers/src/usbd_sdr.c ****     {
 163              		.loc 1 138 7 view .LVU45
 164 003a 002B     		cmp	r3, #0
 165 003c 3ED0     		beq	.L24
 138:middlewares/usbd_drivers/src/usbd_sdr.c ****     {
 166              		.loc 1 138 43 discriminator 1 view .LVU46
 167 003e B4F81222 		ldrh	r2, [r4, #530]
 138:middlewares/usbd_drivers/src/usbd_sdr.c ****     {
 168              		.loc 1 138 28 discriminator 1 view .LVU47
 169 0042 002A     		cmp	r2, #0
 170 0044 3AD0     		beq	.L24
 140:middlewares/usbd_drivers/src/usbd_sdr.c ****       usbd_ctrl_send(udev, desc->descriptor, len);
 171              		.loc 1 140 7 is_stmt 1 view .LVU48
 172              	.LVL15:
 141:middlewares/usbd_drivers/src/usbd_sdr.c ****     }
 173              		.loc 1 141 7 view .LVU49
 174 0046 9A42     		cmp	r2, r3
 175 0048 28BF     		it	cs
 176 004a 1A46     		movcs	r2, r3
 177              	.LVL16:
 141:middlewares/usbd_drivers/src/usbd_sdr.c ****     }
 178              		.loc 1 141 7 is_stmt 0 view .LVU50
 179 004c 4168     		ldr	r1, [r0, #4]
 180 004e 2046     		mov	r0, r4
 181              	.LVL17:
 141:middlewares/usbd_drivers/src/usbd_sdr.c ****     }
 182              		.loc 1 141 7 view .LVU51
 183 0050 FFF7FEFF 		bl	usbd_ctrl_send
 184              	.LVL18:
 141:middlewares/usbd_drivers/src/usbd_sdr.c ****     }
 185              		.loc 1 141 7 view .LVU52
 186 0054 32E0     		b	.L24
 187              	.LVL19:
 188              	.L7:
 189              	.LBB2:
  84:middlewares/usbd_drivers/src/usbd_sdr.c ****       switch(str_desc)
 190              		.loc 1 84 7 is_stmt 1 view .LVU53
  85:middlewares/usbd_drivers/src/usbd_sdr.c ****       {
 191              		.loc 1 85 7 view .LVU54
 192 0056 D2B2     		uxtb	r2, r2
  85:middlewares/usbd_drivers/src/usbd_sdr.c ****       {
 193              		.loc 1 85 7 is_stmt 0 view .LVU55
 194 0058 032A     		cmp	r2, #3
 195 005a 1BD0     		beq	.L15
 196 005c 08D8     		bhi	.L16
 197 005e 012A     		cmp	r2, #1
 198 0060 10D0     		beq	.L17
 199 0062 022A     		cmp	r2, #2
 200 0064 12D0     		beq	.L18
 201 0066 02BB     		cbnz	r2, .L20
  88:middlewares/usbd_drivers/src/usbd_sdr.c ****           break;
 202              		.loc 1 88 11 is_stmt 1 view .LVU56
ARM GAS  C:\Users\10963\AppData\Local\Temp\ccbSz4Fj.s 			page 9


  88:middlewares/usbd_drivers/src/usbd_sdr.c ****           break;
 203              		.loc 1 88 22 is_stmt 0 view .LVU57
 204 0068 8368     		ldr	r3, [r0, #8]
 205              	.LVL20:
  88:middlewares/usbd_drivers/src/usbd_sdr.c ****           break;
 206              		.loc 1 88 36 view .LVU58
 207 006a 1B69     		ldr	r3, [r3, #16]
  88:middlewares/usbd_drivers/src/usbd_sdr.c ****           break;
 208              		.loc 1 88 18 view .LVU59
 209 006c 9847     		blx	r3
 210              	.LVL21:
  89:middlewares/usbd_drivers/src/usbd_sdr.c ****         case USB_MFC_STRING:
 211              		.loc 1 89 11 is_stmt 1 view .LVU60
 212 006e E1E7     		b	.L14
 213              	.LVL22:
 214              	.L16:
  85:middlewares/usbd_drivers/src/usbd_sdr.c ****       {
 215              		.loc 1 85 7 is_stmt 0 view .LVU61
 216 0070 052A     		cmp	r2, #5
 217 0072 13D0     		beq	.L21
 218 0074 EE2A     		cmp	r2, #238
 219 0076 15D0     		beq	.L22
 220 0078 042A     		cmp	r2, #4
 221 007a 16D1     		bne	.L20
 100:middlewares/usbd_drivers/src/usbd_sdr.c ****           break;
 222              		.loc 1 100 11 is_stmt 1 view .LVU62
 100:middlewares/usbd_drivers/src/usbd_sdr.c ****           break;
 223              		.loc 1 100 22 is_stmt 0 view .LVU63
 224 007c 8368     		ldr	r3, [r0, #8]
 225              	.LVL23:
 100:middlewares/usbd_drivers/src/usbd_sdr.c ****           break;
 226              		.loc 1 100 36 view .LVU64
 227 007e 5B6A     		ldr	r3, [r3, #36]
 100:middlewares/usbd_drivers/src/usbd_sdr.c ****           break;
 228              		.loc 1 100 18 view .LVU65
 229 0080 9847     		blx	r3
 230              	.LVL24:
 101:middlewares/usbd_drivers/src/usbd_sdr.c ****         case USB_INTERFACE_STRING:
 231              		.loc 1 101 11 is_stmt 1 view .LVU66
 232 0082 D7E7     		b	.L14
 233              	.LVL25:
 234              	.L17:
  91:middlewares/usbd_drivers/src/usbd_sdr.c ****           break;
 235              		.loc 1 91 11 view .LVU67
  91:middlewares/usbd_drivers/src/usbd_sdr.c ****           break;
 236              		.loc 1 91 22 is_stmt 0 view .LVU68
 237 0084 8368     		ldr	r3, [r0, #8]
 238              	.LVL26:
  91:middlewares/usbd_drivers/src/usbd_sdr.c ****           break;
 239              		.loc 1 91 36 view .LVU69
 240 0086 5B69     		ldr	r3, [r3, #20]
  91:middlewares/usbd_drivers/src/usbd_sdr.c ****           break;
 241              		.loc 1 91 18 view .LVU70
 242 0088 9847     		blx	r3
 243              	.LVL27:
  92:middlewares/usbd_drivers/src/usbd_sdr.c ****         case USB_PRODUCT_STRING:
 244              		.loc 1 92 11 is_stmt 1 view .LVU71
ARM GAS  C:\Users\10963\AppData\Local\Temp\ccbSz4Fj.s 			page 10


 245 008a D3E7     		b	.L14
 246              	.LVL28:
 247              	.L18:
  94:middlewares/usbd_drivers/src/usbd_sdr.c ****           break;
 248              		.loc 1 94 11 view .LVU72
  94:middlewares/usbd_drivers/src/usbd_sdr.c ****           break;
 249              		.loc 1 94 22 is_stmt 0 view .LVU73
 250 008c 8368     		ldr	r3, [r0, #8]
 251              	.LVL29:
  94:middlewares/usbd_drivers/src/usbd_sdr.c ****           break;
 252              		.loc 1 94 36 view .LVU74
 253 008e 9B69     		ldr	r3, [r3, #24]
  94:middlewares/usbd_drivers/src/usbd_sdr.c ****           break;
 254              		.loc 1 94 18 view .LVU75
 255 0090 9847     		blx	r3
 256              	.LVL30:
  95:middlewares/usbd_drivers/src/usbd_sdr.c ****         case USB_SERIAL_STRING:
 257              		.loc 1 95 11 is_stmt 1 view .LVU76
 258 0092 CFE7     		b	.L14
 259              	.LVL31:
 260              	.L15:
  97:middlewares/usbd_drivers/src/usbd_sdr.c ****           break;
 261              		.loc 1 97 11 view .LVU77
  97:middlewares/usbd_drivers/src/usbd_sdr.c ****           break;
 262              		.loc 1 97 22 is_stmt 0 view .LVU78
 263 0094 8368     		ldr	r3, [r0, #8]
 264              	.LVL32:
  97:middlewares/usbd_drivers/src/usbd_sdr.c ****           break;
 265              		.loc 1 97 36 view .LVU79
 266 0096 DB69     		ldr	r3, [r3, #28]
  97:middlewares/usbd_drivers/src/usbd_sdr.c ****           break;
 267              		.loc 1 97 18 view .LVU80
 268 0098 9847     		blx	r3
 269              	.LVL33:
  98:middlewares/usbd_drivers/src/usbd_sdr.c ****         case USB_CONFIG_STRING:
 270              		.loc 1 98 11 is_stmt 1 view .LVU81
 271 009a CBE7     		b	.L14
 272              	.LVL34:
 273              	.L21:
 103:middlewares/usbd_drivers/src/usbd_sdr.c ****           break;
 274              		.loc 1 103 11 view .LVU82
 103:middlewares/usbd_drivers/src/usbd_sdr.c ****           break;
 275              		.loc 1 103 22 is_stmt 0 view .LVU83
 276 009c 8368     		ldr	r3, [r0, #8]
 277              	.LVL35:
 103:middlewares/usbd_drivers/src/usbd_sdr.c ****           break;
 278              		.loc 1 103 36 view .LVU84
 279 009e 1B6A     		ldr	r3, [r3, #32]
 103:middlewares/usbd_drivers/src/usbd_sdr.c ****           break;
 280              		.loc 1 103 18 view .LVU85
 281 00a0 9847     		blx	r3
 282              	.LVL36:
 104:middlewares/usbd_drivers/src/usbd_sdr.c ****         case USB_WINUSB_OS_STRING:
 283              		.loc 1 104 11 is_stmt 1 view .LVU86
 284 00a2 C7E7     		b	.L14
 285              	.LVL37:
 286              	.L22:
ARM GAS  C:\Users\10963\AppData\Local\Temp\ccbSz4Fj.s 			page 11


 116:middlewares/usbd_drivers/src/usbd_sdr.c **** #endif
 287              		.loc 1 116 11 view .LVU87
 288 00a4 FFF7FEFF 		bl	usbd_ctrl_unsupport
 289              	.LVL38:
 118:middlewares/usbd_drivers/src/usbd_sdr.c ****         default:
 290              		.loc 1 118 11 view .LVU88
 118:middlewares/usbd_drivers/src/usbd_sdr.c ****         default:
 291              		.loc 1 118 11 is_stmt 0 view .LVU89
 292              	.LBE2:
 136:middlewares/usbd_drivers/src/usbd_sdr.c ****   {
 293              		.loc 1 136 3 is_stmt 1 view .LVU90
 294 00a8 08E0     		b	.L24
 295              	.LVL39:
 296              	.L20:
 297              	.LBB3:
 120:middlewares/usbd_drivers/src/usbd_sdr.c ****           return ret;
 298              		.loc 1 120 11 view .LVU91
 120:middlewares/usbd_drivers/src/usbd_sdr.c ****           return ret;
 299              		.loc 1 120 15 is_stmt 0 view .LVU92
 300 00aa 6368     		ldr	r3, [r4, #4]
 301              	.LVL40:
 120:middlewares/usbd_drivers/src/usbd_sdr.c ****           return ret;
 302              		.loc 1 120 30 view .LVU93
 303 00ac 9B68     		ldr	r3, [r3, #8]
 120:middlewares/usbd_drivers/src/usbd_sdr.c ****           return ret;
 304              		.loc 1 120 11 view .LVU94
 305 00ae 04F50371 		add	r1, r4, #524
 306 00b2 2046     		mov	r0, r4
 307              	.LVL41:
 120:middlewares/usbd_drivers/src/usbd_sdr.c ****           return ret;
 308              		.loc 1 120 11 view .LVU95
 309 00b4 9847     		blx	r3
 310              	.LVL42:
 121:middlewares/usbd_drivers/src/usbd_sdr.c ****       }
 311              		.loc 1 121 11 is_stmt 1 view .LVU96
 121:middlewares/usbd_drivers/src/usbd_sdr.c ****       }
 312              		.loc 1 121 18 is_stmt 0 view .LVU97
 313 00b6 01E0     		b	.L24
 314              	.LVL43:
 315              	.L12:
 121:middlewares/usbd_drivers/src/usbd_sdr.c ****       }
 316              		.loc 1 121 18 view .LVU98
 317              	.LBE3:
 126:middlewares/usbd_drivers/src/usbd_sdr.c ****       break;
 318              		.loc 1 126 7 is_stmt 1 view .LVU99
 319 00b8 FFF7FEFF 		bl	usbd_ctrl_unsupport
 320              	.LVL44:
 127:middlewares/usbd_drivers/src/usbd_sdr.c ****     case USB_DESCIPTOR_TYPE_OTHER_SPEED:
 321              		.loc 1 127 7 view .LVU100
 136:middlewares/usbd_drivers/src/usbd_sdr.c ****   {
 322              		.loc 1 136 3 view .LVU101
 323              	.L24:
 145:middlewares/usbd_drivers/src/usbd_sdr.c **** 
 324              		.loc 1 145 1 is_stmt 0 view .LVU102
 325 00bc 0020     		movs	r0, #0
 326 00be 10BD     		pop	{r4, pc}
 327              	.LVL45:
ARM GAS  C:\Users\10963\AppData\Local\Temp\ccbSz4Fj.s 			page 12


 328              	.L11:
 132:middlewares/usbd_drivers/src/usbd_sdr.c ****       return ret;
 329              		.loc 1 132 7 is_stmt 1 view .LVU103
 330 00c0 2046     		mov	r0, r4
 331              	.LVL46:
 132:middlewares/usbd_drivers/src/usbd_sdr.c ****       return ret;
 332              		.loc 1 132 7 is_stmt 0 view .LVU104
 333 00c2 FFF7FEFF 		bl	usbd_ctrl_unsupport
 334              	.LVL47:
 133:middlewares/usbd_drivers/src/usbd_sdr.c ****   }
 335              		.loc 1 133 7 is_stmt 1 view .LVU105
 133:middlewares/usbd_drivers/src/usbd_sdr.c ****   }
 336              		.loc 1 133 14 is_stmt 0 view .LVU106
 337 00c6 F9E7     		b	.L24
 338              		.cfi_endproc
 339              	.LFE138:
 341              		.section	.text.usbd_get_configuration,"ax",%progbits
 342              		.align	1
 343              		.syntax unified
 344              		.thumb
 345              		.thumb_func
 347              	usbd_get_configuration:
 348              	.LVL48:
 349              	.LFB143:
 217:middlewares/usbd_drivers/src/usbd_sdr.c **** 
 218:middlewares/usbd_drivers/src/usbd_sdr.c **** /**
 219:middlewares/usbd_drivers/src/usbd_sdr.c ****   * @brief  clear usb feature request
 220:middlewares/usbd_drivers/src/usbd_sdr.c ****   * @param  udev: to the structure of usbd_core_type
 221:middlewares/usbd_drivers/src/usbd_sdr.c ****   * @retval status of usb_sts_type
 222:middlewares/usbd_drivers/src/usbd_sdr.c ****   */
 223:middlewares/usbd_drivers/src/usbd_sdr.c **** static usb_sts_type usbd_clear_feature(usbd_core_type *udev)
 224:middlewares/usbd_drivers/src/usbd_sdr.c **** {
 225:middlewares/usbd_drivers/src/usbd_sdr.c ****   usb_sts_type ret = USB_OK;
 226:middlewares/usbd_drivers/src/usbd_sdr.c ****   usb_setup_type *setup = &udev->setup;
 227:middlewares/usbd_drivers/src/usbd_sdr.c ****   switch(udev->conn_state)
 228:middlewares/usbd_drivers/src/usbd_sdr.c ****   {
 229:middlewares/usbd_drivers/src/usbd_sdr.c ****     case USB_CONN_STATE_ADDRESSED:
 230:middlewares/usbd_drivers/src/usbd_sdr.c ****     case USB_CONN_STATE_CONFIGURED:
 231:middlewares/usbd_drivers/src/usbd_sdr.c ****       if(setup->wValue == USB_FEATURE_REMOTE_WAKEUP)
 232:middlewares/usbd_drivers/src/usbd_sdr.c ****       {
 233:middlewares/usbd_drivers/src/usbd_sdr.c ****         udev->remote_wakup = 0;
 234:middlewares/usbd_drivers/src/usbd_sdr.c ****         udev->config_status &= ~USB_CONF_REMOTE_WAKEUP;
 235:middlewares/usbd_drivers/src/usbd_sdr.c ****         udev->class_handler->setup_handler(udev, &udev->setup);
 236:middlewares/usbd_drivers/src/usbd_sdr.c ****         usbd_ctrl_send_status(udev);
 237:middlewares/usbd_drivers/src/usbd_sdr.c ****       }
 238:middlewares/usbd_drivers/src/usbd_sdr.c ****       break;
 239:middlewares/usbd_drivers/src/usbd_sdr.c ****     default:
 240:middlewares/usbd_drivers/src/usbd_sdr.c ****       usbd_ctrl_unsupport(udev);
 241:middlewares/usbd_drivers/src/usbd_sdr.c ****       break;
 242:middlewares/usbd_drivers/src/usbd_sdr.c ****   }
 243:middlewares/usbd_drivers/src/usbd_sdr.c ****   return ret;
 244:middlewares/usbd_drivers/src/usbd_sdr.c **** }
 245:middlewares/usbd_drivers/src/usbd_sdr.c **** 
 246:middlewares/usbd_drivers/src/usbd_sdr.c **** /**
 247:middlewares/usbd_drivers/src/usbd_sdr.c ****   * @brief  set usb feature request
 248:middlewares/usbd_drivers/src/usbd_sdr.c ****   * @param  udev: to the structure of usbd_core_type
 249:middlewares/usbd_drivers/src/usbd_sdr.c ****   * @retval status of usb_sts_type
ARM GAS  C:\Users\10963\AppData\Local\Temp\ccbSz4Fj.s 			page 13


 250:middlewares/usbd_drivers/src/usbd_sdr.c ****   */
 251:middlewares/usbd_drivers/src/usbd_sdr.c **** static usb_sts_type usbd_set_feature(usbd_core_type *udev)
 252:middlewares/usbd_drivers/src/usbd_sdr.c **** {
 253:middlewares/usbd_drivers/src/usbd_sdr.c ****   usb_sts_type ret = USB_OK;
 254:middlewares/usbd_drivers/src/usbd_sdr.c ****   usb_setup_type *setup = &udev->setup;
 255:middlewares/usbd_drivers/src/usbd_sdr.c ****   if(setup->wValue == USB_FEATURE_REMOTE_WAKEUP)
 256:middlewares/usbd_drivers/src/usbd_sdr.c ****   {
 257:middlewares/usbd_drivers/src/usbd_sdr.c ****     udev->remote_wakup = 1;
 258:middlewares/usbd_drivers/src/usbd_sdr.c ****     udev->class_handler->setup_handler(udev, &udev->setup);
 259:middlewares/usbd_drivers/src/usbd_sdr.c ****     usbd_ctrl_send_status(udev);
 260:middlewares/usbd_drivers/src/usbd_sdr.c ****   }
 261:middlewares/usbd_drivers/src/usbd_sdr.c ****   else
 262:middlewares/usbd_drivers/src/usbd_sdr.c ****   {
 263:middlewares/usbd_drivers/src/usbd_sdr.c ****     usbd_ctrl_unsupport(udev);
 264:middlewares/usbd_drivers/src/usbd_sdr.c ****   }
 265:middlewares/usbd_drivers/src/usbd_sdr.c ****   return ret;
 266:middlewares/usbd_drivers/src/usbd_sdr.c **** }
 267:middlewares/usbd_drivers/src/usbd_sdr.c **** 
 268:middlewares/usbd_drivers/src/usbd_sdr.c **** /**
 269:middlewares/usbd_drivers/src/usbd_sdr.c ****   * @brief  get usb configuration request
 270:middlewares/usbd_drivers/src/usbd_sdr.c ****   * @param  udev: to the structure of usbd_core_type
 271:middlewares/usbd_drivers/src/usbd_sdr.c ****   * @retval status of usb_sts_type
 272:middlewares/usbd_drivers/src/usbd_sdr.c ****   */
 273:middlewares/usbd_drivers/src/usbd_sdr.c **** static usb_sts_type usbd_get_configuration(usbd_core_type *udev)
 274:middlewares/usbd_drivers/src/usbd_sdr.c **** {
 350              		.loc 1 274 1 is_stmt 1 view -0
 351              		.cfi_startproc
 352              		@ args = 0, pretend = 0, frame = 0
 353              		@ frame_needed = 0, uses_anonymous_args = 0
 354              		.loc 1 274 1 is_stmt 0 view .LVU108
 355 0000 08B5     		push	{r3, lr}
 356              	.LCFI2:
 357              		.cfi_def_cfa_offset 8
 358              		.cfi_offset 3, -8
 359              		.cfi_offset 14, -4
 275:middlewares/usbd_drivers/src/usbd_sdr.c ****   usb_sts_type ret = USB_OK;
 360              		.loc 1 275 3 is_stmt 1 view .LVU109
 361              	.LVL49:
 276:middlewares/usbd_drivers/src/usbd_sdr.c ****   usb_setup_type *setup = &udev->setup;
 362              		.loc 1 276 3 view .LVU110
 277:middlewares/usbd_drivers/src/usbd_sdr.c ****   if(setup->wLength != 1)
 363              		.loc 1 277 3 view .LVU111
 364              		.loc 1 277 11 is_stmt 0 view .LVU112
 365 0002 B0F81232 		ldrh	r3, [r0, #530]
 366              		.loc 1 277 5 view .LVU113
 367 0006 012B     		cmp	r3, #1
 368 0008 08D1     		bne	.L35
 278:middlewares/usbd_drivers/src/usbd_sdr.c ****   {
 279:middlewares/usbd_drivers/src/usbd_sdr.c ****     usbd_ctrl_unsupport(udev);
 280:middlewares/usbd_drivers/src/usbd_sdr.c ****   }
 281:middlewares/usbd_drivers/src/usbd_sdr.c ****   else
 282:middlewares/usbd_drivers/src/usbd_sdr.c ****   {
 283:middlewares/usbd_drivers/src/usbd_sdr.c ****     switch(udev->conn_state)
 369              		.loc 1 283 5 is_stmt 1 view .LVU114
 370              		.loc 1 283 16 is_stmt 0 view .LVU115
 371 000a 90F82432 		ldrb	r3, [r0, #548]	@ zero_extendqisi2
 372              		.loc 1 283 5 view .LVU116
ARM GAS  C:\Users\10963\AppData\Local\Temp\ccbSz4Fj.s 			page 14


 373 000e 022B     		cmp	r3, #2
 374 0010 08D0     		beq	.L30
 375 0012 032B     		cmp	r3, #3
 376 0014 0FD0     		beq	.L31
 284:middlewares/usbd_drivers/src/usbd_sdr.c ****     {
 285:middlewares/usbd_drivers/src/usbd_sdr.c ****       case USB_CONN_STATE_ADDRESSED:
 286:middlewares/usbd_drivers/src/usbd_sdr.c ****         udev->default_config = 0;
 287:middlewares/usbd_drivers/src/usbd_sdr.c ****         usbd_ctrl_send(udev, (uint8_t *)(&udev->default_config), 1);
 288:middlewares/usbd_drivers/src/usbd_sdr.c ****         break;
 289:middlewares/usbd_drivers/src/usbd_sdr.c ****       case USB_CONN_STATE_CONFIGURED:
 290:middlewares/usbd_drivers/src/usbd_sdr.c ****         usbd_ctrl_send(udev, (uint8_t *)(&udev->dev_config), 1);
 291:middlewares/usbd_drivers/src/usbd_sdr.c ****         break;
 292:middlewares/usbd_drivers/src/usbd_sdr.c ****       default:
 293:middlewares/usbd_drivers/src/usbd_sdr.c ****         usbd_ctrl_unsupport(udev);
 377              		.loc 1 293 9 is_stmt 1 view .LVU117
 378 0016 FFF7FEFF 		bl	usbd_ctrl_unsupport
 379              	.LVL50:
 294:middlewares/usbd_drivers/src/usbd_sdr.c ****         break;
 380              		.loc 1 294 9 view .LVU118
 381 001a 01E0     		b	.L29
 382              	.LVL51:
 383              	.L35:
 279:middlewares/usbd_drivers/src/usbd_sdr.c ****   }
 384              		.loc 1 279 5 view .LVU119
 385 001c FFF7FEFF 		bl	usbd_ctrl_unsupport
 386              	.LVL52:
 387              	.L29:
 295:middlewares/usbd_drivers/src/usbd_sdr.c ****     }
 296:middlewares/usbd_drivers/src/usbd_sdr.c ****   }
 297:middlewares/usbd_drivers/src/usbd_sdr.c ****   return ret;
 388              		.loc 1 297 3 view .LVU120
 298:middlewares/usbd_drivers/src/usbd_sdr.c **** }
 389              		.loc 1 298 1 is_stmt 0 view .LVU121
 390 0020 0020     		movs	r0, #0
 391 0022 08BD     		pop	{r3, pc}
 392              	.LVL53:
 393              	.L30:
 286:middlewares/usbd_drivers/src/usbd_sdr.c ****         usbd_ctrl_send(udev, (uint8_t *)(&udev->default_config), 1);
 394              		.loc 1 286 9 is_stmt 1 view .LVU122
 286:middlewares/usbd_drivers/src/usbd_sdr.c ****         usbd_ctrl_send(udev, (uint8_t *)(&udev->default_config), 1);
 395              		.loc 1 286 30 is_stmt 0 view .LVU123
 396 0024 0023     		movs	r3, #0
 397 0026 80F82832 		strb	r3, [r0, #552]
 287:middlewares/usbd_drivers/src/usbd_sdr.c ****         break;
 398              		.loc 1 287 9 is_stmt 1 view .LVU124
 399 002a 0122     		movs	r2, #1
 400 002c 00F50A71 		add	r1, r0, #552
 401 0030 FFF7FEFF 		bl	usbd_ctrl_send
 402              	.LVL54:
 288:middlewares/usbd_drivers/src/usbd_sdr.c ****       case USB_CONN_STATE_CONFIGURED:
 403              		.loc 1 288 9 view .LVU125
 404 0034 F4E7     		b	.L29
 405              	.LVL55:
 406              	.L31:
 290:middlewares/usbd_drivers/src/usbd_sdr.c ****         break;
 407              		.loc 1 290 9 view .LVU126
 408 0036 0122     		movs	r2, #1
ARM GAS  C:\Users\10963\AppData\Local\Temp\ccbSz4Fj.s 			page 15


 409 0038 00F22921 		addw	r1, r0, #553
 410 003c FFF7FEFF 		bl	usbd_ctrl_send
 411              	.LVL56:
 291:middlewares/usbd_drivers/src/usbd_sdr.c ****       default:
 412              		.loc 1 291 9 view .LVU127
 413 0040 EEE7     		b	.L29
 414              		.cfi_endproc
 415              	.LFE143:
 417              		.section	.text.usbd_clear_feature,"ax",%progbits
 418              		.align	1
 419              		.syntax unified
 420              		.thumb
 421              		.thumb_func
 423              	usbd_clear_feature:
 424              	.LVL57:
 425              	.LFB141:
 224:middlewares/usbd_drivers/src/usbd_sdr.c ****   usb_sts_type ret = USB_OK;
 426              		.loc 1 224 1 view -0
 427              		.cfi_startproc
 428              		@ args = 0, pretend = 0, frame = 0
 429              		@ frame_needed = 0, uses_anonymous_args = 0
 224:middlewares/usbd_drivers/src/usbd_sdr.c ****   usb_sts_type ret = USB_OK;
 430              		.loc 1 224 1 is_stmt 0 view .LVU129
 431 0000 10B5     		push	{r4, lr}
 432              	.LCFI3:
 433              		.cfi_def_cfa_offset 8
 434              		.cfi_offset 4, -8
 435              		.cfi_offset 14, -4
 436 0002 0446     		mov	r4, r0
 225:middlewares/usbd_drivers/src/usbd_sdr.c ****   usb_setup_type *setup = &udev->setup;
 437              		.loc 1 225 3 is_stmt 1 view .LVU130
 438              	.LVL58:
 226:middlewares/usbd_drivers/src/usbd_sdr.c ****   switch(udev->conn_state)
 439              		.loc 1 226 3 view .LVU131
 227:middlewares/usbd_drivers/src/usbd_sdr.c ****   {
 440              		.loc 1 227 3 view .LVU132
 227:middlewares/usbd_drivers/src/usbd_sdr.c ****   {
 441              		.loc 1 227 14 is_stmt 0 view .LVU133
 442 0004 90F82432 		ldrb	r3, [r0, #548]	@ zero_extendqisi2
 227:middlewares/usbd_drivers/src/usbd_sdr.c ****   {
 443              		.loc 1 227 3 view .LVU134
 444 0008 023B     		subs	r3, r3, #2
 445 000a 012B     		cmp	r3, #1
 446 000c 15D8     		bhi	.L37
 231:middlewares/usbd_drivers/src/usbd_sdr.c ****       {
 447              		.loc 1 231 7 is_stmt 1 view .LVU135
 231:middlewares/usbd_drivers/src/usbd_sdr.c ****       {
 448              		.loc 1 231 15 is_stmt 0 view .LVU136
 449 000e B0F80E32 		ldrh	r3, [r0, #526]
 231:middlewares/usbd_drivers/src/usbd_sdr.c ****       {
 450              		.loc 1 231 9 view .LVU137
 451 0012 012B     		cmp	r3, #1
 452 0014 13D1     		bne	.L38
 233:middlewares/usbd_drivers/src/usbd_sdr.c ****         udev->config_status &= ~USB_CONF_REMOTE_WAKEUP;
 453              		.loc 1 233 9 is_stmt 1 view .LVU138
 233:middlewares/usbd_drivers/src/usbd_sdr.c ****         udev->config_status &= ~USB_CONF_REMOTE_WAKEUP;
 454              		.loc 1 233 28 is_stmt 0 view .LVU139
ARM GAS  C:\Users\10963\AppData\Local\Temp\ccbSz4Fj.s 			page 16


 455 0016 0023     		movs	r3, #0
 456 0018 80F82732 		strb	r3, [r0, #551]
 234:middlewares/usbd_drivers/src/usbd_sdr.c ****         udev->class_handler->setup_handler(udev, &udev->setup);
 457              		.loc 1 234 9 is_stmt 1 view .LVU140
 234:middlewares/usbd_drivers/src/usbd_sdr.c ****         udev->class_handler->setup_handler(udev, &udev->setup);
 458              		.loc 1 234 13 is_stmt 0 view .LVU141
 459 001c B0F82A32 		ldrh	r3, [r0, #554]
 234:middlewares/usbd_drivers/src/usbd_sdr.c ****         udev->class_handler->setup_handler(udev, &udev->setup);
 460              		.loc 1 234 29 view .LVU142
 461 0020 23F00203 		bic	r3, r3, #2
 462 0024 A0F82A32 		strh	r3, [r0, #554]	@ movhi
 235:middlewares/usbd_drivers/src/usbd_sdr.c ****         usbd_ctrl_send_status(udev);
 463              		.loc 1 235 9 is_stmt 1 view .LVU143
 235:middlewares/usbd_drivers/src/usbd_sdr.c ****         usbd_ctrl_send_status(udev);
 464              		.loc 1 235 13 is_stmt 0 view .LVU144
 465 0028 4368     		ldr	r3, [r0, #4]
 235:middlewares/usbd_drivers/src/usbd_sdr.c ****         usbd_ctrl_send_status(udev);
 466              		.loc 1 235 28 view .LVU145
 467 002a 9B68     		ldr	r3, [r3, #8]
 235:middlewares/usbd_drivers/src/usbd_sdr.c ****         usbd_ctrl_send_status(udev);
 468              		.loc 1 235 9 view .LVU146
 469 002c 00F50371 		add	r1, r0, #524
 470              	.LVL59:
 235:middlewares/usbd_drivers/src/usbd_sdr.c ****         usbd_ctrl_send_status(udev);
 471              		.loc 1 235 9 view .LVU147
 472 0030 9847     		blx	r3
 473              	.LVL60:
 236:middlewares/usbd_drivers/src/usbd_sdr.c ****       }
 474              		.loc 1 236 9 is_stmt 1 view .LVU148
 475 0032 2046     		mov	r0, r4
 476 0034 FFF7FEFF 		bl	usbd_ctrl_send_status
 477              	.LVL61:
 478 0038 01E0     		b	.L38
 479              	.LVL62:
 480              	.L37:
 240:middlewares/usbd_drivers/src/usbd_sdr.c ****       break;
 481              		.loc 1 240 7 view .LVU149
 482 003a FFF7FEFF 		bl	usbd_ctrl_unsupport
 483              	.LVL63:
 241:middlewares/usbd_drivers/src/usbd_sdr.c ****   }
 484              		.loc 1 241 7 view .LVU150
 485              	.L38:
 243:middlewares/usbd_drivers/src/usbd_sdr.c **** }
 486              		.loc 1 243 3 view .LVU151
 244:middlewares/usbd_drivers/src/usbd_sdr.c **** 
 487              		.loc 1 244 1 is_stmt 0 view .LVU152
 488 003e 0020     		movs	r0, #0
 489 0040 10BD     		pop	{r4, pc}
 244:middlewares/usbd_drivers/src/usbd_sdr.c **** 
 490              		.loc 1 244 1 view .LVU153
 491              		.cfi_endproc
 492              	.LFE141:
 494              		.section	.text.usbd_set_feature,"ax",%progbits
 495              		.align	1
 496              		.syntax unified
 497              		.thumb
 498              		.thumb_func
ARM GAS  C:\Users\10963\AppData\Local\Temp\ccbSz4Fj.s 			page 17


 500              	usbd_set_feature:
 501              	.LVL64:
 502              	.LFB142:
 252:middlewares/usbd_drivers/src/usbd_sdr.c ****   usb_sts_type ret = USB_OK;
 503              		.loc 1 252 1 is_stmt 1 view -0
 504              		.cfi_startproc
 505              		@ args = 0, pretend = 0, frame = 0
 506              		@ frame_needed = 0, uses_anonymous_args = 0
 252:middlewares/usbd_drivers/src/usbd_sdr.c ****   usb_sts_type ret = USB_OK;
 507              		.loc 1 252 1 is_stmt 0 view .LVU155
 508 0000 10B5     		push	{r4, lr}
 509              	.LCFI4:
 510              		.cfi_def_cfa_offset 8
 511              		.cfi_offset 4, -8
 512              		.cfi_offset 14, -4
 513 0002 0446     		mov	r4, r0
 253:middlewares/usbd_drivers/src/usbd_sdr.c ****   usb_setup_type *setup = &udev->setup;
 514              		.loc 1 253 3 is_stmt 1 view .LVU156
 515              	.LVL65:
 254:middlewares/usbd_drivers/src/usbd_sdr.c ****   if(setup->wValue == USB_FEATURE_REMOTE_WAKEUP)
 516              		.loc 1 254 3 view .LVU157
 255:middlewares/usbd_drivers/src/usbd_sdr.c ****   {
 517              		.loc 1 255 3 view .LVU158
 255:middlewares/usbd_drivers/src/usbd_sdr.c ****   {
 518              		.loc 1 255 11 is_stmt 0 view .LVU159
 519 0004 B0F80E32 		ldrh	r3, [r0, #526]
 255:middlewares/usbd_drivers/src/usbd_sdr.c ****   {
 520              		.loc 1 255 5 view .LVU160
 521 0008 012B     		cmp	r3, #1
 522 000a 0BD1     		bne	.L41
 257:middlewares/usbd_drivers/src/usbd_sdr.c ****     udev->class_handler->setup_handler(udev, &udev->setup);
 523              		.loc 1 257 5 is_stmt 1 view .LVU161
 257:middlewares/usbd_drivers/src/usbd_sdr.c ****     udev->class_handler->setup_handler(udev, &udev->setup);
 524              		.loc 1 257 24 is_stmt 0 view .LVU162
 525 000c 80F82732 		strb	r3, [r0, #551]
 258:middlewares/usbd_drivers/src/usbd_sdr.c ****     usbd_ctrl_send_status(udev);
 526              		.loc 1 258 5 is_stmt 1 view .LVU163
 258:middlewares/usbd_drivers/src/usbd_sdr.c ****     usbd_ctrl_send_status(udev);
 527              		.loc 1 258 9 is_stmt 0 view .LVU164
 528 0010 4368     		ldr	r3, [r0, #4]
 258:middlewares/usbd_drivers/src/usbd_sdr.c ****     usbd_ctrl_send_status(udev);
 529              		.loc 1 258 24 view .LVU165
 530 0012 9B68     		ldr	r3, [r3, #8]
 258:middlewares/usbd_drivers/src/usbd_sdr.c ****     usbd_ctrl_send_status(udev);
 531              		.loc 1 258 5 view .LVU166
 532 0014 00F50371 		add	r1, r0, #524
 533              	.LVL66:
 258:middlewares/usbd_drivers/src/usbd_sdr.c ****     usbd_ctrl_send_status(udev);
 534              		.loc 1 258 5 view .LVU167
 535 0018 9847     		blx	r3
 536              	.LVL67:
 259:middlewares/usbd_drivers/src/usbd_sdr.c ****   }
 537              		.loc 1 259 5 is_stmt 1 view .LVU168
 538 001a 2046     		mov	r0, r4
 539 001c FFF7FEFF 		bl	usbd_ctrl_send_status
 540              	.LVL68:
 541              	.L42:
ARM GAS  C:\Users\10963\AppData\Local\Temp\ccbSz4Fj.s 			page 18


 265:middlewares/usbd_drivers/src/usbd_sdr.c **** }
 542              		.loc 1 265 3 view .LVU169
 266:middlewares/usbd_drivers/src/usbd_sdr.c **** 
 543              		.loc 1 266 1 is_stmt 0 view .LVU170
 544 0020 0020     		movs	r0, #0
 545 0022 10BD     		pop	{r4, pc}
 546              	.LVL69:
 547              	.L41:
 263:middlewares/usbd_drivers/src/usbd_sdr.c ****   }
 548              		.loc 1 263 5 is_stmt 1 view .LVU171
 549 0024 FFF7FEFF 		bl	usbd_ctrl_unsupport
 550              	.LVL70:
 263:middlewares/usbd_drivers/src/usbd_sdr.c ****   }
 551              		.loc 1 263 5 is_stmt 0 view .LVU172
 552 0028 FAE7     		b	.L42
 553              		.cfi_endproc
 554              	.LFE142:
 556              		.section	.text.usbd_set_address,"ax",%progbits
 557              		.align	1
 558              		.syntax unified
 559              		.thumb
 560              		.thumb_func
 562              	usbd_set_address:
 563              	.LVL71:
 564              	.LFB139:
 153:middlewares/usbd_drivers/src/usbd_sdr.c ****   usb_sts_type ret = USB_OK;
 565              		.loc 1 153 1 is_stmt 1 view -0
 566              		.cfi_startproc
 567              		@ args = 0, pretend = 0, frame = 0
 568              		@ frame_needed = 0, uses_anonymous_args = 0
 153:middlewares/usbd_drivers/src/usbd_sdr.c ****   usb_sts_type ret = USB_OK;
 569              		.loc 1 153 1 is_stmt 0 view .LVU174
 570 0000 08B5     		push	{r3, lr}
 571              	.LCFI5:
 572              		.cfi_def_cfa_offset 8
 573              		.cfi_offset 3, -8
 574              		.cfi_offset 14, -4
 154:middlewares/usbd_drivers/src/usbd_sdr.c ****   usb_setup_type *setup = &udev->setup;
 575              		.loc 1 154 3 is_stmt 1 view .LVU175
 576              	.LVL72:
 155:middlewares/usbd_drivers/src/usbd_sdr.c ****   uint8_t dev_addr;
 577              		.loc 1 155 3 view .LVU176
 156:middlewares/usbd_drivers/src/usbd_sdr.c **** 
 578              		.loc 1 156 3 view .LVU177
 161:middlewares/usbd_drivers/src/usbd_sdr.c ****   {
 579              		.loc 1 161 3 view .LVU178
 161:middlewares/usbd_drivers/src/usbd_sdr.c ****   {
 580              		.loc 1 161 11 is_stmt 0 view .LVU179
 581 0002 B0F81032 		ldrh	r3, [r0, #528]
 161:middlewares/usbd_drivers/src/usbd_sdr.c ****   {
 582              		.loc 1 161 5 view .LVU180
 583 0006 D3B9     		cbnz	r3, .L45
 161:middlewares/usbd_drivers/src/usbd_sdr.c ****   {
 584              		.loc 1 161 33 discriminator 1 view .LVU181
 585 0008 B0F81232 		ldrh	r3, [r0, #530]
 161:middlewares/usbd_drivers/src/usbd_sdr.c ****   {
 586              		.loc 1 161 25 discriminator 1 view .LVU182
ARM GAS  C:\Users\10963\AppData\Local\Temp\ccbSz4Fj.s 			page 19


 587 000c BBB9     		cbnz	r3, .L45
 163:middlewares/usbd_drivers/src/usbd_sdr.c **** 
 588              		.loc 1 163 5 is_stmt 1 view .LVU183
 163:middlewares/usbd_drivers/src/usbd_sdr.c **** 
 589              		.loc 1 163 41 is_stmt 0 view .LVU184
 590 000e 90F80E32 		ldrb	r3, [r0, #526]	@ zero_extendqisi2
 163:middlewares/usbd_drivers/src/usbd_sdr.c **** 
 591              		.loc 1 163 14 view .LVU185
 592 0012 03F07F03 		and	r3, r3, #127
 593              	.LVL73:
 167:middlewares/usbd_drivers/src/usbd_sdr.c ****     {
 594              		.loc 1 167 5 is_stmt 1 view .LVU186
 167:middlewares/usbd_drivers/src/usbd_sdr.c ****     {
 595              		.loc 1 167 12 is_stmt 0 view .LVU187
 596 0016 90F82422 		ldrb	r2, [r0, #548]	@ zero_extendqisi2
 167:middlewares/usbd_drivers/src/usbd_sdr.c ****     {
 597              		.loc 1 167 7 view .LVU188
 598 001a 032A     		cmp	r2, #3
 599 001c 08D0     		beq	.L51
 173:middlewares/usbd_drivers/src/usbd_sdr.c **** 
 600              		.loc 1 173 7 is_stmt 1 view .LVU189
 173:middlewares/usbd_drivers/src/usbd_sdr.c **** 
 601              		.loc 1 173 25 is_stmt 0 view .LVU190
 602 001e 80F82632 		strb	r3, [r0, #550]
 175:middlewares/usbd_drivers/src/usbd_sdr.c ****       {
 603              		.loc 1 175 7 is_stmt 1 view .LVU191
 175:middlewares/usbd_drivers/src/usbd_sdr.c ****       {
 604              		.loc 1 175 9 is_stmt 0 view .LVU192
 605 0022 43B1     		cbz	r3, .L48
 177:middlewares/usbd_drivers/src/usbd_sdr.c ****       }
 606              		.loc 1 177 9 is_stmt 1 view .LVU193
 177:middlewares/usbd_drivers/src/usbd_sdr.c ****       }
 607              		.loc 1 177 26 is_stmt 0 view .LVU194
 608 0024 0223     		movs	r3, #2
 609              	.LVL74:
 177:middlewares/usbd_drivers/src/usbd_sdr.c ****       }
 610              		.loc 1 177 26 view .LVU195
 611 0026 80F82432 		strb	r3, [r0, #548]
 612              	.L49:
 183:middlewares/usbd_drivers/src/usbd_sdr.c ****     }
 613              		.loc 1 183 7 is_stmt 1 view .LVU196
 614 002a FFF7FEFF 		bl	usbd_ctrl_send_status
 615              	.LVL75:
 183:middlewares/usbd_drivers/src/usbd_sdr.c ****     }
 616              		.loc 1 183 7 is_stmt 0 view .LVU197
 617 002e 08E0     		b	.L47
 618              	.LVL76:
 619              	.L51:
 169:middlewares/usbd_drivers/src/usbd_sdr.c ****     }
 620              		.loc 1 169 7 is_stmt 1 view .LVU198
 621 0030 FFF7FEFF 		bl	usbd_ctrl_unsupport
 622              	.LVL77:
 169:middlewares/usbd_drivers/src/usbd_sdr.c ****     }
 623              		.loc 1 169 7 is_stmt 0 view .LVU199
 624 0034 05E0     		b	.L47
 625              	.LVL78:
 626              	.L48:
ARM GAS  C:\Users\10963\AppData\Local\Temp\ccbSz4Fj.s 			page 20


 181:middlewares/usbd_drivers/src/usbd_sdr.c ****       }
 627              		.loc 1 181 9 is_stmt 1 view .LVU200
 181:middlewares/usbd_drivers/src/usbd_sdr.c ****       }
 628              		.loc 1 181 26 is_stmt 0 view .LVU201
 629 0036 0123     		movs	r3, #1
 630              	.LVL79:
 181:middlewares/usbd_drivers/src/usbd_sdr.c ****       }
 631              		.loc 1 181 26 view .LVU202
 632 0038 80F82432 		strb	r3, [r0, #548]
 633 003c F5E7     		b	.L49
 634              	.LVL80:
 635              	.L45:
 188:middlewares/usbd_drivers/src/usbd_sdr.c ****   }
 636              		.loc 1 188 5 is_stmt 1 view .LVU203
 637 003e FFF7FEFF 		bl	usbd_ctrl_unsupport
 638              	.LVL81:
 639              	.L47:
 190:middlewares/usbd_drivers/src/usbd_sdr.c **** }
 640              		.loc 1 190 3 view .LVU204
 191:middlewares/usbd_drivers/src/usbd_sdr.c **** 
 641              		.loc 1 191 1 is_stmt 0 view .LVU205
 642 0042 0020     		movs	r0, #0
 643 0044 08BD     		pop	{r3, pc}
 644              		.cfi_endproc
 645              	.LFE139:
 647              		.section	.text.usbd_set_configuration,"ax",%progbits
 648              		.align	1
 649              		.syntax unified
 650              		.thumb
 651              		.thumb_func
 653              	usbd_set_configuration:
 654              	.LVL82:
 655              	.LFB144:
 299:middlewares/usbd_drivers/src/usbd_sdr.c **** 
 300:middlewares/usbd_drivers/src/usbd_sdr.c **** /**
 301:middlewares/usbd_drivers/src/usbd_sdr.c ****   * @brief  sets the usb device configuration request
 302:middlewares/usbd_drivers/src/usbd_sdr.c ****   * @param  udev: to the structure of usbd_core_type
 303:middlewares/usbd_drivers/src/usbd_sdr.c ****   * @retval status of usb_sts_type
 304:middlewares/usbd_drivers/src/usbd_sdr.c ****   */
 305:middlewares/usbd_drivers/src/usbd_sdr.c **** static usb_sts_type usbd_set_configuration(usbd_core_type *udev)
 306:middlewares/usbd_drivers/src/usbd_sdr.c **** {
 656              		.loc 1 306 1 is_stmt 1 view -0
 657              		.cfi_startproc
 658              		@ args = 0, pretend = 0, frame = 0
 659              		@ frame_needed = 0, uses_anonymous_args = 0
 660              		.loc 1 306 1 is_stmt 0 view .LVU207
 661 0000 10B5     		push	{r4, lr}
 662              	.LCFI6:
 663              		.cfi_def_cfa_offset 8
 664              		.cfi_offset 4, -8
 665              		.cfi_offset 14, -4
 666 0002 0446     		mov	r4, r0
 307:middlewares/usbd_drivers/src/usbd_sdr.c ****   usb_sts_type ret = USB_OK;
 667              		.loc 1 307 3 is_stmt 1 view .LVU208
 668              	.LVL83:
 308:middlewares/usbd_drivers/src/usbd_sdr.c ****   static uint8_t config_value;
 669              		.loc 1 308 3 view .LVU209
ARM GAS  C:\Users\10963\AppData\Local\Temp\ccbSz4Fj.s 			page 21


 309:middlewares/usbd_drivers/src/usbd_sdr.c ****   usb_setup_type *setup = &udev->setup;
 670              		.loc 1 309 3 view .LVU210
 310:middlewares/usbd_drivers/src/usbd_sdr.c ****   config_value = (uint8_t)setup->wValue;
 671              		.loc 1 310 3 view .LVU211
 672              		.loc 1 310 18 is_stmt 0 view .LVU212
 673 0004 90F80E32 		ldrb	r3, [r0, #526]	@ zero_extendqisi2
 674              		.loc 1 310 16 view .LVU213
 675 0008 254A     		ldr	r2, .L63
 676 000a 1370     		strb	r3, [r2]
 311:middlewares/usbd_drivers/src/usbd_sdr.c **** 
 312:middlewares/usbd_drivers/src/usbd_sdr.c ****   if(setup->wIndex == 0 && setup->wLength == 0)
 677              		.loc 1 312 3 is_stmt 1 view .LVU214
 678              		.loc 1 312 11 is_stmt 0 view .LVU215
 679 000c B0F81022 		ldrh	r2, [r0, #528]
 680              		.loc 1 312 5 view .LVU216
 681 0010 002A     		cmp	r2, #0
 682 0012 3FD1     		bne	.L53
 683              		.loc 1 312 33 discriminator 1 view .LVU217
 684 0014 B0F81222 		ldrh	r2, [r0, #530]
 685              		.loc 1 312 25 discriminator 1 view .LVU218
 686 0018 002A     		cmp	r2, #0
 687 001a 3BD1     		bne	.L53
 313:middlewares/usbd_drivers/src/usbd_sdr.c ****   {
 314:middlewares/usbd_drivers/src/usbd_sdr.c ****     switch(udev->conn_state)
 688              		.loc 1 314 5 is_stmt 1 view .LVU219
 689              		.loc 1 314 16 is_stmt 0 view .LVU220
 690 001c 90F82422 		ldrb	r2, [r0, #548]	@ zero_extendqisi2
 691              		.loc 1 314 5 view .LVU221
 692 0020 022A     		cmp	r2, #2
 693 0022 04D0     		beq	.L54
 694 0024 032A     		cmp	r2, #3
 695 0026 12D0     		beq	.L55
 315:middlewares/usbd_drivers/src/usbd_sdr.c ****     {
 316:middlewares/usbd_drivers/src/usbd_sdr.c ****       case USB_CONN_STATE_ADDRESSED:
 317:middlewares/usbd_drivers/src/usbd_sdr.c ****         if(config_value)
 318:middlewares/usbd_drivers/src/usbd_sdr.c ****         {
 319:middlewares/usbd_drivers/src/usbd_sdr.c ****           udev->dev_config = config_value;
 320:middlewares/usbd_drivers/src/usbd_sdr.c ****           udev->conn_state = USB_CONN_STATE_CONFIGURED;
 321:middlewares/usbd_drivers/src/usbd_sdr.c ****           udev->class_handler->init_handler(udev);
 322:middlewares/usbd_drivers/src/usbd_sdr.c ****           usbd_ctrl_send_status(udev);
 323:middlewares/usbd_drivers/src/usbd_sdr.c ****         }
 324:middlewares/usbd_drivers/src/usbd_sdr.c ****         else
 325:middlewares/usbd_drivers/src/usbd_sdr.c ****         {
 326:middlewares/usbd_drivers/src/usbd_sdr.c ****           usbd_ctrl_send_status(udev);
 327:middlewares/usbd_drivers/src/usbd_sdr.c ****         }
 328:middlewares/usbd_drivers/src/usbd_sdr.c **** 
 329:middlewares/usbd_drivers/src/usbd_sdr.c ****         break;
 330:middlewares/usbd_drivers/src/usbd_sdr.c ****       case USB_CONN_STATE_CONFIGURED:
 331:middlewares/usbd_drivers/src/usbd_sdr.c ****         if(config_value == 0)
 332:middlewares/usbd_drivers/src/usbd_sdr.c ****         {
 333:middlewares/usbd_drivers/src/usbd_sdr.c ****           udev->conn_state = USB_CONN_STATE_ADDRESSED;
 334:middlewares/usbd_drivers/src/usbd_sdr.c ****           udev->dev_config = config_value;
 335:middlewares/usbd_drivers/src/usbd_sdr.c ****           udev->class_handler->clear_handler(udev);
 336:middlewares/usbd_drivers/src/usbd_sdr.c ****           usbd_ctrl_send_status(udev);
 337:middlewares/usbd_drivers/src/usbd_sdr.c ****         }
 338:middlewares/usbd_drivers/src/usbd_sdr.c ****         else if(config_value != udev->dev_config)
 339:middlewares/usbd_drivers/src/usbd_sdr.c ****         {
ARM GAS  C:\Users\10963\AppData\Local\Temp\ccbSz4Fj.s 			page 22


 340:middlewares/usbd_drivers/src/usbd_sdr.c ****           udev->class_handler->clear_handler(udev);
 341:middlewares/usbd_drivers/src/usbd_sdr.c ****           udev->dev_config = config_value;
 342:middlewares/usbd_drivers/src/usbd_sdr.c ****           udev->class_handler->init_handler(udev);
 343:middlewares/usbd_drivers/src/usbd_sdr.c ****           usbd_ctrl_send_status(udev);
 344:middlewares/usbd_drivers/src/usbd_sdr.c ****         }
 345:middlewares/usbd_drivers/src/usbd_sdr.c ****         else
 346:middlewares/usbd_drivers/src/usbd_sdr.c ****         {
 347:middlewares/usbd_drivers/src/usbd_sdr.c ****           usbd_ctrl_send_status(udev);
 348:middlewares/usbd_drivers/src/usbd_sdr.c ****         }
 349:middlewares/usbd_drivers/src/usbd_sdr.c ****         break;
 350:middlewares/usbd_drivers/src/usbd_sdr.c ****       default:
 351:middlewares/usbd_drivers/src/usbd_sdr.c ****         usbd_ctrl_unsupport(udev);
 696              		.loc 1 351 9 is_stmt 1 view .LVU222
 697 0028 FFF7FEFF 		bl	usbd_ctrl_unsupport
 698              	.LVL84:
 352:middlewares/usbd_drivers/src/usbd_sdr.c ****         break;
 699              		.loc 1 352 9 view .LVU223
 700 002c 35E0     		b	.L58
 701              	.LVL85:
 702              	.L54:
 317:middlewares/usbd_drivers/src/usbd_sdr.c ****         {
 703              		.loc 1 317 9 view .LVU224
 317:middlewares/usbd_drivers/src/usbd_sdr.c ****         {
 704              		.loc 1 317 11 is_stmt 0 view .LVU225
 705 002e 5BB1     		cbz	r3, .L57
 319:middlewares/usbd_drivers/src/usbd_sdr.c ****           udev->conn_state = USB_CONN_STATE_CONFIGURED;
 706              		.loc 1 319 11 is_stmt 1 view .LVU226
 319:middlewares/usbd_drivers/src/usbd_sdr.c ****           udev->conn_state = USB_CONN_STATE_CONFIGURED;
 707              		.loc 1 319 28 is_stmt 0 view .LVU227
 708 0030 80F82932 		strb	r3, [r0, #553]
 320:middlewares/usbd_drivers/src/usbd_sdr.c ****           udev->class_handler->init_handler(udev);
 709              		.loc 1 320 11 is_stmt 1 view .LVU228
 320:middlewares/usbd_drivers/src/usbd_sdr.c ****           udev->class_handler->init_handler(udev);
 710              		.loc 1 320 28 is_stmt 0 view .LVU229
 711 0034 0323     		movs	r3, #3
 712 0036 80F82432 		strb	r3, [r0, #548]
 321:middlewares/usbd_drivers/src/usbd_sdr.c ****           usbd_ctrl_send_status(udev);
 713              		.loc 1 321 11 is_stmt 1 view .LVU230
 321:middlewares/usbd_drivers/src/usbd_sdr.c ****           usbd_ctrl_send_status(udev);
 714              		.loc 1 321 15 is_stmt 0 view .LVU231
 715 003a 4368     		ldr	r3, [r0, #4]
 321:middlewares/usbd_drivers/src/usbd_sdr.c ****           usbd_ctrl_send_status(udev);
 716              		.loc 1 321 30 view .LVU232
 717 003c 1B68     		ldr	r3, [r3]
 321:middlewares/usbd_drivers/src/usbd_sdr.c ****           usbd_ctrl_send_status(udev);
 718              		.loc 1 321 11 view .LVU233
 719 003e 9847     		blx	r3
 720              	.LVL86:
 322:middlewares/usbd_drivers/src/usbd_sdr.c ****         }
 721              		.loc 1 322 11 is_stmt 1 view .LVU234
 722 0040 2046     		mov	r0, r4
 723 0042 FFF7FEFF 		bl	usbd_ctrl_send_status
 724              	.LVL87:
 725 0046 28E0     		b	.L58
 726              	.LVL88:
 727              	.L57:
 326:middlewares/usbd_drivers/src/usbd_sdr.c ****         }
ARM GAS  C:\Users\10963\AppData\Local\Temp\ccbSz4Fj.s 			page 23


 728              		.loc 1 326 11 view .LVU235
 729 0048 FFF7FEFF 		bl	usbd_ctrl_send_status
 730              	.LVL89:
 326:middlewares/usbd_drivers/src/usbd_sdr.c ****         }
 731              		.loc 1 326 11 is_stmt 0 view .LVU236
 732 004c 25E0     		b	.L58
 733              	.LVL90:
 734              	.L55:
 331:middlewares/usbd_drivers/src/usbd_sdr.c ****         {
 735              		.loc 1 331 9 is_stmt 1 view .LVU237
 331:middlewares/usbd_drivers/src/usbd_sdr.c ****         {
 736              		.loc 1 331 11 is_stmt 0 view .LVU238
 737 004e 5BB9     		cbnz	r3, .L59
 333:middlewares/usbd_drivers/src/usbd_sdr.c ****           udev->dev_config = config_value;
 738              		.loc 1 333 11 is_stmt 1 view .LVU239
 333:middlewares/usbd_drivers/src/usbd_sdr.c ****           udev->dev_config = config_value;
 739              		.loc 1 333 28 is_stmt 0 view .LVU240
 740 0050 0222     		movs	r2, #2
 741 0052 80F82422 		strb	r2, [r0, #548]
 334:middlewares/usbd_drivers/src/usbd_sdr.c ****           udev->class_handler->clear_handler(udev);
 742              		.loc 1 334 11 is_stmt 1 view .LVU241
 334:middlewares/usbd_drivers/src/usbd_sdr.c ****           udev->class_handler->clear_handler(udev);
 743              		.loc 1 334 28 is_stmt 0 view .LVU242
 744 0056 80F82932 		strb	r3, [r0, #553]
 335:middlewares/usbd_drivers/src/usbd_sdr.c ****           usbd_ctrl_send_status(udev);
 745              		.loc 1 335 11 is_stmt 1 view .LVU243
 335:middlewares/usbd_drivers/src/usbd_sdr.c ****           usbd_ctrl_send_status(udev);
 746              		.loc 1 335 15 is_stmt 0 view .LVU244
 747 005a 4368     		ldr	r3, [r0, #4]
 335:middlewares/usbd_drivers/src/usbd_sdr.c ****           usbd_ctrl_send_status(udev);
 748              		.loc 1 335 30 view .LVU245
 749 005c 5B68     		ldr	r3, [r3, #4]
 335:middlewares/usbd_drivers/src/usbd_sdr.c ****           usbd_ctrl_send_status(udev);
 750              		.loc 1 335 11 view .LVU246
 751 005e 9847     		blx	r3
 752              	.LVL91:
 336:middlewares/usbd_drivers/src/usbd_sdr.c ****         }
 753              		.loc 1 336 11 is_stmt 1 view .LVU247
 754 0060 2046     		mov	r0, r4
 755 0062 FFF7FEFF 		bl	usbd_ctrl_send_status
 756              	.LVL92:
 757 0066 18E0     		b	.L58
 758              	.LVL93:
 759              	.L59:
 338:middlewares/usbd_drivers/src/usbd_sdr.c ****         {
 760              		.loc 1 338 14 view .LVU248
 338:middlewares/usbd_drivers/src/usbd_sdr.c ****         {
 761              		.loc 1 338 37 is_stmt 0 view .LVU249
 762 0068 90F82922 		ldrb	r2, [r0, #553]	@ zero_extendqisi2
 338:middlewares/usbd_drivers/src/usbd_sdr.c ****         {
 763              		.loc 1 338 16 view .LVU250
 764 006c 9342     		cmp	r3, r2
 765 006e 0ED0     		beq	.L60
 340:middlewares/usbd_drivers/src/usbd_sdr.c ****           udev->dev_config = config_value;
 766              		.loc 1 340 11 is_stmt 1 view .LVU251
 340:middlewares/usbd_drivers/src/usbd_sdr.c ****           udev->dev_config = config_value;
 767              		.loc 1 340 15 is_stmt 0 view .LVU252
ARM GAS  C:\Users\10963\AppData\Local\Temp\ccbSz4Fj.s 			page 24


 768 0070 4368     		ldr	r3, [r0, #4]
 340:middlewares/usbd_drivers/src/usbd_sdr.c ****           udev->dev_config = config_value;
 769              		.loc 1 340 30 view .LVU253
 770 0072 5B68     		ldr	r3, [r3, #4]
 340:middlewares/usbd_drivers/src/usbd_sdr.c ****           udev->dev_config = config_value;
 771              		.loc 1 340 11 view .LVU254
 772 0074 9847     		blx	r3
 773              	.LVL94:
 341:middlewares/usbd_drivers/src/usbd_sdr.c ****           udev->class_handler->init_handler(udev);
 774              		.loc 1 341 11 is_stmt 1 view .LVU255
 341:middlewares/usbd_drivers/src/usbd_sdr.c ****           udev->class_handler->init_handler(udev);
 775              		.loc 1 341 28 is_stmt 0 view .LVU256
 776 0076 0A4B     		ldr	r3, .L63
 777 0078 1B78     		ldrb	r3, [r3]	@ zero_extendqisi2
 778 007a 84F82932 		strb	r3, [r4, #553]
 342:middlewares/usbd_drivers/src/usbd_sdr.c ****           usbd_ctrl_send_status(udev);
 779              		.loc 1 342 11 is_stmt 1 view .LVU257
 342:middlewares/usbd_drivers/src/usbd_sdr.c ****           usbd_ctrl_send_status(udev);
 780              		.loc 1 342 15 is_stmt 0 view .LVU258
 781 007e 6368     		ldr	r3, [r4, #4]
 342:middlewares/usbd_drivers/src/usbd_sdr.c ****           usbd_ctrl_send_status(udev);
 782              		.loc 1 342 30 view .LVU259
 783 0080 1B68     		ldr	r3, [r3]
 342:middlewares/usbd_drivers/src/usbd_sdr.c ****           usbd_ctrl_send_status(udev);
 784              		.loc 1 342 11 view .LVU260
 785 0082 2046     		mov	r0, r4
 786 0084 9847     		blx	r3
 787              	.LVL95:
 343:middlewares/usbd_drivers/src/usbd_sdr.c ****         }
 788              		.loc 1 343 11 is_stmt 1 view .LVU261
 789 0086 2046     		mov	r0, r4
 790 0088 FFF7FEFF 		bl	usbd_ctrl_send_status
 791              	.LVL96:
 792 008c 05E0     		b	.L58
 793              	.LVL97:
 794              	.L60:
 347:middlewares/usbd_drivers/src/usbd_sdr.c ****         }
 795              		.loc 1 347 11 view .LVU262
 796 008e FFF7FEFF 		bl	usbd_ctrl_send_status
 797              	.LVL98:
 347:middlewares/usbd_drivers/src/usbd_sdr.c ****         }
 798              		.loc 1 347 11 is_stmt 0 view .LVU263
 799 0092 02E0     		b	.L58
 800              	.LVL99:
 801              	.L53:
 353:middlewares/usbd_drivers/src/usbd_sdr.c ****     }
 354:middlewares/usbd_drivers/src/usbd_sdr.c ****   }
 355:middlewares/usbd_drivers/src/usbd_sdr.c ****   else
 356:middlewares/usbd_drivers/src/usbd_sdr.c ****   {
 357:middlewares/usbd_drivers/src/usbd_sdr.c ****     usbd_ctrl_unsupport(udev);
 802              		.loc 1 357 5 is_stmt 1 view .LVU264
 803 0094 2046     		mov	r0, r4
 804              	.LVL100:
 805              		.loc 1 357 5 is_stmt 0 view .LVU265
 806 0096 FFF7FEFF 		bl	usbd_ctrl_unsupport
 807              	.LVL101:
 808              	.L58:
ARM GAS  C:\Users\10963\AppData\Local\Temp\ccbSz4Fj.s 			page 25


 358:middlewares/usbd_drivers/src/usbd_sdr.c ****   }
 359:middlewares/usbd_drivers/src/usbd_sdr.c ****   return ret;
 809              		.loc 1 359 3 is_stmt 1 view .LVU266
 360:middlewares/usbd_drivers/src/usbd_sdr.c **** }
 810              		.loc 1 360 1 is_stmt 0 view .LVU267
 811 009a 0020     		movs	r0, #0
 812 009c 10BD     		pop	{r4, pc}
 813              	.LVL102:
 814              	.L64:
 815              		.loc 1 360 1 view .LVU268
 816 009e 00BF     		.align	2
 817              	.L63:
 818 00a0 00000000 		.word	config_value.0
 819              		.cfi_endproc
 820              	.LFE144:
 822              		.section	.text.usbd_setup_request_parse,"ax",%progbits
 823              		.align	1
 824              		.global	usbd_setup_request_parse
 825              		.syntax unified
 826              		.thumb
 827              		.thumb_func
 829              	usbd_setup_request_parse:
 830              	.LVL103:
 831              	.LFB137:
  55:middlewares/usbd_drivers/src/usbd_sdr.c ****   setup->bmRequestType         = *(uint8_t *) buf;
 832              		.loc 1 55 1 is_stmt 1 view -0
 833              		.cfi_startproc
 834              		@ args = 0, pretend = 0, frame = 0
 835              		@ frame_needed = 0, uses_anonymous_args = 0
 836              		@ link register save eliminated.
  56:middlewares/usbd_drivers/src/usbd_sdr.c ****   setup->bRequest              = *(uint8_t *) (buf + 1);
 837              		.loc 1 56 3 view .LVU270
  56:middlewares/usbd_drivers/src/usbd_sdr.c ****   setup->bRequest              = *(uint8_t *) (buf + 1);
 838              		.loc 1 56 34 is_stmt 0 view .LVU271
 839 0000 0B78     		ldrb	r3, [r1]	@ zero_extendqisi2
  56:middlewares/usbd_drivers/src/usbd_sdr.c ****   setup->bRequest              = *(uint8_t *) (buf + 1);
 840              		.loc 1 56 32 view .LVU272
 841 0002 0370     		strb	r3, [r0]
  57:middlewares/usbd_drivers/src/usbd_sdr.c ****   setup->wValue                = SWAPBYTE(buf + 2);
 842              		.loc 1 57 3 is_stmt 1 view .LVU273
  57:middlewares/usbd_drivers/src/usbd_sdr.c ****   setup->wValue                = SWAPBYTE(buf + 2);
 843              		.loc 1 57 32 is_stmt 0 view .LVU274
 844 0004 4B78     		ldrb	r3, [r1, #1]	@ zero_extendqisi2
 845 0006 4370     		strb	r3, [r0, #1]
  58:middlewares/usbd_drivers/src/usbd_sdr.c ****   setup->wIndex                = SWAPBYTE(buf + 4);
 846              		.loc 1 58 3 is_stmt 1 view .LVU275
  58:middlewares/usbd_drivers/src/usbd_sdr.c ****   setup->wIndex                = SWAPBYTE(buf + 4);
 847              		.loc 1 58 34 is_stmt 0 view .LVU276
 848 0008 8B78     		ldrb	r3, [r1, #2]	@ zero_extendqisi2
 849 000a CA78     		ldrb	r2, [r1, #3]	@ zero_extendqisi2
 850 000c 03EB0223 		add	r3, r3, r2, lsl #8
  58:middlewares/usbd_drivers/src/usbd_sdr.c ****   setup->wIndex                = SWAPBYTE(buf + 4);
 851              		.loc 1 58 32 view .LVU277
 852 0010 4380     		strh	r3, [r0, #2]	@ movhi
  59:middlewares/usbd_drivers/src/usbd_sdr.c ****   setup->wLength               = SWAPBYTE(buf + 6);
 853              		.loc 1 59 3 is_stmt 1 view .LVU278
  59:middlewares/usbd_drivers/src/usbd_sdr.c ****   setup->wLength               = SWAPBYTE(buf + 6);
ARM GAS  C:\Users\10963\AppData\Local\Temp\ccbSz4Fj.s 			page 26


 854              		.loc 1 59 34 is_stmt 0 view .LVU279
 855 0012 0B79     		ldrb	r3, [r1, #4]	@ zero_extendqisi2
 856 0014 4A79     		ldrb	r2, [r1, #5]	@ zero_extendqisi2
 857 0016 03EB0223 		add	r3, r3, r2, lsl #8
  59:middlewares/usbd_drivers/src/usbd_sdr.c ****   setup->wLength               = SWAPBYTE(buf + 6);
 858              		.loc 1 59 32 view .LVU280
 859 001a 8380     		strh	r3, [r0, #4]	@ movhi
  60:middlewares/usbd_drivers/src/usbd_sdr.c **** }
 860              		.loc 1 60 3 is_stmt 1 view .LVU281
  60:middlewares/usbd_drivers/src/usbd_sdr.c **** }
 861              		.loc 1 60 34 is_stmt 0 view .LVU282
 862 001c 8B79     		ldrb	r3, [r1, #6]	@ zero_extendqisi2
 863 001e CA79     		ldrb	r2, [r1, #7]	@ zero_extendqisi2
 864 0020 03EB0223 		add	r3, r3, r2, lsl #8
  60:middlewares/usbd_drivers/src/usbd_sdr.c **** }
 865              		.loc 1 60 32 view .LVU283
 866 0024 C380     		strh	r3, [r0, #6]	@ movhi
  61:middlewares/usbd_drivers/src/usbd_sdr.c **** 
 867              		.loc 1 61 1 view .LVU284
 868 0026 7047     		bx	lr
 869              		.cfi_endproc
 870              	.LFE137:
 872              		.section	.text.usbd_device_request,"ax",%progbits
 873              		.align	1
 874              		.global	usbd_device_request
 875              		.syntax unified
 876              		.thumb
 877              		.thumb_func
 879              	usbd_device_request:
 880              	.LVL104:
 881              	.LFB145:
 361:middlewares/usbd_drivers/src/usbd_sdr.c **** 
 362:middlewares/usbd_drivers/src/usbd_sdr.c **** /**
 363:middlewares/usbd_drivers/src/usbd_sdr.c ****   * @brief  standard usb device requests
 364:middlewares/usbd_drivers/src/usbd_sdr.c ****   * @param  udev: to the structure of usbd_core_type
 365:middlewares/usbd_drivers/src/usbd_sdr.c ****   * @retval status of usb_sts_type
 366:middlewares/usbd_drivers/src/usbd_sdr.c ****   */
 367:middlewares/usbd_drivers/src/usbd_sdr.c **** usb_sts_type usbd_device_request(usbd_core_type *udev)
 368:middlewares/usbd_drivers/src/usbd_sdr.c **** {
 882              		.loc 1 368 1 is_stmt 1 view -0
 883              		.cfi_startproc
 884              		@ args = 0, pretend = 0, frame = 0
 885              		@ frame_needed = 0, uses_anonymous_args = 0
 886              		.loc 1 368 1 is_stmt 0 view .LVU286
 887 0000 08B5     		push	{r3, lr}
 888              	.LCFI7:
 889              		.cfi_def_cfa_offset 8
 890              		.cfi_offset 3, -8
 891              		.cfi_offset 14, -4
 369:middlewares/usbd_drivers/src/usbd_sdr.c ****   usb_sts_type ret = USB_OK;
 892              		.loc 1 369 3 is_stmt 1 view .LVU287
 893              	.LVL105:
 370:middlewares/usbd_drivers/src/usbd_sdr.c ****   usb_setup_type *setup = &udev->setup;
 894              		.loc 1 370 3 view .LVU288
 371:middlewares/usbd_drivers/src/usbd_sdr.c ****   if((setup->bmRequestType & USB_REQ_TYPE_RESERVED) != USB_REQ_TYPE_STANDARD)
 895              		.loc 1 371 3 view .LVU289
 896              		.loc 1 371 12 is_stmt 0 view .LVU290
ARM GAS  C:\Users\10963\AppData\Local\Temp\ccbSz4Fj.s 			page 27


 897 0002 90F80C32 		ldrb	r3, [r0, #524]	@ zero_extendqisi2
 898              		.loc 1 371 5 view .LVU291
 899 0006 13F0600F 		tst	r3, #96
 900 000a 0CD1     		bne	.L79
 372:middlewares/usbd_drivers/src/usbd_sdr.c ****   {
 373:middlewares/usbd_drivers/src/usbd_sdr.c ****     udev->class_handler->setup_handler(udev, &udev->setup);
 374:middlewares/usbd_drivers/src/usbd_sdr.c ****     return ret;
 375:middlewares/usbd_drivers/src/usbd_sdr.c ****   }
 376:middlewares/usbd_drivers/src/usbd_sdr.c ****   switch(udev->setup.bRequest)
 901              		.loc 1 376 3 is_stmt 1 view .LVU292
 902              		.loc 1 376 21 is_stmt 0 view .LVU293
 903 000c 90F80D32 		ldrb	r3, [r0, #525]	@ zero_extendqisi2
 904              		.loc 1 376 3 view .LVU294
 905 0010 052B     		cmp	r3, #5
 906 0012 1ED0     		beq	.L69
 907 0014 0ED8     		bhi	.L70
 908 0016 012B     		cmp	r3, #1
 909 0018 15D0     		beq	.L71
 910 001a 032B     		cmp	r3, #3
 911 001c 16D0     		beq	.L72
 912 001e 0BBB     		cbnz	r3, .L74
 377:middlewares/usbd_drivers/src/usbd_sdr.c ****   {
 378:middlewares/usbd_drivers/src/usbd_sdr.c ****     case USB_STD_REQ_GET_STATUS:
 379:middlewares/usbd_drivers/src/usbd_sdr.c ****       usbd_get_status(udev);
 913              		.loc 1 379 7 is_stmt 1 view .LVU295
 914 0020 FFF7FEFF 		bl	usbd_get_status
 915              	.LVL106:
 380:middlewares/usbd_drivers/src/usbd_sdr.c ****       break;
 916              		.loc 1 380 7 view .LVU296
 917 0024 04E0     		b	.L68
 918              	.LVL107:
 919              	.L79:
 373:middlewares/usbd_drivers/src/usbd_sdr.c ****     return ret;
 920              		.loc 1 373 5 view .LVU297
 373:middlewares/usbd_drivers/src/usbd_sdr.c ****     return ret;
 921              		.loc 1 373 9 is_stmt 0 view .LVU298
 922 0026 4368     		ldr	r3, [r0, #4]
 373:middlewares/usbd_drivers/src/usbd_sdr.c ****     return ret;
 923              		.loc 1 373 24 view .LVU299
 924 0028 9B68     		ldr	r3, [r3, #8]
 373:middlewares/usbd_drivers/src/usbd_sdr.c ****     return ret;
 925              		.loc 1 373 5 view .LVU300
 926 002a 00F50371 		add	r1, r0, #524
 927 002e 9847     		blx	r3
 928              	.LVL108:
 374:middlewares/usbd_drivers/src/usbd_sdr.c ****   }
 929              		.loc 1 374 5 is_stmt 1 view .LVU301
 930              	.L68:
 381:middlewares/usbd_drivers/src/usbd_sdr.c ****     case USB_STD_REQ_CLEAR_FEATURE:
 382:middlewares/usbd_drivers/src/usbd_sdr.c ****       usbd_clear_feature(udev);
 383:middlewares/usbd_drivers/src/usbd_sdr.c ****       break;
 384:middlewares/usbd_drivers/src/usbd_sdr.c ****     case USB_STD_REQ_SET_FEATURE:
 385:middlewares/usbd_drivers/src/usbd_sdr.c ****       usbd_set_feature(udev);
 386:middlewares/usbd_drivers/src/usbd_sdr.c ****       break;
 387:middlewares/usbd_drivers/src/usbd_sdr.c ****     case USB_STD_REQ_SET_ADDRESS:
 388:middlewares/usbd_drivers/src/usbd_sdr.c ****       usbd_set_address(udev);
 389:middlewares/usbd_drivers/src/usbd_sdr.c ****       break;
ARM GAS  C:\Users\10963\AppData\Local\Temp\ccbSz4Fj.s 			page 28


 390:middlewares/usbd_drivers/src/usbd_sdr.c ****     case USB_STD_REQ_GET_DESCRIPTOR:
 391:middlewares/usbd_drivers/src/usbd_sdr.c ****       usbd_get_descriptor(udev);
 392:middlewares/usbd_drivers/src/usbd_sdr.c ****       break;
 393:middlewares/usbd_drivers/src/usbd_sdr.c ****     case USB_STD_REQ_GET_CONFIGURATION:
 394:middlewares/usbd_drivers/src/usbd_sdr.c ****       usbd_get_configuration(udev);
 395:middlewares/usbd_drivers/src/usbd_sdr.c ****       break;
 396:middlewares/usbd_drivers/src/usbd_sdr.c ****     case USB_STD_REQ_SET_CONFIGURATION:
 397:middlewares/usbd_drivers/src/usbd_sdr.c ****       usbd_set_configuration(udev);
 398:middlewares/usbd_drivers/src/usbd_sdr.c ****       break;
 399:middlewares/usbd_drivers/src/usbd_sdr.c ****     default:
 400:middlewares/usbd_drivers/src/usbd_sdr.c ****       usbd_ctrl_unsupport(udev);
 401:middlewares/usbd_drivers/src/usbd_sdr.c ****       break;
 402:middlewares/usbd_drivers/src/usbd_sdr.c ****   }
 403:middlewares/usbd_drivers/src/usbd_sdr.c ****   return ret;
 404:middlewares/usbd_drivers/src/usbd_sdr.c **** }
 931              		.loc 1 404 1 is_stmt 0 view .LVU302
 932 0030 0020     		movs	r0, #0
 933 0032 08BD     		pop	{r3, pc}
 934              	.LVL109:
 935              	.L70:
 376:middlewares/usbd_drivers/src/usbd_sdr.c ****   {
 936              		.loc 1 376 3 view .LVU303
 937 0034 082B     		cmp	r3, #8
 938 0036 0FD0     		beq	.L75
 939 0038 092B     		cmp	r3, #9
 940 003a 10D0     		beq	.L76
 941 003c 062B     		cmp	r3, #6
 942 003e 11D1     		bne	.L74
 391:middlewares/usbd_drivers/src/usbd_sdr.c ****       break;
 943              		.loc 1 391 7 is_stmt 1 view .LVU304
 944 0040 FFF7FEFF 		bl	usbd_get_descriptor
 945              	.LVL110:
 392:middlewares/usbd_drivers/src/usbd_sdr.c ****     case USB_STD_REQ_GET_CONFIGURATION:
 946              		.loc 1 392 7 view .LVU305
 947 0044 F4E7     		b	.L68
 948              	.LVL111:
 949              	.L71:
 382:middlewares/usbd_drivers/src/usbd_sdr.c ****       break;
 950              		.loc 1 382 7 view .LVU306
 951 0046 FFF7FEFF 		bl	usbd_clear_feature
 952              	.LVL112:
 383:middlewares/usbd_drivers/src/usbd_sdr.c ****     case USB_STD_REQ_SET_FEATURE:
 953              		.loc 1 383 7 view .LVU307
 954 004a F1E7     		b	.L68
 955              	.LVL113:
 956              	.L72:
 385:middlewares/usbd_drivers/src/usbd_sdr.c ****       break;
 957              		.loc 1 385 7 view .LVU308
 958 004c FFF7FEFF 		bl	usbd_set_feature
 959              	.LVL114:
 386:middlewares/usbd_drivers/src/usbd_sdr.c ****     case USB_STD_REQ_SET_ADDRESS:
 960              		.loc 1 386 7 view .LVU309
 961 0050 EEE7     		b	.L68
 962              	.LVL115:
 963              	.L69:
 388:middlewares/usbd_drivers/src/usbd_sdr.c ****       break;
 964              		.loc 1 388 7 view .LVU310
ARM GAS  C:\Users\10963\AppData\Local\Temp\ccbSz4Fj.s 			page 29


 965 0052 FFF7FEFF 		bl	usbd_set_address
 966              	.LVL116:
 389:middlewares/usbd_drivers/src/usbd_sdr.c ****     case USB_STD_REQ_GET_DESCRIPTOR:
 967              		.loc 1 389 7 view .LVU311
 968 0056 EBE7     		b	.L68
 969              	.LVL117:
 970              	.L75:
 394:middlewares/usbd_drivers/src/usbd_sdr.c ****       break;
 971              		.loc 1 394 7 view .LVU312
 972 0058 FFF7FEFF 		bl	usbd_get_configuration
 973              	.LVL118:
 395:middlewares/usbd_drivers/src/usbd_sdr.c ****     case USB_STD_REQ_SET_CONFIGURATION:
 974              		.loc 1 395 7 view .LVU313
 975 005c E8E7     		b	.L68
 976              	.LVL119:
 977              	.L76:
 397:middlewares/usbd_drivers/src/usbd_sdr.c ****       break;
 978              		.loc 1 397 7 view .LVU314
 979 005e FFF7FEFF 		bl	usbd_set_configuration
 980              	.LVL120:
 398:middlewares/usbd_drivers/src/usbd_sdr.c ****     default:
 981              		.loc 1 398 7 view .LVU315
 982 0062 E5E7     		b	.L68
 983              	.LVL121:
 984              	.L74:
 400:middlewares/usbd_drivers/src/usbd_sdr.c ****       break;
 985              		.loc 1 400 7 view .LVU316
 986 0064 FFF7FEFF 		bl	usbd_ctrl_unsupport
 987              	.LVL122:
 401:middlewares/usbd_drivers/src/usbd_sdr.c ****   }
 988              		.loc 1 401 7 view .LVU317
 989 0068 E2E7     		b	.L68
 990              		.cfi_endproc
 991              	.LFE145:
 993              		.section	.text.usbd_interface_request,"ax",%progbits
 994              		.align	1
 995              		.global	usbd_interface_request
 996              		.syntax unified
 997              		.thumb
 998              		.thumb_func
 1000              	usbd_interface_request:
 1001              	.LVL123:
 1002              	.LFB146:
 405:middlewares/usbd_drivers/src/usbd_sdr.c **** 
 406:middlewares/usbd_drivers/src/usbd_sdr.c **** /**
 407:middlewares/usbd_drivers/src/usbd_sdr.c ****   * @brief  standard usb interface requests
 408:middlewares/usbd_drivers/src/usbd_sdr.c ****   * @param  udev: to the structure of usbd_core_type
 409:middlewares/usbd_drivers/src/usbd_sdr.c ****   * @retval status of usb_sts_type
 410:middlewares/usbd_drivers/src/usbd_sdr.c ****   */
 411:middlewares/usbd_drivers/src/usbd_sdr.c **** usb_sts_type usbd_interface_request(usbd_core_type *udev)
 412:middlewares/usbd_drivers/src/usbd_sdr.c **** {
 1003              		.loc 1 412 1 view -0
 1004              		.cfi_startproc
 1005              		@ args = 0, pretend = 0, frame = 0
 1006              		@ frame_needed = 0, uses_anonymous_args = 0
 1007              		.loc 1 412 1 is_stmt 0 view .LVU319
 1008 0000 38B5     		push	{r3, r4, r5, lr}
ARM GAS  C:\Users\10963\AppData\Local\Temp\ccbSz4Fj.s 			page 30


 1009              	.LCFI8:
 1010              		.cfi_def_cfa_offset 16
 1011              		.cfi_offset 3, -16
 1012              		.cfi_offset 4, -12
 1013              		.cfi_offset 5, -8
 1014              		.cfi_offset 14, -4
 1015 0002 0446     		mov	r4, r0
 413:middlewares/usbd_drivers/src/usbd_sdr.c ****   usb_sts_type ret = USB_OK;
 1016              		.loc 1 413 3 is_stmt 1 view .LVU320
 1017              	.LVL124:
 414:middlewares/usbd_drivers/src/usbd_sdr.c ****   usb_setup_type *setup = &udev->setup;
 1018              		.loc 1 414 3 view .LVU321
 415:middlewares/usbd_drivers/src/usbd_sdr.c ****   switch(udev->conn_state)
 1019              		.loc 1 415 3 view .LVU322
 1020              		.loc 1 415 14 is_stmt 0 view .LVU323
 1021 0004 90F82432 		ldrb	r3, [r0, #548]	@ zero_extendqisi2
 1022              		.loc 1 415 3 view .LVU324
 1023 0008 013B     		subs	r3, r3, #1
 1024 000a 022B     		cmp	r3, #2
 1025 000c 0DD8     		bhi	.L81
 416:middlewares/usbd_drivers/src/usbd_sdr.c ****   {
 417:middlewares/usbd_drivers/src/usbd_sdr.c ****     case USB_CONN_STATE_DEFAULT:
 418:middlewares/usbd_drivers/src/usbd_sdr.c ****     case USB_CONN_STATE_ADDRESSED:
 419:middlewares/usbd_drivers/src/usbd_sdr.c ****     case USB_CONN_STATE_CONFIGURED:
 420:middlewares/usbd_drivers/src/usbd_sdr.c ****       ret = udev->class_handler->setup_handler(udev, &udev->setup);
 1026              		.loc 1 420 7 is_stmt 1 view .LVU325
 1027              		.loc 1 420 17 is_stmt 0 view .LVU326
 1028 000e 4368     		ldr	r3, [r0, #4]
 1029              		.loc 1 420 32 view .LVU327
 1030 0010 9B68     		ldr	r3, [r3, #8]
 1031              		.loc 1 420 13 view .LVU328
 1032 0012 00F50371 		add	r1, r0, #524
 1033              	.LVL125:
 1034              		.loc 1 420 13 view .LVU329
 1035 0016 9847     		blx	r3
 1036              	.LVL126:
 1037              		.loc 1 420 13 view .LVU330
 1038 0018 0546     		mov	r5, r0
 1039              	.LVL127:
 421:middlewares/usbd_drivers/src/usbd_sdr.c ****       if(setup->wLength == 0 && ret == USB_OK)
 1040              		.loc 1 421 7 is_stmt 1 view .LVU331
 1041              		.loc 1 421 15 is_stmt 0 view .LVU332
 1042 001a B4F81232 		ldrh	r3, [r4, #530]
 1043              		.loc 1 421 9 view .LVU333
 1044 001e 43B9     		cbnz	r3, .L82
 1045              		.loc 1 421 30 discriminator 1 view .LVU334
 1046 0020 38B9     		cbnz	r0, .L82
 422:middlewares/usbd_drivers/src/usbd_sdr.c ****       {
 423:middlewares/usbd_drivers/src/usbd_sdr.c ****         usbd_ctrl_send_status(udev);
 1047              		.loc 1 423 9 is_stmt 1 view .LVU335
 1048 0022 2046     		mov	r0, r4
 1049              	.LVL128:
 1050              		.loc 1 423 9 is_stmt 0 view .LVU336
 1051 0024 FFF7FEFF 		bl	usbd_ctrl_send_status
 1052              	.LVL129:
 1053 0028 03E0     		b	.L82
 1054              	.LVL130:
ARM GAS  C:\Users\10963\AppData\Local\Temp\ccbSz4Fj.s 			page 31


 1055              	.L81:
 424:middlewares/usbd_drivers/src/usbd_sdr.c ****       }
 425:middlewares/usbd_drivers/src/usbd_sdr.c ****       break;
 426:middlewares/usbd_drivers/src/usbd_sdr.c ****     default:
 427:middlewares/usbd_drivers/src/usbd_sdr.c ****       usbd_ctrl_unsupport(udev);
 1056              		.loc 1 427 7 is_stmt 1 view .LVU337
 1057 002a FFF7FEFF 		bl	usbd_ctrl_unsupport
 1058              	.LVL131:
 428:middlewares/usbd_drivers/src/usbd_sdr.c ****       break;
 1059              		.loc 1 428 7 view .LVU338
 413:middlewares/usbd_drivers/src/usbd_sdr.c ****   usb_setup_type *setup = &udev->setup;
 1060              		.loc 1 413 16 is_stmt 0 view .LVU339
 1061 002e 0023     		movs	r3, #0
 1062 0030 1D46     		mov	r5, r3
 1063              	.LVL132:
 1064              	.L82:
 429:middlewares/usbd_drivers/src/usbd_sdr.c ****   }
 430:middlewares/usbd_drivers/src/usbd_sdr.c ****   return ret;
 1065              		.loc 1 430 3 is_stmt 1 view .LVU340
 431:middlewares/usbd_drivers/src/usbd_sdr.c **** }
 1066              		.loc 1 431 1 is_stmt 0 view .LVU341
 1067 0032 2846     		mov	r0, r5
 1068 0034 38BD     		pop	{r3, r4, r5, pc}
 1069              		.loc 1 431 1 view .LVU342
 1070              		.cfi_endproc
 1071              	.LFE146:
 1073              		.section	.text.usbd_endpoint_request,"ax",%progbits
 1074              		.align	1
 1075              		.global	usbd_endpoint_request
 1076              		.syntax unified
 1077              		.thumb
 1078              		.thumb_func
 1080              	usbd_endpoint_request:
 1081              	.LVL133:
 1082              	.LFB147:
 432:middlewares/usbd_drivers/src/usbd_sdr.c **** 
 433:middlewares/usbd_drivers/src/usbd_sdr.c **** /**
 434:middlewares/usbd_drivers/src/usbd_sdr.c ****   * @brief  standard usb endpoint requests
 435:middlewares/usbd_drivers/src/usbd_sdr.c ****   * @param  udev: to the structure of usbd_core_type
 436:middlewares/usbd_drivers/src/usbd_sdr.c ****   * @retval status of usb_sts_type
 437:middlewares/usbd_drivers/src/usbd_sdr.c ****   */
 438:middlewares/usbd_drivers/src/usbd_sdr.c **** usb_sts_type usbd_endpoint_request(usbd_core_type *udev)
 439:middlewares/usbd_drivers/src/usbd_sdr.c **** {
 1083              		.loc 1 439 1 is_stmt 1 view -0
 1084              		.cfi_startproc
 1085              		@ args = 0, pretend = 0, frame = 0
 1086              		@ frame_needed = 0, uses_anonymous_args = 0
 1087              		.loc 1 439 1 is_stmt 0 view .LVU344
 1088 0000 70B5     		push	{r4, r5, r6, lr}
 1089              	.LCFI9:
 1090              		.cfi_def_cfa_offset 16
 1091              		.cfi_offset 4, -16
 1092              		.cfi_offset 5, -12
 1093              		.cfi_offset 6, -8
 1094              		.cfi_offset 14, -4
 1095 0002 0446     		mov	r4, r0
 440:middlewares/usbd_drivers/src/usbd_sdr.c ****   usb_sts_type ret = USB_OK;
ARM GAS  C:\Users\10963\AppData\Local\Temp\ccbSz4Fj.s 			page 32


 1096              		.loc 1 440 3 is_stmt 1 view .LVU345
 1097              	.LVL134:
 441:middlewares/usbd_drivers/src/usbd_sdr.c ****   usb_setup_type *setup = &udev->setup;
 1098              		.loc 1 441 3 view .LVU346
 442:middlewares/usbd_drivers/src/usbd_sdr.c ****   uint8_t ept_addr = LBYTE(setup->wIndex);
 1099              		.loc 1 442 3 view .LVU347
 1100              		.loc 1 442 22 is_stmt 0 view .LVU348
 1101 0004 B0F81032 		ldrh	r3, [r0, #528]
 1102 0008 1D46     		mov	r5, r3
 1103              		.loc 1 442 11 view .LVU349
 1104 000a D9B2     		uxtb	r1, r3
 1105              	.LVL135:
 443:middlewares/usbd_drivers/src/usbd_sdr.c ****   usb_ept_info *ept_info;
 1106              		.loc 1 443 3 is_stmt 1 view .LVU350
 444:middlewares/usbd_drivers/src/usbd_sdr.c **** 
 445:middlewares/usbd_drivers/src/usbd_sdr.c ****   if((setup->bmRequestType & USB_REQ_TYPE_RESERVED) != USB_REQ_TYPE_STANDARD)
 1107              		.loc 1 445 3 view .LVU351
 1108              		.loc 1 445 12 is_stmt 0 view .LVU352
 1109 000c 90F80C32 		ldrb	r3, [r0, #524]	@ zero_extendqisi2
 1110              		.loc 1 445 5 view .LVU353
 1111 0010 13F0600F 		tst	r3, #96
 1112 0014 11D1     		bne	.L112
 446:middlewares/usbd_drivers/src/usbd_sdr.c ****   {
 447:middlewares/usbd_drivers/src/usbd_sdr.c ****     udev->class_handler->setup_handler(udev, &udev->setup);
 448:middlewares/usbd_drivers/src/usbd_sdr.c ****     return ret;
 449:middlewares/usbd_drivers/src/usbd_sdr.c ****   }
 450:middlewares/usbd_drivers/src/usbd_sdr.c ****   switch(setup->bRequest)
 1113              		.loc 1 450 3 is_stmt 1 view .LVU354
 1114              		.loc 1 450 15 is_stmt 0 view .LVU355
 1115 0016 90F80D32 		ldrb	r3, [r0, #525]	@ zero_extendqisi2
 1116              		.loc 1 450 3 view .LVU356
 1117 001a 012B     		cmp	r3, #1
 1118 001c 4ED0     		beq	.L87
 1119 001e 032B     		cmp	r3, #3
 1120 0020 70D0     		beq	.L88
 1121 0022 002B     		cmp	r3, #0
 1122 0024 40F09180 		bne	.L89
 451:middlewares/usbd_drivers/src/usbd_sdr.c ****   {
 452:middlewares/usbd_drivers/src/usbd_sdr.c ****     case USB_STD_REQ_GET_STATUS:
 453:middlewares/usbd_drivers/src/usbd_sdr.c ****       switch(udev->conn_state)
 1123              		.loc 1 453 7 is_stmt 1 view .LVU357
 1124              		.loc 1 453 18 is_stmt 0 view .LVU358
 1125 0028 90F82432 		ldrb	r3, [r0, #548]	@ zero_extendqisi2
 1126              		.loc 1 453 7 view .LVU359
 1127 002c 022B     		cmp	r3, #2
 1128 002e 0BD0     		beq	.L90
 1129 0030 032B     		cmp	r3, #3
 1130 0032 25D0     		beq	.L91
 454:middlewares/usbd_drivers/src/usbd_sdr.c ****       {
 455:middlewares/usbd_drivers/src/usbd_sdr.c ****         case USB_CONN_STATE_ADDRESSED:
 456:middlewares/usbd_drivers/src/usbd_sdr.c ****           if((ept_addr & 0x7F) != 0)
 457:middlewares/usbd_drivers/src/usbd_sdr.c ****           {
 458:middlewares/usbd_drivers/src/usbd_sdr.c ****             usbd_set_stall(udev, ept_addr);
 459:middlewares/usbd_drivers/src/usbd_sdr.c ****           }
 460:middlewares/usbd_drivers/src/usbd_sdr.c ****           if((ept_addr & 0x80) != 0)
 461:middlewares/usbd_drivers/src/usbd_sdr.c ****           {
 462:middlewares/usbd_drivers/src/usbd_sdr.c ****            ept_info = &udev->ept_in[ept_addr & 0x7F];
ARM GAS  C:\Users\10963\AppData\Local\Temp\ccbSz4Fj.s 			page 33


 463:middlewares/usbd_drivers/src/usbd_sdr.c ****           }
 464:middlewares/usbd_drivers/src/usbd_sdr.c ****           else
 465:middlewares/usbd_drivers/src/usbd_sdr.c ****           {
 466:middlewares/usbd_drivers/src/usbd_sdr.c ****             ept_info = &udev->ept_out[ept_addr & 0x7F];
 467:middlewares/usbd_drivers/src/usbd_sdr.c ****           }
 468:middlewares/usbd_drivers/src/usbd_sdr.c ****           ept_info->status = 0x0000;
 469:middlewares/usbd_drivers/src/usbd_sdr.c ****           usbd_ctrl_send(udev, (uint8_t *)(&ept_info->status), 2);
 470:middlewares/usbd_drivers/src/usbd_sdr.c ****           
 471:middlewares/usbd_drivers/src/usbd_sdr.c ****           break;
 472:middlewares/usbd_drivers/src/usbd_sdr.c ****         case USB_CONN_STATE_CONFIGURED:
 473:middlewares/usbd_drivers/src/usbd_sdr.c ****         {
 474:middlewares/usbd_drivers/src/usbd_sdr.c ****           if((ept_addr & 0x80) != 0)
 475:middlewares/usbd_drivers/src/usbd_sdr.c ****           {
 476:middlewares/usbd_drivers/src/usbd_sdr.c ****            ept_info = &udev->ept_in[ept_addr & 0x7F];
 477:middlewares/usbd_drivers/src/usbd_sdr.c ****           }
 478:middlewares/usbd_drivers/src/usbd_sdr.c ****           else
 479:middlewares/usbd_drivers/src/usbd_sdr.c ****           {
 480:middlewares/usbd_drivers/src/usbd_sdr.c ****             ept_info = &udev->ept_out[ept_addr & 0x7F];
 481:middlewares/usbd_drivers/src/usbd_sdr.c ****           }
 482:middlewares/usbd_drivers/src/usbd_sdr.c ****           if(ept_info->stall == 1)
 483:middlewares/usbd_drivers/src/usbd_sdr.c ****           {
 484:middlewares/usbd_drivers/src/usbd_sdr.c ****             ept_info->status = 0x0001;
 485:middlewares/usbd_drivers/src/usbd_sdr.c ****           }
 486:middlewares/usbd_drivers/src/usbd_sdr.c ****           else
 487:middlewares/usbd_drivers/src/usbd_sdr.c ****           {
 488:middlewares/usbd_drivers/src/usbd_sdr.c ****             ept_info->status = 0x0000;
 489:middlewares/usbd_drivers/src/usbd_sdr.c ****           }
 490:middlewares/usbd_drivers/src/usbd_sdr.c ****           usbd_ctrl_send(udev, (uint8_t *)(&ept_info->status), 2);
 491:middlewares/usbd_drivers/src/usbd_sdr.c ****         }
 492:middlewares/usbd_drivers/src/usbd_sdr.c ****           break;
 493:middlewares/usbd_drivers/src/usbd_sdr.c ****         default:
 494:middlewares/usbd_drivers/src/usbd_sdr.c ****           usbd_ctrl_unsupport(udev);
 1131              		.loc 1 494 11 is_stmt 1 view .LVU360
 1132 0034 FFF7FEFF 		bl	usbd_ctrl_unsupport
 1133              	.LVL136:
 495:middlewares/usbd_drivers/src/usbd_sdr.c ****           break;
 1134              		.loc 1 495 11 view .LVU361
 1135 0038 04E0     		b	.L86
 1136              	.LVL137:
 1137              	.L112:
 447:middlewares/usbd_drivers/src/usbd_sdr.c ****     return ret;
 1138              		.loc 1 447 5 view .LVU362
 447:middlewares/usbd_drivers/src/usbd_sdr.c ****     return ret;
 1139              		.loc 1 447 9 is_stmt 0 view .LVU363
 1140 003a 4368     		ldr	r3, [r0, #4]
 447:middlewares/usbd_drivers/src/usbd_sdr.c ****     return ret;
 1141              		.loc 1 447 24 view .LVU364
 1142 003c 9B68     		ldr	r3, [r3, #8]
 447:middlewares/usbd_drivers/src/usbd_sdr.c ****     return ret;
 1143              		.loc 1 447 5 view .LVU365
 1144 003e 00F50371 		add	r1, r0, #524
 1145              	.LVL138:
 447:middlewares/usbd_drivers/src/usbd_sdr.c ****     return ret;
 1146              		.loc 1 447 5 view .LVU366
 1147 0042 9847     		blx	r3
 1148              	.LVL139:
 448:middlewares/usbd_drivers/src/usbd_sdr.c ****   }
ARM GAS  C:\Users\10963\AppData\Local\Temp\ccbSz4Fj.s 			page 34


 1149              		.loc 1 448 5 is_stmt 1 view .LVU367
 1150              	.L86:
 496:middlewares/usbd_drivers/src/usbd_sdr.c ****       }
 497:middlewares/usbd_drivers/src/usbd_sdr.c ****       break;
 498:middlewares/usbd_drivers/src/usbd_sdr.c ****     case USB_STD_REQ_CLEAR_FEATURE:
 499:middlewares/usbd_drivers/src/usbd_sdr.c ****       switch(udev->conn_state)
 500:middlewares/usbd_drivers/src/usbd_sdr.c ****       {
 501:middlewares/usbd_drivers/src/usbd_sdr.c ****         case USB_CONN_STATE_ADDRESSED:
 502:middlewares/usbd_drivers/src/usbd_sdr.c ****           if((ept_addr != 0x00) && (ept_addr != 0x80))
 503:middlewares/usbd_drivers/src/usbd_sdr.c ****           {
 504:middlewares/usbd_drivers/src/usbd_sdr.c ****             usbd_set_stall(udev, ept_addr);
 505:middlewares/usbd_drivers/src/usbd_sdr.c ****           }
 506:middlewares/usbd_drivers/src/usbd_sdr.c ****           break;
 507:middlewares/usbd_drivers/src/usbd_sdr.c ****         case USB_CONN_STATE_CONFIGURED:
 508:middlewares/usbd_drivers/src/usbd_sdr.c ****           if(setup->wValue == USB_FEATURE_EPT_HALT)
 509:middlewares/usbd_drivers/src/usbd_sdr.c ****           {
 510:middlewares/usbd_drivers/src/usbd_sdr.c ****             if((ept_addr & 0x7F) != 0x00 )
 511:middlewares/usbd_drivers/src/usbd_sdr.c ****             {
 512:middlewares/usbd_drivers/src/usbd_sdr.c ****               usbd_clear_stall(udev, ept_addr);
 513:middlewares/usbd_drivers/src/usbd_sdr.c ****               udev->class_handler->setup_handler(udev, &udev->setup);
 514:middlewares/usbd_drivers/src/usbd_sdr.c ****             }
 515:middlewares/usbd_drivers/src/usbd_sdr.c ****             usbd_ctrl_send_status(udev);
 516:middlewares/usbd_drivers/src/usbd_sdr.c ****           }
 517:middlewares/usbd_drivers/src/usbd_sdr.c ****           break;
 518:middlewares/usbd_drivers/src/usbd_sdr.c ****         default:
 519:middlewares/usbd_drivers/src/usbd_sdr.c ****           usbd_ctrl_unsupport(udev);
 520:middlewares/usbd_drivers/src/usbd_sdr.c ****           break;
 521:middlewares/usbd_drivers/src/usbd_sdr.c ****       }
 522:middlewares/usbd_drivers/src/usbd_sdr.c ****       break;
 523:middlewares/usbd_drivers/src/usbd_sdr.c ****     case USB_STD_REQ_SET_FEATURE:
 524:middlewares/usbd_drivers/src/usbd_sdr.c ****       switch(udev->conn_state)
 525:middlewares/usbd_drivers/src/usbd_sdr.c ****       {
 526:middlewares/usbd_drivers/src/usbd_sdr.c ****         case USB_CONN_STATE_ADDRESSED:
 527:middlewares/usbd_drivers/src/usbd_sdr.c ****           if((ept_addr != 0x00) && (ept_addr != 0x80))
 528:middlewares/usbd_drivers/src/usbd_sdr.c ****           {
 529:middlewares/usbd_drivers/src/usbd_sdr.c ****             usbd_set_stall(udev, ept_addr);
 530:middlewares/usbd_drivers/src/usbd_sdr.c ****           }
 531:middlewares/usbd_drivers/src/usbd_sdr.c ****           break;
 532:middlewares/usbd_drivers/src/usbd_sdr.c ****         case USB_CONN_STATE_CONFIGURED:
 533:middlewares/usbd_drivers/src/usbd_sdr.c ****           if(setup->wValue == USB_FEATURE_EPT_HALT)
 534:middlewares/usbd_drivers/src/usbd_sdr.c ****           {
 535:middlewares/usbd_drivers/src/usbd_sdr.c ****             if((ept_addr != 0x00) && (ept_addr != 0x80))
 536:middlewares/usbd_drivers/src/usbd_sdr.c ****             {
 537:middlewares/usbd_drivers/src/usbd_sdr.c ****               usbd_set_stall(udev, ept_addr);
 538:middlewares/usbd_drivers/src/usbd_sdr.c ****             }
 539:middlewares/usbd_drivers/src/usbd_sdr.c ****           }
 540:middlewares/usbd_drivers/src/usbd_sdr.c ****           udev->class_handler->setup_handler(udev, &udev->setup);
 541:middlewares/usbd_drivers/src/usbd_sdr.c ****           usbd_ctrl_send_status(udev);
 542:middlewares/usbd_drivers/src/usbd_sdr.c ****           break;
 543:middlewares/usbd_drivers/src/usbd_sdr.c ****         default:
 544:middlewares/usbd_drivers/src/usbd_sdr.c ****           usbd_ctrl_unsupport(udev);
 545:middlewares/usbd_drivers/src/usbd_sdr.c ****           break;
 546:middlewares/usbd_drivers/src/usbd_sdr.c ****       }
 547:middlewares/usbd_drivers/src/usbd_sdr.c ****       break;
 548:middlewares/usbd_drivers/src/usbd_sdr.c ****     default:
 549:middlewares/usbd_drivers/src/usbd_sdr.c ****       usbd_ctrl_unsupport(udev);
 550:middlewares/usbd_drivers/src/usbd_sdr.c ****       break;
ARM GAS  C:\Users\10963\AppData\Local\Temp\ccbSz4Fj.s 			page 35


 551:middlewares/usbd_drivers/src/usbd_sdr.c ****   }
 552:middlewares/usbd_drivers/src/usbd_sdr.c ****   return ret;
 553:middlewares/usbd_drivers/src/usbd_sdr.c **** }
 1151              		.loc 1 553 1 is_stmt 0 view .LVU368
 1152 0044 0020     		movs	r0, #0
 1153 0046 70BD     		pop	{r4, r5, r6, pc}
 1154              	.LVL140:
 1155              	.L90:
 456:middlewares/usbd_drivers/src/usbd_sdr.c ****           {
 1156              		.loc 1 456 11 is_stmt 1 view .LVU369
 456:middlewares/usbd_drivers/src/usbd_sdr.c ****           {
 1157              		.loc 1 456 13 is_stmt 0 view .LVU370
 1158 0048 15F07F03 		ands	r3, r5, #127
 1159 004c 1E46     		mov	r6, r3
 1160 004e 0FD1     		bne	.L113
 1161              	.LVL141:
 1162              	.L93:
 460:middlewares/usbd_drivers/src/usbd_sdr.c ****           {
 1163              		.loc 1 460 11 is_stmt 1 view .LVU371
 460:middlewares/usbd_drivers/src/usbd_sdr.c ****           {
 1164              		.loc 1 460 13 is_stmt 0 view .LVU372
 1165 0050 15F0800F 		tst	r5, #128
 1166 0054 0FD1     		bne	.L114
 466:middlewares/usbd_drivers/src/usbd_sdr.c ****           }
 1167              		.loc 1 466 13 is_stmt 1 view .LVU373
 466:middlewares/usbd_drivers/src/usbd_sdr.c ****           }
 1168              		.loc 1 466 22 is_stmt 0 view .LVU374
 1169 0056 7101     		lsls	r1, r6, #5
 1170 0058 01F58471 		add	r1, r1, #264
 1171 005c 2144     		add	r1, r1, r4
 1172 005e 0431     		adds	r1, r1, #4
 1173              	.L95:
 1174              	.LVL142:
 468:middlewares/usbd_drivers/src/usbd_sdr.c ****           usbd_ctrl_send(udev, (uint8_t *)(&ept_info->status), 2);
 1175              		.loc 1 468 11 is_stmt 1 view .LVU375
 468:middlewares/usbd_drivers/src/usbd_sdr.c ****           usbd_ctrl_send(udev, (uint8_t *)(&ept_info->status), 2);
 1176              		.loc 1 468 28 is_stmt 0 view .LVU376
 1177 0060 0023     		movs	r3, #0
 1178 0062 21F80C3F 		strh	r3, [r1, #12]!	@ movhi
 1179              	.LVL143:
 469:middlewares/usbd_drivers/src/usbd_sdr.c ****           
 1180              		.loc 1 469 11 is_stmt 1 view .LVU377
 1181 0066 0222     		movs	r2, #2
 1182 0068 2046     		mov	r0, r4
 1183 006a FFF7FEFF 		bl	usbd_ctrl_send
 1184              	.LVL144:
 471:middlewares/usbd_drivers/src/usbd_sdr.c ****         case USB_CONN_STATE_CONFIGURED:
 1185              		.loc 1 471 11 view .LVU378
 1186 006e E9E7     		b	.L86
 1187              	.LVL145:
 1188              	.L113:
 458:middlewares/usbd_drivers/src/usbd_sdr.c ****           }
 1189              		.loc 1 458 13 view .LVU379
 1190 0070 FFF7FEFF 		bl	usbd_set_stall
 1191              	.LVL146:
 458:middlewares/usbd_drivers/src/usbd_sdr.c ****           }
 1192              		.loc 1 458 13 is_stmt 0 view .LVU380
ARM GAS  C:\Users\10963\AppData\Local\Temp\ccbSz4Fj.s 			page 36


 1193 0074 ECE7     		b	.L93
 1194              	.L114:
 462:middlewares/usbd_drivers/src/usbd_sdr.c ****           }
 1195              		.loc 1 462 12 is_stmt 1 view .LVU381
 462:middlewares/usbd_drivers/src/usbd_sdr.c ****           }
 1196              		.loc 1 462 21 is_stmt 0 view .LVU382
 1197 0076 7101     		lsls	r1, r6, #5
 1198 0078 0831     		adds	r1, r1, #8
 1199 007a 2144     		add	r1, r1, r4
 1200 007c 0431     		adds	r1, r1, #4
 1201              	.LVL147:
 462:middlewares/usbd_drivers/src/usbd_sdr.c ****           }
 1202              		.loc 1 462 21 view .LVU383
 1203 007e EFE7     		b	.L95
 1204              	.LVL148:
 1205              	.L91:
 474:middlewares/usbd_drivers/src/usbd_sdr.c ****           {
 1206              		.loc 1 474 11 is_stmt 1 view .LVU384
 474:middlewares/usbd_drivers/src/usbd_sdr.c ****           {
 1207              		.loc 1 474 13 is_stmt 0 view .LVU385
 1208 0080 15F0800F 		tst	r5, #128
 1209 0084 11D1     		bne	.L115
 480:middlewares/usbd_drivers/src/usbd_sdr.c ****           }
 1210              		.loc 1 480 13 is_stmt 1 view .LVU386
 480:middlewares/usbd_drivers/src/usbd_sdr.c ****           }
 1211              		.loc 1 480 48 is_stmt 0 view .LVU387
 1212 0086 05F07F01 		and	r1, r5, #127
 1213              	.LVL149:
 480:middlewares/usbd_drivers/src/usbd_sdr.c ****           }
 1214              		.loc 1 480 22 view .LVU388
 1215 008a 4901     		lsls	r1, r1, #5
 1216 008c 01F58471 		add	r1, r1, #264
 1217 0090 0144     		add	r1, r1, r0
 1218 0092 0431     		adds	r1, r1, #4
 1219              	.L97:
 1220              	.LVL150:
 482:middlewares/usbd_drivers/src/usbd_sdr.c ****           {
 1221              		.loc 1 482 11 is_stmt 1 view .LVU389
 482:middlewares/usbd_drivers/src/usbd_sdr.c ****           {
 1222              		.loc 1 482 22 is_stmt 0 view .LVU390
 1223 0094 CB7A     		ldrb	r3, [r1, #11]	@ zero_extendqisi2
 482:middlewares/usbd_drivers/src/usbd_sdr.c ****           {
 1224              		.loc 1 482 13 view .LVU391
 1225 0096 012B     		cmp	r3, #1
 1226 0098 0ED0     		beq	.L116
 488:middlewares/usbd_drivers/src/usbd_sdr.c ****           }
 1227              		.loc 1 488 13 is_stmt 1 view .LVU392
 488:middlewares/usbd_drivers/src/usbd_sdr.c ****           }
 1228              		.loc 1 488 30 is_stmt 0 view .LVU393
 1229 009a 0023     		movs	r3, #0
 1230 009c 8B81     		strh	r3, [r1, #12]	@ movhi
 1231              	.L99:
 490:middlewares/usbd_drivers/src/usbd_sdr.c ****         }
 1232              		.loc 1 490 11 is_stmt 1 view .LVU394
 1233 009e 0222     		movs	r2, #2
 1234 00a0 0C31     		adds	r1, r1, #12
 1235              	.LVL151:
ARM GAS  C:\Users\10963\AppData\Local\Temp\ccbSz4Fj.s 			page 37


 490:middlewares/usbd_drivers/src/usbd_sdr.c ****         }
 1236              		.loc 1 490 11 is_stmt 0 view .LVU395
 1237 00a2 2046     		mov	r0, r4
 1238              	.LVL152:
 490:middlewares/usbd_drivers/src/usbd_sdr.c ****         }
 1239              		.loc 1 490 11 view .LVU396
 1240 00a4 FFF7FEFF 		bl	usbd_ctrl_send
 1241              	.LVL153:
 492:middlewares/usbd_drivers/src/usbd_sdr.c ****         default:
 1242              		.loc 1 492 11 is_stmt 1 view .LVU397
 1243 00a8 CCE7     		b	.L86
 1244              	.LVL154:
 1245              	.L115:
 476:middlewares/usbd_drivers/src/usbd_sdr.c ****           }
 1246              		.loc 1 476 12 view .LVU398
 476:middlewares/usbd_drivers/src/usbd_sdr.c ****           }
 1247              		.loc 1 476 46 is_stmt 0 view .LVU399
 1248 00aa 05F07F01 		and	r1, r5, #127
 1249              	.LVL155:
 476:middlewares/usbd_drivers/src/usbd_sdr.c ****           }
 1250              		.loc 1 476 21 view .LVU400
 1251 00ae 4901     		lsls	r1, r1, #5
 1252 00b0 0831     		adds	r1, r1, #8
 1253 00b2 0144     		add	r1, r1, r0
 1254 00b4 0431     		adds	r1, r1, #4
 1255              	.LVL156:
 476:middlewares/usbd_drivers/src/usbd_sdr.c ****           }
 1256              		.loc 1 476 21 view .LVU401
 1257 00b6 EDE7     		b	.L97
 1258              	.L116:
 484:middlewares/usbd_drivers/src/usbd_sdr.c ****           }
 1259              		.loc 1 484 13 is_stmt 1 view .LVU402
 484:middlewares/usbd_drivers/src/usbd_sdr.c ****           }
 1260              		.loc 1 484 30 is_stmt 0 view .LVU403
 1261 00b8 8B81     		strh	r3, [r1, #12]	@ movhi
 1262 00ba F0E7     		b	.L99
 1263              	.LVL157:
 1264              	.L87:
 499:middlewares/usbd_drivers/src/usbd_sdr.c ****       {
 1265              		.loc 1 499 7 is_stmt 1 view .LVU404
 499:middlewares/usbd_drivers/src/usbd_sdr.c ****       {
 1266              		.loc 1 499 18 is_stmt 0 view .LVU405
 1267 00bc 90F82432 		ldrb	r3, [r0, #548]	@ zero_extendqisi2
 499:middlewares/usbd_drivers/src/usbd_sdr.c ****       {
 1268              		.loc 1 499 7 view .LVU406
 1269 00c0 022B     		cmp	r3, #2
 1270 00c2 04D0     		beq	.L100
 1271 00c4 032B     		cmp	r3, #3
 1272 00c6 09D0     		beq	.L101
 519:middlewares/usbd_drivers/src/usbd_sdr.c ****           break;
 1273              		.loc 1 519 11 is_stmt 1 view .LVU407
 1274 00c8 FFF7FEFF 		bl	usbd_ctrl_unsupport
 1275              	.LVL158:
 520:middlewares/usbd_drivers/src/usbd_sdr.c ****       }
 1276              		.loc 1 520 11 view .LVU408
 1277 00cc BAE7     		b	.L86
 1278              	.LVL159:
ARM GAS  C:\Users\10963\AppData\Local\Temp\ccbSz4Fj.s 			page 38


 1279              	.L100:
 502:middlewares/usbd_drivers/src/usbd_sdr.c ****           {
 1280              		.loc 1 502 11 view .LVU409
 502:middlewares/usbd_drivers/src/usbd_sdr.c ****           {
 1281              		.loc 1 502 13 is_stmt 0 view .LVU410
 1282 00ce 0029     		cmp	r1, #0
 1283 00d0 B8D0     		beq	.L86
 502:middlewares/usbd_drivers/src/usbd_sdr.c ****           {
 1284              		.loc 1 502 33 discriminator 1 view .LVU411
 1285 00d2 8029     		cmp	r1, #128
 1286 00d4 B6D0     		beq	.L86
 504:middlewares/usbd_drivers/src/usbd_sdr.c ****           }
 1287              		.loc 1 504 13 is_stmt 1 view .LVU412
 1288 00d6 FFF7FEFF 		bl	usbd_set_stall
 1289              	.LVL160:
 504:middlewares/usbd_drivers/src/usbd_sdr.c ****           }
 1290              		.loc 1 504 13 is_stmt 0 view .LVU413
 1291 00da B3E7     		b	.L86
 1292              	.LVL161:
 1293              	.L101:
 508:middlewares/usbd_drivers/src/usbd_sdr.c ****           {
 1294              		.loc 1 508 11 is_stmt 1 view .LVU414
 508:middlewares/usbd_drivers/src/usbd_sdr.c ****           {
 1295              		.loc 1 508 19 is_stmt 0 view .LVU415
 1296 00dc B0F80E32 		ldrh	r3, [r0, #526]
 508:middlewares/usbd_drivers/src/usbd_sdr.c ****           {
 1297              		.loc 1 508 13 view .LVU416
 1298 00e0 002B     		cmp	r3, #0
 1299 00e2 AFD1     		bne	.L86
 510:middlewares/usbd_drivers/src/usbd_sdr.c ****             {
 1300              		.loc 1 510 13 is_stmt 1 view .LVU417
 510:middlewares/usbd_drivers/src/usbd_sdr.c ****             {
 1301              		.loc 1 510 15 is_stmt 0 view .LVU418
 1302 00e4 15F07F0F 		tst	r5, #127
 1303 00e8 03D1     		bne	.L117
 1304              	.LVL162:
 1305              	.L103:
 515:middlewares/usbd_drivers/src/usbd_sdr.c ****           }
 1306              		.loc 1 515 13 is_stmt 1 view .LVU419
 1307 00ea 2046     		mov	r0, r4
 1308 00ec FFF7FEFF 		bl	usbd_ctrl_send_status
 1309              	.LVL163:
 1310 00f0 A8E7     		b	.L86
 1311              	.LVL164:
 1312              	.L117:
 512:middlewares/usbd_drivers/src/usbd_sdr.c ****               udev->class_handler->setup_handler(udev, &udev->setup);
 1313              		.loc 1 512 15 view .LVU420
 1314 00f2 FFF7FEFF 		bl	usbd_clear_stall
 1315              	.LVL165:
 513:middlewares/usbd_drivers/src/usbd_sdr.c ****             }
 1316              		.loc 1 513 15 view .LVU421
 513:middlewares/usbd_drivers/src/usbd_sdr.c ****             }
 1317              		.loc 1 513 19 is_stmt 0 view .LVU422
 1318 00f6 6368     		ldr	r3, [r4, #4]
 513:middlewares/usbd_drivers/src/usbd_sdr.c ****             }
 1319              		.loc 1 513 34 view .LVU423
 1320 00f8 9B68     		ldr	r3, [r3, #8]
ARM GAS  C:\Users\10963\AppData\Local\Temp\ccbSz4Fj.s 			page 39


 513:middlewares/usbd_drivers/src/usbd_sdr.c ****             }
 1321              		.loc 1 513 15 view .LVU424
 1322 00fa 04F50371 		add	r1, r4, #524
 1323 00fe 2046     		mov	r0, r4
 1324 0100 9847     		blx	r3
 1325              	.LVL166:
 1326 0102 F2E7     		b	.L103
 1327              	.LVL167:
 1328              	.L88:
 524:middlewares/usbd_drivers/src/usbd_sdr.c ****       {
 1329              		.loc 1 524 7 is_stmt 1 view .LVU425
 524:middlewares/usbd_drivers/src/usbd_sdr.c ****       {
 1330              		.loc 1 524 18 is_stmt 0 view .LVU426
 1331 0104 90F82432 		ldrb	r3, [r0, #548]	@ zero_extendqisi2
 524:middlewares/usbd_drivers/src/usbd_sdr.c ****       {
 1332              		.loc 1 524 7 view .LVU427
 1333 0108 022B     		cmp	r3, #2
 1334 010a 04D0     		beq	.L104
 1335 010c 032B     		cmp	r3, #3
 1336 010e 09D0     		beq	.L105
 544:middlewares/usbd_drivers/src/usbd_sdr.c ****           break;
 1337              		.loc 1 544 11 is_stmt 1 view .LVU428
 1338 0110 FFF7FEFF 		bl	usbd_ctrl_unsupport
 1339              	.LVL168:
 545:middlewares/usbd_drivers/src/usbd_sdr.c ****       }
 1340              		.loc 1 545 11 view .LVU429
 1341 0114 96E7     		b	.L86
 1342              	.LVL169:
 1343              	.L104:
 527:middlewares/usbd_drivers/src/usbd_sdr.c ****           {
 1344              		.loc 1 527 11 view .LVU430
 527:middlewares/usbd_drivers/src/usbd_sdr.c ****           {
 1345              		.loc 1 527 13 is_stmt 0 view .LVU431
 1346 0116 0029     		cmp	r1, #0
 1347 0118 94D0     		beq	.L86
 527:middlewares/usbd_drivers/src/usbd_sdr.c ****           {
 1348              		.loc 1 527 33 discriminator 1 view .LVU432
 1349 011a 8029     		cmp	r1, #128
 1350 011c 92D0     		beq	.L86
 529:middlewares/usbd_drivers/src/usbd_sdr.c ****           }
 1351              		.loc 1 529 13 is_stmt 1 view .LVU433
 1352 011e FFF7FEFF 		bl	usbd_set_stall
 1353              	.LVL170:
 529:middlewares/usbd_drivers/src/usbd_sdr.c ****           }
 1354              		.loc 1 529 13 is_stmt 0 view .LVU434
 1355 0122 8FE7     		b	.L86
 1356              	.LVL171:
 1357              	.L105:
 533:middlewares/usbd_drivers/src/usbd_sdr.c ****           {
 1358              		.loc 1 533 11 is_stmt 1 view .LVU435
 533:middlewares/usbd_drivers/src/usbd_sdr.c ****           {
 1359              		.loc 1 533 19 is_stmt 0 view .LVU436
 1360 0124 B0F80E32 		ldrh	r3, [r0, #526]
 533:middlewares/usbd_drivers/src/usbd_sdr.c ****           {
 1361              		.loc 1 533 13 view .LVU437
 1362 0128 13B9     		cbnz	r3, .L107
 535:middlewares/usbd_drivers/src/usbd_sdr.c ****             {
ARM GAS  C:\Users\10963\AppData\Local\Temp\ccbSz4Fj.s 			page 40


 1363              		.loc 1 535 13 is_stmt 1 view .LVU438
 535:middlewares/usbd_drivers/src/usbd_sdr.c ****             {
 1364              		.loc 1 535 15 is_stmt 0 view .LVU439
 1365 012a 09B1     		cbz	r1, .L107
 535:middlewares/usbd_drivers/src/usbd_sdr.c ****             {
 1366              		.loc 1 535 35 discriminator 1 view .LVU440
 1367 012c 8029     		cmp	r1, #128
 1368 012e 09D1     		bne	.L118
 1369              	.LVL172:
 1370              	.L107:
 540:middlewares/usbd_drivers/src/usbd_sdr.c ****           usbd_ctrl_send_status(udev);
 1371              		.loc 1 540 11 is_stmt 1 view .LVU441
 540:middlewares/usbd_drivers/src/usbd_sdr.c ****           usbd_ctrl_send_status(udev);
 1372              		.loc 1 540 15 is_stmt 0 view .LVU442
 1373 0130 6368     		ldr	r3, [r4, #4]
 540:middlewares/usbd_drivers/src/usbd_sdr.c ****           usbd_ctrl_send_status(udev);
 1374              		.loc 1 540 30 view .LVU443
 1375 0132 9B68     		ldr	r3, [r3, #8]
 540:middlewares/usbd_drivers/src/usbd_sdr.c ****           usbd_ctrl_send_status(udev);
 1376              		.loc 1 540 11 view .LVU444
 1377 0134 04F50371 		add	r1, r4, #524
 1378 0138 2046     		mov	r0, r4
 1379 013a 9847     		blx	r3
 1380              	.LVL173:
 541:middlewares/usbd_drivers/src/usbd_sdr.c ****           break;
 1381              		.loc 1 541 11 is_stmt 1 view .LVU445
 1382 013c 2046     		mov	r0, r4
 1383 013e FFF7FEFF 		bl	usbd_ctrl_send_status
 1384              	.LVL174:
 542:middlewares/usbd_drivers/src/usbd_sdr.c ****         default:
 1385              		.loc 1 542 11 view .LVU446
 1386 0142 7FE7     		b	.L86
 1387              	.LVL175:
 1388              	.L118:
 537:middlewares/usbd_drivers/src/usbd_sdr.c ****             }
 1389              		.loc 1 537 15 view .LVU447
 1390 0144 FFF7FEFF 		bl	usbd_set_stall
 1391              	.LVL176:
 537:middlewares/usbd_drivers/src/usbd_sdr.c ****             }
 1392              		.loc 1 537 15 is_stmt 0 view .LVU448
 1393 0148 F2E7     		b	.L107
 1394              	.LVL177:
 1395              	.L89:
 549:middlewares/usbd_drivers/src/usbd_sdr.c ****       break;
 1396              		.loc 1 549 7 is_stmt 1 view .LVU449
 1397 014a FFF7FEFF 		bl	usbd_ctrl_unsupport
 1398              	.LVL178:
 550:middlewares/usbd_drivers/src/usbd_sdr.c ****   }
 1399              		.loc 1 550 7 view .LVU450
 1400 014e 79E7     		b	.L86
 1401              		.cfi_endproc
 1402              	.LFE147:
 1404              		.section	.bss.config_value.0,"aw",%nobits
 1407              	config_value.0:
 1408 0000 00       		.space	1
 1409              		.text
 1410              	.Letext0:
ARM GAS  C:\Users\10963\AppData\Local\Temp\ccbSz4Fj.s 			page 41


 1411              		.file 2 "C:/Program Files (x86)/Arm/GNU Toolchain mingw-w64-i686-arm-none-eabi/arm-none-eabi/inclu
 1412              		.file 3 "C:/Program Files (x86)/Arm/GNU Toolchain mingw-w64-i686-arm-none-eabi/arm-none-eabi/inclu
 1413              		.file 4 "libraries/drivers/inc/at32f403a_407_usb.h"
 1414              		.file 5 "middlewares/usbd_drivers/inc/usb_std.h"
 1415              		.file 6 "middlewares/usbd_drivers/inc/usbd_core.h"
ARM GAS  C:\Users\10963\AppData\Local\Temp\ccbSz4Fj.s 			page 42


DEFINED SYMBOLS
                            *ABS*:00000000 usbd_sdr.c
C:\Users\10963\AppData\Local\Temp\ccbSz4Fj.s:21     .text.usbd_get_status:00000000 $t
C:\Users\10963\AppData\Local\Temp\ccbSz4Fj.s:26     .text.usbd_get_status:00000000 usbd_get_status
C:\Users\10963\AppData\Local\Temp\ccbSz4Fj.s:82     .text.usbd_get_descriptor:00000000 $t
C:\Users\10963\AppData\Local\Temp\ccbSz4Fj.s:87     .text.usbd_get_descriptor:00000000 usbd_get_descriptor
C:\Users\10963\AppData\Local\Temp\ccbSz4Fj.s:342    .text.usbd_get_configuration:00000000 $t
C:\Users\10963\AppData\Local\Temp\ccbSz4Fj.s:347    .text.usbd_get_configuration:00000000 usbd_get_configuration
C:\Users\10963\AppData\Local\Temp\ccbSz4Fj.s:418    .text.usbd_clear_feature:00000000 $t
C:\Users\10963\AppData\Local\Temp\ccbSz4Fj.s:423    .text.usbd_clear_feature:00000000 usbd_clear_feature
C:\Users\10963\AppData\Local\Temp\ccbSz4Fj.s:495    .text.usbd_set_feature:00000000 $t
C:\Users\10963\AppData\Local\Temp\ccbSz4Fj.s:500    .text.usbd_set_feature:00000000 usbd_set_feature
C:\Users\10963\AppData\Local\Temp\ccbSz4Fj.s:557    .text.usbd_set_address:00000000 $t
C:\Users\10963\AppData\Local\Temp\ccbSz4Fj.s:562    .text.usbd_set_address:00000000 usbd_set_address
C:\Users\10963\AppData\Local\Temp\ccbSz4Fj.s:648    .text.usbd_set_configuration:00000000 $t
C:\Users\10963\AppData\Local\Temp\ccbSz4Fj.s:653    .text.usbd_set_configuration:00000000 usbd_set_configuration
C:\Users\10963\AppData\Local\Temp\ccbSz4Fj.s:818    .text.usbd_set_configuration:000000a0 $d
C:\Users\10963\AppData\Local\Temp\ccbSz4Fj.s:1407   .bss.config_value.0:00000000 config_value.0
C:\Users\10963\AppData\Local\Temp\ccbSz4Fj.s:823    .text.usbd_setup_request_parse:00000000 $t
C:\Users\10963\AppData\Local\Temp\ccbSz4Fj.s:829    .text.usbd_setup_request_parse:00000000 usbd_setup_request_parse
C:\Users\10963\AppData\Local\Temp\ccbSz4Fj.s:873    .text.usbd_device_request:00000000 $t
C:\Users\10963\AppData\Local\Temp\ccbSz4Fj.s:879    .text.usbd_device_request:00000000 usbd_device_request
C:\Users\10963\AppData\Local\Temp\ccbSz4Fj.s:994    .text.usbd_interface_request:00000000 $t
C:\Users\10963\AppData\Local\Temp\ccbSz4Fj.s:1000   .text.usbd_interface_request:00000000 usbd_interface_request
C:\Users\10963\AppData\Local\Temp\ccbSz4Fj.s:1074   .text.usbd_endpoint_request:00000000 $t
C:\Users\10963\AppData\Local\Temp\ccbSz4Fj.s:1080   .text.usbd_endpoint_request:00000000 usbd_endpoint_request
C:\Users\10963\AppData\Local\Temp\ccbSz4Fj.s:1408   .bss.config_value.0:00000000 $d

UNDEFINED SYMBOLS
usbd_ctrl_send
usbd_ctrl_unsupport
usbd_ctrl_send_status
usbd_set_stall
usbd_clear_stall
