ARM GAS  C:\Users\10963\AppData\Local\Temp\ccq82mC1.s 			page 1


   1              		.cpu cortex-m4
   2              		.arch armv7e-m
   3              		.fpu fpv4-sp-d16
   4              		.eabi_attribute 27, 1
   5              		.eabi_attribute 28, 1
   6              		.eabi_attribute 20, 1
   7              		.eabi_attribute 21, 1
   8              		.eabi_attribute 23, 3
   9              		.eabi_attribute 24, 1
  10              		.eabi_attribute 25, 1
  11              		.eabi_attribute 26, 1
  12              		.eabi_attribute 30, 1
  13              		.eabi_attribute 34, 1
  14              		.eabi_attribute 18, 4
  15              		.file	"winusb_desc.c"
  16              		.text
  17              	.Ltext0:
  18              		.cfi_sections	.debug_frame
  19              		.file 1 "project/src/winusb_desc.c"
  20              		.section	.text.usbd_unicode_convert,"ax",%progbits
  21              		.align	1
  22              		.syntax unified
  23              		.thumb
  24              		.thumb_func
  26              	usbd_unicode_convert:
  27              	.LVL0:
  28              	.LFB137:
   1:project/src/winusb_desc.c **** /**
   2:project/src/winusb_desc.c ****   **************************************************************************
   3:project/src/winusb_desc.c ****   * @file     winusb_desc.c
   4:project/src/winusb_desc.c ****   * @brief    usb winusb device descriptor
   5:project/src/winusb_desc.c ****   **************************************************************************
   6:project/src/winusb_desc.c ****   *
   7:project/src/winusb_desc.c ****   * Copyright (c) 2025, Artery Technology, All rights reserved.
   8:project/src/winusb_desc.c ****   *
   9:project/src/winusb_desc.c ****   * The software Board Support Package (BSP) that is made available to
  10:project/src/winusb_desc.c ****   * download from Artery official website is the copyrighted work of Artery.
  11:project/src/winusb_desc.c ****   * Artery authorizes customers to use, copy, and distribute the BSP
  12:project/src/winusb_desc.c ****   * software and its related documentation for the purpose of design and
  13:project/src/winusb_desc.c ****   * development in conjunction with Artery microcontrollers. Use of the
  14:project/src/winusb_desc.c ****   * software is governed by this copyright notice and the following disclaimer.
  15:project/src/winusb_desc.c ****   *
  16:project/src/winusb_desc.c ****   * THIS SOFTWARE IS PROVIDED ON "AS IS" BASIS WITHOUT WARRANTIES,
  17:project/src/winusb_desc.c ****   * GUARANTEES OR REPRESENTATIONS OF ANY KIND. ARTERY EXPRESSLY DISCLAIMS,
  18:project/src/winusb_desc.c ****   * TO THE FULLEST EXTENT PERMITTED BY LAW, ALL EXPRESS, IMPLIED OR
  19:project/src/winusb_desc.c ****   * STATUTORY OR OTHER WARRANTIES, GUARANTEES OR REPRESENTATIONS,
  20:project/src/winusb_desc.c ****   * INCLUDING BUT NOT LIMITED TO, THE IMPLIED WARRANTIES OF MERCHANTABILITY,
  21:project/src/winusb_desc.c ****   * FITNESS FOR A PARTICULAR PURPOSE, OR NON-INFRINGEMENT.
  22:project/src/winusb_desc.c ****   *
  23:project/src/winusb_desc.c ****   **************************************************************************
  24:project/src/winusb_desc.c ****   */
  25:project/src/winusb_desc.c **** #include "stdio.h"
  26:project/src/winusb_desc.c **** #include "usb_std.h"
  27:project/src/winusb_desc.c **** #include "usbd_sdr.h"
  28:project/src/winusb_desc.c **** #include "usbd_core.h"
  29:project/src/winusb_desc.c **** #include "winusb_desc.h"
  30:project/src/winusb_desc.c **** 
ARM GAS  C:\Users\10963\AppData\Local\Temp\ccq82mC1.s 			page 2


  31:project/src/winusb_desc.c **** /** @addtogroup AT32F403A_407_middlewares_usbd_class
  32:project/src/winusb_desc.c ****   * @{
  33:project/src/winusb_desc.c ****   */
  34:project/src/winusb_desc.c **** 
  35:project/src/winusb_desc.c **** /** @defgroup USB_winusb_desc
  36:project/src/winusb_desc.c ****   * @brief usb device winusb descriptor
  37:project/src/winusb_desc.c ****   * @{
  38:project/src/winusb_desc.c ****   */
  39:project/src/winusb_desc.c **** 
  40:project/src/winusb_desc.c **** /** @defgroup USB_winusb_desc_private_functions
  41:project/src/winusb_desc.c ****   * @{
  42:project/src/winusb_desc.c ****   */
  43:project/src/winusb_desc.c **** 
  44:project/src/winusb_desc.c **** static usbd_desc_t *get_device_descriptor(void);
  45:project/src/winusb_desc.c **** static usbd_desc_t *get_device_qualifier(void);
  46:project/src/winusb_desc.c **** static usbd_desc_t *get_device_configuration(void);
  47:project/src/winusb_desc.c **** static usbd_desc_t *get_device_other_speed(void);
  48:project/src/winusb_desc.c **** static usbd_desc_t *get_device_lang_id(void);
  49:project/src/winusb_desc.c **** static usbd_desc_t *get_device_manufacturer_string(void);
  50:project/src/winusb_desc.c **** static usbd_desc_t *get_device_product_string(void);
  51:project/src/winusb_desc.c **** static usbd_desc_t *get_device_serial_string(void);
  52:project/src/winusb_desc.c **** static usbd_desc_t *get_device_interface_string(void);
  53:project/src/winusb_desc.c **** static usbd_desc_t *get_device_config_string(void);
  54:project/src/winusb_desc.c **** 
  55:project/src/winusb_desc.c **** static uint16_t usbd_unicode_convert(uint8_t *string, uint8_t *unicode_buf);
  56:project/src/winusb_desc.c **** static void usbd_int_to_unicode (uint32_t value , uint8_t *pbuf , uint8_t len);
  57:project/src/winusb_desc.c **** static void get_serial_num(void);
  58:project/src/winusb_desc.c **** 
  59:project/src/winusb_desc.c **** #if (USBD_SUPPORT_WINUSB == 1)
  60:project/src/winusb_desc.c **** static usbd_desc_t *get_device_winusb_os_string(void);
  61:project/src/winusb_desc.c **** static usbd_desc_t *get_device_winusb_os_feature(void);
  62:project/src/winusb_desc.c **** static usbd_desc_t *get_device_winusb_os_property(void);
  63:project/src/winusb_desc.c **** #endif
  64:project/src/winusb_desc.c **** 
  65:project/src/winusb_desc.c **** #if defined ( __ICCARM__ ) /* iar compiler */
  66:project/src/winusb_desc.c ****   #pragma data_alignment=4
  67:project/src/winusb_desc.c **** #endif
  68:project/src/winusb_desc.c **** ALIGNED_HEAD static uint8_t g_usbd_desc_buffer[256] ALIGNED_TAIL;
  69:project/src/winusb_desc.c **** 
  70:project/src/winusb_desc.c **** /**
  71:project/src/winusb_desc.c ****   * @brief device descriptor handler structure
  72:project/src/winusb_desc.c ****   */
  73:project/src/winusb_desc.c **** usbd_desc_handler winusb_desc_handler =
  74:project/src/winusb_desc.c **** {
  75:project/src/winusb_desc.c ****   get_device_descriptor,
  76:project/src/winusb_desc.c ****   get_device_qualifier,
  77:project/src/winusb_desc.c ****   get_device_configuration,
  78:project/src/winusb_desc.c ****   get_device_other_speed,
  79:project/src/winusb_desc.c ****   get_device_lang_id,
  80:project/src/winusb_desc.c ****   get_device_manufacturer_string,
  81:project/src/winusb_desc.c ****   get_device_product_string,
  82:project/src/winusb_desc.c ****   get_device_serial_string,
  83:project/src/winusb_desc.c ****   get_device_interface_string,
  84:project/src/winusb_desc.c ****   get_device_config_string,
  85:project/src/winusb_desc.c **** #if (USBD_SUPPORT_WINUSB == 1)
  86:project/src/winusb_desc.c ****   get_device_winusb_os_string,
  87:project/src/winusb_desc.c ****   get_device_winusb_os_feature,
ARM GAS  C:\Users\10963\AppData\Local\Temp\ccq82mC1.s 			page 3


  88:project/src/winusb_desc.c ****   get_device_winusb_os_property
  89:project/src/winusb_desc.c **** #endif
  90:project/src/winusb_desc.c **** };
  91:project/src/winusb_desc.c **** 
  92:project/src/winusb_desc.c **** /**
  93:project/src/winusb_desc.c ****   * @brief usb device standard descriptor
  94:project/src/winusb_desc.c ****   */
  95:project/src/winusb_desc.c **** #if defined ( __ICCARM__ ) /* iar compiler */
  96:project/src/winusb_desc.c ****   #pragma data_alignment=4
  97:project/src/winusb_desc.c **** #endif
  98:project/src/winusb_desc.c **** ALIGNED_HEAD static uint8_t g_usbd_descriptor[USB_DEVICE_DESC_LEN] ALIGNED_TAIL =
  99:project/src/winusb_desc.c **** {
 100:project/src/winusb_desc.c ****   USB_DEVICE_DESC_LEN,                   /* bLength */
 101:project/src/winusb_desc.c ****   USB_DESCIPTOR_TYPE_DEVICE,             /* bDescriptorType */
 102:project/src/winusb_desc.c ****   0x00,                                  /* bcdUSB */
 103:project/src/winusb_desc.c ****   0x02,
 104:project/src/winusb_desc.c ****   0x00,                                  /* bDeviceClass */
 105:project/src/winusb_desc.c ****   0x00,                                  /* bDeviceSubClass */
 106:project/src/winusb_desc.c ****   0x00,                                  /* bDeviceProtocol */
 107:project/src/winusb_desc.c ****   USB_MAX_EP0_SIZE,                      /* bMaxPacketSize */
 108:project/src/winusb_desc.c ****   LBYTE(USBD_WINUSB_VENDOR_ID),          /* idVendor */
 109:project/src/winusb_desc.c ****   HBYTE(USBD_WINUSB_VENDOR_ID),          /* idVendor */
 110:project/src/winusb_desc.c ****   LBYTE(USBD_WINUSB_PRODUCT_ID),         /* idProduct */
 111:project/src/winusb_desc.c ****   HBYTE(USBD_WINUSB_PRODUCT_ID),         /* idProduct */
 112:project/src/winusb_desc.c ****   0x00,                                  /* bcdDevice rel. 2.00 */
 113:project/src/winusb_desc.c ****   0x02,
 114:project/src/winusb_desc.c ****   USB_MFC_STRING,                        /* Index of manufacturer string */
 115:project/src/winusb_desc.c ****   USB_PRODUCT_STRING,                    /* Index of product string */
 116:project/src/winusb_desc.c ****   USB_SERIAL_STRING,                     /* Index of serial number string */
 117:project/src/winusb_desc.c ****   1                                      /* bNumConfigurations */
 118:project/src/winusb_desc.c **** };
 119:project/src/winusb_desc.c **** 
 120:project/src/winusb_desc.c **** /**
 121:project/src/winusb_desc.c ****   * @brief usb configuration standard descriptor
 122:project/src/winusb_desc.c ****   */
 123:project/src/winusb_desc.c **** #if defined ( __ICCARM__ ) /* iar compiler */
 124:project/src/winusb_desc.c ****   #pragma data_alignment=4
 125:project/src/winusb_desc.c **** #endif
 126:project/src/winusb_desc.c **** ALIGNED_HEAD static uint8_t g_usbd_configuration[USBD_WINUSB_CONFIG_DESC_SIZE] ALIGNED_TAIL =
 127:project/src/winusb_desc.c **** {
 128:project/src/winusb_desc.c ****   USB_DEVICE_CFG_DESC_LEN,               /* bLength: configuration descriptor size */
 129:project/src/winusb_desc.c ****   USB_DESCIPTOR_TYPE_CONFIGURATION,      /* bDescriptorType: configuration */
 130:project/src/winusb_desc.c ****   LBYTE(USBD_WINUSB_CONFIG_DESC_SIZE),   /* wTotalLength: bytes returned */
 131:project/src/winusb_desc.c ****   HBYTE(USBD_WINUSB_CONFIG_DESC_SIZE),   /* wTotalLength: bytes returned */
 132:project/src/winusb_desc.c ****   0x01,                                  /* bNumInterfaces: 1 interface */
 133:project/src/winusb_desc.c ****   0x01,                                  /* bConfigurationValue: configuration value */
 134:project/src/winusb_desc.c ****   0x00,                                  /* iConfiguration: index of string descriptor describing
 135:project/src/winusb_desc.c ****                                             the configuration */
 136:project/src/winusb_desc.c ****   0xC0,                                  /* bmAttributes: self powered */
 137:project/src/winusb_desc.c ****   0x32,                                  /* MaxPower 100 mA: this current is used for detecting vbu
 138:project/src/winusb_desc.c ****   
 139:project/src/winusb_desc.c ****   USB_DEVICE_IF_DESC_LEN,                /* bLength: interface descriptor size */
 140:project/src/winusb_desc.c ****   USB_DESCIPTOR_TYPE_INTERFACE,          /* bDescriptorType: interface descriptor type */
 141:project/src/winusb_desc.c ****   0x00,                                  /* bInterfaceNumber: number of interface */
 142:project/src/winusb_desc.c ****   0x00,                                  /* bAlternateSetting: alternate set */
 143:project/src/winusb_desc.c ****   0x02,                                  /* bNumEndpoints: number of endpoints */
 144:project/src/winusb_desc.c ****   0xff,                                  /* bInterfaceClass: Vendor specific*/
ARM GAS  C:\Users\10963\AppData\Local\Temp\ccq82mC1.s 			page 4


 145:project/src/winusb_desc.c ****   0x00,                                  /* bInterfaceSubClass: subclass code */
 146:project/src/winusb_desc.c ****   0x00,                                  /* bInterfaceProtocol: protocol code */
 147:project/src/winusb_desc.c ****   0x00,                                  /* iInterface: index of string descriptor */
 148:project/src/winusb_desc.c **** 
 149:project/src/winusb_desc.c ****   USB_DEVICE_EPT_LEN,                    /* bLength: size of endpoint descriptor in bytes */
 150:project/src/winusb_desc.c ****   USB_DESCIPTOR_TYPE_ENDPOINT,           /* bDescriptorType: endpoint descriptor type */
 151:project/src/winusb_desc.c ****   USBD_WINUSB_BULK_OUT_EPT,              /* bEndpointAddress: the address of endpoint on usb device
 152:project/src/winusb_desc.c ****   USB_EPT_DESC_BULK,                     /* bmAttributes: endpoint attributes */
 153:project/src/winusb_desc.c ****   LBYTE(USBD_WINUSB_OUT_MAXPACKET_SIZE),        
 154:project/src/winusb_desc.c ****   HBYTE(USBD_WINUSB_OUT_MAXPACKET_SIZE),    /* wMaxPacketSize: maximum packe size this endpoint */	
 155:project/src/winusb_desc.c ****   0x00,                                  /* bInterval: interval for polling endpoint for data trans
 156:project/src/winusb_desc.c ****   
 157:project/src/winusb_desc.c ****   USB_DEVICE_EPT_LEN,                    /* bLength: size of endpoint descriptor in bytes */
 158:project/src/winusb_desc.c ****   USB_DESCIPTOR_TYPE_ENDPOINT,           /* bDescriptorType: endpoint descriptor type */
 159:project/src/winusb_desc.c ****   USBD_WINUSB_BULK_IN_EPT,                  /* bEndpointAddress: the address of endpoint on usb dev
 160:project/src/winusb_desc.c ****   USB_EPT_DESC_BULK,                     /* bmAttributes: endpoint attributes */	
 161:project/src/winusb_desc.c ****   LBYTE(USBD_WINUSB_IN_MAXPACKET_SIZE),
 162:project/src/winusb_desc.c ****   HBYTE(USBD_WINUSB_IN_MAXPACKET_SIZE),  /* wMaxPacketSize: maximum packe size this endpoint */	
 163:project/src/winusb_desc.c ****   0x00,                                  /* bInterval: interval for polling endpoint for data trans
 164:project/src/winusb_desc.c **** };
 165:project/src/winusb_desc.c **** 
 166:project/src/winusb_desc.c **** /**
 167:project/src/winusb_desc.c ****   * @brief usb string lang id
 168:project/src/winusb_desc.c ****   */
 169:project/src/winusb_desc.c **** #if defined ( __ICCARM__ ) /* iar compiler */
 170:project/src/winusb_desc.c ****   #pragma data_alignment=4
 171:project/src/winusb_desc.c **** #endif
 172:project/src/winusb_desc.c **** ALIGNED_HEAD static uint8_t g_string_lang_id[USBD_WINUSB_SIZ_STRING_LANGID] ALIGNED_TAIL =
 173:project/src/winusb_desc.c **** {
 174:project/src/winusb_desc.c ****   USBD_WINUSB_SIZ_STRING_LANGID,
 175:project/src/winusb_desc.c ****   USB_DESCIPTOR_TYPE_STRING,
 176:project/src/winusb_desc.c ****   0x09,
 177:project/src/winusb_desc.c ****   0x04,
 178:project/src/winusb_desc.c **** };
 179:project/src/winusb_desc.c **** 
 180:project/src/winusb_desc.c **** /**
 181:project/src/winusb_desc.c ****   * @brief usb string serial
 182:project/src/winusb_desc.c ****   */
 183:project/src/winusb_desc.c **** #if defined ( __ICCARM__ ) /* iar compiler */
 184:project/src/winusb_desc.c ****   #pragma data_alignment=4
 185:project/src/winusb_desc.c **** #endif
 186:project/src/winusb_desc.c **** ALIGNED_HEAD static uint8_t g_string_serial[USBD_WINUSB_SIZ_STRING_SERIAL] ALIGNED_TAIL =
 187:project/src/winusb_desc.c **** {
 188:project/src/winusb_desc.c ****   USBD_WINUSB_SIZ_STRING_SERIAL,
 189:project/src/winusb_desc.c ****   USB_DESCIPTOR_TYPE_STRING,
 190:project/src/winusb_desc.c **** };
 191:project/src/winusb_desc.c **** 
 192:project/src/winusb_desc.c **** 
 193:project/src/winusb_desc.c **** /* device descriptor */
 194:project/src/winusb_desc.c **** static usbd_desc_t device_descriptor =
 195:project/src/winusb_desc.c **** {
 196:project/src/winusb_desc.c ****   USB_DEVICE_DESC_LEN,
 197:project/src/winusb_desc.c ****   g_usbd_descriptor
 198:project/src/winusb_desc.c **** };
 199:project/src/winusb_desc.c **** 
 200:project/src/winusb_desc.c **** /* config descriptor */
 201:project/src/winusb_desc.c **** static usbd_desc_t config_descriptor =
ARM GAS  C:\Users\10963\AppData\Local\Temp\ccq82mC1.s 			page 5


 202:project/src/winusb_desc.c **** {
 203:project/src/winusb_desc.c ****   USBD_WINUSB_CONFIG_DESC_SIZE,
 204:project/src/winusb_desc.c ****   g_usbd_configuration
 205:project/src/winusb_desc.c **** };
 206:project/src/winusb_desc.c **** 
 207:project/src/winusb_desc.c **** /* langid descriptor */
 208:project/src/winusb_desc.c **** static usbd_desc_t langid_descriptor =
 209:project/src/winusb_desc.c **** {
 210:project/src/winusb_desc.c ****   USBD_WINUSB_SIZ_STRING_LANGID,
 211:project/src/winusb_desc.c ****   g_string_lang_id
 212:project/src/winusb_desc.c **** };
 213:project/src/winusb_desc.c **** 
 214:project/src/winusb_desc.c **** /* serial descriptor */
 215:project/src/winusb_desc.c **** static usbd_desc_t serial_descriptor =
 216:project/src/winusb_desc.c **** {
 217:project/src/winusb_desc.c ****   USBD_WINUSB_SIZ_STRING_SERIAL,
 218:project/src/winusb_desc.c ****   g_string_serial
 219:project/src/winusb_desc.c **** };
 220:project/src/winusb_desc.c **** 
 221:project/src/winusb_desc.c **** static usbd_desc_t vp_desc;
 222:project/src/winusb_desc.c **** 
 223:project/src/winusb_desc.c **** /**
 224:project/src/winusb_desc.c ****   * @brief  standard usb unicode convert
 225:project/src/winusb_desc.c ****   * @param  string: source string
 226:project/src/winusb_desc.c ****   * @param  unicode_buf: unicode buffer
 227:project/src/winusb_desc.c ****   * @retval length
 228:project/src/winusb_desc.c ****   */
 229:project/src/winusb_desc.c **** static uint16_t usbd_unicode_convert(uint8_t *string, uint8_t *unicode_buf)
 230:project/src/winusb_desc.c **** {
  29              		.loc 1 230 1 view -0
  30              		.cfi_startproc
  31              		@ args = 0, pretend = 0, frame = 0
  32              		@ frame_needed = 0, uses_anonymous_args = 0
  33              		.loc 1 230 1 is_stmt 0 view .LVU1
  34 0000 00B5     		push	{lr}
  35              	.LCFI0:
  36              		.cfi_def_cfa_offset 4
  37              		.cfi_offset 14, -4
  38 0002 8E46     		mov	lr, r1
 231:project/src/winusb_desc.c ****   uint16_t str_len = 0, id_pos = 2;
  39              		.loc 1 231 3 is_stmt 1 view .LVU2
  40              	.LVL1:
 232:project/src/winusb_desc.c ****   uint8_t *tmp_str = string;
  41              		.loc 1 232 3 view .LVU3
 233:project/src/winusb_desc.c **** 
 234:project/src/winusb_desc.c ****   while(*tmp_str != '\0')
  42              		.loc 1 234 3 view .LVU4
 231:project/src/winusb_desc.c ****   uint8_t *tmp_str = string;
  43              		.loc 1 231 25 is_stmt 0 view .LVU5
  44 0004 0223     		movs	r3, #2
 231:project/src/winusb_desc.c ****   uint8_t *tmp_str = string;
  45              		.loc 1 231 12 view .LVU6
  46 0006 0022     		movs	r2, #0
  47              		.loc 1 234 8 view .LVU7
  48 0008 0DE0     		b	.L2
  49              	.LVL2:
  50              	.L3:
ARM GAS  C:\Users\10963\AppData\Local\Temp\ccq82mC1.s 			page 6


 235:project/src/winusb_desc.c ****   {
 236:project/src/winusb_desc.c ****     str_len ++;
  51              		.loc 1 236 5 is_stmt 1 view .LVU8
  52              		.loc 1 236 13 is_stmt 0 view .LVU9
  53 000a 0132     		adds	r2, r2, #1
  54              	.LVL3:
  55              		.loc 1 236 13 view .LVU10
  56 000c 92B2     		uxth	r2, r2
  57              	.LVL4:
 237:project/src/winusb_desc.c ****     unicode_buf[id_pos ++] = *tmp_str ++;
  58              		.loc 1 237 5 is_stmt 1 view .LVU11
  59              		.loc 1 237 39 is_stmt 0 view .LVU12
  60 000e 0130     		adds	r0, r0, #1
  61              	.LVL5:
  62              		.loc 1 237 24 view .LVU13
  63 0010 03F1010C 		add	ip, r3, #1
  64 0014 1FFA8CFC 		uxth	ip, ip
  65              	.LVL6:
  66              		.loc 1 237 28 view .LVU14
  67 0018 0EF80310 		strb	r1, [lr, r3]
 238:project/src/winusb_desc.c ****     unicode_buf[id_pos ++] = 0x00;
  68              		.loc 1 238 5 is_stmt 1 view .LVU15
  69              		.loc 1 238 24 is_stmt 0 view .LVU16
  70 001c 0233     		adds	r3, r3, #2
  71 001e 9BB2     		uxth	r3, r3
  72              	.LVL7:
  73              		.loc 1 238 28 view .LVU17
  74 0020 0021     		movs	r1, #0
  75 0022 0EF80C10 		strb	r1, [lr, ip]
  76              	.LVL8:
  77              	.L2:
 234:project/src/winusb_desc.c ****   {
  78              		.loc 1 234 18 is_stmt 1 view .LVU18
 234:project/src/winusb_desc.c ****   {
  79              		.loc 1 234 9 is_stmt 0 view .LVU19
  80 0026 0178     		ldrb	r1, [r0]	@ zero_extendqisi2
 234:project/src/winusb_desc.c ****   {
  81              		.loc 1 234 18 view .LVU20
  82 0028 0029     		cmp	r1, #0
  83 002a EED1     		bne	.L3
 239:project/src/winusb_desc.c ****   }
 240:project/src/winusb_desc.c **** 
 241:project/src/winusb_desc.c ****   str_len = str_len * 2 + 2;
  84              		.loc 1 241 3 is_stmt 1 view .LVU21
  85              		.loc 1 241 11 is_stmt 0 view .LVU22
  86 002c 0132     		adds	r2, r2, #1
  87              	.LVL9:
  88              		.loc 1 241 11 view .LVU23
  89 002e 92B2     		uxth	r2, r2
  90              	.LVL10:
  91              		.loc 1 241 11 view .LVU24
  92 0030 5200     		lsls	r2, r2, #1
  93 0032 90B2     		uxth	r0, r2
  94              	.LVL11:
 242:project/src/winusb_desc.c ****   unicode_buf[0] = (uint8_t)str_len;
  95              		.loc 1 242 3 is_stmt 1 view .LVU25
  96              		.loc 1 242 18 is_stmt 0 view .LVU26
ARM GAS  C:\Users\10963\AppData\Local\Temp\ccq82mC1.s 			page 7


  97 0034 8EF80020 		strb	r2, [lr]
 243:project/src/winusb_desc.c ****   unicode_buf[1] = USB_DESCIPTOR_TYPE_STRING;
  98              		.loc 1 243 3 is_stmt 1 view .LVU27
  99              		.loc 1 243 18 is_stmt 0 view .LVU28
 100 0038 0323     		movs	r3, #3
 101              	.LVL12:
 102              		.loc 1 243 18 view .LVU29
 103 003a 8EF80130 		strb	r3, [lr, #1]
 244:project/src/winusb_desc.c **** 
 245:project/src/winusb_desc.c ****   return str_len;
 104              		.loc 1 245 3 is_stmt 1 view .LVU30
 246:project/src/winusb_desc.c **** }
 105              		.loc 1 246 1 is_stmt 0 view .LVU31
 106 003e 00BD     		pop	{pc}
 107              		.cfi_endproc
 108              	.LFE137:
 110              		.section	.text.usbd_int_to_unicode,"ax",%progbits
 111              		.align	1
 112              		.syntax unified
 113              		.thumb
 114              		.thumb_func
 116              	usbd_int_to_unicode:
 117              	.LVL13:
 118              	.LFB138:
 247:project/src/winusb_desc.c **** 
 248:project/src/winusb_desc.c **** /**
 249:project/src/winusb_desc.c ****   * @brief  usb int convert to unicode
 250:project/src/winusb_desc.c ****   * @param  value: int value
 251:project/src/winusb_desc.c ****   * @param  pbus: unicode buffer
 252:project/src/winusb_desc.c ****   * @param  len: length
 253:project/src/winusb_desc.c ****   * @retval none
 254:project/src/winusb_desc.c ****   */
 255:project/src/winusb_desc.c **** static void usbd_int_to_unicode (uint32_t value , uint8_t *pbuf , uint8_t len)
 256:project/src/winusb_desc.c **** {
 119              		.loc 1 256 1 is_stmt 1 view -0
 120              		.cfi_startproc
 121              		@ args = 0, pretend = 0, frame = 0
 122              		@ frame_needed = 0, uses_anonymous_args = 0
 257:project/src/winusb_desc.c ****   uint8_t idx = 0;
 123              		.loc 1 257 3 view .LVU33
 258:project/src/winusb_desc.c **** 
 259:project/src/winusb_desc.c ****   for( idx = 0 ; idx < len ; idx ++)
 124              		.loc 1 259 3 view .LVU34
 125              		.loc 1 259 12 is_stmt 0 view .LVU35
 126 0000 0023     		movs	r3, #0
 127              	.LVL14:
 128              		.loc 1 259 22 is_stmt 1 discriminator 1 view .LVU36
 129 0002 9342     		cmp	r3, r2
 130 0004 1DD2     		bcs	.L13
 256:project/src/winusb_desc.c ****   uint8_t idx = 0;
 131              		.loc 1 256 1 is_stmt 0 view .LVU37
 132 0006 00B5     		push	{lr}
 133              	.LCFI1:
 134              		.cfi_def_cfa_offset 4
 135              		.cfi_offset 14, -4
 136 0008 10E0     		b	.L9
 137              	.L7:
ARM GAS  C:\Users\10963\AppData\Local\Temp\ccq82mC1.s 			page 8


 260:project/src/winusb_desc.c ****   {
 261:project/src/winusb_desc.c ****     if( ((value >> 28)) < 0xA )
 262:project/src/winusb_desc.c ****     {
 263:project/src/winusb_desc.c ****       pbuf[ 2 * idx] = (value >> 28) + '0';
 264:project/src/winusb_desc.c ****   }
 265:project/src/winusb_desc.c ****   else
 266:project/src/winusb_desc.c ****   {
 267:project/src/winusb_desc.c ****       pbuf[2 * idx] = (value >> 28) + 'A' - 10;
 138              		.loc 1 267 7 is_stmt 1 view .LVU38
 139              		.loc 1 267 43 is_stmt 0 view .LVU39
 140 000a 0CF1370C 		add	ip, ip, #55
 141              		.loc 1 267 21 view .LVU40
 142 000e 01F813C0 		strb	ip, [r1, r3, lsl #1]
 143              	.L8:
 268:project/src/winusb_desc.c ****     }
 269:project/src/winusb_desc.c **** 
 270:project/src/winusb_desc.c ****     value = value << 4;
 144              		.loc 1 270 5 is_stmt 1 view .LVU41
 145              		.loc 1 270 11 is_stmt 0 view .LVU42
 146 0012 0001     		lsls	r0, r0, #4
 147              	.LVL15:
 271:project/src/winusb_desc.c **** 
 272:project/src/winusb_desc.c ****     pbuf[2 * idx + 1] = 0;
 148              		.loc 1 272 5 is_stmt 1 view .LVU43
 149              		.loc 1 272 12 is_stmt 0 view .LVU44
 150 0014 4FEA430C 		lsl	ip, r3, #1
 151              		.loc 1 272 18 view .LVU45
 152 0018 0CF1010C 		add	ip, ip, #1
 153              		.loc 1 272 23 view .LVU46
 154 001c 4FF0000E 		mov	lr, #0
 155 0020 01F80CE0 		strb	lr, [r1, ip]
 259:project/src/winusb_desc.c ****   {
 156              		.loc 1 259 34 is_stmt 1 discriminator 2 view .LVU47
 157 0024 0133     		adds	r3, r3, #1
 158              	.LVL16:
 259:project/src/winusb_desc.c ****   {
 159              		.loc 1 259 34 is_stmt 0 discriminator 2 view .LVU48
 160 0026 DBB2     		uxtb	r3, r3
 161              	.LVL17:
 259:project/src/winusb_desc.c ****   {
 162              		.loc 1 259 22 is_stmt 1 discriminator 1 view .LVU49
 163 0028 9342     		cmp	r3, r2
 164 002a 09D2     		bcs	.L14
 165              	.L9:
 261:project/src/winusb_desc.c ****     {
 166              		.loc 1 261 5 view .LVU50
 261:project/src/winusb_desc.c ****     {
 167              		.loc 1 261 17 is_stmt 0 view .LVU51
 168 002c 4FEA107C 		lsr	ip, r0, #28
 261:project/src/winusb_desc.c ****     {
 169              		.loc 1 261 7 view .LVU52
 170 0030 B0F1204F 		cmp	r0, #-1610612736
 171 0034 E9D2     		bcs	.L7
 263:project/src/winusb_desc.c ****   }
 172              		.loc 1 263 7 is_stmt 1 view .LVU53
 263:project/src/winusb_desc.c ****   }
 173              		.loc 1 263 38 is_stmt 0 view .LVU54
ARM GAS  C:\Users\10963\AppData\Local\Temp\ccq82mC1.s 			page 9


 174 0036 0CF1300C 		add	ip, ip, #48
 263:project/src/winusb_desc.c ****   }
 175              		.loc 1 263 22 view .LVU55
 176 003a 01F813C0 		strb	ip, [r1, r3, lsl #1]
 177 003e E8E7     		b	.L8
 178              	.L14:
 273:project/src/winusb_desc.c ****   }
 274:project/src/winusb_desc.c **** }
 179              		.loc 1 274 1 view .LVU56
 180 0040 00BD     		pop	{pc}
 181              	.L13:
 182              	.LCFI2:
 183              		.cfi_def_cfa_offset 0
 184              		.cfi_restore 14
 185              		.loc 1 274 1 view .LVU57
 186 0042 7047     		bx	lr
 187              		.cfi_endproc
 188              	.LFE138:
 190              		.section	.text.get_serial_num,"ax",%progbits
 191              		.align	1
 192              		.syntax unified
 193              		.thumb
 194              		.thumb_func
 196              	get_serial_num:
 197              	.LFB139:
 275:project/src/winusb_desc.c **** 
 276:project/src/winusb_desc.c **** /**
 277:project/src/winusb_desc.c ****   * @brief  usb get serial number
 278:project/src/winusb_desc.c ****   * @param  none
 279:project/src/winusb_desc.c ****   * @retval none
 280:project/src/winusb_desc.c ****   */
 281:project/src/winusb_desc.c **** static void get_serial_num(void)
 282:project/src/winusb_desc.c **** {
 198              		.loc 1 282 1 is_stmt 1 view -0
 199              		.cfi_startproc
 200              		@ args = 0, pretend = 0, frame = 0
 201              		@ frame_needed = 0, uses_anonymous_args = 0
 283:project/src/winusb_desc.c ****   uint32_t serial0, serial1, serial2;
 202              		.loc 1 283 3 view .LVU59
 284:project/src/winusb_desc.c **** 
 285:project/src/winusb_desc.c ****   serial0 = *(uint32_t*)MCU_ID1;
 203              		.loc 1 285 3 view .LVU60
 204              		.loc 1 285 11 is_stmt 0 view .LVU61
 205 0000 0B4B     		ldr	r3, .L22
 206 0002 D3F8E807 		ldr	r0, [r3, #2024]
 207              	.LVL18:
 286:project/src/winusb_desc.c ****   serial1 = *(uint32_t*)MCU_ID2;
 208              		.loc 1 286 3 is_stmt 1 view .LVU62
 209              		.loc 1 286 11 is_stmt 0 view .LVU63
 210 0006 D3F8EC27 		ldr	r2, [r3, #2028]
 211              	.LVL19:
 287:project/src/winusb_desc.c ****   serial2 = *(uint32_t*)MCU_ID3;
 212              		.loc 1 287 3 is_stmt 1 view .LVU64
 213              		.loc 1 287 11 is_stmt 0 view .LVU65
 214 000a D3F8F037 		ldr	r3, [r3, #2032]
 215              	.LVL20:
 288:project/src/winusb_desc.c **** 
ARM GAS  C:\Users\10963\AppData\Local\Temp\ccq82mC1.s 			page 10


 289:project/src/winusb_desc.c ****   serial0 += serial2;
 216              		.loc 1 289 3 is_stmt 1 view .LVU66
 290:project/src/winusb_desc.c **** 
 291:project/src/winusb_desc.c ****   if (serial0 != 0)
 217              		.loc 1 291 3 view .LVU67
 218              		.loc 1 291 6 is_stmt 0 view .LVU68
 219 000e C018     		adds	r0, r0, r3
 220              	.LVL21:
 221              		.loc 1 291 6 view .LVU69
 222 0010 00D1     		bne	.L21
 223 0012 7047     		bx	lr
 224              	.L21:
 282:project/src/winusb_desc.c ****   uint32_t serial0, serial1, serial2;
 225              		.loc 1 282 1 view .LVU70
 226 0014 10B5     		push	{r4, lr}
 227              	.LCFI3:
 228              		.cfi_def_cfa_offset 8
 229              		.cfi_offset 4, -8
 230              		.cfi_offset 14, -4
 231 0016 1446     		mov	r4, r2
 292:project/src/winusb_desc.c ****   {
 293:project/src/winusb_desc.c ****     usbd_int_to_unicode (serial0, &g_string_serial[2] ,8);
 232              		.loc 1 293 5 is_stmt 1 view .LVU71
 233 0018 0822     		movs	r2, #8
 234              	.LVL22:
 235              		.loc 1 293 5 is_stmt 0 view .LVU72
 236 001a 0649     		ldr	r1, .L22+4
 237 001c FFF7FEFF 		bl	usbd_int_to_unicode
 238              	.LVL23:
 294:project/src/winusb_desc.c ****     usbd_int_to_unicode (serial1, &g_string_serial[18] ,4);
 239              		.loc 1 294 5 is_stmt 1 view .LVU73
 240 0020 0422     		movs	r2, #4
 241 0022 044B     		ldr	r3, .L22+4
 242 0024 03F11001 		add	r1, r3, #16
 243 0028 2046     		mov	r0, r4
 244 002a FFF7FEFF 		bl	usbd_int_to_unicode
 245              	.LVL24:
 295:project/src/winusb_desc.c ****   }
 296:project/src/winusb_desc.c **** }
 246              		.loc 1 296 1 is_stmt 0 view .LVU74
 247 002e 10BD     		pop	{r4, pc}
 248              	.LVL25:
 249              	.L23:
 250              		.loc 1 296 1 view .LVU75
 251              		.align	2
 252              	.L22:
 253 0030 00F0FF1F 		.word	536866816
 254 0034 02000000 		.word	g_string_serial+2
 255              		.cfi_endproc
 256              	.LFE139:
 258              		.section	.text.get_device_descriptor,"ax",%progbits
 259              		.align	1
 260              		.syntax unified
 261              		.thumb
 262              		.thumb_func
 264              	get_device_descriptor:
 265              	.LFB140:
ARM GAS  C:\Users\10963\AppData\Local\Temp\ccq82mC1.s 			page 11


 297:project/src/winusb_desc.c **** 
 298:project/src/winusb_desc.c **** /**
 299:project/src/winusb_desc.c ****   * @brief  get device descriptor
 300:project/src/winusb_desc.c ****   * @param  none
 301:project/src/winusb_desc.c ****   * @retval usbd_desc
 302:project/src/winusb_desc.c ****   */
 303:project/src/winusb_desc.c **** static usbd_desc_t *get_device_descriptor(void)
 304:project/src/winusb_desc.c **** {
 266              		.loc 1 304 1 is_stmt 1 view -0
 267              		.cfi_startproc
 268              		@ args = 0, pretend = 0, frame = 0
 269              		@ frame_needed = 0, uses_anonymous_args = 0
 270              		@ link register save eliminated.
 305:project/src/winusb_desc.c ****   return &device_descriptor;
 271              		.loc 1 305 3 view .LVU77
 306:project/src/winusb_desc.c **** }
 272              		.loc 1 306 1 is_stmt 0 view .LVU78
 273 0000 0048     		ldr	r0, .L25
 274 0002 7047     		bx	lr
 275              	.L26:
 276              		.align	2
 277              	.L25:
 278 0004 00000000 		.word	device_descriptor
 279              		.cfi_endproc
 280              	.LFE140:
 282              		.section	.text.get_device_qualifier,"ax",%progbits
 283              		.align	1
 284              		.syntax unified
 285              		.thumb
 286              		.thumb_func
 288              	get_device_qualifier:
 289              	.LFB141:
 307:project/src/winusb_desc.c **** 
 308:project/src/winusb_desc.c **** /**
 309:project/src/winusb_desc.c ****   * @brief  get device qualifier
 310:project/src/winusb_desc.c ****   * @param  none
 311:project/src/winusb_desc.c ****   * @retval usbd_desc
 312:project/src/winusb_desc.c ****   */
 313:project/src/winusb_desc.c **** static usbd_desc_t * get_device_qualifier(void)
 314:project/src/winusb_desc.c **** {
 290              		.loc 1 314 1 is_stmt 1 view -0
 291              		.cfi_startproc
 292              		@ args = 0, pretend = 0, frame = 0
 293              		@ frame_needed = 0, uses_anonymous_args = 0
 294              		@ link register save eliminated.
 315:project/src/winusb_desc.c ****   return NULL;
 295              		.loc 1 315 3 view .LVU80
 316:project/src/winusb_desc.c **** }
 296              		.loc 1 316 1 is_stmt 0 view .LVU81
 297 0000 0020     		movs	r0, #0
 298 0002 7047     		bx	lr
 299              		.cfi_endproc
 300              	.LFE141:
 302              		.section	.text.get_device_configuration,"ax",%progbits
 303              		.align	1
 304              		.syntax unified
 305              		.thumb
ARM GAS  C:\Users\10963\AppData\Local\Temp\ccq82mC1.s 			page 12


 306              		.thumb_func
 308              	get_device_configuration:
 309              	.LFB142:
 317:project/src/winusb_desc.c **** 
 318:project/src/winusb_desc.c **** /**
 319:project/src/winusb_desc.c ****   * @brief  get config descriptor
 320:project/src/winusb_desc.c ****   * @param  none
 321:project/src/winusb_desc.c ****   * @retval usbd_desc
 322:project/src/winusb_desc.c ****   */
 323:project/src/winusb_desc.c **** static usbd_desc_t *get_device_configuration(void)
 324:project/src/winusb_desc.c **** {
 310              		.loc 1 324 1 is_stmt 1 view -0
 311              		.cfi_startproc
 312              		@ args = 0, pretend = 0, frame = 0
 313              		@ frame_needed = 0, uses_anonymous_args = 0
 314              		@ link register save eliminated.
 325:project/src/winusb_desc.c ****   return &config_descriptor;
 315              		.loc 1 325 3 view .LVU83
 326:project/src/winusb_desc.c **** }
 316              		.loc 1 326 1 is_stmt 0 view .LVU84
 317 0000 0048     		ldr	r0, .L29
 318 0002 7047     		bx	lr
 319              	.L30:
 320              		.align	2
 321              	.L29:
 322 0004 00000000 		.word	config_descriptor
 323              		.cfi_endproc
 324              	.LFE142:
 326              		.section	.text.get_device_other_speed,"ax",%progbits
 327              		.align	1
 328              		.syntax unified
 329              		.thumb
 330              		.thumb_func
 332              	get_device_other_speed:
 333              	.LFB143:
 327:project/src/winusb_desc.c **** 
 328:project/src/winusb_desc.c **** 
 329:project/src/winusb_desc.c **** /**
 330:project/src/winusb_desc.c ****   * @brief  get other speed descriptor
 331:project/src/winusb_desc.c ****   * @param  none
 332:project/src/winusb_desc.c ****   * @retval usbd_desc
 333:project/src/winusb_desc.c ****   */
 334:project/src/winusb_desc.c **** static usbd_desc_t *get_device_other_speed(void)
 335:project/src/winusb_desc.c **** {
 334              		.loc 1 335 1 is_stmt 1 view -0
 335              		.cfi_startproc
 336              		@ args = 0, pretend = 0, frame = 0
 337              		@ frame_needed = 0, uses_anonymous_args = 0
 338              		@ link register save eliminated.
 336:project/src/winusb_desc.c ****   return NULL;
 339              		.loc 1 336 3 view .LVU86
 337:project/src/winusb_desc.c **** }
 340              		.loc 1 337 1 is_stmt 0 view .LVU87
 341 0000 0020     		movs	r0, #0
 342 0002 7047     		bx	lr
 343              		.cfi_endproc
 344              	.LFE143:
ARM GAS  C:\Users\10963\AppData\Local\Temp\ccq82mC1.s 			page 13


 346              		.section	.text.get_device_lang_id,"ax",%progbits
 347              		.align	1
 348              		.syntax unified
 349              		.thumb
 350              		.thumb_func
 352              	get_device_lang_id:
 353              	.LFB144:
 338:project/src/winusb_desc.c **** 
 339:project/src/winusb_desc.c **** /**
 340:project/src/winusb_desc.c ****   * @brief  get lang id descriptor
 341:project/src/winusb_desc.c ****   * @param  none
 342:project/src/winusb_desc.c ****   * @retval usbd_desc
 343:project/src/winusb_desc.c ****   */
 344:project/src/winusb_desc.c **** static usbd_desc_t *get_device_lang_id(void)
 345:project/src/winusb_desc.c **** {
 354              		.loc 1 345 1 is_stmt 1 view -0
 355              		.cfi_startproc
 356              		@ args = 0, pretend = 0, frame = 0
 357              		@ frame_needed = 0, uses_anonymous_args = 0
 358              		@ link register save eliminated.
 346:project/src/winusb_desc.c ****   return &langid_descriptor;
 359              		.loc 1 346 3 view .LVU89
 347:project/src/winusb_desc.c **** }
 360              		.loc 1 347 1 is_stmt 0 view .LVU90
 361 0000 0048     		ldr	r0, .L33
 362 0002 7047     		bx	lr
 363              	.L34:
 364              		.align	2
 365              	.L33:
 366 0004 00000000 		.word	langid_descriptor
 367              		.cfi_endproc
 368              	.LFE144:
 370              		.section	.rodata.get_device_manufacturer_string.str1.4,"aMS",%progbits,1
 371              		.align	2
 372              	.LC0:
 373 0000 41727465 		.ascii	"Artery\000"
 373      727900
 374              		.section	.text.get_device_manufacturer_string,"ax",%progbits
 375              		.align	1
 376              		.syntax unified
 377              		.thumb
 378              		.thumb_func
 380              	get_device_manufacturer_string:
 381              	.LFB145:
 348:project/src/winusb_desc.c **** 
 349:project/src/winusb_desc.c **** 
 350:project/src/winusb_desc.c **** /**
 351:project/src/winusb_desc.c ****   * @brief  get manufacturer descriptor
 352:project/src/winusb_desc.c ****   * @param  none
 353:project/src/winusb_desc.c ****   * @retval usbd_desc
 354:project/src/winusb_desc.c ****   */
 355:project/src/winusb_desc.c **** static usbd_desc_t *get_device_manufacturer_string(void)
 356:project/src/winusb_desc.c **** {
 382              		.loc 1 356 1 is_stmt 1 view -0
 383              		.cfi_startproc
 384              		@ args = 0, pretend = 0, frame = 0
 385              		@ frame_needed = 0, uses_anonymous_args = 0
ARM GAS  C:\Users\10963\AppData\Local\Temp\ccq82mC1.s 			page 14


 386 0000 10B5     		push	{r4, lr}
 387              	.LCFI4:
 388              		.cfi_def_cfa_offset 8
 389              		.cfi_offset 4, -8
 390              		.cfi_offset 14, -4
 357:project/src/winusb_desc.c ****   vp_desc.length = usbd_unicode_convert((uint8_t *)USBD_WINUSB_DESC_MANUFACTURER_STRING, g_usbd_des
 391              		.loc 1 357 3 view .LVU92
 392              		.loc 1 357 20 is_stmt 0 view .LVU93
 393 0002 054C     		ldr	r4, .L37
 394 0004 2146     		mov	r1, r4
 395 0006 0548     		ldr	r0, .L37+4
 396 0008 FFF7FEFF 		bl	usbd_unicode_convert
 397              	.LVL26:
 398              		.loc 1 357 18 discriminator 1 view .LVU94
 399 000c 044B     		ldr	r3, .L37+8
 400 000e 1880     		strh	r0, [r3]	@ movhi
 358:project/src/winusb_desc.c ****   vp_desc.descriptor = g_usbd_desc_buffer;
 401              		.loc 1 358 3 is_stmt 1 view .LVU95
 402              		.loc 1 358 22 is_stmt 0 view .LVU96
 403 0010 5C60     		str	r4, [r3, #4]
 359:project/src/winusb_desc.c ****   return &vp_desc;
 404              		.loc 1 359 3 is_stmt 1 view .LVU97
 360:project/src/winusb_desc.c **** }
 405              		.loc 1 360 1 is_stmt 0 view .LVU98
 406 0012 1846     		mov	r0, r3
 407 0014 10BD     		pop	{r4, pc}
 408              	.L38:
 409 0016 00BF     		.align	2
 410              	.L37:
 411 0018 00000000 		.word	g_usbd_desc_buffer
 412 001c 00000000 		.word	.LC0
 413 0020 00000000 		.word	vp_desc
 414              		.cfi_endproc
 415              	.LFE145:
 417              		.section	.rodata.get_device_product_string.str1.4,"aMS",%progbits,1
 418              		.align	2
 419              	.LC1:
 420 0000 41543332 		.ascii	"AT32 WinUSB\000"
 420      2057696E 
 420      55534200 
 421              		.section	.text.get_device_product_string,"ax",%progbits
 422              		.align	1
 423              		.syntax unified
 424              		.thumb
 425              		.thumb_func
 427              	get_device_product_string:
 428              	.LFB146:
 361:project/src/winusb_desc.c **** 
 362:project/src/winusb_desc.c **** /**
 363:project/src/winusb_desc.c ****   * @brief  get product descriptor
 364:project/src/winusb_desc.c ****   * @param  none
 365:project/src/winusb_desc.c ****   * @retval usbd_desc
 366:project/src/winusb_desc.c ****   */
 367:project/src/winusb_desc.c **** static usbd_desc_t *get_device_product_string(void)
 368:project/src/winusb_desc.c **** {
 429              		.loc 1 368 1 is_stmt 1 view -0
 430              		.cfi_startproc
ARM GAS  C:\Users\10963\AppData\Local\Temp\ccq82mC1.s 			page 15


 431              		@ args = 0, pretend = 0, frame = 0
 432              		@ frame_needed = 0, uses_anonymous_args = 0
 433 0000 10B5     		push	{r4, lr}
 434              	.LCFI5:
 435              		.cfi_def_cfa_offset 8
 436              		.cfi_offset 4, -8
 437              		.cfi_offset 14, -4
 369:project/src/winusb_desc.c ****   vp_desc.length = usbd_unicode_convert((uint8_t *)USBD_WINUSB_DESC_PRODUCT_STRING, g_usbd_desc_buf
 438              		.loc 1 369 3 view .LVU100
 439              		.loc 1 369 20 is_stmt 0 view .LVU101
 440 0002 054C     		ldr	r4, .L41
 441 0004 2146     		mov	r1, r4
 442 0006 0548     		ldr	r0, .L41+4
 443 0008 FFF7FEFF 		bl	usbd_unicode_convert
 444              	.LVL27:
 445              		.loc 1 369 18 discriminator 1 view .LVU102
 446 000c 044B     		ldr	r3, .L41+8
 447 000e 1880     		strh	r0, [r3]	@ movhi
 370:project/src/winusb_desc.c ****   vp_desc.descriptor = g_usbd_desc_buffer;
 448              		.loc 1 370 3 is_stmt 1 view .LVU103
 449              		.loc 1 370 22 is_stmt 0 view .LVU104
 450 0010 5C60     		str	r4, [r3, #4]
 371:project/src/winusb_desc.c ****   return &vp_desc;
 451              		.loc 1 371 3 is_stmt 1 view .LVU105
 372:project/src/winusb_desc.c **** }
 452              		.loc 1 372 1 is_stmt 0 view .LVU106
 453 0012 1846     		mov	r0, r3
 454 0014 10BD     		pop	{r4, pc}
 455              	.L42:
 456 0016 00BF     		.align	2
 457              	.L41:
 458 0018 00000000 		.word	g_usbd_desc_buffer
 459 001c 00000000 		.word	.LC1
 460 0020 00000000 		.word	vp_desc
 461              		.cfi_endproc
 462              	.LFE146:
 464              		.section	.text.get_device_serial_string,"ax",%progbits
 465              		.align	1
 466              		.syntax unified
 467              		.thumb
 468              		.thumb_func
 470              	get_device_serial_string:
 471              	.LFB147:
 373:project/src/winusb_desc.c **** 
 374:project/src/winusb_desc.c **** /**
 375:project/src/winusb_desc.c ****   * @brief  get serial descriptor
 376:project/src/winusb_desc.c ****   * @param  none
 377:project/src/winusb_desc.c ****   * @retval usbd_desc
 378:project/src/winusb_desc.c ****   */
 379:project/src/winusb_desc.c **** static usbd_desc_t *get_device_serial_string(void)
 380:project/src/winusb_desc.c **** {
 472              		.loc 1 380 1 is_stmt 1 view -0
 473              		.cfi_startproc
 474              		@ args = 0, pretend = 0, frame = 0
 475              		@ frame_needed = 0, uses_anonymous_args = 0
 476 0000 08B5     		push	{r3, lr}
 477              	.LCFI6:
ARM GAS  C:\Users\10963\AppData\Local\Temp\ccq82mC1.s 			page 16


 478              		.cfi_def_cfa_offset 8
 479              		.cfi_offset 3, -8
 480              		.cfi_offset 14, -4
 381:project/src/winusb_desc.c ****   get_serial_num();
 481              		.loc 1 381 3 view .LVU108
 482 0002 FFF7FEFF 		bl	get_serial_num
 483              	.LVL28:
 382:project/src/winusb_desc.c ****   return &serial_descriptor;
 484              		.loc 1 382 3 view .LVU109
 383:project/src/winusb_desc.c **** }
 485              		.loc 1 383 1 is_stmt 0 view .LVU110
 486 0006 0148     		ldr	r0, .L45
 487 0008 08BD     		pop	{r3, pc}
 488              	.L46:
 489 000a 00BF     		.align	2
 490              	.L45:
 491 000c 00000000 		.word	serial_descriptor
 492              		.cfi_endproc
 493              	.LFE147:
 495              		.section	.rodata.get_device_interface_string.str1.4,"aMS",%progbits,1
 496              		.align	2
 497              	.LC2:
 498 0000 57696E55 		.ascii	"WinUSB Interface\000"
 498      53422049 
 498      6E746572 
 498      66616365 
 498      00
 499              		.section	.text.get_device_interface_string,"ax",%progbits
 500              		.align	1
 501              		.syntax unified
 502              		.thumb
 503              		.thumb_func
 505              	get_device_interface_string:
 506              	.LFB148:
 384:project/src/winusb_desc.c **** 
 385:project/src/winusb_desc.c **** /**
 386:project/src/winusb_desc.c ****   * @brief  get interface descriptor
 387:project/src/winusb_desc.c ****   * @param  none
 388:project/src/winusb_desc.c ****   * @retval usbd_desc
 389:project/src/winusb_desc.c ****   */
 390:project/src/winusb_desc.c **** static usbd_desc_t *get_device_interface_string(void)
 391:project/src/winusb_desc.c **** {
 507              		.loc 1 391 1 is_stmt 1 view -0
 508              		.cfi_startproc
 509              		@ args = 0, pretend = 0, frame = 0
 510              		@ frame_needed = 0, uses_anonymous_args = 0
 511 0000 10B5     		push	{r4, lr}
 512              	.LCFI7:
 513              		.cfi_def_cfa_offset 8
 514              		.cfi_offset 4, -8
 515              		.cfi_offset 14, -4
 392:project/src/winusb_desc.c ****   vp_desc.length = usbd_unicode_convert((uint8_t *)USBD_WINUSB_DESC_INTERFACE_STRING, g_usbd_desc_b
 516              		.loc 1 392 3 view .LVU112
 517              		.loc 1 392 20 is_stmt 0 view .LVU113
 518 0002 054C     		ldr	r4, .L49
 519 0004 2146     		mov	r1, r4
 520 0006 0548     		ldr	r0, .L49+4
ARM GAS  C:\Users\10963\AppData\Local\Temp\ccq82mC1.s 			page 17


 521 0008 FFF7FEFF 		bl	usbd_unicode_convert
 522              	.LVL29:
 523              		.loc 1 392 18 discriminator 1 view .LVU114
 524 000c 044B     		ldr	r3, .L49+8
 525 000e 1880     		strh	r0, [r3]	@ movhi
 393:project/src/winusb_desc.c ****   vp_desc.descriptor = g_usbd_desc_buffer;
 526              		.loc 1 393 3 is_stmt 1 view .LVU115
 527              		.loc 1 393 22 is_stmt 0 view .LVU116
 528 0010 5C60     		str	r4, [r3, #4]
 394:project/src/winusb_desc.c ****   return &vp_desc;
 529              		.loc 1 394 3 is_stmt 1 view .LVU117
 395:project/src/winusb_desc.c **** }
 530              		.loc 1 395 1 is_stmt 0 view .LVU118
 531 0012 1846     		mov	r0, r3
 532 0014 10BD     		pop	{r4, pc}
 533              	.L50:
 534 0016 00BF     		.align	2
 535              	.L49:
 536 0018 00000000 		.word	g_usbd_desc_buffer
 537 001c 00000000 		.word	.LC2
 538 0020 00000000 		.word	vp_desc
 539              		.cfi_endproc
 540              	.LFE148:
 542              		.section	.rodata.get_device_config_string.str1.4,"aMS",%progbits,1
 543              		.align	2
 544              	.LC3:
 545 0000 57696E55 		.ascii	"WinUSB Config\000"
 545      53422043 
 545      6F6E6669 
 545      6700
 546              		.section	.text.get_device_config_string,"ax",%progbits
 547              		.align	1
 548              		.syntax unified
 549              		.thumb
 550              		.thumb_func
 552              	get_device_config_string:
 553              	.LFB149:
 396:project/src/winusb_desc.c **** 
 397:project/src/winusb_desc.c **** /**
 398:project/src/winusb_desc.c ****   * @brief  get device config descriptor
 399:project/src/winusb_desc.c ****   * @param  none
 400:project/src/winusb_desc.c ****   * @retval usbd_desc
 401:project/src/winusb_desc.c ****   */
 402:project/src/winusb_desc.c **** static usbd_desc_t *get_device_config_string(void)
 403:project/src/winusb_desc.c **** {
 554              		.loc 1 403 1 is_stmt 1 view -0
 555              		.cfi_startproc
 556              		@ args = 0, pretend = 0, frame = 0
 557              		@ frame_needed = 0, uses_anonymous_args = 0
 558 0000 10B5     		push	{r4, lr}
 559              	.LCFI8:
 560              		.cfi_def_cfa_offset 8
 561              		.cfi_offset 4, -8
 562              		.cfi_offset 14, -4
 404:project/src/winusb_desc.c ****   vp_desc.length = usbd_unicode_convert((uint8_t *)USBD_WINUSB_DESC_CONFIGURATION_STRING, g_usbd_de
 563              		.loc 1 404 3 view .LVU120
 564              		.loc 1 404 20 is_stmt 0 view .LVU121
ARM GAS  C:\Users\10963\AppData\Local\Temp\ccq82mC1.s 			page 18


 565 0002 054C     		ldr	r4, .L53
 566 0004 2146     		mov	r1, r4
 567 0006 0548     		ldr	r0, .L53+4
 568 0008 FFF7FEFF 		bl	usbd_unicode_convert
 569              	.LVL30:
 570              		.loc 1 404 18 discriminator 1 view .LVU122
 571 000c 044B     		ldr	r3, .L53+8
 572 000e 1880     		strh	r0, [r3]	@ movhi
 405:project/src/winusb_desc.c ****   vp_desc.descriptor = g_usbd_desc_buffer;
 573              		.loc 1 405 3 is_stmt 1 view .LVU123
 574              		.loc 1 405 22 is_stmt 0 view .LVU124
 575 0010 5C60     		str	r4, [r3, #4]
 406:project/src/winusb_desc.c ****   return &vp_desc;
 576              		.loc 1 406 3 is_stmt 1 view .LVU125
 407:project/src/winusb_desc.c **** }
 577              		.loc 1 407 1 is_stmt 0 view .LVU126
 578 0012 1846     		mov	r0, r3
 579 0014 10BD     		pop	{r4, pc}
 580              	.L54:
 581 0016 00BF     		.align	2
 582              	.L53:
 583 0018 00000000 		.word	g_usbd_desc_buffer
 584 001c 00000000 		.word	.LC3
 585 0020 00000000 		.word	vp_desc
 586              		.cfi_endproc
 587              	.LFE149:
 589              		.section	.text.get_device_winusb_os_string,"ax",%progbits
 590              		.align	1
 591              		.syntax unified
 592              		.thumb
 593              		.thumb_func
 595              	get_device_winusb_os_string:
 596              	.LFB150:
 408:project/src/winusb_desc.c **** 
 409:project/src/winusb_desc.c **** #if (USBD_SUPPORT_WINUSB == 1)
 410:project/src/winusb_desc.c **** 
 411:project/src/winusb_desc.c **** #define USB_LEN_OS_FEATURE_DESC   0x28
 412:project/src/winusb_desc.c **** #define USB_LEN_OS_PROPERTY_DESC  0x8E
 413:project/src/winusb_desc.c **** 
 414:project/src/winusb_desc.c **** /* os string descriptor fields */
 415:project/src/winusb_desc.c **** const uint8_t winusb_os_string[8] = { 
 416:project/src/winusb_desc.c ****    'M','S','F','T','1','0','0',
 417:project/src/winusb_desc.c ****    WINUSB_BMS_VENDOR_CODE, 
 418:project/src/winusb_desc.c **** };
 419:project/src/winusb_desc.c **** 
 420:project/src/winusb_desc.c **** #define U32TO8C(v) ((v & 0xFF), ((v >> 8) & 0xFF), ((v >> 16) & 0xFF), ((v >> 24) & 0xFF))
 421:project/src/winusb_desc.c **** 
 422:project/src/winusb_desc.c **** #if defined ( __ICCARM__ ) /* iar compiler */
 423:project/src/winusb_desc.c ****   #pragma data_alignment=4
 424:project/src/winusb_desc.c **** #endif
 425:project/src/winusb_desc.c **** ALIGNED_HEAD static uint8_t g_usbd_winusb_os_feature[USB_LEN_OS_FEATURE_DESC] ALIGNED_TAIL =
 426:project/src/winusb_desc.c **** {
 427:project/src/winusb_desc.c ****   USB_LEN_OS_FEATURE_DESC, 0x00, 0x00, 0x00,     /*dwlength: 4 byte*/
 428:project/src/winusb_desc.c ****   0x00, 0x01,                                    /* bcd version 1.0 */
 429:project/src/winusb_desc.c ****   0x04, 0x00,                                    /* windex: extended compat ID descritor*/
 430:project/src/winusb_desc.c ****   0x01,                                          /* bcount the number of custom property sections *
 431:project/src/winusb_desc.c ****   0x00, 0x00, 0x00, 0x00, 0x00, 0x00, 0x00,      /* reserved */
ARM GAS  C:\Users\10963\AppData\Local\Temp\ccq82mC1.s 			page 19


 432:project/src/winusb_desc.c ****   /* function section */
 433:project/src/winusb_desc.c ****   0x00,                                          /* first interface number */
 434:project/src/winusb_desc.c ****   0x00,                                          /* reserved */
 435:project/src/winusb_desc.c ****   'W', 'I', 'N', 'U', 'S', 'B', 0x00, 0x00,      /* 8 byte: the function compatible id */
 436:project/src/winusb_desc.c ****   0x00, 0x00, 0x00, 0x00, 0x00, 0x00, 0x00, 0x00,/* 8 byte: the function subcompatible id */
 437:project/src/winusb_desc.c ****   0x00, 0x00, 0x00, 0x00, 0x00, 0x00             /* reserved 6 bytes */   
 438:project/src/winusb_desc.c **** };
 439:project/src/winusb_desc.c **** 
 440:project/src/winusb_desc.c **** #if defined ( __ICCARM__ ) /* iar compiler */
 441:project/src/winusb_desc.c ****   #pragma data_alignment=4
 442:project/src/winusb_desc.c **** #endif
 443:project/src/winusb_desc.c **** ALIGNED_HEAD static uint8_t g_usbd_winusb_os_property[USB_LEN_OS_PROPERTY_DESC] ALIGNED_TAIL =
 444:project/src/winusb_desc.c **** {
 445:project/src/winusb_desc.c **** 	USB_LEN_OS_PROPERTY_DESC, 0x00, 0x00, 0x00,/* dwlength: 4 byte*/
 446:project/src/winusb_desc.c ****   0x00, 0x01,                                /* bcd version 1.0 */
 447:project/src/winusb_desc.c ****   0x05, 0x00,                                /* property descriptor index(5) */
 448:project/src/winusb_desc.c ****   0x01, 0x00,                                /* wcount: number of section (1) */
 449:project/src/winusb_desc.c ****   
 450:project/src/winusb_desc.c ****   /* custom property section */
 451:project/src/winusb_desc.c ****   0x84, 0x00, 0x00, 0x00,                   /* dwsize: size of property section */
 452:project/src/winusb_desc.c ****   0x01, 0x00, 0x00, 0x00,                   /* property data type */
 453:project/src/winusb_desc.c ****   0x28, 0x00,                               /* property name length */
 454:project/src/winusb_desc.c ****   /* property name: DeviceinterfaceGUID */
 455:project/src/winusb_desc.c ****   'D', 0x00, 'e', 0x00, 'v', 0x00, 'i', 0x00, 'c', 0x00, 'e', 0x00,
 456:project/src/winusb_desc.c ****   'I', 0x00, 'n', 0x00, 't', 0x00, 'e', 0x00, 'r', 0x00, 'f', 0x00,
 457:project/src/winusb_desc.c ****   'a', 0x00, 'c', 0x00, 'e', 0x00, 'G', 0x00, 'U', 0x00, 'I', 0x00, 
 458:project/src/winusb_desc.c ****   'D', 0x00, 0x00, 0x00,
 459:project/src/winusb_desc.c ****   
 460:project/src/winusb_desc.c ****   0x4E, 0x00, 0x00, 0x00, /* property data length */
 461:project/src/winusb_desc.c ****   /*property data: {13eb360b-bc1e-46cb-ac8b-ef3da47b4062} */
 462:project/src/winusb_desc.c ****   '{', 0x00, '1', 0x00, '3', 0x00, 'E', 0x00, 'B', 0x00, '3', 0x00,
 463:project/src/winusb_desc.c ****   '6', 0x00, '0', 0x00, 'B', 0x00, '-', 0x00, 'B', 0x00, 'C', 0x00,
 464:project/src/winusb_desc.c ****   '1', 0x00, 'E', 0x00, '-', 0x00, '4', 0x00, '6', 0x00, 'C', 0x00,
 465:project/src/winusb_desc.c ****   'B', 0x00, '-', 0x00, 'A', 0x00, 'C', 0x00, '8', 0x00, 'B', 0x00,
 466:project/src/winusb_desc.c ****   '-', 0x00, 'E', 0x00, 'F', 0x00, '3', 0x00, 'D', 0x00, 'A', 0x00,
 467:project/src/winusb_desc.c ****   '4', 0x00, '7', 0x00, 'B', 0x00, '4', 0x00, '0', 0x00, '6', 0x00,
 468:project/src/winusb_desc.c ****   '2', 0x00, '}', 0x00, 0x00, 0x00
 469:project/src/winusb_desc.c **** };
 470:project/src/winusb_desc.c **** 
 471:project/src/winusb_desc.c **** static usbd_desc_t winusb_os_feature_descriptor =
 472:project/src/winusb_desc.c **** {
 473:project/src/winusb_desc.c ****   USB_LEN_OS_FEATURE_DESC,
 474:project/src/winusb_desc.c ****   g_usbd_winusb_os_feature
 475:project/src/winusb_desc.c **** };
 476:project/src/winusb_desc.c **** 
 477:project/src/winusb_desc.c **** static usbd_desc_t winusb_os_property_descriptor =
 478:project/src/winusb_desc.c **** {
 479:project/src/winusb_desc.c ****   USB_LEN_OS_PROPERTY_DESC,
 480:project/src/winusb_desc.c ****   g_usbd_winusb_os_property
 481:project/src/winusb_desc.c **** };
 482:project/src/winusb_desc.c **** 
 483:project/src/winusb_desc.c **** /**
 484:project/src/winusb_desc.c ****   * @brief  get winusb os sring
 485:project/src/winusb_desc.c ****   * @param  none
 486:project/src/winusb_desc.c ****   * @retval usbd_desc
 487:project/src/winusb_desc.c ****   */
 488:project/src/winusb_desc.c **** static usbd_desc_t *get_device_winusb_os_string(void)
ARM GAS  C:\Users\10963\AppData\Local\Temp\ccq82mC1.s 			page 20


 489:project/src/winusb_desc.c **** {
 597              		.loc 1 489 1 is_stmt 1 view -0
 598              		.cfi_startproc
 599              		@ args = 0, pretend = 0, frame = 0
 600              		@ frame_needed = 0, uses_anonymous_args = 0
 601 0000 10B5     		push	{r4, lr}
 602              	.LCFI9:
 603              		.cfi_def_cfa_offset 8
 604              		.cfi_offset 4, -8
 605              		.cfi_offset 14, -4
 490:project/src/winusb_desc.c **** 	vp_desc.length = usbd_unicode_convert((uint8_t *)winusb_os_string, g_usbd_desc_buffer);
 606              		.loc 1 490 2 view .LVU128
 607              		.loc 1 490 19 is_stmt 0 view .LVU129
 608 0002 054C     		ldr	r4, .L57
 609 0004 2146     		mov	r1, r4
 610 0006 0548     		ldr	r0, .L57+4
 611 0008 FFF7FEFF 		bl	usbd_unicode_convert
 612              	.LVL31:
 613              		.loc 1 490 17 discriminator 1 view .LVU130
 614 000c 044B     		ldr	r3, .L57+8
 615 000e 1880     		strh	r0, [r3]	@ movhi
 491:project/src/winusb_desc.c ****   vp_desc.descriptor = g_usbd_desc_buffer;
 616              		.loc 1 491 3 is_stmt 1 view .LVU131
 617              		.loc 1 491 22 is_stmt 0 view .LVU132
 618 0010 5C60     		str	r4, [r3, #4]
 492:project/src/winusb_desc.c ****   return &vp_desc;
 619              		.loc 1 492 3 is_stmt 1 view .LVU133
 493:project/src/winusb_desc.c **** }
 620              		.loc 1 493 1 is_stmt 0 view .LVU134
 621 0012 1846     		mov	r0, r3
 622 0014 10BD     		pop	{r4, pc}
 623              	.L58:
 624 0016 00BF     		.align	2
 625              	.L57:
 626 0018 00000000 		.word	g_usbd_desc_buffer
 627 001c 00000000 		.word	winusb_os_string
 628 0020 00000000 		.word	vp_desc
 629              		.cfi_endproc
 630              	.LFE150:
 632              		.section	.text.get_device_winusb_os_feature,"ax",%progbits
 633              		.align	1
 634              		.syntax unified
 635              		.thumb
 636              		.thumb_func
 638              	get_device_winusb_os_feature:
 639              	.LFB151:
 494:project/src/winusb_desc.c **** 
 495:project/src/winusb_desc.c **** /**
 496:project/src/winusb_desc.c ****   * @brief  get winusb os feature
 497:project/src/winusb_desc.c ****   * @param  none
 498:project/src/winusb_desc.c ****   * @retval usbd_desc
 499:project/src/winusb_desc.c ****   */
 500:project/src/winusb_desc.c **** static usbd_desc_t *get_device_winusb_os_feature(void)
 501:project/src/winusb_desc.c **** {
 640              		.loc 1 501 1 is_stmt 1 view -0
 641              		.cfi_startproc
 642              		@ args = 0, pretend = 0, frame = 0
ARM GAS  C:\Users\10963\AppData\Local\Temp\ccq82mC1.s 			page 21


 643              		@ frame_needed = 0, uses_anonymous_args = 0
 644              		@ link register save eliminated.
 502:project/src/winusb_desc.c **** 	return &winusb_os_feature_descriptor;
 645              		.loc 1 502 2 view .LVU136
 503:project/src/winusb_desc.c **** }
 646              		.loc 1 503 1 is_stmt 0 view .LVU137
 647 0000 0048     		ldr	r0, .L60
 648 0002 7047     		bx	lr
 649              	.L61:
 650              		.align	2
 651              	.L60:
 652 0004 00000000 		.word	winusb_os_feature_descriptor
 653              		.cfi_endproc
 654              	.LFE151:
 656              		.section	.text.get_device_winusb_os_property,"ax",%progbits
 657              		.align	1
 658              		.syntax unified
 659              		.thumb
 660              		.thumb_func
 662              	get_device_winusb_os_property:
 663              	.LFB152:
 504:project/src/winusb_desc.c **** 
 505:project/src/winusb_desc.c **** /**
 506:project/src/winusb_desc.c ****   * @brief  get winusb os property
 507:project/src/winusb_desc.c ****   * @param  none
 508:project/src/winusb_desc.c ****   * @retval usbd_desc
 509:project/src/winusb_desc.c ****   */
 510:project/src/winusb_desc.c **** static usbd_desc_t *get_device_winusb_os_property(void)
 511:project/src/winusb_desc.c **** {
 664              		.loc 1 511 1 is_stmt 1 view -0
 665              		.cfi_startproc
 666              		@ args = 0, pretend = 0, frame = 0
 667              		@ frame_needed = 0, uses_anonymous_args = 0
 668              		@ link register save eliminated.
 512:project/src/winusb_desc.c **** 	return &winusb_os_property_descriptor;
 669              		.loc 1 512 2 view .LVU139
 513:project/src/winusb_desc.c **** }
 670              		.loc 1 513 1 is_stmt 0 view .LVU140
 671 0000 0048     		ldr	r0, .L63
 672 0002 7047     		bx	lr
 673              	.L64:
 674              		.align	2
 675              	.L63:
 676 0004 00000000 		.word	winusb_os_property_descriptor
 677              		.cfi_endproc
 678              	.LFE152:
 680              		.section	.data.winusb_os_property_descriptor,"aw"
 681              		.align	2
 684              	winusb_os_property_descriptor:
 685 0000 8E00     		.short	142
 686 0002 0000     		.space	2
 687 0004 00000000 		.word	g_usbd_winusb_os_property
 688              		.section	.data.winusb_os_feature_descriptor,"aw"
 689              		.align	2
 692              	winusb_os_feature_descriptor:
 693 0000 2800     		.short	40
 694 0002 0000     		.space	2
ARM GAS  C:\Users\10963\AppData\Local\Temp\ccq82mC1.s 			page 22


 695 0004 00000000 		.word	g_usbd_winusb_os_feature
 696              		.section	.data.g_usbd_winusb_os_property,"aw"
 697              		.align	2
 700              	g_usbd_winusb_os_property:
 701 0000 8E000000 		.ascii	"\216\000\000\000\000\001\005\000\001\000\204\000\000"
 701      00010500 
 701      01008400 
 701      00
 702 000d 00010000 		.ascii	"\000\001\000\000\000(\000D\000e\000v\000i\000c\000e"
 702      00280044 
 702      00650076 
 702      00690063 
 702      0065
 703 001f 0049006E 		.ascii	"\000I\000n\000t\000e\000r\000f\000a\000c\000e\000G\000"
 703      00740065 
 703      00720066 
 703      00610063 
 703      00650047 
 704 0034 55004900 		.ascii	"U\000I\000D\000\000\000N\000\000\000{\0001\0003\000"
 704      44000000 
 704      4E000000 
 704      7B003100 
 704      3300
 705 0046 45004200 		.ascii	"E\000B\0003\0006\0000\000B\000-\000B\000C\0001\000E"
 705      33003600 
 705      30004200 
 705      2D004200 
 705      43003100 
 706 005b 002D0034 		.ascii	"\000-\0004\0006\000C\000B\000-\000A\000C\0008\000B\000"
 706      00360043 
 706      0042002D 
 706      00410043 
 706      00380042 
 707 0070 2D004500 		.ascii	"-\000E\000F\0003\000D\000A\0004\0007\000B\0004\0000"
 707      46003300 
 707      44004100 
 707      34003700 
 707      42003400 
 708 0085 00360032 		.ascii	"\0006\0002\000}\000\000\000"
 708      007D0000 
 708      00
 709              		.section	.data.g_usbd_winusb_os_feature,"aw"
 710              		.align	2
 713              	g_usbd_winusb_os_feature:
 714 0000 28000000 		.ascii	"(\000\000\000\000\001\004\000\001\000\000\000\000\000"
 714      00010400 
 714      01000000 
 714      0000
 715 000e 00000000 		.ascii	"\000\000\000\000WINUSB\000\000\000\000\000\000\000\000"
 715      57494E55 
 715      53420000 
 715      00000000 
 715      0000
 716 0020 00000000 		.ascii	"\000\000\000\000\000\000\000\000"
 716      00000000 
 717              		.global	winusb_os_string
 718              		.section	.rodata.winusb_os_string,"a"
ARM GAS  C:\Users\10963\AppData\Local\Temp\ccq82mC1.s 			page 23


 719              		.align	2
 722              	winusb_os_string:
 723 0000 4D534654 		.ascii	"MSFT100\240"
 723      313030A0 
 724              		.section	.bss.vp_desc,"aw",%nobits
 725              		.align	2
 728              	vp_desc:
 729 0000 00000000 		.space	8
 729      00000000 
 730              		.section	.data.serial_descriptor,"aw"
 731              		.align	2
 734              	serial_descriptor:
 735 0000 1A00     		.short	26
 736 0002 0000     		.space	2
 737 0004 00000000 		.word	g_string_serial
 738              		.section	.data.langid_descriptor,"aw"
 739              		.align	2
 742              	langid_descriptor:
 743 0000 0400     		.short	4
 744 0002 0000     		.space	2
 745 0004 00000000 		.word	g_string_lang_id
 746              		.section	.data.config_descriptor,"aw"
 747              		.align	2
 750              	config_descriptor:
 751 0000 2000     		.short	32
 752 0002 0000     		.space	2
 753 0004 00000000 		.word	g_usbd_configuration
 754              		.section	.data.device_descriptor,"aw"
 755              		.align	2
 758              	device_descriptor:
 759 0000 1200     		.short	18
 760 0002 0000     		.space	2
 761 0004 00000000 		.word	g_usbd_descriptor
 762              		.section	.data.g_string_serial,"aw"
 763              		.align	2
 766              	g_string_serial:
 767 0000 1A0300   		.ascii	"\032\003\000"
 768 0003 00000000 		.space	23
 768      00000000 
 768      00000000 
 768      00000000 
 768      00000000 
 769              		.section	.data.g_string_lang_id,"aw"
 770              		.align	2
 773              	g_string_lang_id:
 774 0000 04030904 		.ascii	"\004\003\011\004"
 775              		.section	.data.g_usbd_configuration,"aw"
 776              		.align	2
 779              	g_usbd_configuration:
 780 0000 09022000 		.ascii	"\011\002 \000\001\001\000\3002\011\004\000\000\002\377"
 780      010100C0 
 780      32090400 
 780      0002FF
 781 000f 00000007 		.ascii	"\000\000\000\007\005\001\002@\000\000\007\005\201\002"
 781      05010240 
 781      00000705 
 781      8102
ARM GAS  C:\Users\10963\AppData\Local\Temp\ccq82mC1.s 			page 24


 782 001d 400000   		.ascii	"@\000\000"
 783              		.section	.data.g_usbd_descriptor,"aw"
 784              		.align	2
 787              	g_usbd_descriptor:
 788 0000 12010002 		.ascii	"\022\001\000\002\000\000\000@<.\200W\000\002\001\002"
 788      00000040 
 788      3C2E8057 
 788      00020102 
 789 0010 0301     		.ascii	"\003\001"
 790              		.global	winusb_desc_handler
 791              		.section	.data.winusb_desc_handler,"aw"
 792              		.align	2
 795              	winusb_desc_handler:
 796 0000 00000000 		.word	get_device_descriptor
 797 0004 00000000 		.word	get_device_qualifier
 798 0008 00000000 		.word	get_device_configuration
 799 000c 00000000 		.word	get_device_other_speed
 800 0010 00000000 		.word	get_device_lang_id
 801 0014 00000000 		.word	get_device_manufacturer_string
 802 0018 00000000 		.word	get_device_product_string
 803 001c 00000000 		.word	get_device_serial_string
 804 0020 00000000 		.word	get_device_interface_string
 805 0024 00000000 		.word	get_device_config_string
 806 0028 00000000 		.word	get_device_winusb_os_string
 807 002c 00000000 		.word	get_device_winusb_os_feature
 808 0030 00000000 		.word	get_device_winusb_os_property
 809              		.section	.bss.g_usbd_desc_buffer,"aw",%nobits
 810              		.align	2
 813              	g_usbd_desc_buffer:
 814 0000 00000000 		.space	256
 814      00000000 
 814      00000000 
 814      00000000 
 814      00000000 
 815              		.text
 816              	.Letext0:
 817              		.file 2 "C:/Program Files (x86)/Arm/GNU Toolchain mingw-w64-i686-arm-none-eabi/arm-none-eabi/inclu
 818              		.file 3 "C:/Program Files (x86)/Arm/GNU Toolchain mingw-w64-i686-arm-none-eabi/arm-none-eabi/inclu
 819              		.file 4 "libraries/drivers/inc/at32f403a_407_tmr.h"
 820              		.file 5 "middlewares/usbd_drivers/inc/usbd_core.h"
 821              		.file 6 "project/inc/winusb_desc.h"
ARM GAS  C:\Users\10963\AppData\Local\Temp\ccq82mC1.s 			page 25

