ARM GAS  C:\Users\10963\AppData\Local\Temp\ccbS2s8E.s 			page 1


   1              		.cpu cortex-m4
   2              		.arch armv7e-m
   3              		.fpu fpv4-sp-d16
   4              		.eabi_attribute 27, 1
   5              		.eabi_attribute 28, 1
   6              		.eabi_attribute 20, 1
   7              		.eabi_attribute 21, 1
   8              		.eabi_attribute 23, 3
   9              		.eabi_attribute 24, 1
  10              		.eabi_attribute 25, 1
  11              		.eabi_attribute 26, 1
  12              		.eabi_attribute 30, 1
  13              		.eabi_attribute 34, 1
  14              		.eabi_attribute 18, 4
  15              		.file	"wk_adc.c"
  16              		.text
  17              	.Ltext0:
  18              		.cfi_sections	.debug_frame
  19              		.file 1 "project/src/wk_adc.c"
  20              		.section	.text.wk_adc1_init,"ax",%progbits
  21              		.align	1
  22              		.global	wk_adc1_init
  23              		.syntax unified
  24              		.thumb
  25              		.thumb_func
  27              	wk_adc1_init:
  28              	.LFB137:
   1:project/src/wk_adc.c **** /* add user code begin Header */
   2:project/src/wk_adc.c **** /**
   3:project/src/wk_adc.c ****   **************************************************************************
   4:project/src/wk_adc.c ****   * @file     wk_adc.c
   5:project/src/wk_adc.c ****   * @brief    work bench config program
   6:project/src/wk_adc.c ****   **************************************************************************
   7:project/src/wk_adc.c ****   * Copyright (c) 2025, Artery Technology, All rights reserved.
   8:project/src/wk_adc.c ****   *
   9:project/src/wk_adc.c ****   * The software Board Support Package (BSP) that is made available to
  10:project/src/wk_adc.c ****   * download from Artery official website is the copyrighted work of Artery.
  11:project/src/wk_adc.c ****   * Artery authorizes customers to use, copy, and distribute the BSP
  12:project/src/wk_adc.c ****   * software and its related documentation for the purpose of design and
  13:project/src/wk_adc.c ****   * development in conjunction with Artery microcontrollers. Use of the
  14:project/src/wk_adc.c ****   * software is governed by this copyright notice and the following disclaimer.
  15:project/src/wk_adc.c ****   *
  16:project/src/wk_adc.c ****   * THIS SOFTWARE IS PROVIDED ON "AS IS" BASIS WITHOUT WARRANTIES,
  17:project/src/wk_adc.c ****   * GUARANTEES OR REPRESENTATIONS OF ANY KIND. ARTERY EXPRESSLY DISCLAIMS,
  18:project/src/wk_adc.c ****   * TO THE FULLEST EXTENT PERMITTED BY LAW, ALL EXPRESS, IMPLIED OR
  19:project/src/wk_adc.c ****   * STATUTORY OR OTHER WARRANTIES, GUARANTEES OR REPRESENTATIONS,
  20:project/src/wk_adc.c ****   * INCLUDING BUT NOT LIMITED TO, THE IMPLIED WARRANTIES OF MERCHANTABILITY,
  21:project/src/wk_adc.c ****   * FITNESS FOR A PARTICULAR PURPOSE, OR NON-INFRINGEMENT.
  22:project/src/wk_adc.c ****   *
  23:project/src/wk_adc.c ****   **************************************************************************
  24:project/src/wk_adc.c ****   */
  25:project/src/wk_adc.c **** /* add user code end Header */
  26:project/src/wk_adc.c **** 
  27:project/src/wk_adc.c **** /* Includes ------------------------------------------------------------------*/
  28:project/src/wk_adc.c **** #include "wk_adc.h"
  29:project/src/wk_adc.c **** 
  30:project/src/wk_adc.c **** /* add user code begin 0 */
ARM GAS  C:\Users\10963\AppData\Local\Temp\ccbS2s8E.s 			page 2


  31:project/src/wk_adc.c **** 
  32:project/src/wk_adc.c **** /* add user code end 0 */
  33:project/src/wk_adc.c **** 
  34:project/src/wk_adc.c **** /**
  35:project/src/wk_adc.c ****   * @brief  init adc1 function.
  36:project/src/wk_adc.c ****   * @param  none
  37:project/src/wk_adc.c ****   * @retval none
  38:project/src/wk_adc.c ****   */
  39:project/src/wk_adc.c **** void wk_adc1_init(void)
  40:project/src/wk_adc.c **** {
  29              		.loc 1 40 1 view -0
  30              		.cfi_startproc
  31              		@ args = 0, pretend = 0, frame = 16
  32              		@ frame_needed = 0, uses_anonymous_args = 0
  33 0000 2DE9F04F 		push	{r4, r5, r6, r7, r8, r9, r10, fp, lr}
  34              	.LCFI0:
  35              		.cfi_def_cfa_offset 36
  36              		.cfi_offset 4, -36
  37              		.cfi_offset 5, -32
  38              		.cfi_offset 6, -28
  39              		.cfi_offset 7, -24
  40              		.cfi_offset 8, -20
  41              		.cfi_offset 9, -16
  42              		.cfi_offset 10, -12
  43              		.cfi_offset 11, -8
  44              		.cfi_offset 14, -4
  45 0004 85B0     		sub	sp, sp, #20
  46              	.LCFI1:
  47              		.cfi_def_cfa_offset 56
  41:project/src/wk_adc.c ****   /* add user code begin adc1_init 0 */
  42:project/src/wk_adc.c **** 
  43:project/src/wk_adc.c ****   /* add user code end adc1_init 0 */
  44:project/src/wk_adc.c **** 
  45:project/src/wk_adc.c ****   gpio_init_type gpio_init_struct;
  48              		.loc 1 45 3 view .LVU1
  46:project/src/wk_adc.c ****   adc_base_config_type adc_base_struct;
  49              		.loc 1 46 3 view .LVU2
  47:project/src/wk_adc.c **** 
  48:project/src/wk_adc.c ****   gpio_default_para_init(&gpio_init_struct);
  50              		.loc 1 48 3 view .LVU3
  51 0006 02AC     		add	r4, sp, #8
  52 0008 2046     		mov	r0, r4
  53 000a FFF7FEFF 		bl	gpio_default_para_init
  54              	.LVL0:
  49:project/src/wk_adc.c **** 
  50:project/src/wk_adc.c ****   /* add user code begin adc1_init 1 */
  51:project/src/wk_adc.c **** 
  52:project/src/wk_adc.c ****   /* add user code end adc1_init 1 */
  53:project/src/wk_adc.c **** 
  54:project/src/wk_adc.c ****   /*gpio--------------------------------------------------------------------*/ 
  55:project/src/wk_adc.c ****   /* configure the IN0 pin */
  56:project/src/wk_adc.c ****   gpio_init_struct.gpio_mode = GPIO_MODE_ANALOG;
  55              		.loc 1 56 3 view .LVU4
  56              		.loc 1 56 30 is_stmt 0 view .LVU5
  57 000e 0327     		movs	r7, #3
  58 0010 8DF80E70 		strb	r7, [sp, #14]
  57:project/src/wk_adc.c ****   gpio_init_struct.gpio_pins = CURR_PHASE_A_PIN;
ARM GAS  C:\Users\10963\AppData\Local\Temp\ccbS2s8E.s 			page 3


  59              		.loc 1 57 3 is_stmt 1 view .LVU6
  60              		.loc 1 57 30 is_stmt 0 view .LVU7
  61 0014 0126     		movs	r6, #1
  62 0016 0296     		str	r6, [sp, #8]
  58:project/src/wk_adc.c ****   gpio_init(CURR_PHASE_A_GPIO_PORT, &gpio_init_struct);
  63              		.loc 1 58 3 is_stmt 1 view .LVU8
  64 0018 434D     		ldr	r5, .L5
  65 001a 2146     		mov	r1, r4
  66 001c 2846     		mov	r0, r5
  67 001e FFF7FEFF 		bl	gpio_init
  68              	.LVL1:
  59:project/src/wk_adc.c **** 
  60:project/src/wk_adc.c ****   /* configure the IN1 pin */
  61:project/src/wk_adc.c ****   gpio_init_struct.gpio_mode = GPIO_MODE_ANALOG;
  69              		.loc 1 61 3 view .LVU9
  70              		.loc 1 61 30 is_stmt 0 view .LVU10
  71 0022 8DF80E70 		strb	r7, [sp, #14]
  62:project/src/wk_adc.c ****   gpio_init_struct.gpio_pins = CURR_PHASE_B_PIN;
  72              		.loc 1 62 3 is_stmt 1 view .LVU11
  73              		.loc 1 62 30 is_stmt 0 view .LVU12
  74 0026 4FF00208 		mov	r8, #2
  75 002a CDF80880 		str	r8, [sp, #8]
  63:project/src/wk_adc.c ****   gpio_init(CURR_PHASE_B_GPIO_PORT, &gpio_init_struct);
  76              		.loc 1 63 3 is_stmt 1 view .LVU13
  77 002e 2146     		mov	r1, r4
  78 0030 2846     		mov	r0, r5
  79 0032 FFF7FEFF 		bl	gpio_init
  80              	.LVL2:
  64:project/src/wk_adc.c **** 
  65:project/src/wk_adc.c ****   /* configure the IN2 pin */
  66:project/src/wk_adc.c ****   gpio_init_struct.gpio_mode = GPIO_MODE_ANALOG;
  81              		.loc 1 66 3 view .LVU14
  82              		.loc 1 66 30 is_stmt 0 view .LVU15
  83 0036 8DF80E70 		strb	r7, [sp, #14]
  67:project/src/wk_adc.c ****   gpio_init_struct.gpio_pins = CURR_PHASE_C_PIN;
  84              		.loc 1 67 3 is_stmt 1 view .LVU16
  85              		.loc 1 67 30 is_stmt 0 view .LVU17
  86 003a 4FF0040A 		mov	r10, #4
  87 003e CDF808A0 		str	r10, [sp, #8]
  68:project/src/wk_adc.c ****   gpio_init(CURR_PHASE_C_GPIO_PORT, &gpio_init_struct);
  88              		.loc 1 68 3 is_stmt 1 view .LVU18
  89 0042 2146     		mov	r1, r4
  90 0044 2846     		mov	r0, r5
  91 0046 FFF7FEFF 		bl	gpio_init
  92              	.LVL3:
  69:project/src/wk_adc.c **** 
  70:project/src/wk_adc.c ****   /* configure the IN3 pin */
  71:project/src/wk_adc.c ****   gpio_init_struct.gpio_mode = GPIO_MODE_ANALOG;
  93              		.loc 1 71 3 view .LVU19
  94              		.loc 1 71 30 is_stmt 0 view .LVU20
  95 004a 8DF80E70 		strb	r7, [sp, #14]
  72:project/src/wk_adc.c ****   gpio_init_struct.gpio_pins = VOLT_BUS_PIN;
  96              		.loc 1 72 3 is_stmt 1 view .LVU21
  97              		.loc 1 72 30 is_stmt 0 view .LVU22
  98 004e 0823     		movs	r3, #8
  99 0050 0293     		str	r3, [sp, #8]
  73:project/src/wk_adc.c ****   gpio_init(VOLT_BUS_GPIO_PORT, &gpio_init_struct);
ARM GAS  C:\Users\10963\AppData\Local\Temp\ccbS2s8E.s 			page 4


 100              		.loc 1 73 3 is_stmt 1 view .LVU23
 101 0052 2146     		mov	r1, r4
 102 0054 2846     		mov	r0, r5
 103 0056 FFF7FEFF 		bl	gpio_init
 104              	.LVL4:
  74:project/src/wk_adc.c **** 
  75:project/src/wk_adc.c ****   /* configure the IN8 pin */
  76:project/src/wk_adc.c ****   gpio_init_struct.gpio_mode = GPIO_MODE_ANALOG;
 105              		.loc 1 76 3 view .LVU24
 106              		.loc 1 76 30 is_stmt 0 view .LVU25
 107 005a 8DF80E70 		strb	r7, [sp, #14]
  77:project/src/wk_adc.c ****   gpio_init_struct.gpio_pins = MOS_TEMP_PIN;
 108              		.loc 1 77 3 is_stmt 1 view .LVU26
 109              		.loc 1 77 30 is_stmt 0 view .LVU27
 110 005e 0296     		str	r6, [sp, #8]
  78:project/src/wk_adc.c ****   gpio_init(MOS_TEMP_GPIO_PORT, &gpio_init_struct);
 111              		.loc 1 78 3 is_stmt 1 view .LVU28
 112 0060 2146     		mov	r1, r4
 113 0062 3248     		ldr	r0, .L5+4
 114 0064 FFF7FEFF 		bl	gpio_init
 115              	.LVL5:
  79:project/src/wk_adc.c **** 
  80:project/src/wk_adc.c ****   adc_reset(ADC1);
 116              		.loc 1 80 3 view .LVU29
 117 0068 314C     		ldr	r4, .L5+8
 118 006a 2046     		mov	r0, r4
 119 006c FFF7FEFF 		bl	adc_reset
 120              	.LVL6:
  81:project/src/wk_adc.c ****   crm_adc_clock_div_set(CRM_ADC_DIV_6);
 121              		.loc 1 81 3 view .LVU30
 122 0070 4046     		mov	r0, r8
 123 0072 FFF7FEFF 		bl	crm_adc_clock_div_set
 124              	.LVL7:
  82:project/src/wk_adc.c **** 
  83:project/src/wk_adc.c ****   /*adc_common_settings-------------------------------------------------------------*/ 
  84:project/src/wk_adc.c ****   adc_combine_mode_select(ADC_INDEPENDENT_MODE);
 125              		.loc 1 84 3 view .LVU31
 126 0076 0020     		movs	r0, #0
 127 0078 FFF7FEFF 		bl	adc_combine_mode_select
 128              	.LVL8:
  85:project/src/wk_adc.c **** 
  86:project/src/wk_adc.c ****   /*adc_settings--------------------------------------------------------------------*/ 
  87:project/src/wk_adc.c ****   adc_base_default_para_init(&adc_base_struct);
 129              		.loc 1 87 3 view .LVU32
 130 007c 0DEB0A0B 		add	fp, sp, r10
 131 0080 5846     		mov	r0, fp
 132 0082 FFF7FEFF 		bl	adc_base_default_para_init
 133              	.LVL9:
  88:project/src/wk_adc.c ****   adc_base_struct.sequence_mode = TRUE;
 134              		.loc 1 88 3 view .LVU33
 135              		.loc 1 88 33 is_stmt 0 view .LVU34
 136 0086 8DF80460 		strb	r6, [sp, #4]
  89:project/src/wk_adc.c ****   adc_base_struct.repeat_mode = FALSE;
 137              		.loc 1 89 3 is_stmt 1 view .LVU35
 138              		.loc 1 89 31 is_stmt 0 view .LVU36
 139 008a 0025     		movs	r5, #0
 140 008c 8DF80550 		strb	r5, [sp, #5]
ARM GAS  C:\Users\10963\AppData\Local\Temp\ccbS2s8E.s 			page 5


  90:project/src/wk_adc.c ****   adc_base_struct.data_align = ADC_RIGHT_ALIGNMENT;
 141              		.loc 1 90 3 is_stmt 1 view .LVU37
 142              		.loc 1 90 30 is_stmt 0 view .LVU38
 143 0090 8DF80650 		strb	r5, [sp, #6]
  91:project/src/wk_adc.c ****   adc_base_struct.ordinary_channel_length = 5;
 144              		.loc 1 91 3 is_stmt 1 view .LVU39
 145              		.loc 1 91 43 is_stmt 0 view .LVU40
 146 0094 4FF00509 		mov	r9, #5
 147 0098 8DF80790 		strb	r9, [sp, #7]
  92:project/src/wk_adc.c ****   adc_base_config(ADC1, &adc_base_struct);
 148              		.loc 1 92 3 is_stmt 1 view .LVU41
 149 009c 5946     		mov	r1, fp
 150 009e 2046     		mov	r0, r4
 151 00a0 FFF7FEFF 		bl	adc_base_config
 152              	.LVL10:
  93:project/src/wk_adc.c **** 
  94:project/src/wk_adc.c ****   /* adc_ordinary_conversionmode-------------------------------------------- */
  95:project/src/wk_adc.c ****   adc_ordinary_channel_set(ADC1, ADC_CHANNEL_0, 1, ADC_SAMPLETIME_1_5);
 153              		.loc 1 95 3 view .LVU42
 154 00a4 2B46     		mov	r3, r5
 155 00a6 3246     		mov	r2, r6
 156 00a8 2946     		mov	r1, r5
 157 00aa 2046     		mov	r0, r4
 158 00ac FFF7FEFF 		bl	adc_ordinary_channel_set
 159              	.LVL11:
  96:project/src/wk_adc.c ****   adc_ordinary_channel_set(ADC1, ADC_CHANNEL_1, 2, ADC_SAMPLETIME_1_5);
 160              		.loc 1 96 3 view .LVU43
 161 00b0 2B46     		mov	r3, r5
 162 00b2 4246     		mov	r2, r8
 163 00b4 3146     		mov	r1, r6
 164 00b6 2046     		mov	r0, r4
 165 00b8 FFF7FEFF 		bl	adc_ordinary_channel_set
 166              	.LVL12:
  97:project/src/wk_adc.c ****   adc_ordinary_channel_set(ADC1, ADC_CHANNEL_2, 3, ADC_SAMPLETIME_1_5);
 167              		.loc 1 97 3 view .LVU44
 168 00bc 2B46     		mov	r3, r5
 169 00be 3A46     		mov	r2, r7
 170 00c0 4146     		mov	r1, r8
 171 00c2 2046     		mov	r0, r4
 172 00c4 FFF7FEFF 		bl	adc_ordinary_channel_set
 173              	.LVL13:
  98:project/src/wk_adc.c ****   adc_ordinary_channel_set(ADC1, ADC_CHANNEL_3, 4, ADC_SAMPLETIME_1_5);
 174              		.loc 1 98 3 view .LVU45
 175 00c8 2B46     		mov	r3, r5
 176 00ca 5246     		mov	r2, r10
 177 00cc 3946     		mov	r1, r7
 178 00ce 2046     		mov	r0, r4
 179 00d0 FFF7FEFF 		bl	adc_ordinary_channel_set
 180              	.LVL14:
  99:project/src/wk_adc.c ****   adc_ordinary_channel_set(ADC1, ADC_CHANNEL_8, 5, ADC_SAMPLETIME_1_5);
 181              		.loc 1 99 3 view .LVU46
 182 00d4 2B46     		mov	r3, r5
 183 00d6 4A46     		mov	r2, r9
 184 00d8 0821     		movs	r1, #8
 185 00da 2046     		mov	r0, r4
 186 00dc FFF7FEFF 		bl	adc_ordinary_channel_set
 187              	.LVL15:
ARM GAS  C:\Users\10963\AppData\Local\Temp\ccbS2s8E.s 			page 6


 100:project/src/wk_adc.c **** 
 101:project/src/wk_adc.c ****   /* When "ADCx_ORDINARY_TRIG_SOFTWARE" is selected, user can only use software trigger. \
 102:project/src/wk_adc.c ****   The software trigger function is adc_ordinary_software_trigger_enable(ADCx, TRUE); */
 103:project/src/wk_adc.c ****   adc_ordinary_conversion_trigger_set(ADC1, ADC12_ORDINARY_TRIG_SOFTWARE, TRUE);
 188              		.loc 1 103 3 view .LVU47
 189 00e0 3246     		mov	r2, r6
 190 00e2 0721     		movs	r1, #7
 191 00e4 2046     		mov	r0, r4
 192 00e6 FFF7FEFF 		bl	adc_ordinary_conversion_trigger_set
 193              	.LVL16:
 104:project/src/wk_adc.c **** 
 105:project/src/wk_adc.c ****   adc_ordinary_part_mode_enable(ADC1, FALSE);
 194              		.loc 1 105 3 view .LVU48
 195 00ea 2946     		mov	r1, r5
 196 00ec 2046     		mov	r0, r4
 197 00ee FFF7FEFF 		bl	adc_ordinary_part_mode_enable
 198              	.LVL17:
 106:project/src/wk_adc.c **** 
 107:project/src/wk_adc.c ****   adc_dma_mode_enable(ADC1, TRUE);
 199              		.loc 1 107 3 view .LVU49
 200 00f2 3146     		mov	r1, r6
 201 00f4 2046     		mov	r0, r4
 202 00f6 FFF7FEFF 		bl	adc_dma_mode_enable
 203              	.LVL18:
 108:project/src/wk_adc.c ****   /* add user code begin adc1_init 2 */
 109:project/src/wk_adc.c **** 
 110:project/src/wk_adc.c ****   /* add user code end adc1_init 2 */
 111:project/src/wk_adc.c ****   
 112:project/src/wk_adc.c ****   adc_enable(ADC1, TRUE);
 204              		.loc 1 112 3 view .LVU50
 205 00fa 3146     		mov	r1, r6
 206 00fc 2046     		mov	r0, r4
 207 00fe FFF7FEFF 		bl	adc_enable
 208              	.LVL19:
 113:project/src/wk_adc.c ****   
 114:project/src/wk_adc.c ****   /* adc calibration-------------------------------------------------------- */
 115:project/src/wk_adc.c ****   adc_calibration_init(ADC1);
 209              		.loc 1 115 3 view .LVU51
 210 0102 2046     		mov	r0, r4
 211 0104 FFF7FEFF 		bl	adc_calibration_init
 212              	.LVL20:
 116:project/src/wk_adc.c ****   while(adc_calibration_init_status_get(ADC1));
 213              		.loc 1 116 3 view .LVU52
 214              	.L2:
 215              		.loc 1 116 9 discriminator 2 view .LVU53
 216 0108 0948     		ldr	r0, .L5+8
 217 010a FFF7FEFF 		bl	adc_calibration_init_status_get
 218              	.LVL21:
 219 010e 0028     		cmp	r0, #0
 220 0110 FAD1     		bne	.L2
 117:project/src/wk_adc.c ****   adc_calibration_start(ADC1);
 221              		.loc 1 117 3 view .LVU54
 222 0112 0748     		ldr	r0, .L5+8
 223 0114 FFF7FEFF 		bl	adc_calibration_start
 224              	.LVL22:
 118:project/src/wk_adc.c ****   while(adc_calibration_status_get(ADC1));
 225              		.loc 1 118 3 view .LVU55
ARM GAS  C:\Users\10963\AppData\Local\Temp\ccbS2s8E.s 			page 7


 226              	.L3:
 227              		.loc 1 118 9 discriminator 2 view .LVU56
 228 0118 0548     		ldr	r0, .L5+8
 229 011a FFF7FEFF 		bl	adc_calibration_status_get
 230              	.LVL23:
 231 011e 0028     		cmp	r0, #0
 232 0120 FAD1     		bne	.L3
 119:project/src/wk_adc.c **** 
 120:project/src/wk_adc.c ****   /* add user code begin adc1_init 3 */
 121:project/src/wk_adc.c **** 
 122:project/src/wk_adc.c ****   /* add user code end adc1_init 3 */
 123:project/src/wk_adc.c **** }
 233              		.loc 1 123 1 is_stmt 0 view .LVU57
 234 0122 05B0     		add	sp, sp, #20
 235              	.LCFI2:
 236              		.cfi_def_cfa_offset 36
 237              		@ sp needed
 238 0124 BDE8F08F 		pop	{r4, r5, r6, r7, r8, r9, r10, fp, pc}
 239              	.L6:
 240              		.align	2
 241              	.L5:
 242 0128 00080140 		.word	1073809408
 243 012c 000C0140 		.word	1073810432
 244 0130 00240140 		.word	1073816576
 245              		.cfi_endproc
 246              	.LFE137:
 248              		.text
 249              	.Letext0:
 250              		.file 2 "C:/Program Files (x86)/Arm/GNU Toolchain mingw-w64-i686-arm-none-eabi/arm-none-eabi/inclu
 251              		.file 3 "C:/Program Files (x86)/Arm/GNU Toolchain mingw-w64-i686-arm-none-eabi/arm-none-eabi/inclu
 252              		.file 4 "libraries/cmsis/cm4/device_support/at32f403a_407.h"
 253              		.file 5 "libraries/drivers/inc/at32f403a_407_adc.h"
 254              		.file 6 "libraries/drivers/inc/at32f403a_407_crm.h"
 255              		.file 7 "libraries/drivers/inc/at32f403a_407_gpio.h"
ARM GAS  C:\Users\10963\AppData\Local\Temp\ccbS2s8E.s 			page 8


DEFINED SYMBOLS
                            *ABS*:00000000 wk_adc.c
C:\Users\10963\AppData\Local\Temp\ccbS2s8E.s:21     .text.wk_adc1_init:00000000 $t
C:\Users\10963\AppData\Local\Temp\ccbS2s8E.s:27     .text.wk_adc1_init:00000000 wk_adc1_init
C:\Users\10963\AppData\Local\Temp\ccbS2s8E.s:242    .text.wk_adc1_init:00000128 $d

UNDEFINED SYMBOLS
gpio_default_para_init
gpio_init
adc_reset
crm_adc_clock_div_set
adc_combine_mode_select
adc_base_default_para_init
adc_base_config
adc_ordinary_channel_set
adc_ordinary_conversion_trigger_set
adc_ordinary_part_mode_enable
adc_dma_mode_enable
adc_enable
adc_calibration_init
adc_calibration_init_status_get
adc_calibration_start
adc_calibration_status_get
