ARM GAS  C:\Users\10963\AppData\Local\Temp\ccfeOXQN.s 			page 1


   1              		.cpu cortex-m4
   2              		.arch armv7e-m
   3              		.fpu fpv4-sp-d16
   4              		.eabi_attribute 27, 1
   5              		.eabi_attribute 28, 1
   6              		.eabi_attribute 20, 1
   7              		.eabi_attribute 21, 1
   8              		.eabi_attribute 23, 3
   9              		.eabi_attribute 24, 1
  10              		.eabi_attribute 25, 1
  11              		.eabi_attribute 26, 1
  12              		.eabi_attribute 30, 1
  13              		.eabi_attribute 34, 1
  14              		.eabi_attribute 18, 4
  15              		.file	"wk_gpio.c"
  16              		.text
  17              	.Ltext0:
  18              		.cfi_sections	.debug_frame
  19              		.file 1 "project/src/wk_gpio.c"
  20              		.section	.text.wk_gpio_config,"ax",%progbits
  21              		.align	1
  22              		.global	wk_gpio_config
  23              		.syntax unified
  24              		.thumb
  25              		.thumb_func
  27              	wk_gpio_config:
  28              	.LFB137:
   1:project/src/wk_gpio.c **** /* add user code begin Header */
   2:project/src/wk_gpio.c **** /**
   3:project/src/wk_gpio.c ****   **************************************************************************
   4:project/src/wk_gpio.c ****   * @file     wk_gpio.c
   5:project/src/wk_gpio.c ****   * @brief    work bench config program
   6:project/src/wk_gpio.c ****   **************************************************************************
   7:project/src/wk_gpio.c ****   * Copyright (c) 2025, Artery Technology, All rights reserved.
   8:project/src/wk_gpio.c ****   *
   9:project/src/wk_gpio.c ****   * The software Board Support Package (BSP) that is made available to
  10:project/src/wk_gpio.c ****   * download from Artery official website is the copyrighted work of Artery.
  11:project/src/wk_gpio.c ****   * Artery authorizes customers to use, copy, and distribute the BSP
  12:project/src/wk_gpio.c ****   * software and its related documentation for the purpose of design and
  13:project/src/wk_gpio.c ****   * development in conjunction with Artery microcontrollers. Use of the
  14:project/src/wk_gpio.c ****   * software is governed by this copyright notice and the following disclaimer.
  15:project/src/wk_gpio.c ****   *
  16:project/src/wk_gpio.c ****   * THIS SOFTWARE IS PROVIDED ON "AS IS" BASIS WITHOUT WARRANTIES,
  17:project/src/wk_gpio.c ****   * GUARANTEES OR REPRESENTATIONS OF ANY KIND. ARTERY EXPRESSLY DISCLAIMS,
  18:project/src/wk_gpio.c ****   * TO THE FULLEST EXTENT PERMITTED BY LAW, ALL EXPRESS, IMPLIED OR
  19:project/src/wk_gpio.c ****   * STATUTORY OR OTHER WARRANTIES, GUARANTEES OR REPRESENTATIONS,
  20:project/src/wk_gpio.c ****   * INCLUDING BUT NOT LIMITED TO, THE IMPLIED WARRANTIES OF MERCHANTABILITY,
  21:project/src/wk_gpio.c ****   * FITNESS FOR A PARTICULAR PURPOSE, OR NON-INFRINGEMENT.
  22:project/src/wk_gpio.c ****   *
  23:project/src/wk_gpio.c ****   **************************************************************************
  24:project/src/wk_gpio.c ****   */
  25:project/src/wk_gpio.c **** /* add user code end Header */
  26:project/src/wk_gpio.c **** 
  27:project/src/wk_gpio.c **** /* Includes ------------------------------------------------------------------*/
  28:project/src/wk_gpio.c **** #include "wk_gpio.h"
  29:project/src/wk_gpio.c **** 
  30:project/src/wk_gpio.c **** /* add user code begin 0 */
ARM GAS  C:\Users\10963\AppData\Local\Temp\ccfeOXQN.s 			page 2


  31:project/src/wk_gpio.c **** 
  32:project/src/wk_gpio.c **** /* add user code end 0 */
  33:project/src/wk_gpio.c **** 
  34:project/src/wk_gpio.c **** /**
  35:project/src/wk_gpio.c ****   * @brief  init gpio_input/gpio_output/gpio_analog/eventout function.
  36:project/src/wk_gpio.c ****   * @param  none
  37:project/src/wk_gpio.c ****   * @retval none
  38:project/src/wk_gpio.c ****   */
  39:project/src/wk_gpio.c **** void wk_gpio_config(void)
  40:project/src/wk_gpio.c **** {
  29              		.loc 1 40 1 view -0
  30              		.cfi_startproc
  31              		@ args = 0, pretend = 0, frame = 8
  32              		@ frame_needed = 0, uses_anonymous_args = 0
  33 0000 30B5     		push	{r4, r5, lr}
  34              	.LCFI0:
  35              		.cfi_def_cfa_offset 12
  36              		.cfi_offset 4, -12
  37              		.cfi_offset 5, -8
  38              		.cfi_offset 14, -4
  39 0002 83B0     		sub	sp, sp, #12
  40              	.LCFI1:
  41              		.cfi_def_cfa_offset 24
  41:project/src/wk_gpio.c ****   /* add user code begin gpio_config 0 */
  42:project/src/wk_gpio.c **** 
  43:project/src/wk_gpio.c ****   /* add user code end gpio_config 0 */
  44:project/src/wk_gpio.c **** 
  45:project/src/wk_gpio.c ****   gpio_init_type gpio_init_struct;
  42              		.loc 1 45 3 view .LVU1
  46:project/src/wk_gpio.c ****   gpio_default_para_init(&gpio_init_struct);
  43              		.loc 1 46 3 view .LVU2
  44 0004 6846     		mov	r0, sp
  45 0006 FFF7FEFF 		bl	gpio_default_para_init
  46              	.LVL0:
  47:project/src/wk_gpio.c **** 
  48:project/src/wk_gpio.c ****   /* add user code begin gpio_config 1 */
  49:project/src/wk_gpio.c **** 
  50:project/src/wk_gpio.c ****   /* add user code end gpio_config 1 */
  51:project/src/wk_gpio.c **** 
  52:project/src/wk_gpio.c ****   /* gpio output config */
  53:project/src/wk_gpio.c ****   gpio_bits_reset(LED_GPIO_PORT, LED_PIN);
  47              		.loc 1 53 3 view .LVU3
  48 000a 0D4C     		ldr	r4, .L3
  49 000c 4FF40051 		mov	r1, #8192
  50 0010 2046     		mov	r0, r4
  51 0012 FFF7FEFF 		bl	gpio_bits_reset
  52              	.LVL1:
  54:project/src/wk_gpio.c **** 
  55:project/src/wk_gpio.c ****   gpio_init_struct.gpio_drive_strength = GPIO_DRIVE_STRENGTH_MODERATE;
  53              		.loc 1 55 3 view .LVU4
  54              		.loc 1 55 40 is_stmt 0 view .LVU5
  55 0016 0223     		movs	r3, #2
  56 0018 8DF80730 		strb	r3, [sp, #7]
  56:project/src/wk_gpio.c ****   gpio_init_struct.gpio_out_type = GPIO_OUTPUT_PUSH_PULL;
  57              		.loc 1 56 3 is_stmt 1 view .LVU6
  58              		.loc 1 56 34 is_stmt 0 view .LVU7
  59 001c 0023     		movs	r3, #0
ARM GAS  C:\Users\10963\AppData\Local\Temp\ccfeOXQN.s 			page 3


  60 001e 8DF80430 		strb	r3, [sp, #4]
  57:project/src/wk_gpio.c ****   gpio_init_struct.gpio_mode = GPIO_MODE_OUTPUT;
  61              		.loc 1 57 3 is_stmt 1 view .LVU8
  62              		.loc 1 57 30 is_stmt 0 view .LVU9
  63 0022 1023     		movs	r3, #16
  64 0024 8DF80630 		strb	r3, [sp, #6]
  58:project/src/wk_gpio.c ****   gpio_init_struct.gpio_pins = LED_PIN;
  65              		.loc 1 58 3 is_stmt 1 view .LVU10
  66              		.loc 1 58 30 is_stmt 0 view .LVU11
  67 0028 4FF40053 		mov	r3, #8192
  68 002c 0093     		str	r3, [sp]
  59:project/src/wk_gpio.c ****   gpio_init_struct.gpio_pull = GPIO_PULL_NONE;
  69              		.loc 1 59 3 is_stmt 1 view .LVU12
  70              		.loc 1 59 30 is_stmt 0 view .LVU13
  71 002e 0423     		movs	r3, #4
  72 0030 8DF80530 		strb	r3, [sp, #5]
  60:project/src/wk_gpio.c ****   gpio_init(LED_GPIO_PORT, &gpio_init_struct);
  73              		.loc 1 60 3 is_stmt 1 view .LVU14
  74 0034 6946     		mov	r1, sp
  75 0036 2046     		mov	r0, r4
  76 0038 FFF7FEFF 		bl	gpio_init
  77              	.LVL2:
  61:project/src/wk_gpio.c **** 
  62:project/src/wk_gpio.c ****   /* add user code begin gpio_config 2 */
  63:project/src/wk_gpio.c **** 
  64:project/src/wk_gpio.c ****   /* add user code end gpio_config 2 */
  65:project/src/wk_gpio.c **** }
  78              		.loc 1 65 1 is_stmt 0 view .LVU15
  79 003c 03B0     		add	sp, sp, #12
  80              	.LCFI2:
  81              		.cfi_def_cfa_offset 12
  82              		@ sp needed
  83 003e 30BD     		pop	{r4, r5, pc}
  84              	.L4:
  85              		.align	2
  86              	.L3:
  87 0040 00100140 		.word	1073811456
  88              		.cfi_endproc
  89              	.LFE137:
  91              		.text
  92              	.Letext0:
  93              		.file 2 "C:/Program Files (x86)/Arm/GNU Toolchain mingw-w64-i686-arm-none-eabi/arm-none-eabi/inclu
  94              		.file 3 "C:/Program Files (x86)/Arm/GNU Toolchain mingw-w64-i686-arm-none-eabi/arm-none-eabi/inclu
  95              		.file 4 "libraries/drivers/inc/at32f403a_407_gpio.h"
ARM GAS  C:\Users\10963\AppData\Local\Temp\ccfeOXQN.s 			page 4

